ARM GAS  /tmp/cceGzvT6.s 			page 1


   1              		.syntax unified
   2              		.cpu cortex-m4
   3              		.eabi_attribute 27, 1
   4              		.eabi_attribute 28, 1
   5              		.fpu fpv4-sp-d16
   6              		.eabi_attribute 20, 1
   7              		.eabi_attribute 21, 1
   8              		.eabi_attribute 23, 3
   9              		.eabi_attribute 24, 1
  10              		.eabi_attribute 25, 1
  11              		.eabi_attribute 26, 1
  12              		.eabi_attribute 30, 2
  13              		.eabi_attribute 34, 1
  14              		.eabi_attribute 18, 4
  15              		.thumb
  16              		.file	"usbh_hid.c"
  17              		.text
  18              	.Ltext0:
  19              		.cfi_sections	.debug_frame
  20              		.align	2
  21              		.p2align 4,,15
  22              		.thumb
  23              		.thumb_func
  24              		.type	USBH_HID_SOFProcess, %function
  25              	USBH_HID_SOFProcess:
  26              	.LFB137:
  27              		.file 1 "./STM32_USB_Host_Library/Class/HID/Src/usbh_hid.c"
  28              		.loc 1 447 0
  29              		.cfi_startproc
  30              		@ args = 0, pretend = 0, frame = 0
  31              		@ frame_needed = 0, uses_anonymous_args = 0
  32              	.LVL0:
  33              		.loc 1 448 0
  34 0000 D0F8A435 		ldr	r3, [r0, #1444]
  35 0004 DB69     		ldr	r3, [r3, #28]
  36              	.LVL1:
  37              		.loc 1 450 0
  38 0006 9A78     		ldrb	r2, [r3, #2]	@ zero_extendqisi2
  39 0008 062A     		cmp	r2, #6
  40 000a 01D0     		beq	.L6
  41              		.loc 1 461 0
  42 000c 0020     		movs	r0, #0
  43              	.LVL2:
  44 000e 7047     		bx	lr
  45              	.LVL3:
  46              	.L6:
  47              		.loc 1 447 0
  48 0010 10B5     		push	{r4, lr}
  49              		.cfi_def_cfa_offset 8
  50              		.cfi_offset 4, -8
  51              		.cfi_offset 14, -4
  52              		.loc 1 452 0
  53 0012 D0F8E825 		ldr	r2, [r0, #1512]
  54 0016 1C6A     		ldr	r4, [r3, #32]
  55 0018 998B     		ldrh	r1, [r3, #28]
  56 001a 121B     		subs	r2, r2, r4
  57 001c 8A42     		cmp	r2, r1
ARM GAS  /tmp/cceGzvT6.s 			page 2


  58 001e 05D3     		bcc	.L2
  59              		.loc 1 454 0
  60 0020 0421     		movs	r1, #4
  61              		.loc 1 456 0
  62 0022 D0F8F805 		ldr	r0, [r0, #1528]
  63              	.LVL4:
  64              		.loc 1 454 0
  65 0026 9970     		strb	r1, [r3, #2]
  66              		.loc 1 456 0
  67 0028 FFF7FEFF 		bl	chEvtSignalI
  68              	.LVL5:
  69              	.L2:
  70              		.loc 1 461 0
  71 002c 0020     		movs	r0, #0
  72 002e 10BD     		pop	{r4, pc}
  73              		.cfi_endproc
  74              	.LFE137:
  75              		.size	USBH_HID_SOFProcess, .-USBH_HID_SOFProcess
  76              		.align	2
  77              		.p2align 4,,15
  78              		.thumb
  79              		.thumb_func
  80              		.type	USBH_HID_InterfaceDeInit, %function
  81              	USBH_HID_InterfaceDeInit:
  82              	.LFB134:
  83              		.loc 1 249 0
  84              		.cfi_startproc
  85              		@ args = 0, pretend = 0, frame = 0
  86              		@ frame_needed = 0, uses_anonymous_args = 0
  87              	.LVL6:
  88 0030 38B5     		push	{r3, r4, r5, lr}
  89              		.cfi_def_cfa_offset 16
  90              		.cfi_offset 3, -16
  91              		.cfi_offset 4, -12
  92              		.cfi_offset 5, -8
  93              		.cfi_offset 14, -4
  94              		.loc 1 250 0
  95 0032 D0F8A435 		ldr	r3, [r0, #1444]
  96 0036 DC69     		ldr	r4, [r3, #28]
  97              	.LVL7:
  98              		.loc 1 252 0
  99 0038 6178     		ldrb	r1, [r4, #1]	@ zero_extendqisi2
 100              		.loc 1 249 0
 101 003a 0546     		mov	r5, r0
 102              		.loc 1 252 0
 103 003c 49B9     		cbnz	r1, .L21
 104              		.loc 1 259 0
 105 003e 2178     		ldrb	r1, [r4]	@ zero_extendqisi2
 106 0040 91B9     		cbnz	r1, .L22
 107              	.LVL8:
 108              	.L9:
 109              		.loc 1 266 0
 110 0042 D5F8A435 		ldr	r3, [r5, #1444]
 111 0046 D869     		ldr	r0, [r3, #28]
 112 0048 08B1     		cbz	r0, .L10
 113              		.loc 1 268 0
 114 004a FFF7FEFF 		bl	fakefree
ARM GAS  /tmp/cceGzvT6.s 			page 3


 115              	.LVL9:
 116              	.L10:
 117              		.loc 1 272 0
 118 004e 0020     		movs	r0, #0
 119 0050 38BD     		pop	{r3, r4, r5, pc}
 120              	.LVL10:
 121              	.L21:
 122              		.loc 1 254 0
 123 0052 FFF7FEFF 		bl	USBH_ClosePipe
 124              	.LVL11:
 125              		.loc 1 255 0
 126 0056 6178     		ldrb	r1, [r4, #1]	@ zero_extendqisi2
 127 0058 2846     		mov	r0, r5
 128 005a FFF7FEFF 		bl	USBH_FreePipe
 129              	.LVL12:
 130              		.loc 1 259 0
 131 005e 2178     		ldrb	r1, [r4]	@ zero_extendqisi2
 132              		.loc 1 256 0
 133 0060 0023     		movs	r3, #0
 134 0062 6370     		strb	r3, [r4, #1]
 135              		.loc 1 259 0
 136 0064 0029     		cmp	r1, #0
 137 0066 ECD0     		beq	.L9
 138              	.L22:
 139              		.loc 1 261 0
 140 0068 2846     		mov	r0, r5
 141 006a FFF7FEFF 		bl	USBH_ClosePipe
 142              	.LVL13:
 143              		.loc 1 262 0
 144 006e 2846     		mov	r0, r5
 145 0070 2178     		ldrb	r1, [r4]	@ zero_extendqisi2
 146 0072 FFF7FEFF 		bl	USBH_FreePipe
 147              	.LVL14:
 148              		.loc 1 263 0
 149 0076 0023     		movs	r3, #0
 150 0078 2370     		strb	r3, [r4]
 151 007a E2E7     		b	.L9
 152              		.cfi_endproc
 153              	.LFE134:
 154              		.size	USBH_HID_InterfaceDeInit, .-USBH_HID_InterfaceDeInit
 155              		.align	2
 156 007c AFF30080 		.p2align 4,,15
 157              		.thumb
 158              		.thumb_func
 159              		.type	USBH_HID_InterfaceInit, %function
 160              	USBH_HID_InterfaceInit:
 161              	.LFB133:
 162              		.loc 1 139 0
 163              		.cfi_startproc
 164              		@ args = 0, pretend = 0, frame = 0
 165              		@ frame_needed = 0, uses_anonymous_args = 0
 166              	.LVL15:
 167 0080 2DE9F043 		push	{r4, r5, r6, r7, r8, r9, lr}
 168              		.cfi_def_cfa_offset 28
 169              		.cfi_offset 4, -28
 170              		.cfi_offset 5, -24
 171              		.cfi_offset 6, -20
ARM GAS  /tmp/cceGzvT6.s 			page 4


 172              		.cfi_offset 7, -16
 173              		.cfi_offset 8, -12
 174              		.cfi_offset 9, -8
 175              		.cfi_offset 14, -4
 176              		.loc 1 147 0
 177 0084 D0F8A415 		ldr	r1, [r0, #1444]
 178              		.loc 1 139 0
 179 0088 85B0     		sub	sp, sp, #20
 180              		.cfi_def_cfa_offset 48
 181              		.loc 1 147 0
 182 008a 0122     		movs	r2, #1
 183 008c FF23     		movs	r3, #255
 184 008e 0979     		ldrb	r1, [r1, #4]	@ zero_extendqisi2
 185              		.loc 1 139 0
 186 0090 0446     		mov	r4, r0
 187              		.loc 1 147 0
 188 0092 FFF7FEFF 		bl	USBH_FindInterface
 189              	.LVL16:
 190              		.loc 1 149 0
 191 0096 FF28     		cmp	r0, #255
 192 0098 21D0     		beq	.L34
 193              		.loc 1 156 0
 194 009a 0146     		mov	r1, r0
 195 009c 2046     		mov	r0, r4
 196              	.LVL17:
 197 009e FFF7FEFF 		bl	USBH_SelectInterface
 198              	.LVL18:
 199              		.loc 1 157 0
 200 00a2 3420     		movs	r0, #52
 201 00a4 D4F8A455 		ldr	r5, [r4, #1444]
 202 00a8 FFF7FEFF 		bl	fakemalloc
 203              	.LVL19:
 204              		.loc 1 158 0
 205 00ac D4F8A435 		ldr	r3, [r4, #1444]
 206              		.loc 1 157 0
 207 00b0 E861     		str	r0, [r5, #28]
 208              		.loc 1 158 0
 209 00b2 DD69     		ldr	r5, [r3, #28]
 210              	.LVL20:
 211              		.loc 1 159 0
 212 00b4 0723     		movs	r3, #7
 213 00b6 AB70     		strb	r3, [r5, #2]
 214              		.loc 1 162 0
 215 00b8 94F81F34 		ldrb	r3, [r4, #1055]	@ zero_extendqisi2
 216 00bc 3A22     		movs	r2, #58
 217 00be 02FB0343 		mla	r3, r2, r3, r4
 218 00c2 93F84334 		ldrb	r3, [r3, #1091]	@ zero_extendqisi2
 219 00c6 012B     		cmp	r3, #1
 220 00c8 0DD0     		beq	.L40
 221              		.loc 1 167 0
 222 00ca 022B     		cmp	r3, #2
 223 00cc 00F08480 		beq	.L41
 224              		.loc 1 174 0
 225 00d0 4448     		ldr	r0, .L43
 226 00d2 FFF7FEFF 		bl	LogTextMessage
 227              	.LVL21:
 228              		.loc 1 175 0
ARM GAS  /tmp/cceGzvT6.s 			page 5


 229 00d6 0220     		movs	r0, #2
 230              		.loc 1 240 0
 231 00d8 05B0     		add	sp, sp, #20
 232              		.cfi_remember_state
 233              		.cfi_def_cfa_offset 28
 234              		@ sp needed
 235 00da BDE8F083 		pop	{r4, r5, r6, r7, r8, r9, pc}
 236              	.LVL22:
 237              	.L34:
 238              		.cfi_restore_state
 239              		.loc 1 151 0
 240 00de 0220     		movs	r0, #2
 241              	.LVL23:
 242              		.loc 1 240 0
 243 00e0 05B0     		add	sp, sp, #20
 244              		.cfi_remember_state
 245              		.cfi_def_cfa_offset 28
 246              		@ sp needed
 247 00e2 BDE8F083 		pop	{r4, r5, r6, r7, r8, r9, pc}
 248              	.LVL24:
 249              	.L40:
 250              		.cfi_restore_state
 251              		.loc 1 164 0
 252 00e6 4048     		ldr	r0, .L43+4
 253 00e8 FFF7FEFF 		bl	LogTextMessage
 254              	.LVL25:
 255              		.loc 1 165 0
 256 00ec 3F4B     		ldr	r3, .L43+8
 257 00ee 2B63     		str	r3, [r5, #48]
 258              	.L26:
 259              		.loc 1 178 0
 260 00f0 0023     		movs	r3, #0
 261 00f2 AB70     		strb	r3, [r5, #2]
 262              		.loc 1 179 0
 263 00f4 6B71     		strb	r3, [r5, #5]
 264              		.loc 1 180 0
 265 00f6 94F81F34 		ldrb	r3, [r4, #1055]	@ zero_extendqisi2
 266 00fa 3A22     		movs	r2, #58
 267 00fc 02FB0343 		mla	r3, r2, r3, r4
 268              		.loc 1 193 0
 269 0100 3A27     		movs	r7, #58
 270              		.loc 1 180 0
 271 0102 93F84834 		ldrb	r3, [r3, #1096]	@ zero_extendqisi2
 272 0106 AB76     		strb	r3, [r5, #26]
 273              		.loc 1 181 0
 274 0108 94F81F34 		ldrb	r3, [r4, #1055]	@ zero_extendqisi2
 275 010c 02FB0343 		mla	r3, r2, r3, r4
 276 0110 B3F84A34 		ldrh	r3, [r3, #1098]
 277 0114 2B83     		strh	r3, [r5, #24]	@ movhi
 278              		.loc 1 182 0
 279 0116 94F81F34 		ldrb	r3, [r4, #1055]	@ zero_extendqisi2
 280 011a 02FB0343 		mla	r3, r2, r3, r4
 281 011e 93F84C34 		ldrb	r3, [r3, #1100]	@ zero_extendqisi2
 282              		.loc 1 184 0
 283 0122 092B     		cmp	r3, #9
 284              		.loc 1 186 0
 285 0124 98BF     		it	ls
ARM GAS  /tmp/cceGzvT6.s 			page 6


 286 0126 0A23     		movls	r3, #10
 287 0128 AB83     		strh	r3, [r5, #28]	@ movhi
 288              		.loc 1 193 0
 289 012a 94F81F34 		ldrb	r3, [r4, #1055]	@ zero_extendqisi2
 290 012e 07FB0342 		mla	r2, r7, r3, r4
 291              		.loc 1 192 0
 292 0132 92F84064 		ldrb	r6, [r2, #1088]	@ zero_extendqisi2
 293 0136 062E     		cmp	r6, #6
 294 0138 28BF     		it	cs
 295 013a 0626     		movcs	r6, #6
 296              	.LVL26:
 297              		.loc 1 198 0
 298 013c 002E     		cmp	r6, #0
 299 013e 47D0     		beq	.L30
 300 0140 4FF00009 		mov	r9, #0
 301              		.loc 1 225 0
 302 0144 4FF00308 		mov	r8, #3
 303 0148 1BE0     		b	.L31
 304              	.LVL27:
 305              	.L32:
 306              		.loc 1 220 0
 307 014a EB70     		strb	r3, [r5, #3]
 308              		.loc 1 222 0
 309 014c FFF7FEFF 		bl	USBH_AllocPipe
 310              	.LVL28:
 311              		.loc 1 221 0
 312 0150 2870     		strb	r0, [r5]
 313              		.loc 1 222 0
 314 0152 0146     		mov	r1, r0
 315              		.loc 1 225 0
 316 0154 94F81D04 		ldrb	r0, [r4, #1053]	@ zero_extendqisi2
 317 0158 94F81C34 		ldrb	r3, [r4, #1052]	@ zero_extendqisi2
 318 015c EA78     		ldrb	r2, [r5, #3]	@ zero_extendqisi2
 319 015e 8DE80101 		stmia	sp, {r0, r8}
 320 0162 288B     		ldrh	r0, [r5, #24]
 321 0164 0290     		str	r0, [sp, #8]
 322 0166 2046     		mov	r0, r4
 323 0168 FFF7FEFF 		bl	USBH_OpenPipe
 324              	.LVL29:
 325              		.loc 1 233 0
 326 016c 2046     		mov	r0, r4
 327 016e 2978     		ldrb	r1, [r5]	@ zero_extendqisi2
 328 0170 0022     		movs	r2, #0
 329 0172 FFF7FEFF 		bl	USBH_LL_SetToggle
 330              	.LVL30:
 331              		.loc 1 198 0
 332 0176 5FFA89F3 		uxtb	r3, r9
 333 017a 9E42     		cmp	r6, r3
 334 017c 28D9     		bls	.L30
 335              	.LVL31:
 336              	.L42:
 337 017e 94F81F34 		ldrb	r3, [r4, #1055]	@ zero_extendqisi2
 338              	.L31:
 339              		.loc 1 200 0
 340 0182 09F10109 		add	r9, r9, #1
 341 0186 07FB03F3 		mul	r3, r7, r3
 342 018a 03EBC903 		add	r3, r3, r9, lsl #3
ARM GAS  /tmp/cceGzvT6.s 			page 7


 343 018e 2344     		add	r3, r3, r4
 344              		.loc 1 222 0
 345 0190 2046     		mov	r0, r4
 346              		.loc 1 200 0
 347 0192 93F84034 		ldrb	r3, [r3, #1088]	@ zero_extendqisi2
 348 0196 1A06     		lsls	r2, r3, #24
 349              		.loc 1 222 0
 350 0198 1946     		mov	r1, r3
 351              		.loc 1 200 0
 352 019a D6D5     		bpl	.L32
 353              	.LVL32:
 354              		.loc 1 202 0
 355 019c 2B71     		strb	r3, [r5, #4]
 356              		.loc 1 204 0
 357 019e FFF7FEFF 		bl	USBH_AllocPipe
 358              	.LVL33:
 359              		.loc 1 203 0
 360 01a2 6870     		strb	r0, [r5, #1]
 361              		.loc 1 204 0
 362 01a4 0146     		mov	r1, r0
 363              		.loc 1 207 0
 364 01a6 94F81D04 		ldrb	r0, [r4, #1053]	@ zero_extendqisi2
 365 01aa 94F81C34 		ldrb	r3, [r4, #1052]	@ zero_extendqisi2
 366 01ae 2A79     		ldrb	r2, [r5, #4]	@ zero_extendqisi2
 367 01b0 8DE80101 		stmia	sp, {r0, r8}
 368 01b4 288B     		ldrh	r0, [r5, #24]
 369 01b6 0290     		str	r0, [sp, #8]
 370 01b8 2046     		mov	r0, r4
 371 01ba FFF7FEFF 		bl	USBH_OpenPipe
 372              	.LVL34:
 373              		.loc 1 215 0
 374 01be 2046     		mov	r0, r4
 375 01c0 6978     		ldrb	r1, [r5, #1]	@ zero_extendqisi2
 376 01c2 0022     		movs	r2, #0
 377 01c4 FFF7FEFF 		bl	USBH_LL_SetToggle
 378              	.LVL35:
 379              		.loc 1 198 0
 380 01c8 5FFA89F3 		uxtb	r3, r9
 381 01cc 9E42     		cmp	r6, r3
 382 01ce D6D8     		bhi	.L42
 383              	.LVL36:
 384              	.L30:
 385              		.loc 1 237 0
 386 01d0 0020     		movs	r0, #0
 387              		.loc 1 240 0
 388 01d2 05B0     		add	sp, sp, #20
 389              		.cfi_remember_state
 390              		.cfi_def_cfa_offset 28
 391              		@ sp needed
 392 01d4 BDE8F083 		pop	{r4, r5, r6, r7, r8, r9, pc}
 393              	.LVL37:
 394              	.L41:
 395              		.cfi_restore_state
 396              		.loc 1 169 0
 397 01d8 0548     		ldr	r0, .L43+12
 398 01da FFF7FEFF 		bl	LogTextMessage
 399              	.LVL38:
ARM GAS  /tmp/cceGzvT6.s 			page 8


 400              		.loc 1 170 0
 401 01de 054B     		ldr	r3, .L43+16
 402 01e0 2B63     		str	r3, [r5, #48]
 403 01e2 85E7     		b	.L26
 404              	.L44:
 405              		.align	2
 406              	.L43:
 407 01e4 2C000000 		.word	.LC2
 408 01e8 00000000 		.word	.LC0
 409 01ec 00000000 		.word	USBH_HID_KeybdInit
 410 01f0 18000000 		.word	.LC1
 411 01f4 00000000 		.word	USBH_HID_MouseInit
 412              		.cfi_endproc
 413              	.LFE133:
 414              		.size	USBH_HID_InterfaceInit, .-USBH_HID_InterfaceInit
 415              		.align	2
 416 01f8 AFF30080 		.p2align 4,,15
 416      AFF30080 
 417              		.thumb
 418              		.thumb_func
 419              		.type	USBH_HID_ClassRequest, %function
 420              	USBH_HID_ClassRequest:
 421              	.LFB135:
 422              		.loc 1 282 0
 423              		.cfi_startproc
 424              		@ args = 0, pretend = 0, frame = 0
 425              		@ frame_needed = 0, uses_anonymous_args = 0
 426              	.LVL39:
 427              		.loc 1 286 0
 428 0200 D0F8A435 		ldr	r3, [r0, #1444]
 429              		.loc 1 282 0
 430 0204 F0B5     		push	{r4, r5, r6, r7, lr}
 431              		.cfi_def_cfa_offset 20
 432              		.cfi_offset 4, -20
 433              		.cfi_offset 5, -16
 434              		.cfi_offset 6, -12
 435              		.cfi_offset 7, -8
 436              		.cfi_offset 14, -4
 437              		.loc 1 286 0
 438 0206 DD69     		ldr	r5, [r3, #28]
 439              	.LVL40:
 440              		.loc 1 289 0
 441 0208 6B79     		ldrb	r3, [r5, #5]	@ zero_extendqisi2
 442              		.loc 1 282 0
 443 020a 83B0     		sub	sp, sp, #12
 444              		.cfi_def_cfa_offset 32
 445              		.loc 1 282 0
 446 020c 0446     		mov	r4, r0
 447              		.loc 1 289 0
 448 020e 052B     		cmp	r3, #5
 449 0210 13D8     		bhi	.L55
 450 0212 DFE803F0 		tbb	[pc, r3]
 451              	.L48:
 452 0216 3C       		.byte	(.L47-.L48)/2
 453 0217 12       		.byte	(.L55-.L48)/2
 454 0218 2C       		.byte	(.L49-.L48)/2
 455 0219 3C       		.byte	(.L47-.L48)/2
ARM GAS  /tmp/cceGzvT6.s 			page 9


 456 021a 03       		.byte	(.L50-.L48)/2
 457 021b 15       		.byte	(.L51-.L48)/2
 458              		.p2align 1
 459              	.L50:
 460              	.LVL41:
 461              	.LBB18:
 462              	.LBB19:
 463              		.loc 1 534 0
 464 021c 0021     		movs	r1, #0
 465              		.loc 1 529 0
 466 021e 2122     		movs	r2, #33
 467              		.loc 1 533 0
 468 0220 0A23     		movs	r3, #10
 469              		.loc 1 529 0
 470 0222 0274     		strb	r2, [r0, #16]
 471              		.loc 1 533 0
 472 0224 4374     		strb	r3, [r0, #17]
 473              		.loc 1 534 0
 474 0226 4182     		strh	r1, [r0, #18]	@ movhi
 475              		.loc 1 536 0
 476 0228 8182     		strh	r1, [r0, #20]	@ movhi
 477              		.loc 1 537 0
 478 022a C182     		strh	r1, [r0, #22]	@ movhi
 479              		.loc 1 539 0
 480 022c 0A46     		mov	r2, r1
 481 022e FFF7FEFF 		bl	USBH_CtlReq
 482              	.LVL42:
 483              	.LBE19:
 484              	.LBE18:
 485              		.loc 1 321 0
 486 0232 0028     		cmp	r0, #0
 487 0234 5DD0     		beq	.L57
 488              		.loc 1 325 0
 489 0236 0328     		cmp	r0, #3
 490 0238 5BD0     		beq	.L57
 491              	.LVL43:
 492              	.L55:
 493              		.loc 1 284 0
 494 023a 0120     		movs	r0, #1
 495              	.LVL44:
 496              	.L46:
 497              		.loc 1 349 0
 498 023c 03B0     		add	sp, sp, #12
 499              		.cfi_remember_state
 500              		.cfi_def_cfa_offset 20
 501              		@ sp needed
 502 023e F0BD     		pop	{r4, r5, r6, r7, pc}
 503              	.LVL45:
 504              	.L51:
 505              		.cfi_restore_state
 506              	.LBB20:
 507              	.LBB21:
 508              		.loc 1 622 0
 509 0240 0021     		movs	r1, #0
 510              		.loc 1 616 0
 511 0242 2122     		movs	r2, #33
 512              		.loc 1 620 0
ARM GAS  /tmp/cceGzvT6.s 			page 10


 513 0244 0B23     		movs	r3, #11
 514              		.loc 1 621 0
 515 0246 0127     		movs	r7, #1
 516              		.loc 1 616 0
 517 0248 0274     		strb	r2, [r0, #16]
 518              		.loc 1 620 0
 519 024a 4374     		strb	r3, [r0, #17]
 520              		.loc 1 621 0
 521 024c 4782     		strh	r7, [r0, #18]	@ movhi
 522              		.loc 1 622 0
 523 024e 8182     		strh	r1, [r0, #20]	@ movhi
 524              		.loc 1 623 0
 525 0250 C182     		strh	r1, [r0, #22]	@ movhi
 526              		.loc 1 625 0
 527 0252 0A46     		mov	r2, r1
 528 0254 FFF7FEFF 		bl	USBH_CtlReq
 529              	.LVL46:
 530              	.LBE21:
 531              	.LBE20:
 532              		.loc 1 333 0
 533 0258 0646     		mov	r6, r0
 534 025a 0028     		cmp	r0, #0
 535 025c EDD1     		bne	.L55
 536              		.loc 1 338 0
 537 025e 2046     		mov	r0, r4
 538              		.loc 1 335 0
 539 0260 6F71     		strb	r7, [r5, #5]
 540              		.loc 1 338 0
 541 0262 D4F8F435 		ldr	r3, [r4, #1524]
 542 0266 0221     		movs	r1, #2
 543 0268 9847     		blx	r3
 544              	.LVL47:
 545              		.loc 1 339 0
 546 026a 3046     		mov	r0, r6
 547 026c E6E7     		b	.L46
 548              	.LVL48:
 549              	.L49:
 550              	.LBB22:
 551              	.LBB23:
 552              		.loc 1 477 0
 553 026e EB8D     		ldrh	r3, [r5, #46]
 554 0270 0093     		str	r3, [sp]
 555              	.LVL49:
 556 0272 0121     		movs	r1, #1
 557 0274 00F50773 		add	r3, r0, #540
 558              	.LVL50:
 559 0278 4FF40852 		mov	r2, #8704
 560 027c FFF7FEFF 		bl	USBH_GetDescriptor
 561              	.LVL51:
 562              	.LBE23:
 563              	.LBE22:
 564              		.loc 1 307 0
 565 0280 0028     		cmp	r0, #0
 566 0282 DAD1     		bne	.L55
 567              		.loc 1 311 0
 568 0284 0423     		movs	r3, #4
 569              		.loc 1 284 0
ARM GAS  /tmp/cceGzvT6.s 			page 11


 570 0286 0120     		movs	r0, #1
 571              	.LVL52:
 572              		.loc 1 311 0
 573 0288 6B71     		strb	r3, [r5, #5]
 574              		.loc 1 349 0
 575 028a 03B0     		add	sp, sp, #12
 576              		.cfi_remember_state
 577              		.cfi_def_cfa_offset 20
 578              		@ sp needed
 579 028c F0BD     		pop	{r4, r5, r6, r7, pc}
 580              	.LVL53:
 581              	.L47:
 582              		.cfi_restore_state
 583              	.LBB24:
 584              	.LBB25:
 585              		.loc 1 507 0
 586 028e 0923     		movs	r3, #9
 587 0290 0093     		str	r3, [sp]
 588 0292 0121     		movs	r1, #1
 589 0294 4FF40452 		mov	r2, #8448
 590 0298 04F50773 		add	r3, r4, #540
 591 029c FFF7FEFF 		bl	USBH_GetDescriptor
 592              	.LVL54:
 593              	.LBE25:
 594              	.LBE24:
 595              		.loc 1 295 0
 596 02a0 0028     		cmp	r0, #0
 597 02a2 CAD1     		bne	.L55
 598              	.LVL55:
 599              	.LBB26:
 600              	.LBB27:
 601              		.loc 1 639 0
 602 02a4 94F81C32 		ldrb	r3, [r4, #540]	@ zero_extendqisi2
 603 02a8 85F82630 		strb	r3, [r5, #38]
 604              		.loc 1 640 0
 605 02ac 94F81D32 		ldrb	r3, [r4, #541]	@ zero_extendqisi2
 606 02b0 85F82730 		strb	r3, [r5, #39]
 607              		.loc 1 641 0
 608 02b4 94F81F22 		ldrb	r2, [r4, #543]	@ zero_extendqisi2
 609 02b8 94F81E32 		ldrb	r3, [r4, #542]	@ zero_extendqisi2
 610 02bc 03EB0223 		add	r3, r3, r2, lsl #8
 611 02c0 2B85     		strh	r3, [r5, #40]	@ movhi
 612              		.loc 1 642 0
 613 02c2 94F82032 		ldrb	r3, [r4, #544]	@ zero_extendqisi2
 614 02c6 85F82A30 		strb	r3, [r5, #42]
 615              		.loc 1 643 0
 616 02ca 94F82132 		ldrb	r3, [r4, #545]	@ zero_extendqisi2
 617 02ce 85F82B30 		strb	r3, [r5, #43]
 618              		.loc 1 644 0
 619 02d2 94F82232 		ldrb	r3, [r4, #546]	@ zero_extendqisi2
 620 02d6 85F82C30 		strb	r3, [r5, #44]
 621              		.loc 1 645 0
 622 02da 94F82412 		ldrb	r1, [r4, #548]	@ zero_extendqisi2
 623 02de 94F82332 		ldrb	r3, [r4, #547]	@ zero_extendqisi2
 624              	.LBE27:
 625              	.LBE26:
 626              		.loc 1 299 0
ARM GAS  /tmp/cceGzvT6.s 			page 12


 627 02e2 0222     		movs	r2, #2
 628              	.LBB30:
 629              	.LBB28:
 630              		.loc 1 645 0
 631 02e4 03EB0123 		add	r3, r3, r1, lsl #8
 632              	.LBE28:
 633              	.LBE30:
 634              		.loc 1 284 0
 635 02e8 0120     		movs	r0, #1
 636              	.LVL56:
 637              	.LBB31:
 638              	.LBB29:
 639              		.loc 1 645 0
 640 02ea EB85     		strh	r3, [r5, #46]	@ movhi
 641              	.LBE29:
 642              	.LBE31:
 643              		.loc 1 299 0
 644 02ec 6A71     		strb	r2, [r5, #5]
 645              		.loc 1 349 0
 646 02ee 03B0     		add	sp, sp, #12
 647              		.cfi_remember_state
 648              		.cfi_def_cfa_offset 20
 649              		@ sp needed
 650 02f0 F0BD     		pop	{r4, r5, r6, r7, pc}
 651              	.LVL57:
 652              	.L57:
 653              		.cfi_restore_state
 654              		.loc 1 327 0
 655 02f2 0523     		movs	r3, #5
 656              		.loc 1 284 0
 657 02f4 0120     		movs	r0, #1
 658              	.LVL58:
 659              		.loc 1 327 0
 660 02f6 6B71     		strb	r3, [r5, #5]
 661              		.loc 1 349 0
 662 02f8 03B0     		add	sp, sp, #12
 663              		.cfi_def_cfa_offset 20
 664              		@ sp needed
 665 02fa F0BD     		pop	{r4, r5, r6, r7, pc}
 666              		.cfi_endproc
 667              	.LFE135:
 668              		.size	USBH_HID_ClassRequest, .-USBH_HID_ClassRequest
 669              		.align	2
 670 02fc AFF30080 		.p2align 4,,15
 671              		.global	USBH_HID_GetHIDReportDescriptor
 672              		.thumb
 673              		.thumb_func
 674              		.type	USBH_HID_GetHIDReportDescriptor, %function
 675              	USBH_HID_GetHIDReportDescriptor:
 676              	.LFB138:
 677              		.loc 1 473 0
 678              		.cfi_startproc
 679              		@ args = 0, pretend = 0, frame = 0
 680              		@ frame_needed = 0, uses_anonymous_args = 0
 681              	.LVL59:
 682 0300 00B5     		push	{lr}
 683              		.cfi_def_cfa_offset 4
ARM GAS  /tmp/cceGzvT6.s 			page 13


 684              		.cfi_offset 14, -4
 685 0302 83B0     		sub	sp, sp, #12
 686              		.cfi_def_cfa_offset 16
 687              		.loc 1 477 0
 688 0304 4FF40852 		mov	r2, #8704
 689 0308 0091     		str	r1, [sp]
 690 030a 00F50773 		add	r3, r0, #540
 691 030e 0121     		movs	r1, #1
 692              	.LVL60:
 693 0310 FFF7FEFF 		bl	USBH_GetDescriptor
 694              	.LVL61:
 695              		.loc 1 491 0
 696 0314 03B0     		add	sp, sp, #12
 697              		.cfi_def_cfa_offset 4
 698              		@ sp needed
 699 0316 5DF804FB 		ldr	pc, [sp], #4
 700              		.cfi_endproc
 701              	.LFE138:
 702              		.size	USBH_HID_GetHIDReportDescriptor, .-USBH_HID_GetHIDReportDescriptor
 703 031a 00BF     		.align	2
 704 031c AFF30080 		.p2align 4,,15
 705              		.global	USBH_HID_GetHIDDescriptor
 706              		.thumb
 707              		.thumb_func
 708              		.type	USBH_HID_GetHIDDescriptor, %function
 709              	USBH_HID_GetHIDDescriptor:
 710              	.LFB139:
 711              		.loc 1 503 0
 712              		.cfi_startproc
 713              		@ args = 0, pretend = 0, frame = 0
 714              		@ frame_needed = 0, uses_anonymous_args = 0
 715              	.LVL62:
 716 0320 00B5     		push	{lr}
 717              		.cfi_def_cfa_offset 4
 718              		.cfi_offset 14, -4
 719 0322 83B0     		sub	sp, sp, #12
 720              		.cfi_def_cfa_offset 16
 721              		.loc 1 507 0
 722 0324 4FF40452 		mov	r2, #8448
 723 0328 0091     		str	r1, [sp]
 724 032a 00F50773 		add	r3, r0, #540
 725 032e 0121     		movs	r1, #1
 726              	.LVL63:
 727 0330 FFF7FEFF 		bl	USBH_GetDescriptor
 728              	.LVL64:
 729              		.loc 1 514 0
 730 0334 03B0     		add	sp, sp, #12
 731              		.cfi_def_cfa_offset 4
 732              		@ sp needed
 733 0336 5DF804FB 		ldr	pc, [sp], #4
 734              		.cfi_endproc
 735              	.LFE139:
 736              		.size	USBH_HID_GetHIDDescriptor, .-USBH_HID_GetHIDDescriptor
 737 033a 00BF     		.align	2
 738 033c AFF30080 		.p2align 4,,15
 739              		.global	USBH_HID_SetIdle
 740              		.thumb
ARM GAS  /tmp/cceGzvT6.s 			page 14


 741              		.thumb_func
 742              		.type	USBH_HID_SetIdle, %function
 743              	USBH_HID_SetIdle:
 744              	.LFB140:
 745              		.loc 1 527 0
 746              		.cfi_startproc
 747              		@ args = 0, pretend = 0, frame = 0
 748              		@ frame_needed = 0, uses_anonymous_args = 0
 749              		@ link register save eliminated.
 750              	.LVL65:
 751 0340 30B4     		push	{r4, r5}
 752              		.cfi_def_cfa_offset 8
 753              		.cfi_offset 4, -8
 754              		.cfi_offset 5, -4
 755              		.loc 1 534 0
 756 0342 42EA0122 		orr	r2, r2, r1, lsl #8
 757              	.LVL66:
 758              		.loc 1 529 0
 759 0346 2125     		movs	r5, #33
 760              		.loc 1 536 0
 761 0348 0021     		movs	r1, #0
 762              	.LVL67:
 763              		.loc 1 533 0
 764 034a 0A24     		movs	r4, #10
 765              		.loc 1 534 0
 766 034c 4282     		strh	r2, [r0, #18]	@ movhi
 767              		.loc 1 529 0
 768 034e 0574     		strb	r5, [r0, #16]
 769              		.loc 1 533 0
 770 0350 4474     		strb	r4, [r0, #17]
 771              		.loc 1 536 0
 772 0352 8182     		strh	r1, [r0, #20]	@ movhi
 773              		.loc 1 537 0
 774 0354 C182     		strh	r1, [r0, #22]	@ movhi
 775              		.loc 1 539 0
 776 0356 0A46     		mov	r2, r1
 777              		.loc 1 540 0
 778 0358 30BC     		pop	{r4, r5}
 779              		.cfi_restore 5
 780              		.cfi_restore 4
 781              		.cfi_def_cfa_offset 0
 782              		.loc 1 539 0
 783 035a FFF7FEBF 		b	USBH_CtlReq
 784              	.LVL68:
 785              		.cfi_endproc
 786              	.LFE140:
 787              		.size	USBH_HID_SetIdle, .-USBH_HID_SetIdle
 788 035e 00BF     		.align	2
 789              		.p2align 4,,15
 790              		.global	USBH_HID_SetReport
 791              		.thumb
 792              		.thumb_func
 793              		.type	USBH_HID_SetReport, %function
 794              	USBH_HID_SetReport:
 795              	.LFB141:
 796              		.loc 1 558 0
 797              		.cfi_startproc
ARM GAS  /tmp/cceGzvT6.s 			page 15


 798              		@ args = 4, pretend = 0, frame = 0
 799              		@ frame_needed = 0, uses_anonymous_args = 0
 800              	.LVL69:
 801 0360 F0B5     		push	{r4, r5, r6, r7, lr}
 802              		.cfi_def_cfa_offset 20
 803              		.cfi_offset 4, -20
 804              		.cfi_offset 5, -16
 805              		.cfi_offset 6, -12
 806              		.cfi_offset 7, -8
 807              		.cfi_offset 14, -4
 808              		.loc 1 558 0
 809 0362 9DF81450 		ldrb	r5, [sp, #20]	@ zero_extendqisi2
 810              		.loc 1 565 0
 811 0366 42EA012C 		orr	ip, r2, r1, lsl #8
 812              		.loc 1 560 0
 813 036a 4FF0210E 		mov	lr, #33
 814              		.loc 1 564 0
 815 036e 0927     		movs	r7, #9
 816              		.loc 1 567 0
 817 0370 0026     		movs	r6, #0
 818              		.loc 1 568 0
 819 0372 AAB2     		uxth	r2, r5
 820              	.LVL70:
 821              		.loc 1 565 0
 822 0374 A0F812C0 		strh	ip, [r0, #18]	@ movhi
 823              		.loc 1 560 0
 824 0378 80F810E0 		strb	lr, [r0, #16]
 825              		.loc 1 564 0
 826 037c 4774     		strb	r7, [r0, #17]
 827              		.loc 1 567 0
 828 037e 8682     		strh	r6, [r0, #20]	@ movhi
 829              		.loc 1 568 0
 830 0380 C282     		strh	r2, [r0, #22]	@ movhi
 831              		.loc 1 570 0
 832 0382 1946     		mov	r1, r3
 833              	.LVL71:
 834              		.loc 1 571 0
 835 0384 BDE8F040 		pop	{r4, r5, r6, r7, lr}
 836              		.cfi_restore 14
 837              		.cfi_restore 7
 838              		.cfi_restore 6
 839              		.cfi_restore 5
 840              		.cfi_restore 4
 841              		.cfi_def_cfa_offset 0
 842              	.LVL72:
 843              		.loc 1 570 0
 844 0388 FFF7FEBF 		b	USBH_CtlReq
 845              	.LVL73:
 846              		.cfi_endproc
 847              	.LFE141:
 848              		.size	USBH_HID_SetReport, .-USBH_HID_SetReport
 849              		.align	2
 850 038c AFF30080 		.p2align 4,,15
 851              		.global	USBH_HID_GetReport
 852              		.thumb
 853              		.thumb_func
 854              		.type	USBH_HID_GetReport, %function
ARM GAS  /tmp/cceGzvT6.s 			page 16


 855              	USBH_HID_GetReport:
 856              	.LFB142:
 857              		.loc 1 589 0
 858              		.cfi_startproc
 859              		@ args = 4, pretend = 0, frame = 0
 860              		@ frame_needed = 0, uses_anonymous_args = 0
 861              	.LVL74:
 862 0390 F0B5     		push	{r4, r5, r6, r7, lr}
 863              		.cfi_def_cfa_offset 20
 864              		.cfi_offset 4, -20
 865              		.cfi_offset 5, -16
 866              		.cfi_offset 6, -12
 867              		.cfi_offset 7, -8
 868              		.cfi_offset 14, -4
 869              		.loc 1 589 0
 870 0392 9DF81450 		ldrb	r5, [sp, #20]	@ zero_extendqisi2
 871              		.loc 1 596 0
 872 0396 42EA012C 		orr	ip, r2, r1, lsl #8
 873              		.loc 1 591 0
 874 039a 4FF0A10E 		mov	lr, #161
 875              		.loc 1 595 0
 876 039e 0127     		movs	r7, #1
 877              		.loc 1 598 0
 878 03a0 0026     		movs	r6, #0
 879              		.loc 1 599 0
 880 03a2 AAB2     		uxth	r2, r5
 881              	.LVL75:
 882              		.loc 1 596 0
 883 03a4 A0F812C0 		strh	ip, [r0, #18]	@ movhi
 884              		.loc 1 591 0
 885 03a8 80F810E0 		strb	lr, [r0, #16]
 886              		.loc 1 595 0
 887 03ac 4774     		strb	r7, [r0, #17]
 888              		.loc 1 598 0
 889 03ae 8682     		strh	r6, [r0, #20]	@ movhi
 890              		.loc 1 599 0
 891 03b0 C282     		strh	r2, [r0, #22]	@ movhi
 892              		.loc 1 601 0
 893 03b2 1946     		mov	r1, r3
 894              	.LVL76:
 895              		.loc 1 602 0
 896 03b4 BDE8F040 		pop	{r4, r5, r6, r7, lr}
 897              		.cfi_restore 14
 898              		.cfi_restore 7
 899              		.cfi_restore 6
 900              		.cfi_restore 5
 901              		.cfi_restore 4
 902              		.cfi_def_cfa_offset 0
 903              	.LVL77:
 904              		.loc 1 601 0
 905 03b8 FFF7FEBF 		b	USBH_CtlReq
 906              	.LVL78:
 907              		.cfi_endproc
 908              	.LFE142:
 909              		.size	USBH_HID_GetReport, .-USBH_HID_GetReport
 910              		.align	2
 911 03bc AFF30080 		.p2align 4,,15
ARM GAS  /tmp/cceGzvT6.s 			page 17


 912              		.global	USBH_HID_SetProtocol
 913              		.thumb
 914              		.thumb_func
 915              		.type	USBH_HID_SetProtocol, %function
 916              	USBH_HID_SetProtocol:
 917              	.LFB143:
 918              		.loc 1 613 0
 919              		.cfi_startproc
 920              		@ args = 0, pretend = 0, frame = 0
 921              		@ frame_needed = 0, uses_anonymous_args = 0
 922              		@ link register save eliminated.
 923              	.LVL79:
 924 03c0 30B4     		push	{r4, r5}
 925              		.cfi_def_cfa_offset 8
 926              		.cfi_offset 4, -8
 927              		.cfi_offset 5, -4
 928              		.loc 1 621 0
 929 03c2 B1FA81F2 		clz	r2, r1
 930              		.loc 1 616 0
 931 03c6 2125     		movs	r5, #33
 932              		.loc 1 622 0
 933 03c8 0021     		movs	r1, #0
 934              	.LVL80:
 935              		.loc 1 621 0
 936 03ca 5209     		lsrs	r2, r2, #5
 937              		.loc 1 620 0
 938 03cc 0B24     		movs	r4, #11
 939              		.loc 1 621 0
 940 03ce 4282     		strh	r2, [r0, #18]	@ movhi
 941              		.loc 1 616 0
 942 03d0 0574     		strb	r5, [r0, #16]
 943              		.loc 1 620 0
 944 03d2 4474     		strb	r4, [r0, #17]
 945              		.loc 1 622 0
 946 03d4 8182     		strh	r1, [r0, #20]	@ movhi
 947              		.loc 1 623 0
 948 03d6 C182     		strh	r1, [r0, #22]	@ movhi
 949              		.loc 1 625 0
 950 03d8 0A46     		mov	r2, r1
 951              		.loc 1 627 0
 952 03da 30BC     		pop	{r4, r5}
 953              		.cfi_restore 5
 954              		.cfi_restore 4
 955              		.cfi_def_cfa_offset 0
 956              		.loc 1 625 0
 957 03dc FFF7FEBF 		b	USBH_CtlReq
 958              	.LVL81:
 959              		.cfi_endproc
 960              	.LFE143:
 961              		.size	USBH_HID_SetProtocol, .-USBH_HID_SetProtocol
 962              		.align	2
 963              		.p2align 4,,15
 964              		.global	USBH_HID_GetDeviceType
 965              		.thumb
 966              		.thumb_func
 967              		.type	USBH_HID_GetDeviceType, %function
 968              	USBH_HID_GetDeviceType:
ARM GAS  /tmp/cceGzvT6.s 			page 18


 969              	.LFB145:
 970              		.loc 1 655 0
 971              		.cfi_startproc
 972              		@ args = 0, pretend = 0, frame = 0
 973              		@ frame_needed = 0, uses_anonymous_args = 0
 974              		@ link register save eliminated.
 975              	.LVL82:
 976              		.loc 1 658 0
 977 03e0 0378     		ldrb	r3, [r0]	@ zero_extendqisi2
 978 03e2 0A2B     		cmp	r3, #10
 979 03e4 01D0     		beq	.L75
 980              		.loc 1 656 0
 981 03e6 FF20     		movs	r0, #255
 982              	.LVL83:
 983 03e8 7047     		bx	lr
 984              	.LVL84:
 985              	.L75:
 986              		.loc 1 661 0
 987 03ea 90F81F34 		ldrb	r3, [r0, #1055]	@ zero_extendqisi2
 988 03ee 3A22     		movs	r2, #58
 989 03f0 02FB0300 		mla	r0, r2, r3, r0
 990              	.LVL85:
 991 03f4 90F84334 		ldrb	r3, [r0, #1091]	@ zero_extendqisi2
 992 03f8 012B     		cmp	r3, #1
 993 03fa 04D0     		beq	.L73
 994              		.loc 1 666 0
 995 03fc 022B     		cmp	r3, #2
 996              		.loc 1 669 0
 997 03fe 14BF     		ite	ne
 998 0400 FF20     		movne	r0, #255
 999 0402 0120     		moveq	r0, #1
 1000 0404 7047     		bx	lr
 1001              	.L73:
 1002              		.loc 1 664 0
 1003 0406 0220     		movs	r0, #2
 1004              	.LVL86:
 1005              		.loc 1 673 0
 1006 0408 7047     		bx	lr
 1007              		.cfi_endproc
 1008              	.LFE145:
 1009              		.size	USBH_HID_GetDeviceType, .-USBH_HID_GetDeviceType
 1010 040a 00BF     		.align	2
 1011 040c AFF30080 		.p2align 4,,15
 1012              		.global	USBH_HID_GetPollInterval
 1013              		.thumb
 1014              		.thumb_func
 1015              		.type	USBH_HID_GetPollInterval, %function
 1016              	USBH_HID_GetPollInterval:
 1017              	.LFB146:
 1018              		.loc 1 683 0
 1019              		.cfi_startproc
 1020              		@ args = 0, pretend = 0, frame = 0
 1021              		@ frame_needed = 0, uses_anonymous_args = 0
 1022              		@ link register save eliminated.
 1023              	.LVL87:
 1024              		.loc 1 686 0
 1025 0410 0378     		ldrb	r3, [r0]	@ zero_extendqisi2
ARM GAS  /tmp/cceGzvT6.s 			page 19


 1026              		.loc 1 684 0
 1027 0412 D0F8A425 		ldr	r2, [r0, #1444]
 1028              		.loc 1 686 0
 1029 0416 062B     		cmp	r3, #6
 1030              		.loc 1 684 0
 1031 0418 D269     		ldr	r2, [r2, #28]
 1032              	.LVL88:
 1033              		.loc 1 686 0
 1034 041a 0DD0     		beq	.L77
 1035              		.loc 1 687 0 discriminator 1
 1036 041c 0378     		ldrb	r3, [r0]	@ zero_extendqisi2
 1037              		.loc 1 686 0 discriminator 1
 1038 041e 072B     		cmp	r3, #7
 1039 0420 0AD0     		beq	.L77
 1040              		.loc 1 688 0
 1041 0422 0378     		ldrb	r3, [r0]	@ zero_extendqisi2
 1042              		.loc 1 687 0
 1043 0424 082B     		cmp	r3, #8
 1044 0426 07D0     		beq	.L77
 1045              		.loc 1 689 0
 1046 0428 0378     		ldrb	r3, [r0]	@ zero_extendqisi2
 1047              		.loc 1 688 0
 1048 042a 092B     		cmp	r3, #9
 1049 042c 04D0     		beq	.L77
 1050              		.loc 1 690 0
 1051 042e 0378     		ldrb	r3, [r0]	@ zero_extendqisi2
 1052              		.loc 1 689 0
 1053 0430 0A2B     		cmp	r3, #10
 1054 0432 01D0     		beq	.L77
 1055              		.loc 1 696 0
 1056 0434 0020     		movs	r0, #0
 1057              	.LVL89:
 1058              		.loc 1 698 0
 1059 0436 7047     		bx	lr
 1060              	.LVL90:
 1061              	.L77:
 1062              		.loc 1 692 0
 1063 0438 107F     		ldrb	r0, [r2, #28]	@ zero_extendqisi2
 1064              	.LVL91:
 1065 043a 7047     		bx	lr
 1066              		.cfi_endproc
 1067              	.LFE146:
 1068              		.size	USBH_HID_GetPollInterval, .-USBH_HID_GetPollInterval
 1069              		.align	2
 1070 043c AFF30080 		.p2align 4,,15
 1071              		.global	fifo_init
 1072              		.thumb
 1073              		.thumb_func
 1074              		.type	fifo_init, %function
 1075              	fifo_init:
 1076              	.LFB147:
 1077              		.loc 1 708 0
 1078              		.cfi_startproc
 1079              		@ args = 0, pretend = 0, frame = 0
 1080              		@ frame_needed = 0, uses_anonymous_args = 0
 1081              		@ link register save eliminated.
 1082              	.LVL92:
ARM GAS  /tmp/cceGzvT6.s 			page 20


 1083              		.loc 1 709 0
 1084 0440 0023     		movs	r3, #0
 1085              		.loc 1 712 0
 1086 0442 0281     		strh	r2, [r0, #8]	@ movhi
 1087              		.loc 1 713 0
 1088 0444 0160     		str	r1, [r0]
 1089              		.loc 1 709 0
 1090 0446 8380     		strh	r3, [r0, #4]	@ movhi
 1091              		.loc 1 710 0
 1092 0448 C380     		strh	r3, [r0, #6]	@ movhi
 1093              		.loc 1 711 0
 1094 044a 8372     		strb	r3, [r0, #10]
 1095 044c 7047     		bx	lr
 1096              		.cfi_endproc
 1097              	.LFE147:
 1098              		.size	fifo_init, .-fifo_init
 1099 044e 00BF     		.align	2
 1100              		.p2align 4,,15
 1101              		.global	fifo_read
 1102              		.thumb
 1103              		.thumb_func
 1104              		.type	fifo_read, %function
 1105              	fifo_read:
 1106              	.LFB148:
 1107              		.loc 1 725 0
 1108              		.cfi_startproc
 1109              		@ args = 0, pretend = 0, frame = 0
 1110              		@ frame_needed = 0, uses_anonymous_args = 0
 1111              		@ link register save eliminated.
 1112              	.LVL93:
 1113 0450 70B4     		push	{r4, r5, r6}
 1114              		.cfi_def_cfa_offset 12
 1115              		.cfi_offset 4, -12
 1116              		.cfi_offset 5, -8
 1117              		.cfi_offset 6, -4
 1118              		.loc 1 730 0
 1119 0452 857A     		ldrb	r5, [r0, #10]	@ zero_extendqisi2
 1120              		.loc 1 725 0
 1121 0454 0346     		mov	r3, r0
 1122              	.LVL94:
 1123              		.loc 1 730 0
 1124 0456 0DBB     		cbnz	r5, .L96
 1125              		.loc 1 732 0
 1126 0458 0120     		movs	r0, #1
 1127              	.LVL95:
 1128 045a 9872     		strb	r0, [r3, #10]
 1129              	.LVL96:
 1130              		.loc 1 733 0
 1131 045c F2B1     		cbz	r2, .L96
 1132              		.loc 1 735 0
 1133 045e 9888     		ldrh	r0, [r3, #4]
 1134 0460 DC88     		ldrh	r4, [r3, #6]
 1135 0462 A042     		cmp	r0, r4
 1136              		.loc 1 741 0
 1137 0464 18BF     		it	ne
 1138 0466 2846     		movne	r0, r5
 1139              		.loc 1 735 0
ARM GAS  /tmp/cceGzvT6.s 			page 21


 1140 0468 08D1     		bne	.L99
 1141 046a 1CE0     		b	.L98
 1142              	.LVL97:
 1143              	.L100:
 1144              		.loc 1 733 0 discriminator 2
 1145 046c 0135     		adds	r5, r5, #1
 1146              	.LVL98:
 1147 046e ADB2     		uxth	r5, r5
 1148              	.LVL99:
 1149 0470 9542     		cmp	r5, r2
 1150 0472 13D0     		beq	.L96
 1151              	.L101:
 1152              		.loc 1 735 0
 1153 0474 DC88     		ldrh	r4, [r3, #6]
 1154 0476 9E88     		ldrh	r6, [r3, #4]
 1155 0478 A642     		cmp	r6, r4
 1156 047a 14D0     		beq	.L98
 1157              	.LVL100:
 1158              	.L99:
 1159              		.loc 1 737 0
 1160 047c 1E68     		ldr	r6, [r3]
 1161 047e 345D     		ldrb	r4, [r6, r4]	@ zero_extendqisi2
 1162 0480 01F8014B 		strb	r4, [r1], #1
 1163              	.LVL101:
 1164              		.loc 1 738 0
 1165 0484 DC88     		ldrh	r4, [r3, #6]
 1166              		.loc 1 739 0
 1167 0486 1E89     		ldrh	r6, [r3, #8]
 1168              		.loc 1 738 0
 1169 0488 0134     		adds	r4, r4, #1
 1170 048a A4B2     		uxth	r4, r4
 1171              		.loc 1 739 0
 1172 048c A642     		cmp	r6, r4
 1173              		.loc 1 738 0
 1174 048e DC80     		strh	r4, [r3, #6]	@ movhi
 1175              		.loc 1 739 0
 1176 0490 ECD1     		bne	.L100
 1177              		.loc 1 733 0
 1178 0492 0135     		adds	r5, r5, #1
 1179              	.LVL102:
 1180 0494 ADB2     		uxth	r5, r5
 1181              	.LVL103:
 1182 0496 9542     		cmp	r5, r2
 1183              		.loc 1 741 0
 1184 0498 D880     		strh	r0, [r3, #6]	@ movhi
 1185              		.loc 1 733 0
 1186 049a EBD1     		bne	.L101
 1187              	.LVL104:
 1188              	.L96:
 1189              		.loc 1 750 0
 1190 049c 0021     		movs	r1, #0
 1191              	.LVL105:
 1192 049e 9972     		strb	r1, [r3, #10]
 1193              		.loc 1 751 0
 1194 04a0 1046     		mov	r0, r2
 1195              		.loc 1 752 0
 1196 04a2 70BC     		pop	{r4, r5, r6}
ARM GAS  /tmp/cceGzvT6.s 			page 22


 1197              		.cfi_remember_state
 1198              		.cfi_restore 6
 1199              		.cfi_restore 5
 1200              		.cfi_restore 4
 1201              		.cfi_def_cfa_offset 0
 1202 04a4 7047     		bx	lr
 1203              	.LVL106:
 1204              	.L98:
 1205              		.cfi_restore_state
 1206              		.loc 1 745 0
 1207 04a6 0022     		movs	r2, #0
 1208              	.LVL107:
 1209 04a8 9A72     		strb	r2, [r3, #10]
 1210              		.loc 1 746 0
 1211 04aa 2846     		mov	r0, r5
 1212              		.loc 1 752 0
 1213 04ac 70BC     		pop	{r4, r5, r6}
 1214              		.cfi_restore 4
 1215              		.cfi_restore 5
 1216              		.cfi_restore 6
 1217              		.cfi_def_cfa_offset 0
 1218 04ae 7047     		bx	lr
 1219              		.cfi_endproc
 1220              	.LFE148:
 1221              		.size	fifo_read, .-fifo_read
 1222              		.align	2
 1223              		.p2align 4,,15
 1224              		.global	fifo_write
 1225              		.thumb
 1226              		.thumb_func
 1227              		.type	fifo_write, %function
 1228              	fifo_write:
 1229              	.LFB149:
 1230              		.loc 1 763 0
 1231              		.cfi_startproc
 1232              		@ args = 0, pretend = 0, frame = 0
 1233              		@ frame_needed = 0, uses_anonymous_args = 0
 1234              	.LVL108:
 1235 04b0 2DE9F041 		push	{r4, r5, r6, r7, r8, lr}
 1236              		.cfi_def_cfa_offset 24
 1237              		.cfi_offset 4, -24
 1238              		.cfi_offset 5, -20
 1239              		.cfi_offset 6, -16
 1240              		.cfi_offset 7, -12
 1241              		.cfi_offset 8, -8
 1242              		.cfi_offset 14, -4
 1243              		.loc 1 767 0
 1244 04b4 837A     		ldrb	r3, [r0, #10]	@ zero_extendqisi2
 1245              		.loc 1 763 0
 1246 04b6 0446     		mov	r4, r0
 1247              	.LVL109:
 1248              		.loc 1 767 0
 1249 04b8 002B     		cmp	r3, #0
 1250 04ba 3AD1     		bne	.L110
 1251              		.loc 1 769 0
 1252 04bc 0120     		movs	r0, #1
 1253              	.LVL110:
ARM GAS  /tmp/cceGzvT6.s 			page 23


 1254 04be A072     		strb	r0, [r4, #10]
 1255              	.LVL111:
 1256              		.loc 1 770 0
 1257 04c0 002A     		cmp	r2, #0
 1258 04c2 36D0     		beq	.L110
 1259              		.loc 1 772 0
 1260 04c4 B4F80480 		ldrh	r8, [r4, #4]
 1261 04c8 E088     		ldrh	r0, [r4, #6]
 1262 04ca 08F10105 		add	r5, r8, #1
 1263 04ce 8542     		cmp	r5, r0
 1264 04d0 2AD0     		beq	.L111
 1265 04d2 571E     		subs	r7, r2, #1
 1266 04d4 BFB2     		uxth	r7, r7
 1267 04d6 0137     		adds	r7, r7, #1
 1268 04d8 0E46     		mov	r6, r1
 1269              		.loc 1 784 0
 1270 04da 9C46     		mov	ip, r3
 1271 04dc 3944     		add	r1, r1, r7
 1272              	.LVL112:
 1273 04de 1FFA86FE 		uxth	lr, r6
 1274 04e2 2789     		ldrh	r7, [r4, #8]
 1275 04e4 19E0     		b	.L112
 1276              	.LVL113:
 1277              	.L113:
 1278              		.loc 1 780 0
 1279 04e6 2368     		ldr	r3, [r4]
 1280              	.LVL114:
 1281 04e8 16F8010B 		ldrb	r0, [r6], #1	@ zero_extendqisi2
 1282              	.LVL115:
 1283 04ec 03F80800 		strb	r0, [r3, r8]
 1284              		.loc 1 781 0
 1285 04f0 A388     		ldrh	r3, [r4, #4]
 1286              		.loc 1 782 0
 1287 04f2 2789     		ldrh	r7, [r4, #8]
 1288              		.loc 1 781 0
 1289 04f4 0133     		adds	r3, r3, #1
 1290 04f6 9BB2     		uxth	r3, r3
 1291              		.loc 1 782 0
 1292 04f8 BB42     		cmp	r3, r7
 1293              		.loc 1 781 0
 1294 04fa A380     		strh	r3, [r4, #4]	@ movhi
 1295 04fc CEEB0605 		rsb	r5, lr, r6
 1296              		.loc 1 784 0
 1297 0500 08BF     		it	eq
 1298 0502 A4F804C0 		strheq	ip, [r4, #4]	@ movhi
 1299              		.loc 1 770 0
 1300 0506 8E42     		cmp	r6, r1
 1301 0508 ABB2     		uxth	r3, r5
 1302              	.LVL116:
 1303 050a 12D0     		beq	.L110
 1304              		.loc 1 772 0
 1305 050c B4F80480 		ldrh	r8, [r4, #4]
 1306 0510 E088     		ldrh	r0, [r4, #6]
 1307 0512 08F10105 		add	r5, r8, #1
 1308 0516 8542     		cmp	r5, r0
 1309 0518 06D0     		beq	.L111
 1310              	.LVL117:
ARM GAS  /tmp/cceGzvT6.s 			page 24


 1311              	.L112:
 1312 051a CEEB0603 		rsb	r3, lr, r6
 1313              		.loc 1 772 0 is_stmt 0 discriminator 1
 1314 051e BD42     		cmp	r5, r7
 1315 0520 9BB2     		uxth	r3, r3
 1316              	.LVL118:
 1317 0522 E0D1     		bne	.L113
 1318              		.loc 1 773 0 is_stmt 1
 1319 0524 0028     		cmp	r0, #0
 1320 0526 DED1     		bne	.L113
 1321              	.LVL119:
 1322              	.L111:
 1323              		.loc 1 775 0
 1324 0528 0022     		movs	r2, #0
 1325              	.LVL120:
 1326 052a A272     		strb	r2, [r4, #10]
 1327              		.loc 1 776 0
 1328 052c 1846     		mov	r0, r3
 1329 052e BDE8F081 		pop	{r4, r5, r6, r7, r8, pc}
 1330              	.LVL121:
 1331              	.L110:
 1332              		.loc 1 789 0
 1333 0532 0023     		movs	r3, #0
 1334 0534 A372     		strb	r3, [r4, #10]
 1335              		.loc 1 790 0
 1336 0536 1046     		mov	r0, r2
 1337 0538 BDE8F081 		pop	{r4, r5, r6, r7, r8, pc}
 1338              		.cfi_endproc
 1339              	.LFE149:
 1340              		.size	fifo_write, .-fifo_write
 1341              		.align	2
 1342 053c AFF30080 		.p2align 4,,15
 1343              		.weak	USBH_HID_EventCallback
 1344              		.thumb
 1345              		.thumb_func
 1346              		.type	USBH_HID_EventCallback, %function
 1347              	USBH_HID_EventCallback:
 1348              	.LFB150:
 1349              		.loc 1 800 0
 1350              		.cfi_startproc
 1351              		@ args = 0, pretend = 0, frame = 0
 1352              		@ frame_needed = 0, uses_anonymous_args = 0
 1353              		@ link register save eliminated.
 1354              	.LVL122:
 1355 0540 7047     		bx	lr
 1356              		.cfi_endproc
 1357              	.LFE150:
 1358              		.size	USBH_HID_EventCallback, .-USBH_HID_EventCallback
 1359 0542 00BF     		.align	2
 1360 0544 AFF30080 		.p2align 4,,15
 1360      AFF30080 
 1360      AFF30080 
 1361              		.thumb
 1362              		.thumb_func
 1363              		.type	USBH_HID_Process, %function
 1364              	USBH_HID_Process:
 1365              	.LFB136:
ARM GAS  /tmp/cceGzvT6.s 			page 25


 1366              		.loc 1 358 0
 1367              		.cfi_startproc
 1368              		@ args = 0, pretend = 0, frame = 0
 1369              		@ frame_needed = 0, uses_anonymous_args = 0
 1370              	.LVL123:
 1371              		.loc 1 358 0
 1372 0550 F8B5     		push	{r3, r4, r5, r6, r7, lr}
 1373              		.cfi_def_cfa_offset 24
 1374              		.cfi_offset 3, -24
 1375              		.cfi_offset 4, -20
 1376              		.cfi_offset 5, -16
 1377              		.cfi_offset 6, -12
 1378              		.cfi_offset 7, -8
 1379              		.cfi_offset 14, -4
 1380              		.loc 1 360 0
 1381 0552 D0F8A435 		ldr	r3, [r0, #1444]
 1382 0556 DD69     		ldr	r5, [r3, #28]
 1383              	.LVL124:
 1384              		.loc 1 362 0
 1385 0558 AB78     		ldrb	r3, [r5, #2]	@ zero_extendqisi2
 1386              		.loc 1 358 0
 1387 055a 0446     		mov	r4, r0
 1388              		.loc 1 362 0
 1389 055c 062B     		cmp	r3, #6
 1390 055e 10D8     		bhi	.L123
 1391 0560 DFE803F0 		tbb	[pc, r3]
 1392              	.L125:
 1393 0564 11       		.byte	(.L124-.L125)/2
 1394 0565 13       		.byte	(.L126-.L125)/2
 1395 0566 0F       		.byte	(.L123-.L125)/2
 1396 0567 0F       		.byte	(.L123-.L125)/2
 1397 0568 31       		.byte	(.L127-.L125)/2
 1398 0569 04       		.byte	(.L128-.L125)/2
 1399 056a 40       		.byte	(.L129-.L125)/2
 1400 056b 00       		.p2align 1
 1401              	.L128:
 1402              		.loc 1 384 0
 1403 056c D0F8E835 		ldr	r3, [r0, #1512]
 1404 0570 DB07     		lsls	r3, r3, #31
 1405 0572 01D5     		bpl	.L138
 1406              		.loc 1 386 0
 1407 0574 0423     		movs	r3, #4
 1408 0576 AB70     		strb	r3, [r5, #2]
 1409              	.LVL125:
 1410              	.L138:
 1411              		.loc 1 415 0
 1412 0578 D4F8F805 		ldr	r0, [r4, #1528]
 1413 057c 0421     		movs	r1, #4
 1414 057e FFF7FEFF 		bl	chEvtSignal
 1415              	.LVL126:
 1416              	.L123:
 1417              		.loc 1 438 0
 1418 0582 0020     		movs	r0, #0
 1419 0584 F8BD     		pop	{r3, r4, r5, r6, r7, pc}
 1420              	.LVL127:
 1421              	.L124:
 1422              		.loc 1 365 0
ARM GAS  /tmp/cceGzvT6.s 			page 26


 1423 0586 2B6B     		ldr	r3, [r5, #48]
 1424 0588 9847     		blx	r3
 1425              	.LVL128:
 1426              	.L126:
 1427              		.loc 1 371 0
 1428 058a 2A8B     		ldrh	r2, [r5, #24]
 1429              	.LVL129:
 1430              		.loc 1 367 0
 1431 058c 6969     		ldr	r1, [r5, #20]
 1432              	.LVL130:
 1433              	.LBB32:
 1434              	.LBB33:
 1435              		.loc 1 596 0
 1436 058e 4FF48070 		mov	r0, #256
 1437              		.loc 1 599 0
 1438 0592 D2B2     		uxtb	r2, r2
 1439              		.loc 1 591 0
 1440 0594 A127     		movs	r7, #161
 1441              		.loc 1 595 0
 1442 0596 0126     		movs	r6, #1
 1443              		.loc 1 598 0
 1444 0598 0023     		movs	r3, #0
 1445              		.loc 1 596 0
 1446 059a 6082     		strh	r0, [r4, #18]	@ movhi
 1447              		.loc 1 599 0
 1448 059c E282     		strh	r2, [r4, #22]	@ movhi
 1449              		.loc 1 591 0
 1450 059e 2774     		strb	r7, [r4, #16]
 1451              		.loc 1 595 0
 1452 05a0 6674     		strb	r6, [r4, #17]
 1453              		.loc 1 598 0
 1454 05a2 A382     		strh	r3, [r4, #20]	@ movhi
 1455              		.loc 1 601 0
 1456 05a4 2046     		mov	r0, r4
 1457 05a6 FFF7FEFF 		bl	USBH_CtlReq
 1458              	.LVL131:
 1459              	.LBE33:
 1460              	.LBE32:
 1461              		.loc 1 367 0
 1462 05aa 0028     		cmp	r0, #0
 1463 05ac E9D1     		bne	.L123
 1464              		.loc 1 374 0
 1465 05ae 6969     		ldr	r1, [r5, #20]
 1466 05b0 2A8B     		ldrh	r2, [r5, #24]
 1467 05b2 05F10800 		add	r0, r5, #8
 1468 05b6 FFF7FEFF 		bl	fifo_write
 1469              	.LVL132:
 1470              		.loc 1 375 0
 1471 05ba 2046     		mov	r0, r4
 1472 05bc FFF7FEFF 		bl	USBH_HID_EventCallback
 1473              	.LVL133:
 1474              		.loc 1 376 0
 1475 05c0 0523     		movs	r3, #5
 1476 05c2 AB70     		strb	r3, [r5, #2]
 1477 05c4 DDE7     		b	.L123
 1478              	.LVL134:
 1479              	.L127:
ARM GAS  /tmp/cceGzvT6.s 			page 27


 1480              		.loc 1 395 0
 1481 05c6 2A7E     		ldrb	r2, [r5, #24]	@ zero_extendqisi2
 1482 05c8 6B78     		ldrb	r3, [r5, #1]	@ zero_extendqisi2
 1483 05ca 6969     		ldr	r1, [r5, #20]
 1484 05cc FFF7FEFF 		bl	USBH_InterruptReceiveData
 1485              	.LVL135:
 1486              		.loc 1 401 0
 1487 05d0 D4F8E835 		ldr	r3, [r4, #1512]
 1488 05d4 2B62     		str	r3, [r5, #32]
 1489              		.loc 1 402 0
 1490 05d6 0023     		movs	r3, #0
 1491              		.loc 1 400 0
 1492 05d8 0622     		movs	r2, #6
 1493              		.loc 1 402 0
 1494 05da 85F82430 		strb	r3, [r5, #36]
 1495              		.loc 1 400 0
 1496 05de AA70     		strb	r2, [r5, #2]
 1497              		.loc 1 438 0
 1498 05e0 0020     		movs	r0, #0
 1499 05e2 F8BD     		pop	{r3, r4, r5, r6, r7, pc}
 1500              	.LVL136:
 1501              	.L129:
 1502              	.LBB34:
 1503              	.LBB35:
 1504              		.file 2 "./usbh_conf.h"
 1505              		.loc 2 208 0
 1506 05e4 D0F8F005 		ldr	r0, [r0, #1520]
 1507              	.LVL137:
 1508 05e8 6978     		ldrb	r1, [r5, #1]	@ zero_extendqisi2
 1509 05ea FFF7FEFF 		bl	HAL_HCD_HC_GetURBState
 1510              	.LVL138:
 1511              	.LBE35:
 1512              	.LBE34:
 1513              		.loc 1 407 0
 1514 05ee C6B2     		uxtb	r6, r0
 1515 05f0 012E     		cmp	r6, #1
 1516 05f2 0FD1     		bne	.L132
 1517              		.loc 1 409 0
 1518 05f4 95F82430 		ldrb	r3, [r5, #36]	@ zero_extendqisi2
 1519 05f8 002B     		cmp	r3, #0
 1520 05fa C2D1     		bne	.L123
 1521              		.loc 1 411 0
 1522 05fc 05F10800 		add	r0, r5, #8
 1523 0600 6969     		ldr	r1, [r5, #20]
 1524 0602 2A8B     		ldrh	r2, [r5, #24]
 1525 0604 FFF7FEFF 		bl	fifo_write
 1526              	.LVL139:
 1527              		.loc 1 412 0
 1528 0608 85F82460 		strb	r6, [r5, #36]
 1529              		.loc 1 413 0
 1530 060c 2046     		mov	r0, r4
 1531 060e FFF7FEFF 		bl	USBH_HID_EventCallback
 1532              	.LVL140:
 1533 0612 B1E7     		b	.L138
 1534              	.L132:
 1535              	.LVL141:
 1536              	.LBB36:
ARM GAS  /tmp/cceGzvT6.s 			page 28


 1537              	.LBB37:
 1538              		.loc 2 208 0
 1539 0614 D4F8F005 		ldr	r0, [r4, #1520]
 1540 0618 6978     		ldrb	r1, [r5, #1]	@ zero_extendqisi2
 1541 061a FFF7FEFF 		bl	HAL_HCD_HC_GetURBState
 1542              	.LVL142:
 1543              	.LBE37:
 1544              	.LBE36:
 1545              		.loc 1 419 0
 1546 061e C0B2     		uxtb	r0, r0
 1547 0620 0528     		cmp	r0, #5
 1548 0622 AED1     		bne	.L123
 1549              		.loc 1 423 0
 1550 0624 2046     		mov	r0, r4
 1551 0626 A97E     		ldrb	r1, [r5, #26]	@ zero_extendqisi2
 1552 0628 FFF7FEFF 		bl	USBH_ClrFeature
 1553              	.LVL143:
 1554 062c 0028     		cmp	r0, #0
 1555 062e A8D1     		bne	.L123
 1556              		.loc 1 427 0
 1557 0630 0423     		movs	r3, #4
 1558 0632 AB70     		strb	r3, [r5, #2]
 1559 0634 A5E7     		b	.L123
 1560              		.cfi_endproc
 1561              	.LFE136:
 1562              		.size	USBH_HID_Process, .-USBH_HID_Process
 1563              		.global	HID_Class
 1564              		.data
 1565              		.align	2
 1566              		.type	HID_Class, %object
 1567              		.size	HID_Class, 32
 1568              	HID_Class:
 1569 0000 44000000 		.word	.LC3
 1570 0004 03       		.byte	3
 1571 0005 000000   		.space	3
 1572 0008 00000000 		.word	USBH_HID_InterfaceInit
 1573 000c 00000000 		.word	USBH_HID_InterfaceDeInit
 1574 0010 00000000 		.word	USBH_HID_ClassRequest
 1575 0014 00000000 		.word	USBH_HID_Process
 1576 0018 00000000 		.word	USBH_HID_SOFProcess
 1577 001c 00000000 		.word	0
 1578              		.section	.rodata.str1.4,"aMS",%progbits,1
 1579              		.align	2
 1580              	.LC0:
 1581 0000 4B657942 		.ascii	"KeyBoard device found!\000"
 1581      6F617264 
 1581      20646576 
 1581      69636520 
 1581      666F756E 
 1582 0017 00       		.space	1
 1583              	.LC1:
 1584 0018 4D6F7573 		.ascii	"Mouse device found!\000"
 1584      65206465 
 1584      76696365 
 1584      20666F75 
 1584      6E642100 
 1585              	.LC2:
ARM GAS  /tmp/cceGzvT6.s 			page 29


 1586 002c 50726F74 		.ascii	"Protocol not supported.\000"
 1586      6F636F6C 
 1586      206E6F74 
 1586      20737570 
 1586      706F7274 
 1587              	.LC3:
 1588 0044 48494400 		.ascii	"HID\000"
 1589              		.text
 1590              	.Letext0:
 1591              		.file 3 "/home/sbcu/Dropbox/pcb-layouts/axo-on-discovery-board/axoloti/platform_linux/arm-none-eab
 1592              		.file 4 "/home/sbcu/Dropbox/pcb-layouts/axo-on-discovery-board/axoloti/platform_linux/arm-none-eab
 1593              		.file 5 "/home/sbcu/Dropbox/pcb-layouts/axo-on-discovery-board/axoloti/platform_linux/lib/gcc/arm-
 1594              		.file 6 "/home/sbcu/Dropbox/pcb-layouts/axo-on-discovery-board/axoloti/platform_linux/../chibios/o
 1595              		.file 7 "/home/sbcu/Dropbox/pcb-layouts/axo-on-discovery-board/axoloti/platform_linux/../chibios/o
 1596              		.file 8 "/home/sbcu/Dropbox/pcb-layouts/axo-on-discovery-board/axoloti/platform_linux/../chibios/o
 1597              		.file 9 "/home/sbcu/Dropbox/pcb-layouts/axo-on-discovery-board/axoloti/platform_linux/../chibios/o
 1598              		.file 10 "/home/sbcu/Dropbox/pcb-layouts/axo-on-discovery-board/axoloti/platform_linux/../chibios/
 1599              		.file 11 "./STM32_USB_Host_Library/Core/Inc/usbh_def.h"
 1600              		.file 12 "./STM32_USB_Host_Library/Class/HID/Inc/usbh_hid.h"
 1601              		.file 13 "/home/sbcu/Dropbox/pcb-layouts/axo-on-discovery-board/axoloti/platform_linux/../CMSIS//I
 1602              		.file 14 "/home/sbcu/Dropbox/pcb-layouts/axo-on-discovery-board/axoloti/platform_linux/../chibios/
 1603              		.file 15 "./STM32_USB_Host_Library/Core/Inc/usbh_pipes.h"
 1604              		.file 16 "./STM32_USB_Host_Library/Core/Inc/usbh_core.h"
 1605              		.file 17 "./STM32_USB_Host_Library/Core/Inc/usbh_ctlreq.h"
 1606              		.file 18 "./STM32_USB_Host_Library/Core/Inc/usbh_ioreq.h"