ARM GAS  /tmp/ccvfQcT2.s 			page 1


   1              		.syntax unified
   2              		.cpu cortex-m4
   3              		.eabi_attribute 27, 1
   4              		.eabi_attribute 28, 1
   5              		.fpu fpv4-sp-d16
   6              		.eabi_attribute 20, 1
   7              		.eabi_attribute 21, 1
   8              		.eabi_attribute 23, 3
   9              		.eabi_attribute 24, 1
  10              		.eabi_attribute 25, 1
  11              		.eabi_attribute 26, 1
  12              		.eabi_attribute 30, 2
  13              		.eabi_attribute 34, 1
  14              		.eabi_attribute 18, 4
  15              		.thumb
  16              		.file	"usbh_vendor.c"
  17              		.text
  18              	.Ltext0:
  19              		.cfi_sections	.debug_frame
  20              		.align	2
  21              		.p2align 4,,15
  22              		.thumb
  23              		.thumb_func
  24              		.type	USBH_Vendor_InterfaceInit, %function
  25              	USBH_Vendor_InterfaceInit:
  26              	.LFB133:
  27              		.file 1 "usbh_vendor.c"
  28              		.loc 1 38 0
  29              		.cfi_startproc
  30              		@ args = 0, pretend = 0, frame = 0
  31              		@ frame_needed = 0, uses_anonymous_args = 0
  32              	.LVL0:
  33              		.loc 1 42 0
  34 0000 7B4B     		ldr	r3, .L33
  35 0002 D0F82824 		ldr	r2, [r0, #1064]
  36 0006 9A42     		cmp	r2, r3
  37 0008 01D0     		beq	.L29
  38              		.loc 1 46 0
  39 000a 0320     		movs	r0, #3
  40              	.LVL1:
  41              		.loc 1 47 0
  42 000c 7047     		bx	lr
  43              	.LVL2:
  44              	.L29:
  45              		.loc 1 38 0
  46 000e 2DE9F047 		push	{r4, r5, r6, r7, r8, r9, r10, lr}
  47              		.cfi_def_cfa_offset 32
  48              		.cfi_offset 4, -32
  49              		.cfi_offset 5, -28
  50              		.cfi_offset 6, -24
  51              		.cfi_offset 7, -20
  52              		.cfi_offset 8, -16
  53              		.cfi_offset 9, -12
  54              		.cfi_offset 10, -8
  55              		.cfi_offset 14, -4
  56 0012 0446     		mov	r4, r0
  57              	.LVL3:
ARM GAS  /tmp/ccvfQcT2.s 			page 2


  58 0014 84B0     		sub	sp, sp, #16
  59              		.cfi_def_cfa_offset 48
  60              	.LBB9:
  61              	.LBB10:
  62              		.loc 1 43 0
  63 0016 7748     		ldr	r0, .L33+4
  64              	.LVL4:
  65 0018 FFF7FEFF 		bl	LogTextMessage
  66              	.LVL5:
  67              	.LBB11:
  68              	.LBB12:
  69              		.loc 1 57 0
  70 001c FFF7FEFF 		bl	usbh_midi_init
  71              	.LVL6:
  72              		.loc 1 59 0
  73 0020 94F83634 		ldrb	r3, [r4, #1078]	@ zero_extendqisi2
  74 0024 052B     		cmp	r3, #5
  75 0026 03D8     		bhi	.L30
  76              	.L19:
  77              		.loc 1 153 0
  78 0028 0220     		movs	r0, #2
  79              	.L25:
  80              	.LBE12:
  81              	.LBE11:
  82              	.LBE10:
  83              	.LBE9:
  84              		.loc 1 47 0
  85 002a 04B0     		add	sp, sp, #16
  86              		.cfi_remember_state
  87              		.cfi_def_cfa_offset 32
  88              		@ sp needed
  89 002c BDE8F087 		pop	{r4, r5, r6, r7, r8, r9, r10, pc}
  90              	.LVL7:
  91              	.L30:
  92              		.cfi_restore_state
  93              	.LBB20:
  94              	.LBB19:
  95              	.LBB18:
  96              	.LBB17:
  97              		.loc 1 60 0
  98 0030 94F86335 		ldrb	r3, [r4, #1379]	@ zero_extendqisi2
  99 0034 FF2B     		cmp	r3, #255
 100 0036 F7D1     		bne	.L19
 101 0038 94F86465 		ldrb	r6, [r4, #1380]	@ zero_extendqisi2
 102 003c 002E     		cmp	r6, #0
 103 003e F3D1     		bne	.L19
 104              	.LBB13:
 105              		.loc 1 65 0
 106 0040 0521     		movs	r1, #5
 107 0042 2046     		mov	r0, r4
 108 0044 FFF7FEFF 		bl	USBH_SelectInterface
 109              	.LVL8:
 110              		.loc 1 66 0
 111 0048 9420     		movs	r0, #148
 112 004a D4F8A455 		ldr	r5, [r4, #1444]
 113 004e FFF7FEFF 		bl	fakemalloc
 114              	.LVL9:
ARM GAS  /tmp/ccvfQcT2.s 			page 3


 115              		.loc 1 67 0
 116 0052 D4F8A435 		ldr	r3, [r4, #1444]
 117              		.loc 1 66 0
 118 0056 E861     		str	r0, [r5, #28]
 119              		.loc 1 67 0
 120 0058 DD69     		ldr	r5, [r3, #28]
 121              	.LVL10:
 122              		.loc 1 68 0
 123 005a 2E72     		strb	r6, [r5, #8]
 124              		.loc 1 69 0
 125 005c 6E72     		strb	r6, [r5, #9]
 126              		.loc 1 73 0
 127 005e 94F81F34 		ldrb	r3, [r4, #1055]	@ zero_extendqisi2
 128 0062 4FF03A08 		mov	r8, #58
 129 0066 08FB0343 		mla	r3, r8, r3, r4
 130              		.loc 1 72 0
 131 006a 93F84074 		ldrb	r7, [r3, #1088]	@ zero_extendqisi2
 132              		.loc 1 76 0
 133 006e AE72     		strb	r6, [r5, #10]
 134              		.loc 1 72 0
 135 0070 062F     		cmp	r7, #6
 136 0072 28BF     		it	cs
 137 0074 0627     		movcs	r7, #6
 138              	.LVL11:
 139              		.loc 1 77 0
 140 0076 EE72     		strb	r6, [r5, #11]
 141              	.LVL12:
 142              		.loc 1 81 0
 143 0078 2FBB     		cbnz	r7, .L3
 144 007a 65E0     		b	.L13
 145              	.LVL13:
 146              	.L32:
 147              	.LBB14:
 148              		.loc 1 84 0
 149 007c B9F1000F 		cmp	r9, #0
 150 0080 44D1     		bne	.L31
 151              		.loc 1 94 0
 152 0082 2846     		mov	r0, r5
 153 0084 FFF7FEFF 		bl	isValidOutput
 154              	.LVL14:
 155 0088 D0B9     		cbnz	r0, .L9
 156              	.L15:
 157              		.loc 1 95 0
 158 008a 94F81F24 		ldrb	r2, [r4, #1055]	@ zero_extendqisi2
 159              		.loc 1 97 0
 160 008e 5A48     		ldr	r0, .L33+8
 161              		.loc 1 95 0
 162 0090 F100     		lsls	r1, r6, #3
 163 0092 08FB0212 		mla	r2, r8, r2, r1
 164 0096 2244     		add	r2, r2, r4
 165 0098 92F84034 		ldrb	r3, [r2, #1088]	@ zero_extendqisi2
 166 009c AB70     		strb	r3, [r5, #2]
 167              		.loc 1 96 0
 168 009e 94F81F34 		ldrb	r3, [r4, #1055]	@ zero_extendqisi2
 169 00a2 08FB0313 		mla	r3, r8, r3, r1
 170 00a6 2344     		add	r3, r3, r4
 171 00a8 B3F84214 		ldrh	r1, [r3, #1090]
ARM GAS  /tmp/ccvfQcT2.s 			page 4


 172 00ac A980     		strh	r1, [r5, #4]	@ movhi
 173              		.loc 1 97 0
 174 00ae FFF7FEFF 		bl	LogTextMessage
 175              	.LVL15:
 176              		.loc 1 98 0
 177 00b2 AB88     		ldrh	r3, [r5, #4]
 178 00b4 402B     		cmp	r3, #64
 179 00b6 84BF     		itt	hi
 180 00b8 4023     		movhi	r3, #64
 181 00ba AB80     		strhhi	r3, [r5, #4]	@ movhi
 182              		.loc 1 102 0
 183 00bc 0123     		movs	r3, #1
 184 00be EB72     		strb	r3, [r5, #11]
 185              	.L9:
 186              	.LVL16:
 187              	.LBE14:
 188              		.loc 1 81 0
 189 00c0 F3B2     		uxtb	r3, r6
 190 00c2 9F42     		cmp	r7, r3
 191 00c4 40D9     		bls	.L13
 192              	.LVL17:
 193              	.L3:
 194 00c6 2846     		mov	r0, r5
 195 00c8 FFF7FEFF 		bl	isValidInput
 196              	.LVL18:
 197 00cc 20B1     		cbz	r0, .L14
 198 00ce 2846     		mov	r0, r5
 199 00d0 FFF7FEFF 		bl	isValidOutput
 200              	.LVL19:
 201 00d4 0028     		cmp	r0, #0
 202 00d6 37D1     		bne	.L13
 203              	.L14:
 204              	.LBB15:
 205              		.loc 1 83 0
 206 00d8 0136     		adds	r6, r6, #1
 207 00da 94F81F34 		ldrb	r3, [r4, #1055]	@ zero_extendqisi2
 208 00de 4FEAC60A 		lsl	r10, r6, #3
 209 00e2 08FB03A3 		mla	r3, r8, r3, r10
 210 00e6 2344     		add	r3, r3, r4
 211              		.loc 1 84 0
 212 00e8 2846     		mov	r0, r5
 213              		.loc 1 83 0
 214 00ea 93F84034 		ldrb	r3, [r3, #1088]	@ zero_extendqisi2
 215 00ee 4FEAD319 		lsr	r9, r3, #7
 216              	.LVL20:
 217              		.loc 1 84 0
 218 00f2 FFF7FEFF 		bl	isValidInput
 219              	.LVL21:
 220 00f6 0028     		cmp	r0, #0
 221 00f8 C0D0     		beq	.L32
 222              		.loc 1 94 0
 223 00fa 2846     		mov	r0, r5
 224 00fc FFF7FEFF 		bl	isValidOutput
 225              	.LVL22:
 226 0100 0028     		cmp	r0, #0
 227 0102 DDD1     		bne	.L9
 228 0104 B9F1000F 		cmp	r9, #0
ARM GAS  /tmp/ccvfQcT2.s 			page 5


 229 0108 DAD1     		bne	.L9
 230 010a BEE7     		b	.L15
 231              	.L31:
 232              		.loc 1 85 0
 233 010c 94F81F34 		ldrb	r3, [r4, #1055]	@ zero_extendqisi2
 234              		.loc 1 87 0
 235 0110 3A48     		ldr	r0, .L33+12
 236              		.loc 1 85 0
 237 0112 08FB03A3 		mla	r3, r8, r3, r10
 238 0116 2344     		add	r3, r3, r4
 239 0118 93F84034 		ldrb	r3, [r3, #1088]	@ zero_extendqisi2
 240 011c EB70     		strb	r3, [r5, #3]
 241              		.loc 1 86 0
 242 011e 94F81F34 		ldrb	r3, [r4, #1055]	@ zero_extendqisi2
 243 0122 08FB03A3 		mla	r3, r8, r3, r10
 244 0126 2344     		add	r3, r3, r4
 245 0128 B3F84214 		ldrh	r1, [r3, #1090]
 246 012c E980     		strh	r1, [r5, #6]	@ movhi
 247              		.loc 1 87 0
 248 012e FFF7FEFF 		bl	LogTextMessage
 249              	.LVL23:
 250              		.loc 1 88 0
 251 0132 EB88     		ldrh	r3, [r5, #6]
 252 0134 402B     		cmp	r3, #64
 253 0136 84BF     		itt	hi
 254 0138 4023     		movhi	r3, #64
 255 013a EB80     		strhhi	r3, [r5, #6]	@ movhi
 256              		.loc 1 92 0
 257 013c 0123     		movs	r3, #1
 258 013e AB72     		strb	r3, [r5, #10]
 259              		.loc 1 94 0
 260 0140 2846     		mov	r0, r5
 261 0142 FFF7FEFF 		bl	isValidOutput
 262              	.LVL24:
 263 0146 BBE7     		b	.L9
 264              	.LVL25:
 265              	.L13:
 266              	.LBE15:
 267              		.loc 1 109 0
 268 0148 2846     		mov	r0, r5
 269 014a FFF7FEFF 		bl	isValidOutput
 270              	.LVL26:
 271 014e 48B3     		cbz	r0, .L5
 272              	.LBB16:
 273              		.loc 1 110 0
 274 0150 AA78     		ldrb	r2, [r5, #2]	@ zero_extendqisi2
 275 0152 2B48     		ldr	r0, .L33+16
 276 0154 0521     		movs	r1, #5
 277 0156 FFF7FEFF 		bl	LogTextMessage
 278              	.LVL27:
 279              		.loc 1 112 0
 280 015a A978     		ldrb	r1, [r5, #2]	@ zero_extendqisi2
 281 015c 2046     		mov	r0, r4
 282 015e FFF7FEFF 		bl	USBH_AllocPipe
 283              	.LVL28:
 284 0162 2870     		strb	r0, [r5]
 285 0164 0146     		mov	r1, r0
ARM GAS  /tmp/ccvfQcT2.s 			page 6


 286              		.loc 1 113 0
 287 0166 94F81D04 		ldrb	r0, [r4, #1053]	@ zero_extendqisi2
 288 016a 94F81C34 		ldrb	r3, [r4, #1052]	@ zero_extendqisi2
 289 016e AA78     		ldrb	r2, [r5, #2]	@ zero_extendqisi2
 290 0170 0090     		str	r0, [sp]
 291 0172 0220     		movs	r0, #2
 292 0174 0190     		str	r0, [sp, #4]
 293 0176 A888     		ldrh	r0, [r5, #4]
 294 0178 0290     		str	r0, [sp, #8]
 295 017a 2046     		mov	r0, r4
 296 017c FFF7FEFF 		bl	USBH_OpenPipe
 297              	.LVL29:
 298              		.loc 1 120 0
 299 0180 2978     		ldrb	r1, [r5]	@ zero_extendqisi2
 300 0182 0022     		movs	r2, #0
 301 0184 2046     		mov	r0, r4
 302 0186 FFF7FEFF 		bl	USBH_LL_SetToggle
 303              	.LVL30:
 304              		.loc 1 122 0
 305 018a 1E48     		ldr	r0, .L33+20
 306 018c FFF7FEFF 		bl	LogTextMessage
 307              	.LVL31:
 308              		.loc 1 124 0
 309 0190 0022     		movs	r2, #0
 310 0192 2B78     		ldrb	r3, [r5]	@ zero_extendqisi2
 311 0194 1C49     		ldr	r1, .L33+24
 312 0196 0092     		str	r2, [sp]
 313 0198 2046     		mov	r0, r4
 314 019a 0422     		movs	r2, #4
 315 019c FFF7FEFF 		bl	USBH_BulkSendData
 316              	.LVL32:
 317              		.loc 1 127 0
 318 01a0 FFF7FEFF 		bl	usbh_midi_reset_buffer
 319              	.LVL33:
 320              	.L5:
 321              	.LBE16:
 322              		.loc 1 130 0
 323 01a4 2846     		mov	r0, r5
 324 01a6 FFF7FEFF 		bl	isValidInput
 325              	.LVL34:
 326 01aa 0028     		cmp	r0, #0
 327 01ac 3FF43DAF 		beq	.L25
 328              		.loc 1 131 0
 329 01b0 EA78     		ldrb	r2, [r5, #3]	@ zero_extendqisi2
 330 01b2 1648     		ldr	r0, .L33+28
 331 01b4 0521     		movs	r1, #5
 332 01b6 FFF7FEFF 		bl	LogTextMessage
 333              	.LVL35:
 334              		.loc 1 133 0
 335 01ba E978     		ldrb	r1, [r5, #3]	@ zero_extendqisi2
 336 01bc 2046     		mov	r0, r4
 337 01be FFF7FEFF 		bl	USBH_AllocPipe
 338              	.LVL36:
 339 01c2 6870     		strb	r0, [r5, #1]
 340 01c4 0146     		mov	r1, r0
 341              		.loc 1 134 0
 342 01c6 94F81D04 		ldrb	r0, [r4, #1053]	@ zero_extendqisi2
ARM GAS  /tmp/ccvfQcT2.s 			page 7


 343 01ca EA78     		ldrb	r2, [r5, #3]	@ zero_extendqisi2
 344 01cc 94F81C34 		ldrb	r3, [r4, #1052]	@ zero_extendqisi2
 345 01d0 0090     		str	r0, [sp]
 346 01d2 0220     		movs	r0, #2
 347 01d4 0190     		str	r0, [sp, #4]
 348 01d6 E888     		ldrh	r0, [r5, #6]
 349 01d8 0290     		str	r0, [sp, #8]
 350 01da 2046     		mov	r0, r4
 351 01dc FFF7FEFF 		bl	USBH_OpenPipe
 352              	.LVL37:
 353              		.loc 1 141 0
 354 01e0 2046     		mov	r0, r4
 355 01e2 6978     		ldrb	r1, [r5, #1]	@ zero_extendqisi2
 356 01e4 0022     		movs	r2, #0
 357 01e6 FFF7FEFF 		bl	USBH_LL_SetToggle
 358              	.LVL38:
 359              		.loc 1 148 0
 360 01ea 0020     		movs	r0, #0
 361 01ec 1DE7     		b	.L25
 362              	.L34:
 363 01ee 00BF     		.align	2
 364              	.L33:
 365 01f0 3E131508 		.word	135598910
 366 01f4 00000000 		.word	.LC0
 367 01f8 48000000 		.word	.LC2
 368 01fc 1C000000 		.word	.LC1
 369 0200 74000000 		.word	.LC3
 370 0204 A4000000 		.word	.LC4
 371 0208 00000000 		.word	.LANCHOR0
 372 020c C0000000 		.word	.LC5
 373              	.LBE13:
 374              	.LBE17:
 375              	.LBE18:
 376              	.LBE19:
 377              	.LBE20:
 378              		.cfi_endproc
 379              	.LFE133:
 380              		.size	USBH_Vendor_InterfaceInit, .-USBH_Vendor_InterfaceInit
 381              		.global	Vendor_Class
 382              		.comm	MIDI_Setup,8,4
 383              		.data
 384              		.align	2
 385              		.set	.LANCHOR0,. + 0
 386              		.type	seq.8281, %object
 387              		.size	seq.8281, 4
 388              	seq.8281:
 389 0000 4E       		.byte	78
 390 0001 73       		.byte	115
 391 0002 52       		.byte	82
 392 0003 01       		.byte	1
 393              		.type	Vendor_Class, %object
 394              		.size	Vendor_Class, 32
 395              	Vendor_Class:
 396 0004 EC000000 		.word	.LC6
 397 0008 FF       		.byte	-1
 398 0009 000000   		.space	3
 399 000c 00000000 		.word	USBH_Vendor_InterfaceInit
ARM GAS  /tmp/ccvfQcT2.s 			page 8


 400 0010 00000000 		.word	USBH_MIDI_InterfaceDeInit
 401 0014 00000000 		.word	USBH_MIDI_ClassRequest
 402 0018 00000000 		.word	USBH_MIDI_Process
 403 001c 00000000 		.word	USBH_MIDI_SOFProcess
 404 0020 00000000 		.word	0
 405              		.section	.rodata.str1.4,"aMS",%progbits,1
 406              		.align	2
 407              	.LC0:
 408 0000 55534220 		.ascii	"USB Access Virus detected\000"
 408      41636365 
 408      73732056 
 408      69727573 
 408      20646574 
 409 001a 0000     		.space	2
 410              	.LC1:
 411 001c 55534220 		.ascii	"USB Host (Virus) Input size requests : %x\000"
 411      486F7374 
 411      20285669 
 411      72757329 
 411      20496E70 
 412 0046 0000     		.space	2
 413              	.LC2:
 414 0048 55534220 		.ascii	"USB Host (Virus) Output size requests : %x\000"
 414      486F7374 
 414      20285669 
 414      72757329 
 414      204F7574 
 415 0073 00       		.space	1
 416              	.LC3:
 417 0074 55534220 		.ascii	"USB Host (Virus) Output connected to %x : %x\000"
 417      486F7374 
 417      20285669 
 417      72757329 
 417      204F7574 
 418 00a1 000000   		.space	3
 419              	.LC4:
 420 00a4 53776974 		.ascii	"Switch Virus to USB mode\000"
 420      63682056 
 420      69727573 
 420      20746F20 
 420      55534220 
 421 00bd 000000   		.space	3
 422              	.LC5:
 423 00c0 55534220 		.ascii	"USB Host (Virus) Input connected to %x : %x\000"
 423      486F7374 
 423      20285669 
 423      72757329 
 423      20496E70 
 424              	.LC6:
 425 00ec 56454E00 		.ascii	"VEN\000"
 426              		.text
 427              	.Letext0:
 428              		.file 2 "/d_drive/axoloti/platform_linux/arm-none-eabi/include/machine/_default_types.h"
 429              		.file 3 "/d_drive/axoloti/platform_linux/arm-none-eabi/include/sys/_stdint.h"
 430              		.file 4 "/d_drive/axoloti/platform_linux/lib/gcc/arm-none-eabi/4.9.3/include/stddef.h"
 431              		.file 5 "/d_drive/axoloti/platform_linux/../chibios/os/ports/GCC/ARMCMx/chtypes.h"
 432              		.file 6 "/d_drive/axoloti/platform_linux/../chibios/os/kernel/include/chlists.h"
ARM GAS  /tmp/ccvfQcT2.s 			page 9


 433              		.file 7 "/d_drive/axoloti/platform_linux/../chibios/os/kernel/include/chthreads.h"
 434              		.file 8 "/d_drive/axoloti/platform_linux/../chibios/os/ports/GCC/ARMCMx/chcore_v7m.h"
 435              		.file 9 "/d_drive/axoloti/platform_linux/../chibios/os/kernel/include/chmtx.h"
 436              		.file 10 "./STM32_USB_Host_Library/Core/Inc/usbh_def.h"
 437              		.file 11 "usbh_midi_core.h"
 438              		.file 12 "/d_drive/axoloti/platform_linux/../CMSIS//Include/core_cm4.h"
 439              		.file 13 "./STM32_USB_Host_Library/Core/Inc/usbh_pipes.h"
 440              		.file 14 "./STM32_USB_Host_Library/Core/Inc/usbh_core.h"
 441              		.file 15 "./STM32_USB_Host_Library/Core/Inc/usbh_ioreq.h"
 442              		.file 16 "./usbh_conf.h"
 443              		.section	.debug_info,"",%progbits
 444              	.Ldebug_info0:
 445 0000 00120000 		.4byte	0x1200
 446 0004 0400     		.2byte	0x4
 447 0006 00000000 		.4byte	.Ldebug_abbrev0
 448 000a 04       		.byte	0x4
 449 000b 01       		.uleb128 0x1
 450 000c 940A0000 		.4byte	.LASF242
 451 0010 01       		.byte	0x1
 452 0011 77070000 		.4byte	.LASF243
 453 0015 900C0000 		.4byte	.LASF244
 454 0019 00000000 		.4byte	.Ltext0
 455 001d 10020000 		.4byte	.Letext0-.Ltext0
 456 0021 00000000 		.4byte	.Ldebug_line0
 457 0025 02       		.uleb128 0x2
 458 0026 01       		.byte	0x1
 459 0027 06       		.byte	0x6
 460 0028 5D020000 		.4byte	.LASF0
 461 002c 03       		.uleb128 0x3
 462 002d 82010000 		.4byte	.LASF3
 463 0031 02       		.byte	0x2
 464 0032 1D       		.byte	0x1d
 465 0033 37000000 		.4byte	0x37
 466 0037 02       		.uleb128 0x2
 467 0038 01       		.byte	0x1
 468 0039 08       		.byte	0x8
 469 003a C0020000 		.4byte	.LASF1
 470 003e 02       		.uleb128 0x2
 471 003f 02       		.byte	0x2
 472 0040 05       		.byte	0x5
 473 0041 FB090000 		.4byte	.LASF2
 474 0045 03       		.uleb128 0x3
 475 0046 A2030000 		.4byte	.LASF4
 476 004a 02       		.byte	0x2
 477 004b 2B       		.byte	0x2b
 478 004c 50000000 		.4byte	0x50
 479 0050 02       		.uleb128 0x2
 480 0051 02       		.byte	0x2
 481 0052 07       		.byte	0x7
 482 0053 400C0000 		.4byte	.LASF5
 483 0057 03       		.uleb128 0x3
 484 0058 860C0000 		.4byte	.LASF6
 485 005c 02       		.byte	0x2
 486 005d 3F       		.byte	0x3f
 487 005e 62000000 		.4byte	0x62
 488 0062 02       		.uleb128 0x2
 489 0063 04       		.byte	0x4
ARM GAS  /tmp/ccvfQcT2.s 			page 10


 490 0064 05       		.byte	0x5
 491 0065 BC010000 		.4byte	.LASF7
 492 0069 03       		.uleb128 0x3
 493 006a CA050000 		.4byte	.LASF8
 494 006e 02       		.byte	0x2
 495 006f 41       		.byte	0x41
 496 0070 74000000 		.4byte	0x74
 497 0074 02       		.uleb128 0x2
 498 0075 04       		.byte	0x4
 499 0076 07       		.byte	0x7
 500 0077 C4040000 		.4byte	.LASF9
 501 007b 02       		.uleb128 0x2
 502 007c 08       		.byte	0x8
 503 007d 05       		.byte	0x5
 504 007e F0050000 		.4byte	.LASF10
 505 0082 02       		.uleb128 0x2
 506 0083 08       		.byte	0x8
 507 0084 07       		.byte	0x7
 508 0085 17080000 		.4byte	.LASF11
 509 0089 04       		.uleb128 0x4
 510 008a 04       		.byte	0x4
 511 008b 05       		.byte	0x5
 512 008c 696E7400 		.ascii	"int\000"
 513 0090 02       		.uleb128 0x2
 514 0091 04       		.byte	0x4
 515 0092 07       		.byte	0x7
 516 0093 B2060000 		.4byte	.LASF12
 517 0097 03       		.uleb128 0x3
 518 0098 73020000 		.4byte	.LASF13
 519 009c 03       		.byte	0x3
 520 009d 14       		.byte	0x14
 521 009e 2C000000 		.4byte	0x2c
 522 00a2 03       		.uleb128 0x3
 523 00a3 63080000 		.4byte	.LASF14
 524 00a7 03       		.byte	0x3
 525 00a8 1A       		.byte	0x1a
 526 00a9 45000000 		.4byte	0x45
 527 00ad 03       		.uleb128 0x3
 528 00ae 90000000 		.4byte	.LASF15
 529 00b2 03       		.byte	0x3
 530 00b3 1F       		.byte	0x1f
 531 00b4 57000000 		.4byte	0x57
 532 00b8 03       		.uleb128 0x3
 533 00b9 E40B0000 		.4byte	.LASF16
 534 00bd 03       		.byte	0x3
 535 00be 20       		.byte	0x20
 536 00bf 69000000 		.4byte	0x69
 537 00c3 02       		.uleb128 0x2
 538 00c4 04       		.byte	0x4
 539 00c5 07       		.byte	0x7
 540 00c6 33000000 		.4byte	.LASF17
 541 00ca 05       		.uleb128 0x5
 542 00cb B8000000 		.4byte	0xb8
 543 00cf 06       		.uleb128 0x6
 544 00d0 B8000000 		.4byte	0xb8
 545 00d4 DF000000 		.4byte	0xdf
 546 00d8 07       		.uleb128 0x7
ARM GAS  /tmp/ccvfQcT2.s 			page 11


 547 00d9 C3000000 		.4byte	0xc3
 548 00dd 01       		.byte	0x1
 549 00de 00       		.byte	0
 550 00df 05       		.uleb128 0x5
 551 00e0 97000000 		.4byte	0x97
 552 00e4 06       		.uleb128 0x6
 553 00e5 B8000000 		.4byte	0xb8
 554 00e9 F4000000 		.4byte	0xf4
 555 00ed 07       		.uleb128 0x7
 556 00ee C3000000 		.4byte	0xc3
 557 00f2 0E       		.byte	0xe
 558 00f3 00       		.byte	0
 559 00f4 05       		.uleb128 0x5
 560 00f5 AD000000 		.4byte	0xad
 561 00f9 08       		.uleb128 0x8
 562 00fa 97000000 		.4byte	0x97
 563 00fe 03       		.uleb128 0x3
 564 00ff 1B000000 		.4byte	.LASF18
 565 0103 04       		.byte	0x4
 566 0104 D4       		.byte	0xd4
 567 0105 90000000 		.4byte	0x90
 568 0109 09       		.uleb128 0x9
 569 010a 04       		.byte	0x4
 570 010b 02       		.uleb128 0x2
 571 010c 01       		.byte	0x1
 572 010d 08       		.byte	0x8
 573 010e 62030000 		.4byte	.LASF19
 574 0112 0A       		.uleb128 0xa
 575 0113 04       		.byte	0x4
 576 0114 18010000 		.4byte	0x118
 577 0118 08       		.uleb128 0x8
 578 0119 0B010000 		.4byte	0x10b
 579 011d 02       		.uleb128 0x2
 580 011e 01       		.byte	0x1
 581 011f 02       		.byte	0x2
 582 0120 24030000 		.4byte	.LASF20
 583 0124 03       		.uleb128 0x3
 584 0125 7E090000 		.4byte	.LASF21
 585 0129 05       		.byte	0x5
 586 012a 2C       		.byte	0x2c
 587 012b 97000000 		.4byte	0x97
 588 012f 03       		.uleb128 0x3
 589 0130 FD010000 		.4byte	.LASF22
 590 0134 05       		.byte	0x5
 591 0135 2D       		.byte	0x2d
 592 0136 97000000 		.4byte	0x97
 593 013a 03       		.uleb128 0x3
 594 013b A4080000 		.4byte	.LASF23
 595 013f 05       		.byte	0x5
 596 0140 2F       		.byte	0x2f
 597 0141 97000000 		.4byte	0x97
 598 0145 03       		.uleb128 0x3
 599 0146 5C000000 		.4byte	.LASF24
 600 014a 05       		.byte	0x5
 601 014b 30       		.byte	0x30
 602 014c B8000000 		.4byte	0xb8
 603 0150 03       		.uleb128 0x3
ARM GAS  /tmp/ccvfQcT2.s 			page 12


 604 0151 9E080000 		.4byte	.LASF25
 605 0155 05       		.byte	0x5
 606 0156 31       		.byte	0x31
 607 0157 AD000000 		.4byte	0xad
 608 015b 03       		.uleb128 0x3
 609 015c A2020000 		.4byte	.LASF26
 610 0160 05       		.byte	0x5
 611 0161 33       		.byte	0x33
 612 0162 B8000000 		.4byte	0xb8
 613 0166 03       		.uleb128 0x3
 614 0167 6A0A0000 		.4byte	.LASF27
 615 016b 06       		.byte	0x6
 616 016c 2A       		.byte	0x2a
 617 016d 71010000 		.4byte	0x171
 618 0171 0B       		.uleb128 0xb
 619 0172 6A0A0000 		.4byte	.LASF27
 620 0176 40       		.byte	0x40
 621 0177 07       		.byte	0x7
 622 0178 5E       		.byte	0x5e
 623 0179 4A020000 		.4byte	0x24a
 624 017d 0C       		.uleb128 0xc
 625 017e C5010000 		.4byte	.LASF28
 626 0182 07       		.byte	0x7
 627 0183 5F       		.byte	0x5f
 628 0184 6B020000 		.4byte	0x26b
 629 0188 00       		.byte	0
 630 0189 0C       		.uleb128 0xc
 631 018a D7010000 		.4byte	.LASF29
 632 018e 07       		.byte	0x7
 633 018f 61       		.byte	0x61
 634 0190 6B020000 		.4byte	0x26b
 635 0194 04       		.byte	0x4
 636 0195 0C       		.uleb128 0xc
 637 0196 9B030000 		.4byte	.LASF30
 638 019a 07       		.byte	0x7
 639 019b 63       		.byte	0x63
 640 019c 45010000 		.4byte	0x145
 641 01a0 08       		.byte	0x8
 642 01a1 0C       		.uleb128 0xc
 643 01a2 49000000 		.4byte	.LASF31
 644 01a6 07       		.byte	0x7
 645 01a7 64       		.byte	0x64
 646 01a8 F3030000 		.4byte	0x3f3
 647 01ac 0C       		.byte	0xc
 648 01ad 0C       		.uleb128 0xc
 649 01ae B4010000 		.4byte	.LASF32
 650 01b2 07       		.byte	0x7
 651 01b3 66       		.byte	0x66
 652 01b4 6B020000 		.4byte	0x26b
 653 01b8 10       		.byte	0x10
 654 01b9 0C       		.uleb128 0xc
 655 01ba 54080000 		.4byte	.LASF33
 656 01be 07       		.byte	0x7
 657 01bf 67       		.byte	0x67
 658 01c0 6B020000 		.4byte	0x26b
 659 01c4 14       		.byte	0x14
 660 01c5 0C       		.uleb128 0xc
ARM GAS  /tmp/ccvfQcT2.s 			page 13


 661 01c6 E90C0000 		.4byte	.LASF34
 662 01ca 07       		.byte	0x7
 663 01cb 6E       		.byte	0x6e
 664 01cc 12010000 		.4byte	0x112
 665 01d0 18       		.byte	0x18
 666 01d1 0C       		.uleb128 0xc
 667 01d2 110D0000 		.4byte	.LASF35
 668 01d6 07       		.byte	0x7
 669 01d7 79       		.byte	0x79
 670 01d8 2F010000 		.4byte	0x12f
 671 01dc 1C       		.byte	0x1c
 672 01dd 0C       		.uleb128 0xc
 673 01de 95060000 		.4byte	.LASF36
 674 01e2 07       		.byte	0x7
 675 01e3 7D       		.byte	0x7d
 676 01e4 24010000 		.4byte	0x124
 677 01e8 1D       		.byte	0x1d
 678 01e9 0C       		.uleb128 0xc
 679 01ea 69020000 		.4byte	.LASF37
 680 01ee 07       		.byte	0x7
 681 01ef 88       		.byte	0x88
 682 01f0 3A010000 		.4byte	0x13a
 683 01f4 1E       		.byte	0x1e
 684 01f5 0D       		.uleb128 0xd
 685 01f6 705F7500 		.ascii	"p_u\000"
 686 01fa 07       		.byte	0x7
 687 01fb B4       		.byte	0xb4
 688 01fc 56040000 		.4byte	0x456
 689 0200 20       		.byte	0x20
 690 0201 0C       		.uleb128 0xc
 691 0202 7C060000 		.4byte	.LASF38
 692 0206 07       		.byte	0x7
 693 0207 B9       		.byte	0xb9
 694 0208 91020000 		.4byte	0x291
 695 020c 24       		.byte	0x24
 696 020d 0C       		.uleb128 0xc
 697 020e 73000000 		.4byte	.LASF39
 698 0212 07       		.byte	0x7
 699 0213 BF       		.byte	0xbf
 700 0214 71020000 		.4byte	0x271
 701 0218 28       		.byte	0x28
 702 0219 0C       		.uleb128 0xc
 703 021a 0B0D0000 		.4byte	.LASF40
 704 021e 07       		.byte	0x7
 705 021f C3       		.byte	0xc3
 706 0220 50010000 		.4byte	0x150
 707 0224 30       		.byte	0x30
 708 0225 0C       		.uleb128 0xc
 709 0226 6D040000 		.4byte	.LASF41
 710 022a 07       		.byte	0x7
 711 022b C9       		.byte	0xc9
 712 022c 5B010000 		.4byte	0x15b
 713 0230 34       		.byte	0x34
 714 0231 0C       		.uleb128 0xc
 715 0232 06020000 		.4byte	.LASF42
 716 0236 07       		.byte	0x7
 717 0237 D0       		.byte	0xd0
ARM GAS  /tmp/ccvfQcT2.s 			page 14


 718 0238 8B040000 		.4byte	0x48b
 719 023c 38       		.byte	0x38
 720 023d 0C       		.uleb128 0xc
 721 023e DF070000 		.4byte	.LASF43
 722 0242 07       		.byte	0x7
 723 0243 D4       		.byte	0xd4
 724 0244 45010000 		.4byte	0x145
 725 0248 3C       		.byte	0x3c
 726 0249 00       		.byte	0
 727 024a 0E       		.uleb128 0xe
 728 024b 08       		.byte	0x8
 729 024c 06       		.byte	0x6
 730 024d 61       		.byte	0x61
 731 024e 6B020000 		.4byte	0x26b
 732 0252 0C       		.uleb128 0xc
 733 0253 C5010000 		.4byte	.LASF28
 734 0257 06       		.byte	0x6
 735 0258 62       		.byte	0x62
 736 0259 6B020000 		.4byte	0x26b
 737 025d 00       		.byte	0
 738 025e 0C       		.uleb128 0xc
 739 025f D7010000 		.4byte	.LASF29
 740 0263 06       		.byte	0x6
 741 0264 64       		.byte	0x64
 742 0265 6B020000 		.4byte	0x26b
 743 0269 04       		.byte	0x4
 744 026a 00       		.byte	0
 745 026b 0A       		.uleb128 0xa
 746 026c 04       		.byte	0x4
 747 026d 66010000 		.4byte	0x166
 748 0271 03       		.uleb128 0x3
 749 0272 010C0000 		.4byte	.LASF44
 750 0276 06       		.byte	0x6
 751 0277 66       		.byte	0x66
 752 0278 4A020000 		.4byte	0x24a
 753 027c 0E       		.uleb128 0xe
 754 027d 04       		.byte	0x4
 755 027e 06       		.byte	0x6
 756 027f 6B       		.byte	0x6b
 757 0280 91020000 		.4byte	0x291
 758 0284 0C       		.uleb128 0xc
 759 0285 C5010000 		.4byte	.LASF28
 760 0289 06       		.byte	0x6
 761 028a 6D       		.byte	0x6d
 762 028b 6B020000 		.4byte	0x26b
 763 028f 00       		.byte	0
 764 0290 00       		.byte	0
 765 0291 03       		.uleb128 0x3
 766 0292 51070000 		.4byte	.LASF45
 767 0296 06       		.byte	0x6
 768 0297 70       		.byte	0x70
 769 0298 7C020000 		.4byte	0x27c
 770 029c 03       		.uleb128 0x3
 771 029d 10020000 		.4byte	.LASF46
 772 02a1 08       		.byte	0x8
 773 02a2 E5       		.byte	0xe5
 774 02a3 09010000 		.4byte	0x109
ARM GAS  /tmp/ccvfQcT2.s 			page 15


 775 02a7 0F       		.uleb128 0xf
 776 02a8 60040000 		.4byte	.LASF47
 777 02ac 64       		.byte	0x64
 778 02ad 08       		.byte	0x8
 779 02ae 0C01     		.2byte	0x10c
 780 02b0 F3030000 		.4byte	0x3f3
 781 02b4 10       		.uleb128 0x10
 782 02b5 73313600 		.ascii	"s16\000"
 783 02b9 08       		.byte	0x8
 784 02ba 0E01     		.2byte	0x10e
 785 02bc 9C020000 		.4byte	0x29c
 786 02c0 00       		.byte	0
 787 02c1 10       		.uleb128 0x10
 788 02c2 73313700 		.ascii	"s17\000"
 789 02c6 08       		.byte	0x8
 790 02c7 0F01     		.2byte	0x10f
 791 02c9 9C020000 		.4byte	0x29c
 792 02cd 04       		.byte	0x4
 793 02ce 10       		.uleb128 0x10
 794 02cf 73313800 		.ascii	"s18\000"
 795 02d3 08       		.byte	0x8
 796 02d4 1001     		.2byte	0x110
 797 02d6 9C020000 		.4byte	0x29c
 798 02da 08       		.byte	0x8
 799 02db 10       		.uleb128 0x10
 800 02dc 73313900 		.ascii	"s19\000"
 801 02e0 08       		.byte	0x8
 802 02e1 1101     		.2byte	0x111
 803 02e3 9C020000 		.4byte	0x29c
 804 02e7 0C       		.byte	0xc
 805 02e8 10       		.uleb128 0x10
 806 02e9 73323000 		.ascii	"s20\000"
 807 02ed 08       		.byte	0x8
 808 02ee 1201     		.2byte	0x112
 809 02f0 9C020000 		.4byte	0x29c
 810 02f4 10       		.byte	0x10
 811 02f5 10       		.uleb128 0x10
 812 02f6 73323100 		.ascii	"s21\000"
 813 02fa 08       		.byte	0x8
 814 02fb 1301     		.2byte	0x113
 815 02fd 9C020000 		.4byte	0x29c
 816 0301 14       		.byte	0x14
 817 0302 10       		.uleb128 0x10
 818 0303 73323200 		.ascii	"s22\000"
 819 0307 08       		.byte	0x8
 820 0308 1401     		.2byte	0x114
 821 030a 9C020000 		.4byte	0x29c
 822 030e 18       		.byte	0x18
 823 030f 10       		.uleb128 0x10
 824 0310 73323300 		.ascii	"s23\000"
 825 0314 08       		.byte	0x8
 826 0315 1501     		.2byte	0x115
 827 0317 9C020000 		.4byte	0x29c
 828 031b 1C       		.byte	0x1c
 829 031c 10       		.uleb128 0x10
 830 031d 73323400 		.ascii	"s24\000"
 831 0321 08       		.byte	0x8
ARM GAS  /tmp/ccvfQcT2.s 			page 16


 832 0322 1601     		.2byte	0x116
 833 0324 9C020000 		.4byte	0x29c
 834 0328 20       		.byte	0x20
 835 0329 10       		.uleb128 0x10
 836 032a 73323500 		.ascii	"s25\000"
 837 032e 08       		.byte	0x8
 838 032f 1701     		.2byte	0x117
 839 0331 9C020000 		.4byte	0x29c
 840 0335 24       		.byte	0x24
 841 0336 10       		.uleb128 0x10
 842 0337 73323600 		.ascii	"s26\000"
 843 033b 08       		.byte	0x8
 844 033c 1801     		.2byte	0x118
 845 033e 9C020000 		.4byte	0x29c
 846 0342 28       		.byte	0x28
 847 0343 10       		.uleb128 0x10
 848 0344 73323700 		.ascii	"s27\000"
 849 0348 08       		.byte	0x8
 850 0349 1901     		.2byte	0x119
 851 034b 9C020000 		.4byte	0x29c
 852 034f 2C       		.byte	0x2c
 853 0350 10       		.uleb128 0x10
 854 0351 73323800 		.ascii	"s28\000"
 855 0355 08       		.byte	0x8
 856 0356 1A01     		.2byte	0x11a
 857 0358 9C020000 		.4byte	0x29c
 858 035c 30       		.byte	0x30
 859 035d 10       		.uleb128 0x10
 860 035e 73323900 		.ascii	"s29\000"
 861 0362 08       		.byte	0x8
 862 0363 1B01     		.2byte	0x11b
 863 0365 9C020000 		.4byte	0x29c
 864 0369 34       		.byte	0x34
 865 036a 10       		.uleb128 0x10
 866 036b 73333000 		.ascii	"s30\000"
 867 036f 08       		.byte	0x8
 868 0370 1C01     		.2byte	0x11c
 869 0372 9C020000 		.4byte	0x29c
 870 0376 38       		.byte	0x38
 871 0377 10       		.uleb128 0x10
 872 0378 73333100 		.ascii	"s31\000"
 873 037c 08       		.byte	0x8
 874 037d 1D01     		.2byte	0x11d
 875 037f 9C020000 		.4byte	0x29c
 876 0383 3C       		.byte	0x3c
 877 0384 10       		.uleb128 0x10
 878 0385 723400   		.ascii	"r4\000"
 879 0388 08       		.byte	0x8
 880 0389 1F01     		.2byte	0x11f
 881 038b 9C020000 		.4byte	0x29c
 882 038f 40       		.byte	0x40
 883 0390 10       		.uleb128 0x10
 884 0391 723500   		.ascii	"r5\000"
 885 0394 08       		.byte	0x8
 886 0395 2001     		.2byte	0x120
 887 0397 9C020000 		.4byte	0x29c
 888 039b 44       		.byte	0x44
ARM GAS  /tmp/ccvfQcT2.s 			page 17


 889 039c 10       		.uleb128 0x10
 890 039d 723600   		.ascii	"r6\000"
 891 03a0 08       		.byte	0x8
 892 03a1 2101     		.2byte	0x121
 893 03a3 9C020000 		.4byte	0x29c
 894 03a7 48       		.byte	0x48
 895 03a8 10       		.uleb128 0x10
 896 03a9 723700   		.ascii	"r7\000"
 897 03ac 08       		.byte	0x8
 898 03ad 2201     		.2byte	0x122
 899 03af 9C020000 		.4byte	0x29c
 900 03b3 4C       		.byte	0x4c
 901 03b4 10       		.uleb128 0x10
 902 03b5 723800   		.ascii	"r8\000"
 903 03b8 08       		.byte	0x8
 904 03b9 2301     		.2byte	0x123
 905 03bb 9C020000 		.4byte	0x29c
 906 03bf 50       		.byte	0x50
 907 03c0 10       		.uleb128 0x10
 908 03c1 723900   		.ascii	"r9\000"
 909 03c4 08       		.byte	0x8
 910 03c5 2401     		.2byte	0x124
 911 03c7 9C020000 		.4byte	0x29c
 912 03cb 54       		.byte	0x54
 913 03cc 10       		.uleb128 0x10
 914 03cd 72313000 		.ascii	"r10\000"
 915 03d1 08       		.byte	0x8
 916 03d2 2501     		.2byte	0x125
 917 03d4 9C020000 		.4byte	0x29c
 918 03d8 58       		.byte	0x58
 919 03d9 10       		.uleb128 0x10
 920 03da 72313100 		.ascii	"r11\000"
 921 03de 08       		.byte	0x8
 922 03df 2601     		.2byte	0x126
 923 03e1 9C020000 		.4byte	0x29c
 924 03e5 5C       		.byte	0x5c
 925 03e6 10       		.uleb128 0x10
 926 03e7 6C7200   		.ascii	"lr\000"
 927 03ea 08       		.byte	0x8
 928 03eb 2701     		.2byte	0x127
 929 03ed 9C020000 		.4byte	0x29c
 930 03f1 60       		.byte	0x60
 931 03f2 00       		.byte	0
 932 03f3 0F       		.uleb128 0xf
 933 03f4 AE020000 		.4byte	.LASF48
 934 03f8 04       		.byte	0x4
 935 03f9 08       		.byte	0x8
 936 03fa 3101     		.2byte	0x131
 937 03fc 0E040000 		.4byte	0x40e
 938 0400 10       		.uleb128 0x10
 939 0401 72313300 		.ascii	"r13\000"
 940 0405 08       		.byte	0x8
 941 0406 3201     		.2byte	0x132
 942 0408 0E040000 		.4byte	0x40e
 943 040c 00       		.byte	0
 944 040d 00       		.byte	0
 945 040e 0A       		.uleb128 0xa
ARM GAS  /tmp/ccvfQcT2.s 			page 18


 946 040f 04       		.byte	0x4
 947 0410 A7020000 		.4byte	0x2a7
 948 0414 0B       		.uleb128 0xb
 949 0415 D5050000 		.4byte	.LASF49
 950 0419 10       		.byte	0x10
 951 041a 09       		.byte	0x9
 952 041b 2C       		.byte	0x2c
 953 041c 45040000 		.4byte	0x445
 954 0420 0C       		.uleb128 0xc
 955 0421 08060000 		.4byte	.LASF50
 956 0425 09       		.byte	0x9
 957 0426 2D       		.byte	0x2d
 958 0427 71020000 		.4byte	0x271
 959 042b 00       		.byte	0
 960 042c 0C       		.uleb128 0xc
 961 042d 60010000 		.4byte	.LASF51
 962 0431 09       		.byte	0x9
 963 0432 2F       		.byte	0x2f
 964 0433 6B020000 		.4byte	0x26b
 965 0437 08       		.byte	0x8
 966 0438 0C       		.uleb128 0xc
 967 0439 F00C0000 		.4byte	.LASF52
 968 043d 09       		.byte	0x9
 969 043e 31       		.byte	0x31
 970 043f 45040000 		.4byte	0x445
 971 0443 0C       		.byte	0xc
 972 0444 00       		.byte	0
 973 0445 0A       		.uleb128 0xa
 974 0446 04       		.byte	0x4
 975 0447 14040000 		.4byte	0x414
 976 044b 03       		.uleb128 0x3
 977 044c D5050000 		.4byte	.LASF49
 978 0450 09       		.byte	0x9
 979 0451 33       		.byte	0x33
 980 0452 14040000 		.4byte	0x414
 981 0456 11       		.uleb128 0x11
 982 0457 04       		.byte	0x4
 983 0458 07       		.byte	0x7
 984 0459 96       		.byte	0x96
 985 045a 8B040000 		.4byte	0x48b
 986 045e 12       		.uleb128 0x12
 987 045f 390C0000 		.4byte	.LASF53
 988 0463 07       		.byte	0x7
 989 0464 9D       		.byte	0x9d
 990 0465 50010000 		.4byte	0x150
 991 0469 12       		.uleb128 0x12
 992 046a 68010000 		.4byte	.LASF54
 993 046e 07       		.byte	0x7
 994 046f A4       		.byte	0xa4
 995 0470 50010000 		.4byte	0x150
 996 0474 12       		.uleb128 0x12
 997 0475 B8030000 		.4byte	.LASF55
 998 0479 07       		.byte	0x7
 999 047a AB       		.byte	0xab
 1000 047b 09010000 		.4byte	0x109
 1001 047f 12       		.uleb128 0x12
 1002 0480 8C010000 		.4byte	.LASF56
ARM GAS  /tmp/ccvfQcT2.s 			page 19


 1003 0484 07       		.byte	0x7
 1004 0485 B2       		.byte	0xb2
 1005 0486 5B010000 		.4byte	0x15b
 1006 048a 00       		.byte	0
 1007 048b 0A       		.uleb128 0xa
 1008 048c 04       		.byte	0x4
 1009 048d 4B040000 		.4byte	0x44b
 1010 0491 0A       		.uleb128 0xa
 1011 0492 04       		.byte	0x4
 1012 0493 97000000 		.4byte	0x97
 1013 0497 13       		.uleb128 0x13
 1014 0498 425700   		.ascii	"BW\000"
 1015 049b 02       		.byte	0x2
 1016 049c 0A       		.byte	0xa
 1017 049d CD       		.byte	0xcd
 1018 049e BB040000 		.4byte	0x4bb
 1019 04a2 0D       		.uleb128 0xd
 1020 04a3 6D736200 		.ascii	"msb\000"
 1021 04a7 0A       		.byte	0xa
 1022 04a8 CF       		.byte	0xcf
 1023 04a9 97000000 		.4byte	0x97
 1024 04ad 00       		.byte	0
 1025 04ae 0D       		.uleb128 0xd
 1026 04af 6C736200 		.ascii	"lsb\000"
 1027 04b3 0A       		.byte	0xa
 1028 04b4 D0       		.byte	0xd0
 1029 04b5 97000000 		.4byte	0x97
 1030 04b9 01       		.byte	0x1
 1031 04ba 00       		.byte	0
 1032 04bb 11       		.uleb128 0x11
 1033 04bc 02       		.byte	0x2
 1034 04bd 0A       		.byte	0xa
 1035 04be CA       		.byte	0xca
 1036 04bf D7040000 		.4byte	0x4d7
 1037 04c3 14       		.uleb128 0x14
 1038 04c4 7700     		.ascii	"w\000"
 1039 04c6 0A       		.byte	0xa
 1040 04c7 CC       		.byte	0xcc
 1041 04c8 A2000000 		.4byte	0xa2
 1042 04cc 14       		.uleb128 0x14
 1043 04cd 627700   		.ascii	"bw\000"
 1044 04d0 0A       		.byte	0xa
 1045 04d1 D2       		.byte	0xd2
 1046 04d2 97040000 		.4byte	0x497
 1047 04d6 00       		.byte	0
 1048 04d7 03       		.uleb128 0x3
 1049 04d8 72080000 		.4byte	.LASF57
 1050 04dc 0A       		.byte	0xa
 1051 04dd D4       		.byte	0xd4
 1052 04de BB040000 		.4byte	0x4bb
 1053 04e2 0B       		.uleb128 0xb
 1054 04e3 82040000 		.4byte	.LASF58
 1055 04e7 08       		.byte	0x8
 1056 04e8 0A       		.byte	0xa
 1057 04e9 DB       		.byte	0xdb
 1058 04ea 2B050000 		.4byte	0x52b
 1059 04ee 0C       		.uleb128 0xc
ARM GAS  /tmp/ccvfQcT2.s 			page 20


 1060 04ef CE020000 		.4byte	.LASF59
 1061 04f3 0A       		.byte	0xa
 1062 04f4 DD       		.byte	0xdd
 1063 04f5 97000000 		.4byte	0x97
 1064 04f9 00       		.byte	0
 1065 04fa 0C       		.uleb128 0xc
 1066 04fb 85070000 		.4byte	.LASF60
 1067 04ff 0A       		.byte	0xa
 1068 0500 DE       		.byte	0xde
 1069 0501 97000000 		.4byte	0x97
 1070 0505 01       		.byte	0x1
 1071 0506 0C       		.uleb128 0xc
 1072 0507 1D030000 		.4byte	.LASF61
 1073 050b 0A       		.byte	0xa
 1074 050c DF       		.byte	0xdf
 1075 050d D7040000 		.4byte	0x4d7
 1076 0511 02       		.byte	0x2
 1077 0512 0C       		.uleb128 0xc
 1078 0513 3F080000 		.4byte	.LASF62
 1079 0517 0A       		.byte	0xa
 1080 0518 E0       		.byte	0xe0
 1081 0519 D7040000 		.4byte	0x4d7
 1082 051d 04       		.byte	0x4
 1083 051e 0C       		.uleb128 0xc
 1084 051f DE000000 		.4byte	.LASF63
 1085 0523 0A       		.byte	0xa
 1086 0524 E1       		.byte	0xe1
 1087 0525 D7040000 		.4byte	0x4d7
 1088 0529 06       		.byte	0x6
 1089 052a 00       		.byte	0
 1090 052b 15       		.uleb128 0x15
 1091 052c CD030000 		.4byte	.LASF245
 1092 0530 08       		.byte	0x8
 1093 0531 0A       		.byte	0xa
 1094 0532 D7       		.byte	0xd7
 1095 0533 4B050000 		.4byte	0x54b
 1096 0537 14       		.uleb128 0x14
 1097 0538 643800   		.ascii	"d8\000"
 1098 053b 0A       		.byte	0xa
 1099 053c D9       		.byte	0xd9
 1100 053d CF000000 		.4byte	0xcf
 1101 0541 14       		.uleb128 0x14
 1102 0542 6200     		.ascii	"b\000"
 1103 0544 0A       		.byte	0xa
 1104 0545 E2       		.byte	0xe2
 1105 0546 E2040000 		.4byte	0x4e2
 1106 054a 00       		.byte	0
 1107 054b 03       		.uleb128 0x3
 1108 054c 82050000 		.4byte	.LASF64
 1109 0550 0A       		.byte	0xa
 1110 0551 E4       		.byte	0xe4
 1111 0552 2B050000 		.4byte	0x52b
 1112 0556 0B       		.uleb128 0xb
 1113 0557 D3090000 		.4byte	.LASF65
 1114 055b 12       		.byte	0x12
 1115 055c 0A       		.byte	0xa
 1116 055d ED       		.byte	0xed
ARM GAS  /tmp/ccvfQcT2.s 			page 21


 1117 055e 0B060000 		.4byte	0x60b
 1118 0562 0C       		.uleb128 0xc
 1119 0563 0F080000 		.4byte	.LASF66
 1120 0567 0A       		.byte	0xa
 1121 0568 EF       		.byte	0xef
 1122 0569 97000000 		.4byte	0x97
 1123 056d 00       		.byte	0
 1124 056e 0C       		.uleb128 0xc
 1125 056f A5040000 		.4byte	.LASF67
 1126 0573 0A       		.byte	0xa
 1127 0574 F0       		.byte	0xf0
 1128 0575 97000000 		.4byte	0x97
 1129 0579 01       		.byte	0x1
 1130 057a 0C       		.uleb128 0xc
 1131 057b 34010000 		.4byte	.LASF68
 1132 057f 0A       		.byte	0xa
 1133 0580 F1       		.byte	0xf1
 1134 0581 A2000000 		.4byte	0xa2
 1135 0585 02       		.byte	0x2
 1136 0586 0C       		.uleb128 0xc
 1137 0587 B2090000 		.4byte	.LASF69
 1138 058b 0A       		.byte	0xa
 1139 058c F2       		.byte	0xf2
 1140 058d 97000000 		.4byte	0x97
 1141 0591 04       		.byte	0x4
 1142 0592 0C       		.uleb128 0xc
 1143 0593 98000000 		.4byte	.LASF70
 1144 0597 0A       		.byte	0xa
 1145 0598 F3       		.byte	0xf3
 1146 0599 97000000 		.4byte	0x97
 1147 059d 05       		.byte	0x5
 1148 059e 0C       		.uleb128 0xc
 1149 059f 9F0B0000 		.4byte	.LASF71
 1150 05a3 0A       		.byte	0xa
 1151 05a4 F4       		.byte	0xf4
 1152 05a5 97000000 		.4byte	0x97
 1153 05a9 06       		.byte	0x6
 1154 05aa 0C       		.uleb128 0xc
 1155 05ab 8E070000 		.4byte	.LASF72
 1156 05af 0A       		.byte	0xa
 1157 05b0 F8       		.byte	0xf8
 1158 05b1 97000000 		.4byte	0x97
 1159 05b5 07       		.byte	0x7
 1160 05b6 0C       		.uleb128 0xc
 1161 05b7 E0080000 		.4byte	.LASF73
 1162 05bb 0A       		.byte	0xa
 1163 05bc F9       		.byte	0xf9
 1164 05bd A2000000 		.4byte	0xa2
 1165 05c1 08       		.byte	0x8
 1166 05c2 0C       		.uleb128 0xc
 1167 05c3 CB080000 		.4byte	.LASF74
 1168 05c7 0A       		.byte	0xa
 1169 05c8 FA       		.byte	0xfa
 1170 05c9 A2000000 		.4byte	0xa2
 1171 05cd 0A       		.byte	0xa
 1172 05ce 0C       		.uleb128 0xc
 1173 05cf B6020000 		.4byte	.LASF75
ARM GAS  /tmp/ccvfQcT2.s 			page 22


 1174 05d3 0A       		.byte	0xa
 1175 05d4 FB       		.byte	0xfb
 1176 05d5 A2000000 		.4byte	0xa2
 1177 05d9 0C       		.byte	0xc
 1178 05da 0C       		.uleb128 0xc
 1179 05db 46060000 		.4byte	.LASF76
 1180 05df 0A       		.byte	0xa
 1181 05e0 FC       		.byte	0xfc
 1182 05e1 97000000 		.4byte	0x97
 1183 05e5 0E       		.byte	0xe
 1184 05e6 0C       		.uleb128 0xc
 1185 05e7 00000000 		.4byte	.LASF77
 1186 05eb 0A       		.byte	0xa
 1187 05ec FD       		.byte	0xfd
 1188 05ed 97000000 		.4byte	0x97
 1189 05f1 0F       		.byte	0xf
 1190 05f2 0C       		.uleb128 0xc
 1191 05f3 E1040000 		.4byte	.LASF78
 1192 05f7 0A       		.byte	0xa
 1193 05f8 FE       		.byte	0xfe
 1194 05f9 97000000 		.4byte	0x97
 1195 05fd 10       		.byte	0x10
 1196 05fe 0C       		.uleb128 0xc
 1197 05ff AE080000 		.4byte	.LASF79
 1198 0603 0A       		.byte	0xa
 1199 0604 FF       		.byte	0xff
 1200 0605 97000000 		.4byte	0x97
 1201 0609 11       		.byte	0x11
 1202 060a 00       		.byte	0
 1203 060b 16       		.uleb128 0x16
 1204 060c 57090000 		.4byte	.LASF80
 1205 0610 0A       		.byte	0xa
 1206 0611 0101     		.2byte	0x101
 1207 0613 56050000 		.4byte	0x556
 1208 0617 0F       		.uleb128 0xf
 1209 0618 19020000 		.4byte	.LASF81
 1210 061c 08       		.byte	0x8
 1211 061d 0A       		.byte	0xa
 1212 061e 0301     		.2byte	0x103
 1213 0620 73060000 		.4byte	0x673
 1214 0624 17       		.uleb128 0x17
 1215 0625 0F080000 		.4byte	.LASF66
 1216 0629 0A       		.byte	0xa
 1217 062a 0501     		.2byte	0x105
 1218 062c 97000000 		.4byte	0x97
 1219 0630 00       		.byte	0
 1220 0631 17       		.uleb128 0x17
 1221 0632 A5040000 		.4byte	.LASF67
 1222 0636 0A       		.byte	0xa
 1223 0637 0601     		.2byte	0x106
 1224 0639 97000000 		.4byte	0x97
 1225 063d 01       		.byte	0x1
 1226 063e 17       		.uleb128 0x17
 1227 063f 22000000 		.4byte	.LASF82
 1228 0643 0A       		.byte	0xa
 1229 0644 0701     		.2byte	0x107
 1230 0646 97000000 		.4byte	0x97
ARM GAS  /tmp/ccvfQcT2.s 			page 23


 1231 064a 02       		.byte	0x2
 1232 064b 17       		.uleb128 0x17
 1233 064c A1050000 		.4byte	.LASF83
 1234 0650 0A       		.byte	0xa
 1235 0651 0801     		.2byte	0x108
 1236 0653 97000000 		.4byte	0x97
 1237 0657 03       		.byte	0x3
 1238 0658 17       		.uleb128 0x17
 1239 0659 20060000 		.4byte	.LASF84
 1240 065d 0A       		.byte	0xa
 1241 065e 0901     		.2byte	0x109
 1242 0660 A2000000 		.4byte	0xa2
 1243 0664 04       		.byte	0x4
 1244 0665 17       		.uleb128 0x17
 1245 0666 200A0000 		.4byte	.LASF85
 1246 066a 0A       		.byte	0xa
 1247 066b 0A01     		.2byte	0x10a
 1248 066d 97000000 		.4byte	0x97
 1249 0671 06       		.byte	0x6
 1250 0672 00       		.byte	0
 1251 0673 16       		.uleb128 0x16
 1252 0674 260C0000 		.4byte	.LASF86
 1253 0678 0A       		.byte	0xa
 1254 0679 0C01     		.2byte	0x10c
 1255 067b 17060000 		.4byte	0x617
 1256 067f 0F       		.uleb128 0xf
 1257 0680 E9080000 		.4byte	.LASF87
 1258 0684 3A       		.byte	0x3a
 1259 0685 0A       		.byte	0xa
 1260 0686 0E01     		.2byte	0x10e
 1261 0688 0F070000 		.4byte	0x70f
 1262 068c 17       		.uleb128 0x17
 1263 068d 0F080000 		.4byte	.LASF66
 1264 0691 0A       		.byte	0xa
 1265 0692 1001     		.2byte	0x110
 1266 0694 97000000 		.4byte	0x97
 1267 0698 00       		.byte	0
 1268 0699 17       		.uleb128 0x17
 1269 069a A5040000 		.4byte	.LASF67
 1270 069e 0A       		.byte	0xa
 1271 069f 1101     		.2byte	0x111
 1272 06a1 97000000 		.4byte	0x97
 1273 06a5 01       		.byte	0x1
 1274 06a6 17       		.uleb128 0x17
 1275 06a7 E5090000 		.4byte	.LASF88
 1276 06ab 0A       		.byte	0xa
 1277 06ac 1201     		.2byte	0x112
 1278 06ae 97000000 		.4byte	0x97
 1279 06b2 02       		.byte	0x2
 1280 06b3 17       		.uleb128 0x17
 1281 06b4 09000000 		.4byte	.LASF89
 1282 06b8 0A       		.byte	0xa
 1283 06b9 1301     		.2byte	0x113
 1284 06bb 97000000 		.4byte	0x97
 1285 06bf 03       		.byte	0x3
 1286 06c0 17       		.uleb128 0x17
 1287 06c1 58050000 		.4byte	.LASF90
ARM GAS  /tmp/ccvfQcT2.s 			page 24


 1288 06c5 0A       		.byte	0xa
 1289 06c6 1401     		.2byte	0x114
 1290 06c8 97000000 		.4byte	0x97
 1291 06cc 04       		.byte	0x4
 1292 06cd 17       		.uleb128 0x17
 1293 06ce 0D070000 		.4byte	.LASF91
 1294 06d2 0A       		.byte	0xa
 1295 06d3 1501     		.2byte	0x115
 1296 06d5 97000000 		.4byte	0x97
 1297 06d9 05       		.byte	0x5
 1298 06da 17       		.uleb128 0x17
 1299 06db 6B090000 		.4byte	.LASF92
 1300 06df 0A       		.byte	0xa
 1301 06e0 1601     		.2byte	0x116
 1302 06e2 97000000 		.4byte	0x97
 1303 06e6 06       		.byte	0x6
 1304 06e7 17       		.uleb128 0x17
 1305 06e8 4A020000 		.4byte	.LASF93
 1306 06ec 0A       		.byte	0xa
 1307 06ed 1701     		.2byte	0x117
 1308 06ef 97000000 		.4byte	0x97
 1309 06f3 07       		.byte	0x7
 1310 06f4 17       		.uleb128 0x17
 1311 06f5 23090000 		.4byte	.LASF94
 1312 06f9 0A       		.byte	0xa
 1313 06fa 1801     		.2byte	0x118
 1314 06fc 97000000 		.4byte	0x97
 1315 0700 08       		.byte	0x8
 1316 0701 17       		.uleb128 0x17
 1317 0702 49070000 		.4byte	.LASF95
 1318 0706 0A       		.byte	0xa
 1319 0707 1901     		.2byte	0x119
 1320 0709 0F070000 		.4byte	0x70f
 1321 070d 0A       		.byte	0xa
 1322 070e 00       		.byte	0
 1323 070f 06       		.uleb128 0x6
 1324 0710 73060000 		.4byte	0x673
 1325 0714 1F070000 		.4byte	0x71f
 1326 0718 07       		.uleb128 0x7
 1327 0719 C3000000 		.4byte	0xc3
 1328 071d 05       		.byte	0x5
 1329 071e 00       		.byte	0
 1330 071f 16       		.uleb128 0x16
 1331 0720 3E050000 		.4byte	.LASF96
 1332 0724 0A       		.byte	0xa
 1333 0725 1B01     		.2byte	0x11b
 1334 0727 7F060000 		.4byte	0x67f
 1335 072b 18       		.uleb128 0x18
 1336 072c 9B010000 		.4byte	.LASF97
 1337 0730 6601     		.2byte	0x166
 1338 0732 0A       		.byte	0xa
 1339 0733 1E01     		.2byte	0x11e
 1340 0735 AF070000 		.4byte	0x7af
 1341 0739 17       		.uleb128 0x17
 1342 073a 0F080000 		.4byte	.LASF66
 1343 073e 0A       		.byte	0xa
 1344 073f 2001     		.2byte	0x120
ARM GAS  /tmp/ccvfQcT2.s 			page 25


 1345 0741 97000000 		.4byte	0x97
 1346 0745 00       		.byte	0
 1347 0746 17       		.uleb128 0x17
 1348 0747 A5040000 		.4byte	.LASF67
 1349 074b 0A       		.byte	0xa
 1350 074c 2101     		.2byte	0x121
 1351 074e 97000000 		.4byte	0x97
 1352 0752 01       		.byte	0x1
 1353 0753 17       		.uleb128 0x17
 1354 0754 D2070000 		.4byte	.LASF98
 1355 0758 0A       		.byte	0xa
 1356 0759 2201     		.2byte	0x122
 1357 075b A2000000 		.4byte	0xa2
 1358 075f 02       		.byte	0x2
 1359 0760 17       		.uleb128 0x17
 1360 0761 FE060000 		.4byte	.LASF99
 1361 0765 0A       		.byte	0xa
 1362 0766 2301     		.2byte	0x123
 1363 0768 97000000 		.4byte	0x97
 1364 076c 04       		.byte	0x4
 1365 076d 17       		.uleb128 0x17
 1366 076e 1D070000 		.4byte	.LASF100
 1367 0772 0A       		.byte	0xa
 1368 0773 2401     		.2byte	0x124
 1369 0775 97000000 		.4byte	0x97
 1370 0779 05       		.byte	0x5
 1371 077a 17       		.uleb128 0x17
 1372 077b 68070000 		.4byte	.LASF101
 1373 077f 0A       		.byte	0xa
 1374 0780 2501     		.2byte	0x125
 1375 0782 97000000 		.4byte	0x97
 1376 0786 06       		.byte	0x6
 1377 0787 17       		.uleb128 0x17
 1378 0788 A1050000 		.4byte	.LASF83
 1379 078c 0A       		.byte	0xa
 1380 078d 2601     		.2byte	0x126
 1381 078f 97000000 		.4byte	0x97
 1382 0793 07       		.byte	0x7
 1383 0794 17       		.uleb128 0x17
 1384 0795 1C0C0000 		.4byte	.LASF102
 1385 0799 0A       		.byte	0xa
 1386 079a 2701     		.2byte	0x127
 1387 079c 97000000 		.4byte	0x97
 1388 07a0 08       		.byte	0x8
 1389 07a1 17       		.uleb128 0x17
 1390 07a2 17060000 		.4byte	.LASF103
 1391 07a6 0A       		.byte	0xa
 1392 07a7 2801     		.2byte	0x128
 1393 07a9 AF070000 		.4byte	0x7af
 1394 07ad 0A       		.byte	0xa
 1395 07ae 00       		.byte	0
 1396 07af 06       		.uleb128 0x6
 1397 07b0 1F070000 		.4byte	0x71f
 1398 07b4 BF070000 		.4byte	0x7bf
 1399 07b8 07       		.uleb128 0x7
 1400 07b9 C3000000 		.4byte	0xc3
 1401 07bd 05       		.byte	0x5
ARM GAS  /tmp/ccvfQcT2.s 			page 26


 1402 07be 00       		.byte	0
 1403 07bf 16       		.uleb128 0x16
 1404 07c0 ED0B0000 		.4byte	.LASF104
 1405 07c4 0A       		.byte	0xa
 1406 07c5 2A01     		.2byte	0x12a
 1407 07c7 2B070000 		.4byte	0x72b
 1408 07cb 19       		.uleb128 0x19
 1409 07cc 01       		.byte	0x1
 1410 07cd 0A       		.byte	0xa
 1411 07ce 2F01     		.2byte	0x12f
 1412 07d0 F9070000 		.4byte	0x7f9
 1413 07d4 1A       		.uleb128 0x1a
 1414 07d5 E6000000 		.4byte	.LASF105
 1415 07d9 00       		.sleb128 0
 1416 07da 1A       		.uleb128 0x1a
 1417 07db EE000000 		.4byte	.LASF106
 1418 07df 01       		.sleb128 1
 1419 07e0 1A       		.uleb128 0x1a
 1420 07e1 C1080000 		.4byte	.LASF107
 1421 07e5 02       		.sleb128 2
 1422 07e6 1A       		.uleb128 0x1a
 1423 07e7 FE080000 		.4byte	.LASF108
 1424 07eb 03       		.sleb128 3
 1425 07ec 1A       		.uleb128 0x1a
 1426 07ed 22040000 		.4byte	.LASF109
 1427 07f1 04       		.sleb128 4
 1428 07f2 1A       		.uleb128 0x1a
 1429 07f3 49030000 		.4byte	.LASF110
 1430 07f7 05       		.sleb128 5
 1431 07f8 00       		.byte	0
 1432 07f9 16       		.uleb128 0x16
 1433 07fa 39040000 		.4byte	.LASF111
 1434 07fe 0A       		.byte	0xa
 1435 07ff 3601     		.2byte	0x136
 1436 0801 CB070000 		.4byte	0x7cb
 1437 0805 19       		.uleb128 0x19
 1438 0806 01       		.byte	0x1
 1439 0807 0A       		.byte	0xa
 1440 0808 4701     		.2byte	0x147
 1441 080a 5D080000 		.4byte	0x85d
 1442 080e 1A       		.uleb128 0x1a
 1443 080f D4000000 		.4byte	.LASF112
 1444 0813 00       		.sleb128 0
 1445 0814 1A       		.uleb128 0x1a
 1446 0815 B0070000 		.4byte	.LASF113
 1447 0819 01       		.sleb128 1
 1448 081a 1A       		.uleb128 0x1a
 1449 081b C2000000 		.4byte	.LASF114
 1450 081f 02       		.sleb128 2
 1451 0820 1A       		.uleb128 0x1a
 1452 0821 1E010000 		.4byte	.LASF115
 1453 0825 03       		.sleb128 3
 1454 0826 1A       		.uleb128 0x1a
 1455 0827 BF060000 		.4byte	.LASF116
 1456 082b 04       		.sleb128 4
 1457 082c 1A       		.uleb128 0x1a
 1458 082d C90B0000 		.4byte	.LASF117
ARM GAS  /tmp/ccvfQcT2.s 			page 27


 1459 0831 05       		.sleb128 5
 1460 0832 1A       		.uleb128 0x1a
 1461 0833 2D020000 		.4byte	.LASF118
 1462 0837 06       		.sleb128 6
 1463 0838 1A       		.uleb128 0x1a
 1464 0839 5D070000 		.4byte	.LASF119
 1465 083d 07       		.sleb128 7
 1466 083e 1A       		.uleb128 0x1a
 1467 083f 8B020000 		.4byte	.LASF120
 1468 0843 08       		.sleb128 8
 1469 0844 1A       		.uleb128 0x1a
 1470 0845 2E080000 		.4byte	.LASF121
 1471 0849 09       		.sleb128 9
 1472 084a 1A       		.uleb128 0x1a
 1473 084b 33050000 		.4byte	.LASF122
 1474 084f 0A       		.sleb128 10
 1475 0850 1A       		.uleb128 0x1a
 1476 0851 86060000 		.4byte	.LASF123
 1477 0855 0B       		.sleb128 11
 1478 0856 1A       		.uleb128 0x1a
 1479 0857 71010000 		.4byte	.LASF124
 1480 085b 0C       		.sleb128 12
 1481 085c 00       		.byte	0
 1482 085d 16       		.uleb128 0x16
 1483 085e B8050000 		.4byte	.LASF125
 1484 0862 0A       		.byte	0xa
 1485 0863 5501     		.2byte	0x155
 1486 0865 05080000 		.4byte	0x805
 1487 0869 19       		.uleb128 0x19
 1488 086a 01       		.byte	0x1
 1489 086b 0A       		.byte	0xa
 1490 086c 5901     		.2byte	0x159
 1491 086e A3080000 		.4byte	0x8a3
 1492 0872 1A       		.uleb128 0x1a
 1493 0873 BF0B0000 		.4byte	.LASF126
 1494 0877 00       		.sleb128 0
 1495 0878 1A       		.uleb128 0x1a
 1496 0879 7D0A0000 		.4byte	.LASF127
 1497 087d 01       		.sleb128 1
 1498 087e 1A       		.uleb128 0x1a
 1499 087f 46080000 		.4byte	.LASF128
 1500 0883 02       		.sleb128 2
 1501 0884 1A       		.uleb128 0x1a
 1502 0885 7E000000 		.4byte	.LASF129
 1503 0889 03       		.sleb128 3
 1504 088a 1A       		.uleb128 0x1a
 1505 088b 1C050000 		.4byte	.LASF130
 1506 088f 04       		.sleb128 4
 1507 0890 1A       		.uleb128 0x1a
 1508 0891 F4040000 		.4byte	.LASF131
 1509 0895 05       		.sleb128 5
 1510 0896 1A       		.uleb128 0x1a
 1511 0897 590C0000 		.4byte	.LASF132
 1512 089b 06       		.sleb128 6
 1513 089c 1A       		.uleb128 0x1a
 1514 089d 2A030000 		.4byte	.LASF133
 1515 08a1 07       		.sleb128 7
ARM GAS  /tmp/ccvfQcT2.s 			page 28


 1516 08a2 00       		.byte	0
 1517 08a3 16       		.uleb128 0x16
 1518 08a4 E4010000 		.4byte	.LASF134
 1519 08a8 0A       		.byte	0xa
 1520 08a9 6201     		.2byte	0x162
 1521 08ab 69080000 		.4byte	0x869
 1522 08af 19       		.uleb128 0x19
 1523 08b0 01       		.byte	0x1
 1524 08b1 0A       		.byte	0xa
 1525 08b2 6601     		.2byte	0x166
 1526 08b4 0D090000 		.4byte	0x90d
 1527 08b8 1A       		.uleb128 0x1a
 1528 08b9 FE050000 		.4byte	.LASF135
 1529 08bd 00       		.sleb128 0
 1530 08be 1A       		.uleb128 0x1a
 1531 08bf 90030000 		.4byte	.LASF136
 1532 08c3 01       		.sleb128 1
 1533 08c4 1A       		.uleb128 0x1a
 1534 08c5 4E0A0000 		.4byte	.LASF137
 1535 08c9 02       		.sleb128 2
 1536 08ca 1A       		.uleb128 0x1a
 1537 08cb 02040000 		.4byte	.LASF138
 1538 08cf 03       		.sleb128 3
 1539 08d0 1A       		.uleb128 0x1a
 1540 08d1 0E0A0000 		.4byte	.LASF139
 1541 08d5 04       		.sleb128 4
 1542 08d6 1A       		.uleb128 0x1a
 1543 08d7 0E0C0000 		.4byte	.LASF140
 1544 08db 05       		.sleb128 5
 1545 08dc 1A       		.uleb128 0x1a
 1546 08dd 0F040000 		.4byte	.LASF141
 1547 08e1 06       		.sleb128 6
 1548 08e2 1A       		.uleb128 0x1a
 1549 08e3 F8000000 		.4byte	.LASF142
 1550 08e7 07       		.sleb128 7
 1551 08e8 1A       		.uleb128 0x1a
 1552 08e9 F70C0000 		.4byte	.LASF143
 1553 08ed 08       		.sleb128 8
 1554 08ee 1A       		.uleb128 0x1a
 1555 08ef 7B020000 		.4byte	.LASF144
 1556 08f3 09       		.sleb128 9
 1557 08f4 1A       		.uleb128 0x1a
 1558 08f5 9D060000 		.4byte	.LASF145
 1559 08f9 0A       		.sleb128 10
 1560 08fa 1A       		.uleb128 0x1a
 1561 08fb AD030000 		.4byte	.LASF146
 1562 08ff 0B       		.sleb128 11
 1563 0900 1A       		.uleb128 0x1a
 1564 0901 8D090000 		.4byte	.LASF147
 1565 0905 0C       		.sleb128 12
 1566 0906 1A       		.uleb128 0x1a
 1567 0907 4C040000 		.4byte	.LASF148
 1568 090b 0D       		.sleb128 13
 1569 090c 00       		.byte	0
 1570 090d 16       		.uleb128 0x16
 1571 090e 11090000 		.4byte	.LASF149
 1572 0912 0A       		.byte	0xa
ARM GAS  /tmp/ccvfQcT2.s 			page 29


 1573 0913 7501     		.2byte	0x175
 1574 0915 AF080000 		.4byte	0x8af
 1575 0919 19       		.uleb128 0x19
 1576 091a 01       		.byte	0x1
 1577 091b 0A       		.byte	0xa
 1578 091c 7A01     		.2byte	0x17a
 1579 091e 35090000 		.4byte	0x935
 1580 0922 1A       		.uleb128 0x1a
 1581 0923 92040000 		.4byte	.LASF150
 1582 0927 00       		.sleb128 0
 1583 0928 1A       		.uleb128 0x1a
 1584 0929 95080000 		.4byte	.LASF151
 1585 092d 01       		.sleb128 1
 1586 092e 1A       		.uleb128 0x1a
 1587 092f 3C090000 		.4byte	.LASF152
 1588 0933 02       		.sleb128 2
 1589 0934 00       		.byte	0
 1590 0935 16       		.uleb128 0x16
 1591 0936 3B010000 		.4byte	.LASF153
 1592 093a 0A       		.byte	0xa
 1593 093b 7E01     		.2byte	0x17e
 1594 093d 19090000 		.4byte	0x919
 1595 0941 1B       		.uleb128 0x1b
 1596 0942 18       		.byte	0x18
 1597 0943 0A       		.byte	0xa
 1598 0944 9401     		.2byte	0x194
 1599 0946 C0090000 		.4byte	0x9c0
 1600 094a 17       		.uleb128 0x17
 1601 094b FA030000 		.4byte	.LASF154
 1602 094f 0A       		.byte	0xa
 1603 0950 9601     		.2byte	0x196
 1604 0952 97000000 		.4byte	0x97
 1605 0956 00       		.byte	0
 1606 0957 17       		.uleb128 0x17
 1607 0958 3D060000 		.4byte	.LASF155
 1608 095c 0A       		.byte	0xa
 1609 095d 9701     		.2byte	0x197
 1610 095f 97000000 		.4byte	0x97
 1611 0963 01       		.byte	0x1
 1612 0964 17       		.uleb128 0x17
 1613 0965 4C010000 		.4byte	.LASF156
 1614 0969 0A       		.byte	0xa
 1615 096a 9801     		.2byte	0x198
 1616 096c 97000000 		.4byte	0x97
 1617 0970 02       		.byte	0x2
 1618 0971 17       		.uleb128 0x17
 1619 0972 77060000 		.4byte	.LASF157
 1620 0976 0A       		.byte	0xa
 1621 0977 9901     		.2byte	0x199
 1622 0979 91040000 		.4byte	0x491
 1623 097d 04       		.byte	0x4
 1624 097e 17       		.uleb128 0x17
 1625 097f 5C080000 		.4byte	.LASF158
 1626 0983 0A       		.byte	0xa
 1627 0984 9A01     		.2byte	0x19a
 1628 0986 A2000000 		.4byte	0xa2
 1629 098a 08       		.byte	0x8
ARM GAS  /tmp/ccvfQcT2.s 			page 30


 1630 098b 17       		.uleb128 0x17
 1631 098c BF030000 		.4byte	.LASF159
 1632 0990 0A       		.byte	0xa
 1633 0991 9B01     		.2byte	0x19b
 1634 0993 A2000000 		.4byte	0xa2
 1635 0997 0A       		.byte	0xa
 1636 0998 17       		.uleb128 0x17
 1637 0999 5A040000 		.4byte	.LASF160
 1638 099d 0A       		.byte	0xa
 1639 099e 9C01     		.2byte	0x19c
 1640 09a0 4B050000 		.4byte	0x54b
 1641 09a4 0C       		.byte	0xc
 1642 09a5 17       		.uleb128 0x17
 1643 09a6 0D010000 		.4byte	.LASF161
 1644 09aa 0A       		.byte	0xa
 1645 09ab 9D01     		.2byte	0x19d
 1646 09ad 0D090000 		.4byte	0x90d
 1647 09b1 14       		.byte	0x14
 1648 09b2 17       		.uleb128 0x17
 1649 09b3 D5080000 		.4byte	.LASF162
 1650 09b7 0A       		.byte	0xa
 1651 09b8 9E01     		.2byte	0x19e
 1652 09ba 97000000 		.4byte	0x97
 1653 09be 15       		.byte	0x15
 1654 09bf 00       		.byte	0
 1655 09c0 16       		.uleb128 0x16
 1656 09c1 38070000 		.4byte	.LASF163
 1657 09c5 0A       		.byte	0xa
 1658 09c6 A001     		.2byte	0x1a0
 1659 09c8 41090000 		.4byte	0x941
 1660 09cc 1C       		.uleb128 0x1c
 1661 09cd 7C05     		.2byte	0x57c
 1662 09cf 0A       		.byte	0xa
 1663 09d0 A301     		.2byte	0x1a3
 1664 09d2 460A0000 		.4byte	0xa46
 1665 09d6 17       		.uleb128 0x17
 1666 09d7 710A0000 		.4byte	.LASF164
 1667 09db 0A       		.byte	0xa
 1668 09dc A601     		.2byte	0x1a6
 1669 09de 460A0000 		.4byte	0xa46
 1670 09e2 00       		.byte	0
 1671 09e3 1D       		.uleb128 0x1d
 1672 09e4 F6090000 		.4byte	.LASF165
 1673 09e8 0A       		.byte	0xa
 1674 09e9 A801     		.2byte	0x1a8
 1675 09eb 460A0000 		.4byte	0xa46
 1676 09ef 0002     		.2byte	0x200
 1677 09f1 1D       		.uleb128 0x1d
 1678 09f2 14050000 		.4byte	.LASF166
 1679 09f6 0A       		.byte	0xa
 1680 09f7 A901     		.2byte	0x1a9
 1681 09f9 97000000 		.4byte	0x97
 1682 09fd 0004     		.2byte	0x400
 1683 09ff 1D       		.uleb128 0x1d
 1684 0a00 67040000 		.4byte	.LASF167
 1685 0a04 0A       		.byte	0xa
 1686 0a05 AA01     		.2byte	0x1aa
ARM GAS  /tmp/ccvfQcT2.s 			page 31


 1687 0a07 97000000 		.4byte	0x97
 1688 0a0b 0104     		.2byte	0x401
 1689 0a0d 1D       		.uleb128 0x1d
 1690 0a0e 4F000000 		.4byte	.LASF168
 1691 0a12 0A       		.byte	0xa
 1692 0a13 AB01     		.2byte	0x1ab
 1693 0a15 DF000000 		.4byte	0xdf
 1694 0a19 0204     		.2byte	0x402
 1695 0a1b 1D       		.uleb128 0x1d
 1696 0a1c 8D0B0000 		.4byte	.LASF169
 1697 0a20 0A       		.byte	0xa
 1698 0a21 AC01     		.2byte	0x1ac
 1699 0a23 97000000 		.4byte	0x97
 1700 0a27 0304     		.2byte	0x403
 1701 0a29 1D       		.uleb128 0x1d
 1702 0a2a 15030000 		.4byte	.LASF170
 1703 0a2e 0A       		.byte	0xa
 1704 0a2f AD01     		.2byte	0x1ad
 1705 0a31 0B060000 		.4byte	0x60b
 1706 0a35 0404     		.2byte	0x404
 1707 0a37 1D       		.uleb128 0x1d
 1708 0a38 93010000 		.4byte	.LASF171
 1709 0a3c 0A       		.byte	0xa
 1710 0a3d AE01     		.2byte	0x1ae
 1711 0a3f BF070000 		.4byte	0x7bf
 1712 0a43 1604     		.2byte	0x416
 1713 0a45 00       		.byte	0
 1714 0a46 06       		.uleb128 0x6
 1715 0a47 97000000 		.4byte	0x97
 1716 0a4b 570A0000 		.4byte	0xa57
 1717 0a4f 1E       		.uleb128 0x1e
 1718 0a50 C3000000 		.4byte	0xc3
 1719 0a54 FF01     		.2byte	0x1ff
 1720 0a56 00       		.byte	0
 1721 0a57 16       		.uleb128 0x16
 1722 0a58 EB060000 		.4byte	.LASF172
 1723 0a5c 0A       		.byte	0xa
 1724 0a5d B001     		.2byte	0x1b0
 1725 0a5f CC090000 		.4byte	0x9cc
 1726 0a63 1B       		.uleb128 0x1b
 1727 0a64 20       		.byte	0x20
 1728 0a65 0A       		.byte	0xa
 1729 0a66 B501     		.2byte	0x1b5
 1730 0a68 D50A0000 		.4byte	0xad5
 1731 0a6c 17       		.uleb128 0x17
 1732 0a6d CD070000 		.4byte	.LASF173
 1733 0a71 0A       		.byte	0xa
 1734 0a72 B701     		.2byte	0x1b7
 1735 0a74 12010000 		.4byte	0x112
 1736 0a78 00       		.byte	0
 1737 0a79 17       		.uleb128 0x17
 1738 0a7a 78040000 		.4byte	.LASF174
 1739 0a7e 0A       		.byte	0xa
 1740 0a7f B801     		.2byte	0x1b8
 1741 0a81 97000000 		.4byte	0x97
 1742 0a85 04       		.byte	0x4
 1743 0a86 17       		.uleb128 0x17
ARM GAS  /tmp/ccvfQcT2.s 			page 32


 1744 0a87 9D070000 		.4byte	.LASF175
 1745 0a8b 0A       		.byte	0xa
 1746 0a8c B901     		.2byte	0x1b9
 1747 0a8e C50B0000 		.4byte	0xbc5
 1748 0a92 08       		.byte	0x8
 1749 0a93 17       		.uleb128 0x17
 1750 0a94 B80B0000 		.4byte	.LASF176
 1751 0a98 0A       		.byte	0xa
 1752 0a99 BA01     		.2byte	0x1ba
 1753 0a9b C50B0000 		.4byte	0xbc5
 1754 0a9f 0C       		.byte	0xc
 1755 0aa0 17       		.uleb128 0x17
 1756 0aa1 AF0B0000 		.4byte	.LASF177
 1757 0aa5 0A       		.byte	0xa
 1758 0aa6 BB01     		.2byte	0x1bb
 1759 0aa8 C50B0000 		.4byte	0xbc5
 1760 0aac 10       		.byte	0x10
 1761 0aad 17       		.uleb128 0x17
 1762 0aae 5E0A0000 		.4byte	.LASF178
 1763 0ab2 0A       		.byte	0xa
 1764 0ab3 BC01     		.2byte	0x1bc
 1765 0ab5 C50B0000 		.4byte	0xbc5
 1766 0ab9 14       		.byte	0x14
 1767 0aba 17       		.uleb128 0x17
 1768 0abb 4C090000 		.4byte	.LASF179
 1769 0abf 0A       		.byte	0xa
 1770 0ac0 BD01     		.2byte	0x1bd
 1771 0ac2 C50B0000 		.4byte	0xbc5
 1772 0ac6 18       		.byte	0x18
 1773 0ac7 17       		.uleb128 0x17
 1774 0ac8 C30C0000 		.4byte	.LASF180
 1775 0acc 0A       		.byte	0xa
 1776 0acd BE01     		.2byte	0x1be
 1777 0acf 09010000 		.4byte	0x109
 1778 0ad3 1C       		.byte	0x1c
 1779 0ad4 00       		.byte	0
 1780 0ad5 1F       		.uleb128 0x1f
 1781 0ad6 F9070000 		.4byte	0x7f9
 1782 0ada E40A0000 		.4byte	0xae4
 1783 0ade 20       		.uleb128 0x20
 1784 0adf E40A0000 		.4byte	0xae4
 1785 0ae3 00       		.byte	0
 1786 0ae4 0A       		.uleb128 0xa
 1787 0ae5 04       		.byte	0x4
 1788 0ae6 EA0A0000 		.4byte	0xaea
 1789 0aea 18       		.uleb128 0x18
 1790 0aeb FB070000 		.4byte	.LASF181
 1791 0aef 0006     		.2byte	0x600
 1792 0af1 0A       		.byte	0xa
 1793 0af2 C201     		.2byte	0x1c2
 1794 0af4 C50B0000 		.4byte	0xbc5
 1795 0af8 17       		.uleb128 0x17
 1796 0af9 31070000 		.4byte	.LASF182
 1797 0afd 0A       		.byte	0xa
 1798 0afe C401     		.2byte	0x1c4
 1799 0b00 D70B0000 		.4byte	0xbd7
 1800 0b04 00       		.byte	0
ARM GAS  /tmp/ccvfQcT2.s 			page 33


 1801 0b05 17       		.uleb128 0x17
 1802 0b06 AE050000 		.4byte	.LASF183
 1803 0b0a 0A       		.byte	0xa
 1804 0b0b C501     		.2byte	0x1c5
 1805 0b0d A3080000 		.4byte	0x8a3
 1806 0b11 01       		.byte	0x1
 1807 0b12 17       		.uleb128 0x17
 1808 0b13 DF030000 		.4byte	.LASF184
 1809 0b17 0A       		.byte	0xa
 1810 0b18 C601     		.2byte	0x1c6
 1811 0b1a 35090000 		.4byte	0x935
 1812 0b1e 02       		.byte	0x2
 1813 0b1f 17       		.uleb128 0x17
 1814 0b20 C5030000 		.4byte	.LASF185
 1815 0b24 0A       		.byte	0xa
 1816 0b25 C701     		.2byte	0x1c7
 1817 0b27 C0090000 		.4byte	0x9c0
 1818 0b2b 04       		.byte	0x4
 1819 0b2c 17       		.uleb128 0x17
 1820 0b2d 86090000 		.4byte	.LASF186
 1821 0b31 0A       		.byte	0xa
 1822 0b32 C801     		.2byte	0x1c8
 1823 0b34 570A0000 		.4byte	0xa57
 1824 0b38 1C       		.byte	0x1c
 1825 0b39 1D       		.uleb128 0x1d
 1826 0b3a 10060000 		.4byte	.LASF187
 1827 0b3e 0A       		.byte	0xa
 1828 0b3f C901     		.2byte	0x1c9
 1829 0b41 DC0B0000 		.4byte	0xbdc
 1830 0b45 9805     		.2byte	0x598
 1831 0b47 1D       		.uleb128 0x1d
 1832 0b48 C6090000 		.4byte	.LASF188
 1833 0b4c 0A       		.byte	0xa
 1834 0b4d CA01     		.2byte	0x1ca
 1835 0b4f EC0B0000 		.4byte	0xbec
 1836 0b53 A405     		.2byte	0x5a4
 1837 0b55 1D       		.uleb128 0x1d
 1838 0b56 DD0C0000 		.4byte	.LASF189
 1839 0b5a 0A       		.byte	0xa
 1840 0b5b CB01     		.2byte	0x1cb
 1841 0b5d B8000000 		.4byte	0xb8
 1842 0b61 A805     		.2byte	0x5a8
 1843 0b63 1D       		.uleb128 0x1d
 1844 0b64 DE010000 		.4byte	.LASF190
 1845 0b68 0A       		.byte	0xa
 1846 0b69 CC01     		.2byte	0x1cc
 1847 0b6b E4000000 		.4byte	0xe4
 1848 0b6f AC05     		.2byte	0x5ac
 1849 0b71 1D       		.uleb128 0x1d
 1850 0b72 530C0000 		.4byte	.LASF191
 1851 0b76 0A       		.byte	0xa
 1852 0b77 CD01     		.2byte	0x1cd
 1853 0b79 CA000000 		.4byte	0xca
 1854 0b7d E805     		.2byte	0x5e8
 1855 0b7f 21       		.uleb128 0x21
 1856 0b80 696400   		.ascii	"id\000"
 1857 0b83 0A       		.byte	0xa
ARM GAS  /tmp/ccvfQcT2.s 			page 34


 1858 0b84 CE01     		.2byte	0x1ce
 1859 0b86 97000000 		.4byte	0x97
 1860 0b8a EC05     		.2byte	0x5ec
 1861 0b8c 1D       		.uleb128 0x1d
 1862 0b8d C30C0000 		.4byte	.LASF180
 1863 0b91 0A       		.byte	0xa
 1864 0b92 CF01     		.2byte	0x1cf
 1865 0b94 09010000 		.4byte	0x109
 1866 0b98 F005     		.2byte	0x5f0
 1867 0b9a 1D       		.uleb128 0x1d
 1868 0b9b 6C080000 		.4byte	.LASF192
 1869 0b9f 0A       		.byte	0xa
 1870 0ba0 D001     		.2byte	0x1d0
 1871 0ba2 020C0000 		.4byte	0xc02
 1872 0ba6 F405     		.2byte	0x5f4
 1873 0ba8 1D       		.uleb128 0x1d
 1874 0ba9 F2070000 		.4byte	.LASF193
 1875 0bad 0A       		.byte	0xa
 1876 0bae D301     		.2byte	0x1d3
 1877 0bb0 6B020000 		.4byte	0x26b
 1878 0bb4 F805     		.2byte	0x5f8
 1879 0bb6 1D       		.uleb128 0x1d
 1880 0bb7 BF090000 		.4byte	.LASF194
 1881 0bbb 0A       		.byte	0xa
 1882 0bbc D401     		.2byte	0x1d4
 1883 0bbe 6B020000 		.4byte	0x26b
 1884 0bc2 FC05     		.2byte	0x5fc
 1885 0bc4 00       		.byte	0
 1886 0bc5 0A       		.uleb128 0xa
 1887 0bc6 04       		.byte	0x4
 1888 0bc7 D50A0000 		.4byte	0xad5
 1889 0bcb 16       		.uleb128 0x16
 1890 0bcc 83080000 		.4byte	.LASF195
 1891 0bd0 0A       		.byte	0xa
 1892 0bd1 BF01     		.2byte	0x1bf
 1893 0bd3 630A0000 		.4byte	0xa63
 1894 0bd7 05       		.uleb128 0x5
 1895 0bd8 5D080000 		.4byte	0x85d
 1896 0bdc 06       		.uleb128 0x6
 1897 0bdd EC0B0000 		.4byte	0xbec
 1898 0be1 EC0B0000 		.4byte	0xbec
 1899 0be5 07       		.uleb128 0x7
 1900 0be6 C3000000 		.4byte	0xc3
 1901 0bea 02       		.byte	0x2
 1902 0beb 00       		.byte	0
 1903 0bec 0A       		.uleb128 0xa
 1904 0bed 04       		.byte	0x4
 1905 0bee CB0B0000 		.4byte	0xbcb
 1906 0bf2 22       		.uleb128 0x22
 1907 0bf3 020C0000 		.4byte	0xc02
 1908 0bf7 20       		.uleb128 0x20
 1909 0bf8 E40A0000 		.4byte	0xae4
 1910 0bfc 20       		.uleb128 0x20
 1911 0bfd 97000000 		.4byte	0x97
 1912 0c01 00       		.byte	0
 1913 0c02 0A       		.uleb128 0xa
 1914 0c03 04       		.byte	0x4
ARM GAS  /tmp/ccvfQcT2.s 			page 35


 1915 0c04 F20B0000 		.4byte	0xbf2
 1916 0c08 16       		.uleb128 0x16
 1917 0c09 D8060000 		.4byte	.LASF196
 1918 0c0d 0A       		.byte	0xa
 1919 0c0e D701     		.2byte	0x1d7
 1920 0c10 EA0A0000 		.4byte	0xaea
 1921 0c14 23       		.uleb128 0x23
 1922 0c15 01       		.byte	0x1
 1923 0c16 0B       		.byte	0xb
 1924 0c17 3D       		.byte	0x3d
 1925 0c18 4D0C0000 		.4byte	0xc4d
 1926 0c1c 1A       		.uleb128 0x1a
 1927 0c1d 56010000 		.4byte	.LASF197
 1928 0c21 00       		.sleb128 0
 1929 0c22 1A       		.uleb128 0x1a
 1930 0c23 40020000 		.4byte	.LASF198
 1931 0c27 01       		.sleb128 1
 1932 0c28 1A       		.uleb128 0x1a
 1933 0c29 B5040000 		.4byte	.LASF199
 1934 0c2d 02       		.sleb128 2
 1935 0c2e 1A       		.uleb128 0x1a
 1936 0c2f 78050000 		.4byte	.LASF200
 1937 0c33 03       		.sleb128 3
 1938 0c34 1A       		.uleb128 0x1a
 1939 0c35 A2070000 		.4byte	.LASF201
 1940 0c39 04       		.sleb128 4
 1941 0c3a 1A       		.uleb128 0x1a
 1942 0c3b 760C0000 		.4byte	.LASF202
 1943 0c3f 05       		.sleb128 5
 1944 0c40 1A       		.uleb128 0x1a
 1945 0c41 13010000 		.4byte	.LASF203
 1946 0c45 06       		.sleb128 6
 1947 0c46 1A       		.uleb128 0x1a
 1948 0c47 CC010000 		.4byte	.LASF204
 1949 0c4b 07       		.sleb128 7
 1950 0c4c 00       		.byte	0
 1951 0c4d 03       		.uleb128 0x3
 1952 0c4e A5090000 		.4byte	.LASF205
 1953 0c52 0B       		.byte	0xb
 1954 0c53 46       		.byte	0x46
 1955 0c54 140C0000 		.4byte	0xc14
 1956 0c58 0B       		.uleb128 0xb
 1957 0c59 2F060000 		.4byte	.LASF206
 1958 0c5d 94       		.byte	0x94
 1959 0c5e 0B       		.byte	0xb
 1960 0c5f 6B       		.byte	0x6b
 1961 0c60 0D0D0000 		.4byte	0xd0d
 1962 0c64 0C       		.uleb128 0xc
 1963 0c65 EA070000 		.4byte	.LASF207
 1964 0c69 0B       		.byte	0xb
 1965 0c6a 6C       		.byte	0x6c
 1966 0c6b 97000000 		.4byte	0x97
 1967 0c6f 00       		.byte	0
 1968 0c70 0C       		.uleb128 0xc
 1969 0c71 D8030000 		.4byte	.LASF208
 1970 0c75 0B       		.byte	0xb
 1971 0c76 6D       		.byte	0x6d
ARM GAS  /tmp/ccvfQcT2.s 			page 36


 1972 0c77 97000000 		.4byte	0x97
 1973 0c7b 01       		.byte	0x1
 1974 0c7c 0C       		.uleb128 0xc
 1975 0c7d 07010000 		.4byte	.LASF209
 1976 0c81 0B       		.byte	0xb
 1977 0c82 6E       		.byte	0x6e
 1978 0c83 97000000 		.4byte	0x97
 1979 0c87 02       		.byte	0x2
 1980 0c88 0C       		.uleb128 0xc
 1981 0c89 EF040000 		.4byte	.LASF210
 1982 0c8d 0B       		.byte	0xb
 1983 0c8e 6F       		.byte	0x6f
 1984 0c8f 97000000 		.4byte	0x97
 1985 0c93 03       		.byte	0x3
 1986 0c94 0C       		.uleb128 0xc
 1987 0c95 FC020000 		.4byte	.LASF211
 1988 0c99 0B       		.byte	0xb
 1989 0c9a 70       		.byte	0x70
 1990 0c9b A2000000 		.4byte	0xa2
 1991 0c9f 04       		.byte	0x4
 1992 0ca0 0C       		.uleb128 0xc
 1993 0ca1 450A0000 		.4byte	.LASF212
 1994 0ca5 0B       		.byte	0xb
 1995 0ca6 71       		.byte	0x71
 1996 0ca7 A2000000 		.4byte	0xa2
 1997 0cab 06       		.byte	0x6
 1998 0cac 0C       		.uleb128 0xc
 1999 0cad 54060000 		.4byte	.LASF213
 2000 0cb1 0B       		.byte	0xb
 2001 0cb2 72       		.byte	0x72
 2002 0cb3 4D0C0000 		.4byte	0xc4d
 2003 0cb7 08       		.byte	0x8
 2004 0cb8 0C       		.uleb128 0xc
 2005 0cb9 DA0B0000 		.4byte	.LASF214
 2006 0cbd 0B       		.byte	0xb
 2007 0cbe 73       		.byte	0x73
 2008 0cbf 4D0C0000 		.4byte	0xc4d
 2009 0cc3 09       		.byte	0x9
 2010 0cc4 0C       		.uleb128 0xc
 2011 0cc5 C90C0000 		.4byte	.LASF215
 2012 0cc9 0B       		.byte	0xb
 2013 0cca 74       		.byte	0x74
 2014 0ccb 1D010000 		.4byte	0x11d
 2015 0ccf 0A       		.byte	0xa
 2016 0cd0 0C       		.uleb128 0xc
 2017 0cd1 94050000 		.4byte	.LASF216
 2018 0cd5 0B       		.byte	0xb
 2019 0cd6 75       		.byte	0x75
 2020 0cd7 1D010000 		.4byte	0x11d
 2021 0cdb 0B       		.byte	0xb
 2022 0cdc 0C       		.uleb128 0xc
 2023 0cdd D50C0000 		.4byte	.LASF217
 2024 0ce1 0B       		.byte	0xb
 2025 0ce2 77       		.byte	0x77
 2026 0ce3 0D0D0000 		.4byte	0xd0d
 2027 0ce7 0C       		.byte	0xc
 2028 0ce8 0C       		.uleb128 0xc
ARM GAS  /tmp/ccvfQcT2.s 			page 37


 2029 0ce9 050A0000 		.4byte	.LASF218
 2030 0ced 0B       		.byte	0xb
 2031 0cee 78       		.byte	0x78
 2032 0cef 0D0D0000 		.4byte	0xd0d
 2033 0cf3 4C       		.byte	0x4c
 2034 0cf4 0C       		.uleb128 0xc
 2035 0cf5 EF020000 		.4byte	.LASF219
 2036 0cf9 0B       		.byte	0xb
 2037 0cfa 79       		.byte	0x79
 2038 0cfb 97000000 		.4byte	0x97
 2039 0cff 8C       		.byte	0x8c
 2040 0d00 0C       		.uleb128 0xc
 2041 0d01 9D070000 		.4byte	.LASF175
 2042 0d05 0B       		.byte	0xb
 2043 0d06 82       		.byte	0x82
 2044 0d07 320D0000 		.4byte	0xd32
 2045 0d0b 90       		.byte	0x90
 2046 0d0c 00       		.byte	0
 2047 0d0d 06       		.uleb128 0x6
 2048 0d0e 97000000 		.4byte	0x97
 2049 0d12 1D0D0000 		.4byte	0xd1d
 2050 0d16 07       		.uleb128 0x7
 2051 0d17 C3000000 		.4byte	0xc3
 2052 0d1b 3F       		.byte	0x3f
 2053 0d1c 00       		.byte	0
 2054 0d1d 1F       		.uleb128 0x1f
 2055 0d1e F9070000 		.4byte	0x7f9
 2056 0d22 2C0D0000 		.4byte	0xd2c
 2057 0d26 20       		.uleb128 0x20
 2058 0d27 2C0D0000 		.4byte	0xd2c
 2059 0d2b 00       		.byte	0
 2060 0d2c 0A       		.uleb128 0xa
 2061 0d2d 04       		.byte	0x4
 2062 0d2e 080C0000 		.4byte	0xc08
 2063 0d32 0A       		.uleb128 0xa
 2064 0d33 04       		.byte	0x4
 2065 0d34 1D0D0000 		.4byte	0xd1d
 2066 0d38 03       		.uleb128 0x3
 2067 0d39 DC020000 		.4byte	.LASF220
 2068 0d3d 0B       		.byte	0xb
 2069 0d3e 83       		.byte	0x83
 2070 0d3f 580C0000 		.4byte	0xc58
 2071 0d43 24       		.uleb128 0x24
 2072 0d44 A8000000 		.4byte	.LASF221
 2073 0d48 01       		.byte	0x1
 2074 0d49 26       		.byte	0x26
 2075 0d4a F9070000 		.4byte	0x7f9
 2076 0d4e 01       		.byte	0x1
 2077 0d4f 6A0D0000 		.4byte	0xd6a
 2078 0d53 25       		.uleb128 0x25
 2079 0d54 800C0000 		.4byte	.LASF223
 2080 0d58 01       		.byte	0x1
 2081 0d59 26       		.byte	0x26
 2082 0d5a 2C0D0000 		.4byte	0xd2c
 2083 0d5e 26       		.uleb128 0x26
 2084 0d5f 0D050000 		.4byte	.LASF224
 2085 0d63 01       		.byte	0x1
ARM GAS  /tmp/ccvfQcT2.s 			page 38


 2086 0d64 28       		.byte	0x28
 2087 0d65 F9070000 		.4byte	0x7f9
 2088 0d69 00       		.byte	0
 2089 0d6a 24       		.uleb128 0x24
 2090 0d6b AA0C0000 		.4byte	.LASF222
 2091 0d6f 01       		.byte	0x1
 2092 0d70 33       		.byte	0x33
 2093 0d71 F9070000 		.4byte	0x7f9
 2094 0d75 01       		.byte	0x1
 2095 0d76 DB0D0000 		.4byte	0xddb
 2096 0d7a 25       		.uleb128 0x25
 2097 0d7b 800C0000 		.4byte	.LASF223
 2098 0d7f 01       		.byte	0x1
 2099 0d80 33       		.byte	0x33
 2100 0d81 2C0D0000 		.4byte	0xd2c
 2101 0d85 26       		.uleb128 0x26
 2102 0d86 390A0000 		.4byte	.LASF225
 2103 0d8a 01       		.byte	0x1
 2104 0d8b 34       		.byte	0x34
 2105 0d8c DB0D0000 		.4byte	0xddb
 2106 0d90 26       		.uleb128 0x26
 2107 0d91 0D050000 		.4byte	.LASF224
 2108 0d95 01       		.byte	0x1
 2109 0d96 35       		.byte	0x35
 2110 0d97 F9070000 		.4byte	0x7f9
 2111 0d9b 26       		.uleb128 0x26
 2112 0d9c 9B040000 		.4byte	.LASF226
 2113 0da0 01       		.byte	0x1
 2114 0da1 37       		.byte	0x37
 2115 0da2 F9000000 		.4byte	0xf9
 2116 0da6 27       		.uleb128 0x27
 2117 0da7 26       		.uleb128 0x26
 2118 0da8 F6010000 		.4byte	.LASF227
 2119 0dac 01       		.byte	0x1
 2120 0dad 48       		.byte	0x48
 2121 0dae 97000000 		.4byte	0x97
 2122 0db2 28       		.uleb128 0x28
 2123 0db3 6900     		.ascii	"i\000"
 2124 0db5 01       		.byte	0x1
 2125 0db6 4F       		.byte	0x4f
 2126 0db7 97000000 		.4byte	0x97
 2127 0dbb 29       		.uleb128 0x29
 2128 0dbc CC0D0000 		.4byte	0xdcc
 2129 0dc0 26       		.uleb128 0x26
 2130 0dc1 45090000 		.4byte	.LASF228
 2131 0dc5 01       		.byte	0x1
 2132 0dc6 53       		.byte	0x53
 2133 0dc7 1D010000 		.4byte	0x11d
 2134 0dcb 00       		.byte	0
 2135 0dcc 27       		.uleb128 0x27
 2136 0dcd 28       		.uleb128 0x28
 2137 0dce 73657100 		.ascii	"seq\000"
 2138 0dd2 01       		.byte	0x1
 2139 0dd3 7B       		.byte	0x7b
 2140 0dd4 E10D0000 		.4byte	0xde1
 2141 0dd8 00       		.byte	0
 2142 0dd9 00       		.byte	0
ARM GAS  /tmp/ccvfQcT2.s 			page 39


 2143 0dda 00       		.byte	0
 2144 0ddb 0A       		.uleb128 0xa
 2145 0ddc 04       		.byte	0x4
 2146 0ddd 380D0000 		.4byte	0xd38
 2147 0de1 06       		.uleb128 0x6
 2148 0de2 97000000 		.4byte	0x97
 2149 0de6 F10D0000 		.4byte	0xdf1
 2150 0dea 07       		.uleb128 0x7
 2151 0deb C3000000 		.4byte	0xc3
 2152 0def 03       		.byte	0x3
 2153 0df0 00       		.byte	0
 2154 0df1 2A       		.uleb128 0x2a
 2155 0df2 430D0000 		.4byte	0xd43
 2156 0df6 00000000 		.4byte	.LFB133
 2157 0dfa 10020000 		.4byte	.LFE133-.LFB133
 2158 0dfe 01       		.uleb128 0x1
 2159 0dff 9C       		.byte	0x9c
 2160 0e00 C7100000 		.4byte	0x10c7
 2161 0e04 2B       		.uleb128 0x2b
 2162 0e05 530D0000 		.4byte	0xd53
 2163 0e09 00000000 		.4byte	.LLST0
 2164 0e0d 2C       		.uleb128 0x2c
 2165 0e0e 5E0D0000 		.4byte	0xd5e
 2166 0e12 03       		.byte	0x3
 2167 0e13 2D       		.uleb128 0x2d
 2168 0e14 00000000 		.4byte	.Ldebug_ranges0+0
 2169 0e18 2E       		.uleb128 0x2e
 2170 0e19 530D0000 		.4byte	0xd53
 2171 0e1d 01       		.uleb128 0x1
 2172 0e1e 54       		.byte	0x54
 2173 0e1f 2D       		.uleb128 0x2d
 2174 0e20 00000000 		.4byte	.Ldebug_ranges0+0
 2175 0e24 2F       		.uleb128 0x2f
 2176 0e25 5E0D0000 		.4byte	0xd5e
 2177 0e29 30       		.uleb128 0x30
 2178 0e2a 6A0D0000 		.4byte	0xd6a
 2179 0e2e 1C000000 		.4byte	.LBB11
 2180 0e32 18000000 		.4byte	.Ldebug_ranges0+0x18
 2181 0e36 01       		.byte	0x1
 2182 0e37 2C       		.byte	0x2c
 2183 0e38 B1100000 		.4byte	0x10b1
 2184 0e3c 2E       		.uleb128 0x2e
 2185 0e3d 7A0D0000 		.4byte	0xd7a
 2186 0e41 01       		.uleb128 0x1
 2187 0e42 54       		.byte	0x54
 2188 0e43 2D       		.uleb128 0x2d
 2189 0e44 18000000 		.4byte	.Ldebug_ranges0+0x18
 2190 0e48 31       		.uleb128 0x31
 2191 0e49 850D0000 		.4byte	0xd85
 2192 0e4d 01       		.uleb128 0x1
 2193 0e4e 55       		.byte	0x55
 2194 0e4f 2C       		.uleb128 0x2c
 2195 0e50 900D0000 		.4byte	0xd90
 2196 0e54 02       		.byte	0x2
 2197 0e55 2C       		.uleb128 0x2c
 2198 0e56 9B0D0000 		.4byte	0xd9b
 2199 0e5a 05       		.byte	0x5
ARM GAS  /tmp/ccvfQcT2.s 			page 40


 2200 0e5b 32       		.uleb128 0x32
 2201 0e5c 40000000 		.4byte	.LBB13
 2202 0e60 D0010000 		.4byte	.LBE13-.LBB13
 2203 0e64 A6100000 		.4byte	0x10a6
 2204 0e68 31       		.uleb128 0x31
 2205 0e69 A70D0000 		.4byte	0xda7
 2206 0e6d 01       		.uleb128 0x1
 2207 0e6e 57       		.byte	0x57
 2208 0e6f 33       		.uleb128 0x33
 2209 0e70 B20D0000 		.4byte	0xdb2
 2210 0e74 37000000 		.4byte	.LLST1
 2211 0e78 34       		.uleb128 0x34
 2212 0e79 30000000 		.4byte	.Ldebug_ranges0+0x30
 2213 0e7d 050F0000 		.4byte	0xf05
 2214 0e81 33       		.uleb128 0x33
 2215 0e82 C00D0000 		.4byte	0xdc0
 2216 0e86 58000000 		.4byte	.LLST2
 2217 0e8a 35       		.uleb128 0x35
 2218 0e8b 88000000 		.4byte	.LVL14
 2219 0e8f F5100000 		.4byte	0x10f5
 2220 0e93 9E0E0000 		.4byte	0xe9e
 2221 0e97 36       		.uleb128 0x36
 2222 0e98 01       		.uleb128 0x1
 2223 0e99 50       		.byte	0x50
 2224 0e9a 02       		.uleb128 0x2
 2225 0e9b 75       		.byte	0x75
 2226 0e9c 00       		.sleb128 0
 2227 0e9d 00       		.byte	0
 2228 0e9e 35       		.uleb128 0x35
 2229 0e9f B2000000 		.4byte	.LVL15
 2230 0ea3 0A110000 		.4byte	0x110a
 2231 0ea7 B50E0000 		.4byte	0xeb5
 2232 0eab 36       		.uleb128 0x36
 2233 0eac 01       		.uleb128 0x1
 2234 0ead 50       		.byte	0x50
 2235 0eae 05       		.uleb128 0x5
 2236 0eaf 03       		.byte	0x3
 2237 0eb0 48000000 		.4byte	.LC2
 2238 0eb4 00       		.byte	0
 2239 0eb5 35       		.uleb128 0x35
 2240 0eb6 F6000000 		.4byte	.LVL21
 2241 0eba 1C110000 		.4byte	0x111c
 2242 0ebe C90E0000 		.4byte	0xec9
 2243 0ec2 36       		.uleb128 0x36
 2244 0ec3 01       		.uleb128 0x1
 2245 0ec4 50       		.byte	0x50
 2246 0ec5 02       		.uleb128 0x2
 2247 0ec6 75       		.byte	0x75
 2248 0ec7 00       		.sleb128 0
 2249 0ec8 00       		.byte	0
 2250 0ec9 35       		.uleb128 0x35
 2251 0eca 00010000 		.4byte	.LVL22
 2252 0ece F5100000 		.4byte	0x10f5
 2253 0ed2 DD0E0000 		.4byte	0xedd
 2254 0ed6 36       		.uleb128 0x36
 2255 0ed7 01       		.uleb128 0x1
 2256 0ed8 50       		.byte	0x50
ARM GAS  /tmp/ccvfQcT2.s 			page 41


 2257 0ed9 02       		.uleb128 0x2
 2258 0eda 75       		.byte	0x75
 2259 0edb 00       		.sleb128 0
 2260 0edc 00       		.byte	0
 2261 0edd 35       		.uleb128 0x35
 2262 0ede 32010000 		.4byte	.LVL23
 2263 0ee2 0A110000 		.4byte	0x110a
 2264 0ee6 F40E0000 		.4byte	0xef4
 2265 0eea 36       		.uleb128 0x36
 2266 0eeb 01       		.uleb128 0x1
 2267 0eec 50       		.byte	0x50
 2268 0eed 05       		.uleb128 0x5
 2269 0eee 03       		.byte	0x3
 2270 0eef 1C000000 		.4byte	.LC1
 2271 0ef3 00       		.byte	0
 2272 0ef4 37       		.uleb128 0x37
 2273 0ef5 46010000 		.4byte	.LVL24
 2274 0ef9 F5100000 		.4byte	0x10f5
 2275 0efd 36       		.uleb128 0x36
 2276 0efe 01       		.uleb128 0x1
 2277 0eff 50       		.byte	0x50
 2278 0f00 02       		.uleb128 0x2
 2279 0f01 75       		.byte	0x75
 2280 0f02 00       		.sleb128 0
 2281 0f03 00       		.byte	0
 2282 0f04 00       		.byte	0
 2283 0f05 32       		.uleb128 0x32
 2284 0f06 50010000 		.4byte	.LBB16
 2285 0f0a 54000000 		.4byte	.LBE16-.LBB16
 2286 0f0e C90F0000 		.4byte	0xfc9
 2287 0f12 31       		.uleb128 0x31
 2288 0f13 CD0D0000 		.4byte	0xdcd
 2289 0f17 05       		.uleb128 0x5
 2290 0f18 03       		.byte	0x3
 2291 0f19 00000000 		.4byte	seq.8281
 2292 0f1d 35       		.uleb128 0x35
 2293 0f1e 5A010000 		.4byte	.LVL27
 2294 0f22 0A110000 		.4byte	0x110a
 2295 0f26 390F0000 		.4byte	0xf39
 2296 0f2a 36       		.uleb128 0x36
 2297 0f2b 01       		.uleb128 0x1
 2298 0f2c 51       		.byte	0x51
 2299 0f2d 01       		.uleb128 0x1
 2300 0f2e 35       		.byte	0x35
 2301 0f2f 36       		.uleb128 0x36
 2302 0f30 01       		.uleb128 0x1
 2303 0f31 50       		.byte	0x50
 2304 0f32 05       		.uleb128 0x5
 2305 0f33 03       		.byte	0x3
 2306 0f34 74000000 		.4byte	.LC3
 2307 0f38 00       		.byte	0
 2308 0f39 35       		.uleb128 0x35
 2309 0f3a 62010000 		.4byte	.LVL28
 2310 0f3e 31110000 		.4byte	0x1131
 2311 0f42 4D0F0000 		.4byte	0xf4d
 2312 0f46 36       		.uleb128 0x36
 2313 0f47 01       		.uleb128 0x1
ARM GAS  /tmp/ccvfQcT2.s 			page 42


 2314 0f48 50       		.byte	0x50
 2315 0f49 02       		.uleb128 0x2
 2316 0f4a 74       		.byte	0x74
 2317 0f4b 00       		.sleb128 0
 2318 0f4c 00       		.byte	0
 2319 0f4d 35       		.uleb128 0x35
 2320 0f4e 80010000 		.4byte	.LVL29
 2321 0f52 4B110000 		.4byte	0x114b
 2322 0f56 670F0000 		.4byte	0xf67
 2323 0f5a 36       		.uleb128 0x36
 2324 0f5b 01       		.uleb128 0x1
 2325 0f5c 50       		.byte	0x50
 2326 0f5d 02       		.uleb128 0x2
 2327 0f5e 74       		.byte	0x74
 2328 0f5f 00       		.sleb128 0
 2329 0f60 36       		.uleb128 0x36
 2330 0f61 02       		.uleb128 0x2
 2331 0f62 7D       		.byte	0x7d
 2332 0f63 04       		.sleb128 4
 2333 0f64 01       		.uleb128 0x1
 2334 0f65 32       		.byte	0x32
 2335 0f66 00       		.byte	0
 2336 0f67 35       		.uleb128 0x35
 2337 0f68 8A010000 		.4byte	.LVL30
 2338 0f6c 7E110000 		.4byte	0x117e
 2339 0f70 800F0000 		.4byte	0xf80
 2340 0f74 36       		.uleb128 0x36
 2341 0f75 01       		.uleb128 0x1
 2342 0f76 52       		.byte	0x52
 2343 0f77 01       		.uleb128 0x1
 2344 0f78 30       		.byte	0x30
 2345 0f79 36       		.uleb128 0x36
 2346 0f7a 01       		.uleb128 0x1
 2347 0f7b 50       		.byte	0x50
 2348 0f7c 02       		.uleb128 0x2
 2349 0f7d 74       		.byte	0x74
 2350 0f7e 00       		.sleb128 0
 2351 0f7f 00       		.byte	0
 2352 0f80 35       		.uleb128 0x35
 2353 0f81 90010000 		.4byte	.LVL31
 2354 0f85 0A110000 		.4byte	0x110a
 2355 0f89 970F0000 		.4byte	0xf97
 2356 0f8d 36       		.uleb128 0x36
 2357 0f8e 01       		.uleb128 0x1
 2358 0f8f 50       		.byte	0x50
 2359 0f90 05       		.uleb128 0x5
 2360 0f91 03       		.byte	0x3
 2361 0f92 A4000000 		.4byte	.LC4
 2362 0f96 00       		.byte	0
 2363 0f97 35       		.uleb128 0x35
 2364 0f98 A0010000 		.4byte	.LVL32
 2365 0f9c 9D110000 		.4byte	0x119d
 2366 0fa0 BF0F0000 		.4byte	0xfbf
 2367 0fa4 36       		.uleb128 0x36
 2368 0fa5 01       		.uleb128 0x1
 2369 0fa6 52       		.byte	0x52
 2370 0fa7 01       		.uleb128 0x1
ARM GAS  /tmp/ccvfQcT2.s 			page 43


 2371 0fa8 34       		.byte	0x34
 2372 0fa9 36       		.uleb128 0x36
 2373 0faa 01       		.uleb128 0x1
 2374 0fab 51       		.byte	0x51
 2375 0fac 05       		.uleb128 0x5
 2376 0fad 03       		.byte	0x3
 2377 0fae 00000000 		.4byte	.LANCHOR0
 2378 0fb2 36       		.uleb128 0x36
 2379 0fb3 01       		.uleb128 0x1
 2380 0fb4 50       		.byte	0x50
 2381 0fb5 02       		.uleb128 0x2
 2382 0fb6 74       		.byte	0x74
 2383 0fb7 00       		.sleb128 0
 2384 0fb8 36       		.uleb128 0x36
 2385 0fb9 02       		.uleb128 0x2
 2386 0fba 7D       		.byte	0x7d
 2387 0fbb 00       		.sleb128 0
 2388 0fbc 01       		.uleb128 0x1
 2389 0fbd 30       		.byte	0x30
 2390 0fbe 00       		.byte	0
 2391 0fbf 38       		.uleb128 0x38
 2392 0fc0 A4010000 		.4byte	.LVL33
 2393 0fc4 C6110000 		.4byte	0x11c6
 2394 0fc8 00       		.byte	0
 2395 0fc9 35       		.uleb128 0x35
 2396 0fca 48000000 		.4byte	.LVL8
 2397 0fce CD110000 		.4byte	0x11cd
 2398 0fd2 E20F0000 		.4byte	0xfe2
 2399 0fd6 36       		.uleb128 0x36
 2400 0fd7 01       		.uleb128 0x1
 2401 0fd8 51       		.byte	0x51
 2402 0fd9 01       		.uleb128 0x1
 2403 0fda 35       		.byte	0x35
 2404 0fdb 36       		.uleb128 0x36
 2405 0fdc 01       		.uleb128 0x1
 2406 0fdd 50       		.byte	0x50
 2407 0fde 02       		.uleb128 0x2
 2408 0fdf 74       		.byte	0x74
 2409 0fe0 00       		.sleb128 0
 2410 0fe1 00       		.byte	0
 2411 0fe2 35       		.uleb128 0x35
 2412 0fe3 52000000 		.4byte	.LVL9
 2413 0fe7 E7110000 		.4byte	0x11e7
 2414 0feb F60F0000 		.4byte	0xff6
 2415 0fef 36       		.uleb128 0x36
 2416 0ff0 01       		.uleb128 0x1
 2417 0ff1 50       		.byte	0x50
 2418 0ff2 02       		.uleb128 0x2
 2419 0ff3 08       		.byte	0x8
 2420 0ff4 94       		.byte	0x94
 2421 0ff5 00       		.byte	0
 2422 0ff6 35       		.uleb128 0x35
 2423 0ff7 CC000000 		.4byte	.LVL18
 2424 0ffb 1C110000 		.4byte	0x111c
 2425 0fff 0A100000 		.4byte	0x100a
 2426 1003 36       		.uleb128 0x36
 2427 1004 01       		.uleb128 0x1
ARM GAS  /tmp/ccvfQcT2.s 			page 44


 2428 1005 50       		.byte	0x50
 2429 1006 02       		.uleb128 0x2
 2430 1007 75       		.byte	0x75
 2431 1008 00       		.sleb128 0
 2432 1009 00       		.byte	0
 2433 100a 35       		.uleb128 0x35
 2434 100b D4000000 		.4byte	.LVL19
 2435 100f F5100000 		.4byte	0x10f5
 2436 1013 1E100000 		.4byte	0x101e
 2437 1017 36       		.uleb128 0x36
 2438 1018 01       		.uleb128 0x1
 2439 1019 50       		.byte	0x50
 2440 101a 02       		.uleb128 0x2
 2441 101b 75       		.byte	0x75
 2442 101c 00       		.sleb128 0
 2443 101d 00       		.byte	0
 2444 101e 35       		.uleb128 0x35
 2445 101f 4E010000 		.4byte	.LVL26
 2446 1023 F5100000 		.4byte	0x10f5
 2447 1027 32100000 		.4byte	0x1032
 2448 102b 36       		.uleb128 0x36
 2449 102c 01       		.uleb128 0x1
 2450 102d 50       		.byte	0x50
 2451 102e 02       		.uleb128 0x2
 2452 102f 75       		.byte	0x75
 2453 1030 00       		.sleb128 0
 2454 1031 00       		.byte	0
 2455 1032 35       		.uleb128 0x35
 2456 1033 AA010000 		.4byte	.LVL34
 2457 1037 1C110000 		.4byte	0x111c
 2458 103b 46100000 		.4byte	0x1046
 2459 103f 36       		.uleb128 0x36
 2460 1040 01       		.uleb128 0x1
 2461 1041 50       		.byte	0x50
 2462 1042 02       		.uleb128 0x2
 2463 1043 75       		.byte	0x75
 2464 1044 00       		.sleb128 0
 2465 1045 00       		.byte	0
 2466 1046 35       		.uleb128 0x35
 2467 1047 BA010000 		.4byte	.LVL35
 2468 104b 0A110000 		.4byte	0x110a
 2469 104f 62100000 		.4byte	0x1062
 2470 1053 36       		.uleb128 0x36
 2471 1054 01       		.uleb128 0x1
 2472 1055 51       		.byte	0x51
 2473 1056 01       		.uleb128 0x1
 2474 1057 35       		.byte	0x35
 2475 1058 36       		.uleb128 0x36
 2476 1059 01       		.uleb128 0x1
 2477 105a 50       		.byte	0x50
 2478 105b 05       		.uleb128 0x5
 2479 105c 03       		.byte	0x3
 2480 105d C0000000 		.4byte	.LC5
 2481 1061 00       		.byte	0
 2482 1062 35       		.uleb128 0x35
 2483 1063 C2010000 		.4byte	.LVL36
 2484 1067 31110000 		.4byte	0x1131
ARM GAS  /tmp/ccvfQcT2.s 			page 45


 2485 106b 76100000 		.4byte	0x1076
 2486 106f 36       		.uleb128 0x36
 2487 1070 01       		.uleb128 0x1
 2488 1071 50       		.byte	0x50
 2489 1072 02       		.uleb128 0x2
 2490 1073 74       		.byte	0x74
 2491 1074 00       		.sleb128 0
 2492 1075 00       		.byte	0
 2493 1076 35       		.uleb128 0x35
 2494 1077 E0010000 		.4byte	.LVL37
 2495 107b 4B110000 		.4byte	0x114b
 2496 107f 90100000 		.4byte	0x1090
 2497 1083 36       		.uleb128 0x36
 2498 1084 01       		.uleb128 0x1
 2499 1085 50       		.byte	0x50
 2500 1086 02       		.uleb128 0x2
 2501 1087 74       		.byte	0x74
 2502 1088 00       		.sleb128 0
 2503 1089 36       		.uleb128 0x36
 2504 108a 02       		.uleb128 0x2
 2505 108b 7D       		.byte	0x7d
 2506 108c 04       		.sleb128 4
 2507 108d 01       		.uleb128 0x1
 2508 108e 32       		.byte	0x32
 2509 108f 00       		.byte	0
 2510 1090 37       		.uleb128 0x37
 2511 1091 EA010000 		.4byte	.LVL38
 2512 1095 7E110000 		.4byte	0x117e
 2513 1099 36       		.uleb128 0x36
 2514 109a 01       		.uleb128 0x1
 2515 109b 52       		.byte	0x52
 2516 109c 01       		.uleb128 0x1
 2517 109d 30       		.byte	0x30
 2518 109e 36       		.uleb128 0x36
 2519 109f 01       		.uleb128 0x1
 2520 10a0 50       		.byte	0x50
 2521 10a1 02       		.uleb128 0x2
 2522 10a2 74       		.byte	0x74
 2523 10a3 00       		.sleb128 0
 2524 10a4 00       		.byte	0
 2525 10a5 00       		.byte	0
 2526 10a6 38       		.uleb128 0x38
 2527 10a7 20000000 		.4byte	.LVL6
 2528 10ab FC110000 		.4byte	0x11fc
 2529 10af 00       		.byte	0
 2530 10b0 00       		.byte	0
 2531 10b1 37       		.uleb128 0x37
 2532 10b2 1C000000 		.4byte	.LVL5
 2533 10b6 0A110000 		.4byte	0x110a
 2534 10ba 36       		.uleb128 0x36
 2535 10bb 01       		.uleb128 0x1
 2536 10bc 50       		.byte	0x50
 2537 10bd 05       		.uleb128 0x5
 2538 10be 03       		.byte	0x3
 2539 10bf 00000000 		.4byte	.LC0
 2540 10c3 00       		.byte	0
 2541 10c4 00       		.byte	0
ARM GAS  /tmp/ccvfQcT2.s 			page 46


 2542 10c5 00       		.byte	0
 2543 10c6 00       		.byte	0
 2544 10c7 39       		.uleb128 0x39
 2545 10c8 5D060000 		.4byte	.LASF229
 2546 10cc 0C       		.byte	0xc
 2547 10cd DF07     		.2byte	0x7df
 2548 10cf F4000000 		.4byte	0xf4
 2549 10d3 3A       		.uleb128 0x3a
 2550 10d4 D6040000 		.4byte	.LASF230
 2551 10d8 01       		.byte	0x1
 2552 10d9 0A       		.byte	0xa
 2553 10da 4B050000 		.4byte	0x54b
 2554 10de 05       		.uleb128 0x5
 2555 10df 03       		.byte	0x3
 2556 10e0 00000000 		.4byte	MIDI_Setup
 2557 10e4 3A       		.uleb128 0x3a
 2558 10e5 3C000000 		.4byte	.LASF231
 2559 10e9 01       		.byte	0x1
 2560 10ea 1B       		.byte	0x1b
 2561 10eb CB0B0000 		.4byte	0xbcb
 2562 10ef 05       		.uleb128 0x5
 2563 10f0 03       		.byte	0x3
 2564 10f1 00000000 		.4byte	Vendor_Class
 2565 10f5 3B       		.uleb128 0x3b
 2566 10f6 2E090000 		.4byte	.LASF232
 2567 10fa 0B       		.byte	0xb
 2568 10fb 99       		.byte	0x99
 2569 10fc 1D010000 		.4byte	0x11d
 2570 1100 0A110000 		.4byte	0x110a
 2571 1104 20       		.uleb128 0x20
 2572 1105 DB0D0000 		.4byte	0xddb
 2573 1109 00       		.byte	0
 2574 110a 3C       		.uleb128 0x3c
 2575 110b 2A0A0000 		.4byte	.LASF246
 2576 110f 10       		.byte	0x10
 2577 1110 78       		.byte	0x78
 2578 1111 1C110000 		.4byte	0x111c
 2579 1115 20       		.uleb128 0x20
 2580 1116 12010000 		.4byte	0x112
 2581 111a 3D       		.uleb128 0x3d
 2582 111b 00       		.byte	0
 2583 111c 3B       		.uleb128 0x3b
 2584 111d 6A060000 		.4byte	.LASF233
 2585 1121 0B       		.byte	0xb
 2586 1122 98       		.byte	0x98
 2587 1123 1D010000 		.4byte	0x11d
 2588 1127 31110000 		.4byte	0x1131
 2589 112b 20       		.uleb128 0x20
 2590 112c DB0D0000 		.4byte	0xddb
 2591 1130 00       		.byte	0
 2592 1131 3B       		.uleb128 0x3b
 2593 1132 64000000 		.4byte	.LASF234
 2594 1136 0D       		.byte	0xd
 2595 1137 60       		.byte	0x60
 2596 1138 97000000 		.4byte	0x97
 2597 113c 4B110000 		.4byte	0x114b
 2598 1140 20       		.uleb128 0x20
ARM GAS  /tmp/ccvfQcT2.s 			page 47


 2599 1141 2C0D0000 		.4byte	0xd2c
 2600 1145 20       		.uleb128 0x20
 2601 1146 97000000 		.4byte	0x97
 2602 114a 00       		.byte	0
 2603 114b 3B       		.uleb128 0x3b
 2604 114c EC030000 		.4byte	.LASF235
 2605 1150 0D       		.byte	0xd
 2606 1151 55       		.byte	0x55
 2607 1152 F9070000 		.4byte	0x7f9
 2608 1156 7E110000 		.4byte	0x117e
 2609 115a 20       		.uleb128 0x20
 2610 115b 2C0D0000 		.4byte	0xd2c
 2611 115f 20       		.uleb128 0x20
 2612 1160 97000000 		.4byte	0x97
 2613 1164 20       		.uleb128 0x20
 2614 1165 97000000 		.4byte	0x97
 2615 1169 20       		.uleb128 0x20
 2616 116a 97000000 		.4byte	0x97
 2617 116e 20       		.uleb128 0x20
 2618 116f 97000000 		.4byte	0x97
 2619 1173 20       		.uleb128 0x20
 2620 1174 97000000 		.4byte	0x97
 2621 1178 20       		.uleb128 0x20
 2622 1179 A2000000 		.4byte	0xa2
 2623 117d 00       		.byte	0
 2624 117e 3B       		.uleb128 0x3b
 2625 117f 66050000 		.4byte	.LASF236
 2626 1183 0E       		.byte	0xe
 2627 1184 8A       		.byte	0x8a
 2628 1185 F9070000 		.4byte	0x7f9
 2629 1189 9D110000 		.4byte	0x119d
 2630 118d 20       		.uleb128 0x20
 2631 118e 2C0D0000 		.4byte	0xd2c
 2632 1192 20       		.uleb128 0x20
 2633 1193 97000000 		.4byte	0x97
 2634 1197 20       		.uleb128 0x20
 2635 1198 97000000 		.4byte	0x97
 2636 119c 00       		.byte	0
 2637 119d 3B       		.uleb128 0x3b
 2638 119e 7E030000 		.4byte	.LASF237
 2639 11a2 0F       		.byte	0xf
 2640 11a3 75       		.byte	0x75
 2641 11a4 F9070000 		.4byte	0x7f9
 2642 11a8 C6110000 		.4byte	0x11c6
 2643 11ac 20       		.uleb128 0x20
 2644 11ad 2C0D0000 		.4byte	0xd2c
 2645 11b1 20       		.uleb128 0x20
 2646 11b2 91040000 		.4byte	0x491
 2647 11b6 20       		.uleb128 0x20
 2648 11b7 A2000000 		.4byte	0xa2
 2649 11bb 20       		.uleb128 0x20
 2650 11bc 97000000 		.4byte	0x97
 2651 11c0 20       		.uleb128 0x20
 2652 11c1 97000000 		.4byte	0x97
 2653 11c5 00       		.byte	0
 2654 11c6 3E       		.uleb128 0x3e
 2655 11c7 67030000 		.4byte	.LASF240
ARM GAS  /tmp/ccvfQcT2.s 			page 48


 2656 11cb 0B       		.byte	0xb
 2657 11cc 28       		.byte	0x28
 2658 11cd 3B       		.uleb128 0x3b
 2659 11ce DB050000 		.4byte	.LASF238
 2660 11d2 0E       		.byte	0xe
 2661 11d3 66       		.byte	0x66
 2662 11d4 F9070000 		.4byte	0x7f9
 2663 11d8 E7110000 		.4byte	0x11e7
 2664 11dc 20       		.uleb128 0x20
 2665 11dd 2C0D0000 		.4byte	0xd2c
 2666 11e1 20       		.uleb128 0x20
 2667 11e2 97000000 		.4byte	0x97
 2668 11e6 00       		.byte	0
 2669 11e7 3B       		.uleb128 0x3b
 2670 11e8 9A090000 		.4byte	.LASF239
 2671 11ec 10       		.byte	0x10
 2672 11ed 4E       		.byte	0x4e
 2673 11ee 09010000 		.4byte	0x109
 2674 11f2 FC110000 		.4byte	0x11fc
 2675 11f6 20       		.uleb128 0x20
 2676 11f7 FE000000 		.4byte	0xfe
 2677 11fb 00       		.byte	0
 2678 11fc 3E       		.uleb128 0x3e
 2679 11fd 06030000 		.4byte	.LASF241
 2680 1201 0B       		.byte	0xb
 2681 1202 27       		.byte	0x27
 2682 1203 00       		.byte	0
 2683              		.section	.debug_abbrev,"",%progbits
 2684              	.Ldebug_abbrev0:
 2685 0000 01       		.uleb128 0x1
 2686 0001 11       		.uleb128 0x11
 2687 0002 01       		.byte	0x1
 2688 0003 25       		.uleb128 0x25
 2689 0004 0E       		.uleb128 0xe
 2690 0005 13       		.uleb128 0x13
 2691 0006 0B       		.uleb128 0xb
 2692 0007 03       		.uleb128 0x3
 2693 0008 0E       		.uleb128 0xe
 2694 0009 1B       		.uleb128 0x1b
 2695 000a 0E       		.uleb128 0xe
 2696 000b 11       		.uleb128 0x11
 2697 000c 01       		.uleb128 0x1
 2698 000d 12       		.uleb128 0x12
 2699 000e 06       		.uleb128 0x6
 2700 000f 10       		.uleb128 0x10
 2701 0010 17       		.uleb128 0x17
 2702 0011 00       		.byte	0
 2703 0012 00       		.byte	0
 2704 0013 02       		.uleb128 0x2
 2705 0014 24       		.uleb128 0x24
 2706 0015 00       		.byte	0
 2707 0016 0B       		.uleb128 0xb
 2708 0017 0B       		.uleb128 0xb
 2709 0018 3E       		.uleb128 0x3e
 2710 0019 0B       		.uleb128 0xb
 2711 001a 03       		.uleb128 0x3
 2712 001b 0E       		.uleb128 0xe
ARM GAS  /tmp/ccvfQcT2.s 			page 49


 2713 001c 00       		.byte	0
 2714 001d 00       		.byte	0
 2715 001e 03       		.uleb128 0x3
 2716 001f 16       		.uleb128 0x16
 2717 0020 00       		.byte	0
 2718 0021 03       		.uleb128 0x3
 2719 0022 0E       		.uleb128 0xe
 2720 0023 3A       		.uleb128 0x3a
 2721 0024 0B       		.uleb128 0xb
 2722 0025 3B       		.uleb128 0x3b
 2723 0026 0B       		.uleb128 0xb
 2724 0027 49       		.uleb128 0x49
 2725 0028 13       		.uleb128 0x13
 2726 0029 00       		.byte	0
 2727 002a 00       		.byte	0
 2728 002b 04       		.uleb128 0x4
 2729 002c 24       		.uleb128 0x24
 2730 002d 00       		.byte	0
 2731 002e 0B       		.uleb128 0xb
 2732 002f 0B       		.uleb128 0xb
 2733 0030 3E       		.uleb128 0x3e
 2734 0031 0B       		.uleb128 0xb
 2735 0032 03       		.uleb128 0x3
 2736 0033 08       		.uleb128 0x8
 2737 0034 00       		.byte	0
 2738 0035 00       		.byte	0
 2739 0036 05       		.uleb128 0x5
 2740 0037 35       		.uleb128 0x35
 2741 0038 00       		.byte	0
 2742 0039 49       		.uleb128 0x49
 2743 003a 13       		.uleb128 0x13
 2744 003b 00       		.byte	0
 2745 003c 00       		.byte	0
 2746 003d 06       		.uleb128 0x6
 2747 003e 01       		.uleb128 0x1
 2748 003f 01       		.byte	0x1
 2749 0040 49       		.uleb128 0x49
 2750 0041 13       		.uleb128 0x13
 2751 0042 01       		.uleb128 0x1
 2752 0043 13       		.uleb128 0x13
 2753 0044 00       		.byte	0
 2754 0045 00       		.byte	0
 2755 0046 07       		.uleb128 0x7
 2756 0047 21       		.uleb128 0x21
 2757 0048 00       		.byte	0
 2758 0049 49       		.uleb128 0x49
 2759 004a 13       		.uleb128 0x13
 2760 004b 2F       		.uleb128 0x2f
 2761 004c 0B       		.uleb128 0xb
 2762 004d 00       		.byte	0
 2763 004e 00       		.byte	0
 2764 004f 08       		.uleb128 0x8
 2765 0050 26       		.uleb128 0x26
 2766 0051 00       		.byte	0
 2767 0052 49       		.uleb128 0x49
 2768 0053 13       		.uleb128 0x13
 2769 0054 00       		.byte	0
ARM GAS  /tmp/ccvfQcT2.s 			page 50


 2770 0055 00       		.byte	0
 2771 0056 09       		.uleb128 0x9
 2772 0057 0F       		.uleb128 0xf
 2773 0058 00       		.byte	0
 2774 0059 0B       		.uleb128 0xb
 2775 005a 0B       		.uleb128 0xb
 2776 005b 00       		.byte	0
 2777 005c 00       		.byte	0
 2778 005d 0A       		.uleb128 0xa
 2779 005e 0F       		.uleb128 0xf
 2780 005f 00       		.byte	0
 2781 0060 0B       		.uleb128 0xb
 2782 0061 0B       		.uleb128 0xb
 2783 0062 49       		.uleb128 0x49
 2784 0063 13       		.uleb128 0x13
 2785 0064 00       		.byte	0
 2786 0065 00       		.byte	0
 2787 0066 0B       		.uleb128 0xb
 2788 0067 13       		.uleb128 0x13
 2789 0068 01       		.byte	0x1
 2790 0069 03       		.uleb128 0x3
 2791 006a 0E       		.uleb128 0xe
 2792 006b 0B       		.uleb128 0xb
 2793 006c 0B       		.uleb128 0xb
 2794 006d 3A       		.uleb128 0x3a
 2795 006e 0B       		.uleb128 0xb
 2796 006f 3B       		.uleb128 0x3b
 2797 0070 0B       		.uleb128 0xb
 2798 0071 01       		.uleb128 0x1
 2799 0072 13       		.uleb128 0x13
 2800 0073 00       		.byte	0
 2801 0074 00       		.byte	0
 2802 0075 0C       		.uleb128 0xc
 2803 0076 0D       		.uleb128 0xd
 2804 0077 00       		.byte	0
 2805 0078 03       		.uleb128 0x3
 2806 0079 0E       		.uleb128 0xe
 2807 007a 3A       		.uleb128 0x3a
 2808 007b 0B       		.uleb128 0xb
 2809 007c 3B       		.uleb128 0x3b
 2810 007d 0B       		.uleb128 0xb
 2811 007e 49       		.uleb128 0x49
 2812 007f 13       		.uleb128 0x13
 2813 0080 38       		.uleb128 0x38
 2814 0081 0B       		.uleb128 0xb
 2815 0082 00       		.byte	0
 2816 0083 00       		.byte	0
 2817 0084 0D       		.uleb128 0xd
 2818 0085 0D       		.uleb128 0xd
 2819 0086 00       		.byte	0
 2820 0087 03       		.uleb128 0x3
 2821 0088 08       		.uleb128 0x8
 2822 0089 3A       		.uleb128 0x3a
 2823 008a 0B       		.uleb128 0xb
 2824 008b 3B       		.uleb128 0x3b
 2825 008c 0B       		.uleb128 0xb
 2826 008d 49       		.uleb128 0x49
ARM GAS  /tmp/ccvfQcT2.s 			page 51


 2827 008e 13       		.uleb128 0x13
 2828 008f 38       		.uleb128 0x38
 2829 0090 0B       		.uleb128 0xb
 2830 0091 00       		.byte	0
 2831 0092 00       		.byte	0
 2832 0093 0E       		.uleb128 0xe
 2833 0094 13       		.uleb128 0x13
 2834 0095 01       		.byte	0x1
 2835 0096 0B       		.uleb128 0xb
 2836 0097 0B       		.uleb128 0xb
 2837 0098 3A       		.uleb128 0x3a
 2838 0099 0B       		.uleb128 0xb
 2839 009a 3B       		.uleb128 0x3b
 2840 009b 0B       		.uleb128 0xb
 2841 009c 01       		.uleb128 0x1
 2842 009d 13       		.uleb128 0x13
 2843 009e 00       		.byte	0
 2844 009f 00       		.byte	0
 2845 00a0 0F       		.uleb128 0xf
 2846 00a1 13       		.uleb128 0x13
 2847 00a2 01       		.byte	0x1
 2848 00a3 03       		.uleb128 0x3
 2849 00a4 0E       		.uleb128 0xe
 2850 00a5 0B       		.uleb128 0xb
 2851 00a6 0B       		.uleb128 0xb
 2852 00a7 3A       		.uleb128 0x3a
 2853 00a8 0B       		.uleb128 0xb
 2854 00a9 3B       		.uleb128 0x3b
 2855 00aa 05       		.uleb128 0x5
 2856 00ab 01       		.uleb128 0x1
 2857 00ac 13       		.uleb128 0x13
 2858 00ad 00       		.byte	0
 2859 00ae 00       		.byte	0
 2860 00af 10       		.uleb128 0x10
 2861 00b0 0D       		.uleb128 0xd
 2862 00b1 00       		.byte	0
 2863 00b2 03       		.uleb128 0x3
 2864 00b3 08       		.uleb128 0x8
 2865 00b4 3A       		.uleb128 0x3a
 2866 00b5 0B       		.uleb128 0xb
 2867 00b6 3B       		.uleb128 0x3b
 2868 00b7 05       		.uleb128 0x5
 2869 00b8 49       		.uleb128 0x49
 2870 00b9 13       		.uleb128 0x13
 2871 00ba 38       		.uleb128 0x38
 2872 00bb 0B       		.uleb128 0xb
 2873 00bc 00       		.byte	0
 2874 00bd 00       		.byte	0
 2875 00be 11       		.uleb128 0x11
 2876 00bf 17       		.uleb128 0x17
 2877 00c0 01       		.byte	0x1
 2878 00c1 0B       		.uleb128 0xb
 2879 00c2 0B       		.uleb128 0xb
 2880 00c3 3A       		.uleb128 0x3a
 2881 00c4 0B       		.uleb128 0xb
 2882 00c5 3B       		.uleb128 0x3b
 2883 00c6 0B       		.uleb128 0xb
ARM GAS  /tmp/ccvfQcT2.s 			page 52


 2884 00c7 01       		.uleb128 0x1
 2885 00c8 13       		.uleb128 0x13
 2886 00c9 00       		.byte	0
 2887 00ca 00       		.byte	0
 2888 00cb 12       		.uleb128 0x12
 2889 00cc 0D       		.uleb128 0xd
 2890 00cd 00       		.byte	0
 2891 00ce 03       		.uleb128 0x3
 2892 00cf 0E       		.uleb128 0xe
 2893 00d0 3A       		.uleb128 0x3a
 2894 00d1 0B       		.uleb128 0xb
 2895 00d2 3B       		.uleb128 0x3b
 2896 00d3 0B       		.uleb128 0xb
 2897 00d4 49       		.uleb128 0x49
 2898 00d5 13       		.uleb128 0x13
 2899 00d6 00       		.byte	0
 2900 00d7 00       		.byte	0
 2901 00d8 13       		.uleb128 0x13
 2902 00d9 13       		.uleb128 0x13
 2903 00da 01       		.byte	0x1
 2904 00db 03       		.uleb128 0x3
 2905 00dc 08       		.uleb128 0x8
 2906 00dd 0B       		.uleb128 0xb
 2907 00de 0B       		.uleb128 0xb
 2908 00df 3A       		.uleb128 0x3a
 2909 00e0 0B       		.uleb128 0xb
 2910 00e1 3B       		.uleb128 0x3b
 2911 00e2 0B       		.uleb128 0xb
 2912 00e3 01       		.uleb128 0x1
 2913 00e4 13       		.uleb128 0x13
 2914 00e5 00       		.byte	0
 2915 00e6 00       		.byte	0
 2916 00e7 14       		.uleb128 0x14
 2917 00e8 0D       		.uleb128 0xd
 2918 00e9 00       		.byte	0
 2919 00ea 03       		.uleb128 0x3
 2920 00eb 08       		.uleb128 0x8
 2921 00ec 3A       		.uleb128 0x3a
 2922 00ed 0B       		.uleb128 0xb
 2923 00ee 3B       		.uleb128 0x3b
 2924 00ef 0B       		.uleb128 0xb
 2925 00f0 49       		.uleb128 0x49
 2926 00f1 13       		.uleb128 0x13
 2927 00f2 00       		.byte	0
 2928 00f3 00       		.byte	0
 2929 00f4 15       		.uleb128 0x15
 2930 00f5 17       		.uleb128 0x17
 2931 00f6 01       		.byte	0x1
 2932 00f7 03       		.uleb128 0x3
 2933 00f8 0E       		.uleb128 0xe
 2934 00f9 0B       		.uleb128 0xb
 2935 00fa 0B       		.uleb128 0xb
 2936 00fb 3A       		.uleb128 0x3a
 2937 00fc 0B       		.uleb128 0xb
 2938 00fd 3B       		.uleb128 0x3b
 2939 00fe 0B       		.uleb128 0xb
 2940 00ff 01       		.uleb128 0x1
ARM GAS  /tmp/ccvfQcT2.s 			page 53


 2941 0100 13       		.uleb128 0x13
 2942 0101 00       		.byte	0
 2943 0102 00       		.byte	0
 2944 0103 16       		.uleb128 0x16
 2945 0104 16       		.uleb128 0x16
 2946 0105 00       		.byte	0
 2947 0106 03       		.uleb128 0x3
 2948 0107 0E       		.uleb128 0xe
 2949 0108 3A       		.uleb128 0x3a
 2950 0109 0B       		.uleb128 0xb
 2951 010a 3B       		.uleb128 0x3b
 2952 010b 05       		.uleb128 0x5
 2953 010c 49       		.uleb128 0x49
 2954 010d 13       		.uleb128 0x13
 2955 010e 00       		.byte	0
 2956 010f 00       		.byte	0
 2957 0110 17       		.uleb128 0x17
 2958 0111 0D       		.uleb128 0xd
 2959 0112 00       		.byte	0
 2960 0113 03       		.uleb128 0x3
 2961 0114 0E       		.uleb128 0xe
 2962 0115 3A       		.uleb128 0x3a
 2963 0116 0B       		.uleb128 0xb
 2964 0117 3B       		.uleb128 0x3b
 2965 0118 05       		.uleb128 0x5
 2966 0119 49       		.uleb128 0x49
 2967 011a 13       		.uleb128 0x13
 2968 011b 38       		.uleb128 0x38
 2969 011c 0B       		.uleb128 0xb
 2970 011d 00       		.byte	0
 2971 011e 00       		.byte	0
 2972 011f 18       		.uleb128 0x18
 2973 0120 13       		.uleb128 0x13
 2974 0121 01       		.byte	0x1
 2975 0122 03       		.uleb128 0x3
 2976 0123 0E       		.uleb128 0xe
 2977 0124 0B       		.uleb128 0xb
 2978 0125 05       		.uleb128 0x5
 2979 0126 3A       		.uleb128 0x3a
 2980 0127 0B       		.uleb128 0xb
 2981 0128 3B       		.uleb128 0x3b
 2982 0129 05       		.uleb128 0x5
 2983 012a 01       		.uleb128 0x1
 2984 012b 13       		.uleb128 0x13
 2985 012c 00       		.byte	0
 2986 012d 00       		.byte	0
 2987 012e 19       		.uleb128 0x19
 2988 012f 04       		.uleb128 0x4
 2989 0130 01       		.byte	0x1
 2990 0131 0B       		.uleb128 0xb
 2991 0132 0B       		.uleb128 0xb
 2992 0133 3A       		.uleb128 0x3a
 2993 0134 0B       		.uleb128 0xb
 2994 0135 3B       		.uleb128 0x3b
 2995 0136 05       		.uleb128 0x5
 2996 0137 01       		.uleb128 0x1
 2997 0138 13       		.uleb128 0x13
ARM GAS  /tmp/ccvfQcT2.s 			page 54


 2998 0139 00       		.byte	0
 2999 013a 00       		.byte	0
 3000 013b 1A       		.uleb128 0x1a
 3001 013c 28       		.uleb128 0x28
 3002 013d 00       		.byte	0
 3003 013e 03       		.uleb128 0x3
 3004 013f 0E       		.uleb128 0xe
 3005 0140 1C       		.uleb128 0x1c
 3006 0141 0D       		.uleb128 0xd
 3007 0142 00       		.byte	0
 3008 0143 00       		.byte	0
 3009 0144 1B       		.uleb128 0x1b
 3010 0145 13       		.uleb128 0x13
 3011 0146 01       		.byte	0x1
 3012 0147 0B       		.uleb128 0xb
 3013 0148 0B       		.uleb128 0xb
 3014 0149 3A       		.uleb128 0x3a
 3015 014a 0B       		.uleb128 0xb
 3016 014b 3B       		.uleb128 0x3b
 3017 014c 05       		.uleb128 0x5
 3018 014d 01       		.uleb128 0x1
 3019 014e 13       		.uleb128 0x13
 3020 014f 00       		.byte	0
 3021 0150 00       		.byte	0
 3022 0151 1C       		.uleb128 0x1c
 3023 0152 13       		.uleb128 0x13
 3024 0153 01       		.byte	0x1
 3025 0154 0B       		.uleb128 0xb
 3026 0155 05       		.uleb128 0x5
 3027 0156 3A       		.uleb128 0x3a
 3028 0157 0B       		.uleb128 0xb
 3029 0158 3B       		.uleb128 0x3b
 3030 0159 05       		.uleb128 0x5
 3031 015a 01       		.uleb128 0x1
 3032 015b 13       		.uleb128 0x13
 3033 015c 00       		.byte	0
 3034 015d 00       		.byte	0
 3035 015e 1D       		.uleb128 0x1d
 3036 015f 0D       		.uleb128 0xd
 3037 0160 00       		.byte	0
 3038 0161 03       		.uleb128 0x3
 3039 0162 0E       		.uleb128 0xe
 3040 0163 3A       		.uleb128 0x3a
 3041 0164 0B       		.uleb128 0xb
 3042 0165 3B       		.uleb128 0x3b
 3043 0166 05       		.uleb128 0x5
 3044 0167 49       		.uleb128 0x49
 3045 0168 13       		.uleb128 0x13
 3046 0169 38       		.uleb128 0x38
 3047 016a 05       		.uleb128 0x5
 3048 016b 00       		.byte	0
 3049 016c 00       		.byte	0
 3050 016d 1E       		.uleb128 0x1e
 3051 016e 21       		.uleb128 0x21
 3052 016f 00       		.byte	0
 3053 0170 49       		.uleb128 0x49
 3054 0171 13       		.uleb128 0x13
ARM GAS  /tmp/ccvfQcT2.s 			page 55


 3055 0172 2F       		.uleb128 0x2f
 3056 0173 05       		.uleb128 0x5
 3057 0174 00       		.byte	0
 3058 0175 00       		.byte	0
 3059 0176 1F       		.uleb128 0x1f
 3060 0177 15       		.uleb128 0x15
 3061 0178 01       		.byte	0x1
 3062 0179 27       		.uleb128 0x27
 3063 017a 19       		.uleb128 0x19
 3064 017b 49       		.uleb128 0x49
 3065 017c 13       		.uleb128 0x13
 3066 017d 01       		.uleb128 0x1
 3067 017e 13       		.uleb128 0x13
 3068 017f 00       		.byte	0
 3069 0180 00       		.byte	0
 3070 0181 20       		.uleb128 0x20
 3071 0182 05       		.uleb128 0x5
 3072 0183 00       		.byte	0
 3073 0184 49       		.uleb128 0x49
 3074 0185 13       		.uleb128 0x13
 3075 0186 00       		.byte	0
 3076 0187 00       		.byte	0
 3077 0188 21       		.uleb128 0x21
 3078 0189 0D       		.uleb128 0xd
 3079 018a 00       		.byte	0
 3080 018b 03       		.uleb128 0x3
 3081 018c 08       		.uleb128 0x8
 3082 018d 3A       		.uleb128 0x3a
 3083 018e 0B       		.uleb128 0xb
 3084 018f 3B       		.uleb128 0x3b
 3085 0190 05       		.uleb128 0x5
 3086 0191 49       		.uleb128 0x49
 3087 0192 13       		.uleb128 0x13
 3088 0193 38       		.uleb128 0x38
 3089 0194 05       		.uleb128 0x5
 3090 0195 00       		.byte	0
 3091 0196 00       		.byte	0
 3092 0197 22       		.uleb128 0x22
 3093 0198 15       		.uleb128 0x15
 3094 0199 01       		.byte	0x1
 3095 019a 27       		.uleb128 0x27
 3096 019b 19       		.uleb128 0x19
 3097 019c 01       		.uleb128 0x1
 3098 019d 13       		.uleb128 0x13
 3099 019e 00       		.byte	0
 3100 019f 00       		.byte	0
 3101 01a0 23       		.uleb128 0x23
 3102 01a1 04       		.uleb128 0x4
 3103 01a2 01       		.byte	0x1
 3104 01a3 0B       		.uleb128 0xb
 3105 01a4 0B       		.uleb128 0xb
 3106 01a5 3A       		.uleb128 0x3a
 3107 01a6 0B       		.uleb128 0xb
 3108 01a7 3B       		.uleb128 0x3b
 3109 01a8 0B       		.uleb128 0xb
 3110 01a9 01       		.uleb128 0x1
 3111 01aa 13       		.uleb128 0x13
ARM GAS  /tmp/ccvfQcT2.s 			page 56


 3112 01ab 00       		.byte	0
 3113 01ac 00       		.byte	0
 3114 01ad 24       		.uleb128 0x24
 3115 01ae 2E       		.uleb128 0x2e
 3116 01af 01       		.byte	0x1
 3117 01b0 03       		.uleb128 0x3
 3118 01b1 0E       		.uleb128 0xe
 3119 01b2 3A       		.uleb128 0x3a
 3120 01b3 0B       		.uleb128 0xb
 3121 01b4 3B       		.uleb128 0x3b
 3122 01b5 0B       		.uleb128 0xb
 3123 01b6 27       		.uleb128 0x27
 3124 01b7 19       		.uleb128 0x19
 3125 01b8 49       		.uleb128 0x49
 3126 01b9 13       		.uleb128 0x13
 3127 01ba 20       		.uleb128 0x20
 3128 01bb 0B       		.uleb128 0xb
 3129 01bc 01       		.uleb128 0x1
 3130 01bd 13       		.uleb128 0x13
 3131 01be 00       		.byte	0
 3132 01bf 00       		.byte	0
 3133 01c0 25       		.uleb128 0x25
 3134 01c1 05       		.uleb128 0x5
 3135 01c2 00       		.byte	0
 3136 01c3 03       		.uleb128 0x3
 3137 01c4 0E       		.uleb128 0xe
 3138 01c5 3A       		.uleb128 0x3a
 3139 01c6 0B       		.uleb128 0xb
 3140 01c7 3B       		.uleb128 0x3b
 3141 01c8 0B       		.uleb128 0xb
 3142 01c9 49       		.uleb128 0x49
 3143 01ca 13       		.uleb128 0x13
 3144 01cb 00       		.byte	0
 3145 01cc 00       		.byte	0
 3146 01cd 26       		.uleb128 0x26
 3147 01ce 34       		.uleb128 0x34
 3148 01cf 00       		.byte	0
 3149 01d0 03       		.uleb128 0x3
 3150 01d1 0E       		.uleb128 0xe
 3151 01d2 3A       		.uleb128 0x3a
 3152 01d3 0B       		.uleb128 0xb
 3153 01d4 3B       		.uleb128 0x3b
 3154 01d5 0B       		.uleb128 0xb
 3155 01d6 49       		.uleb128 0x49
 3156 01d7 13       		.uleb128 0x13
 3157 01d8 00       		.byte	0
 3158 01d9 00       		.byte	0
 3159 01da 27       		.uleb128 0x27
 3160 01db 0B       		.uleb128 0xb
 3161 01dc 01       		.byte	0x1
 3162 01dd 00       		.byte	0
 3163 01de 00       		.byte	0
 3164 01df 28       		.uleb128 0x28
 3165 01e0 34       		.uleb128 0x34
 3166 01e1 00       		.byte	0
 3167 01e2 03       		.uleb128 0x3
 3168 01e3 08       		.uleb128 0x8
ARM GAS  /tmp/ccvfQcT2.s 			page 57


 3169 01e4 3A       		.uleb128 0x3a
 3170 01e5 0B       		.uleb128 0xb
 3171 01e6 3B       		.uleb128 0x3b
 3172 01e7 0B       		.uleb128 0xb
 3173 01e8 49       		.uleb128 0x49
 3174 01e9 13       		.uleb128 0x13
 3175 01ea 00       		.byte	0
 3176 01eb 00       		.byte	0
 3177 01ec 29       		.uleb128 0x29
 3178 01ed 0B       		.uleb128 0xb
 3179 01ee 01       		.byte	0x1
 3180 01ef 01       		.uleb128 0x1
 3181 01f0 13       		.uleb128 0x13
 3182 01f1 00       		.byte	0
 3183 01f2 00       		.byte	0
 3184 01f3 2A       		.uleb128 0x2a
 3185 01f4 2E       		.uleb128 0x2e
 3186 01f5 01       		.byte	0x1
 3187 01f6 31       		.uleb128 0x31
 3188 01f7 13       		.uleb128 0x13
 3189 01f8 11       		.uleb128 0x11
 3190 01f9 01       		.uleb128 0x1
 3191 01fa 12       		.uleb128 0x12
 3192 01fb 06       		.uleb128 0x6
 3193 01fc 40       		.uleb128 0x40
 3194 01fd 18       		.uleb128 0x18
 3195 01fe 9742     		.uleb128 0x2117
 3196 0200 19       		.uleb128 0x19
 3197 0201 01       		.uleb128 0x1
 3198 0202 13       		.uleb128 0x13
 3199 0203 00       		.byte	0
 3200 0204 00       		.byte	0
 3201 0205 2B       		.uleb128 0x2b
 3202 0206 05       		.uleb128 0x5
 3203 0207 00       		.byte	0
 3204 0208 31       		.uleb128 0x31
 3205 0209 13       		.uleb128 0x13
 3206 020a 02       		.uleb128 0x2
 3207 020b 17       		.uleb128 0x17
 3208 020c 00       		.byte	0
 3209 020d 00       		.byte	0
 3210 020e 2C       		.uleb128 0x2c
 3211 020f 34       		.uleb128 0x34
 3212 0210 00       		.byte	0
 3213 0211 31       		.uleb128 0x31
 3214 0212 13       		.uleb128 0x13
 3215 0213 1C       		.uleb128 0x1c
 3216 0214 0B       		.uleb128 0xb
 3217 0215 00       		.byte	0
 3218 0216 00       		.byte	0
 3219 0217 2D       		.uleb128 0x2d
 3220 0218 0B       		.uleb128 0xb
 3221 0219 01       		.byte	0x1
 3222 021a 55       		.uleb128 0x55
 3223 021b 17       		.uleb128 0x17
 3224 021c 00       		.byte	0
 3225 021d 00       		.byte	0
ARM GAS  /tmp/ccvfQcT2.s 			page 58


 3226 021e 2E       		.uleb128 0x2e
 3227 021f 05       		.uleb128 0x5
 3228 0220 00       		.byte	0
 3229 0221 31       		.uleb128 0x31
 3230 0222 13       		.uleb128 0x13
 3231 0223 02       		.uleb128 0x2
 3232 0224 18       		.uleb128 0x18
 3233 0225 00       		.byte	0
 3234 0226 00       		.byte	0
 3235 0227 2F       		.uleb128 0x2f
 3236 0228 34       		.uleb128 0x34
 3237 0229 00       		.byte	0
 3238 022a 31       		.uleb128 0x31
 3239 022b 13       		.uleb128 0x13
 3240 022c 00       		.byte	0
 3241 022d 00       		.byte	0
 3242 022e 30       		.uleb128 0x30
 3243 022f 1D       		.uleb128 0x1d
 3244 0230 01       		.byte	0x1
 3245 0231 31       		.uleb128 0x31
 3246 0232 13       		.uleb128 0x13
 3247 0233 52       		.uleb128 0x52
 3248 0234 01       		.uleb128 0x1
 3249 0235 55       		.uleb128 0x55
 3250 0236 17       		.uleb128 0x17
 3251 0237 58       		.uleb128 0x58
 3252 0238 0B       		.uleb128 0xb
 3253 0239 59       		.uleb128 0x59
 3254 023a 0B       		.uleb128 0xb
 3255 023b 01       		.uleb128 0x1
 3256 023c 13       		.uleb128 0x13
 3257 023d 00       		.byte	0
 3258 023e 00       		.byte	0
 3259 023f 31       		.uleb128 0x31
 3260 0240 34       		.uleb128 0x34
 3261 0241 00       		.byte	0
 3262 0242 31       		.uleb128 0x31
 3263 0243 13       		.uleb128 0x13
 3264 0244 02       		.uleb128 0x2
 3265 0245 18       		.uleb128 0x18
 3266 0246 00       		.byte	0
 3267 0247 00       		.byte	0
 3268 0248 32       		.uleb128 0x32
 3269 0249 0B       		.uleb128 0xb
 3270 024a 01       		.byte	0x1
 3271 024b 11       		.uleb128 0x11
 3272 024c 01       		.uleb128 0x1
 3273 024d 12       		.uleb128 0x12
 3274 024e 06       		.uleb128 0x6
 3275 024f 01       		.uleb128 0x1
 3276 0250 13       		.uleb128 0x13
 3277 0251 00       		.byte	0
 3278 0252 00       		.byte	0
 3279 0253 33       		.uleb128 0x33
 3280 0254 34       		.uleb128 0x34
 3281 0255 00       		.byte	0
 3282 0256 31       		.uleb128 0x31
ARM GAS  /tmp/ccvfQcT2.s 			page 59


 3283 0257 13       		.uleb128 0x13
 3284 0258 02       		.uleb128 0x2
 3285 0259 17       		.uleb128 0x17
 3286 025a 00       		.byte	0
 3287 025b 00       		.byte	0
 3288 025c 34       		.uleb128 0x34
 3289 025d 0B       		.uleb128 0xb
 3290 025e 01       		.byte	0x1
 3291 025f 55       		.uleb128 0x55
 3292 0260 17       		.uleb128 0x17
 3293 0261 01       		.uleb128 0x1
 3294 0262 13       		.uleb128 0x13
 3295 0263 00       		.byte	0
 3296 0264 00       		.byte	0
 3297 0265 35       		.uleb128 0x35
 3298 0266 898201   		.uleb128 0x4109
 3299 0269 01       		.byte	0x1
 3300 026a 11       		.uleb128 0x11
 3301 026b 01       		.uleb128 0x1
 3302 026c 31       		.uleb128 0x31
 3303 026d 13       		.uleb128 0x13
 3304 026e 01       		.uleb128 0x1
 3305 026f 13       		.uleb128 0x13
 3306 0270 00       		.byte	0
 3307 0271 00       		.byte	0
 3308 0272 36       		.uleb128 0x36
 3309 0273 8A8201   		.uleb128 0x410a
 3310 0276 00       		.byte	0
 3311 0277 02       		.uleb128 0x2
 3312 0278 18       		.uleb128 0x18
 3313 0279 9142     		.uleb128 0x2111
 3314 027b 18       		.uleb128 0x18
 3315 027c 00       		.byte	0
 3316 027d 00       		.byte	0
 3317 027e 37       		.uleb128 0x37
 3318 027f 898201   		.uleb128 0x4109
 3319 0282 01       		.byte	0x1
 3320 0283 11       		.uleb128 0x11
 3321 0284 01       		.uleb128 0x1
 3322 0285 31       		.uleb128 0x31
 3323 0286 13       		.uleb128 0x13
 3324 0287 00       		.byte	0
 3325 0288 00       		.byte	0
 3326 0289 38       		.uleb128 0x38
 3327 028a 898201   		.uleb128 0x4109
 3328 028d 00       		.byte	0
 3329 028e 11       		.uleb128 0x11
 3330 028f 01       		.uleb128 0x1
 3331 0290 31       		.uleb128 0x31
 3332 0291 13       		.uleb128 0x13
 3333 0292 00       		.byte	0
 3334 0293 00       		.byte	0
 3335 0294 39       		.uleb128 0x39
 3336 0295 34       		.uleb128 0x34
 3337 0296 00       		.byte	0
 3338 0297 03       		.uleb128 0x3
 3339 0298 0E       		.uleb128 0xe
ARM GAS  /tmp/ccvfQcT2.s 			page 60


 3340 0299 3A       		.uleb128 0x3a
 3341 029a 0B       		.uleb128 0xb
 3342 029b 3B       		.uleb128 0x3b
 3343 029c 05       		.uleb128 0x5
 3344 029d 49       		.uleb128 0x49
 3345 029e 13       		.uleb128 0x13
 3346 029f 3F       		.uleb128 0x3f
 3347 02a0 19       		.uleb128 0x19
 3348 02a1 3C       		.uleb128 0x3c
 3349 02a2 19       		.uleb128 0x19
 3350 02a3 00       		.byte	0
 3351 02a4 00       		.byte	0
 3352 02a5 3A       		.uleb128 0x3a
 3353 02a6 34       		.uleb128 0x34
 3354 02a7 00       		.byte	0
 3355 02a8 03       		.uleb128 0x3
 3356 02a9 0E       		.uleb128 0xe
 3357 02aa 3A       		.uleb128 0x3a
 3358 02ab 0B       		.uleb128 0xb
 3359 02ac 3B       		.uleb128 0x3b
 3360 02ad 0B       		.uleb128 0xb
 3361 02ae 49       		.uleb128 0x49
 3362 02af 13       		.uleb128 0x13
 3363 02b0 3F       		.uleb128 0x3f
 3364 02b1 19       		.uleb128 0x19
 3365 02b2 02       		.uleb128 0x2
 3366 02b3 18       		.uleb128 0x18
 3367 02b4 00       		.byte	0
 3368 02b5 00       		.byte	0
 3369 02b6 3B       		.uleb128 0x3b
 3370 02b7 2E       		.uleb128 0x2e
 3371 02b8 01       		.byte	0x1
 3372 02b9 3F       		.uleb128 0x3f
 3373 02ba 19       		.uleb128 0x19
 3374 02bb 03       		.uleb128 0x3
 3375 02bc 0E       		.uleb128 0xe
 3376 02bd 3A       		.uleb128 0x3a
 3377 02be 0B       		.uleb128 0xb
 3378 02bf 3B       		.uleb128 0x3b
 3379 02c0 0B       		.uleb128 0xb
 3380 02c1 27       		.uleb128 0x27
 3381 02c2 19       		.uleb128 0x19
 3382 02c3 49       		.uleb128 0x49
 3383 02c4 13       		.uleb128 0x13
 3384 02c5 3C       		.uleb128 0x3c
 3385 02c6 19       		.uleb128 0x19
 3386 02c7 01       		.uleb128 0x1
 3387 02c8 13       		.uleb128 0x13
 3388 02c9 00       		.byte	0
 3389 02ca 00       		.byte	0
 3390 02cb 3C       		.uleb128 0x3c
 3391 02cc 2E       		.uleb128 0x2e
 3392 02cd 01       		.byte	0x1
 3393 02ce 3F       		.uleb128 0x3f
 3394 02cf 19       		.uleb128 0x19
 3395 02d0 03       		.uleb128 0x3
 3396 02d1 0E       		.uleb128 0xe
ARM GAS  /tmp/ccvfQcT2.s 			page 61


 3397 02d2 3A       		.uleb128 0x3a
 3398 02d3 0B       		.uleb128 0xb
 3399 02d4 3B       		.uleb128 0x3b
 3400 02d5 0B       		.uleb128 0xb
 3401 02d6 27       		.uleb128 0x27
 3402 02d7 19       		.uleb128 0x19
 3403 02d8 3C       		.uleb128 0x3c
 3404 02d9 19       		.uleb128 0x19
 3405 02da 01       		.uleb128 0x1
 3406 02db 13       		.uleb128 0x13
 3407 02dc 00       		.byte	0
 3408 02dd 00       		.byte	0
 3409 02de 3D       		.uleb128 0x3d
 3410 02df 18       		.uleb128 0x18
 3411 02e0 00       		.byte	0
 3412 02e1 00       		.byte	0
 3413 02e2 00       		.byte	0
 3414 02e3 3E       		.uleb128 0x3e
 3415 02e4 2E       		.uleb128 0x2e
 3416 02e5 00       		.byte	0
 3417 02e6 3F       		.uleb128 0x3f
 3418 02e7 19       		.uleb128 0x19
 3419 02e8 03       		.uleb128 0x3
 3420 02e9 0E       		.uleb128 0xe
 3421 02ea 3A       		.uleb128 0x3a
 3422 02eb 0B       		.uleb128 0xb
 3423 02ec 3B       		.uleb128 0x3b
 3424 02ed 0B       		.uleb128 0xb
 3425 02ee 27       		.uleb128 0x27
 3426 02ef 19       		.uleb128 0x19
 3427 02f0 3C       		.uleb128 0x3c
 3428 02f1 19       		.uleb128 0x19
 3429 02f2 00       		.byte	0
 3430 02f3 00       		.byte	0
 3431 02f4 00       		.byte	0
 3432              		.section	.debug_loc,"",%progbits
 3433              	.Ldebug_loc0:
 3434              	.LLST0:
 3435 0000 00000000 		.4byte	.LVL0-.Ltext0
 3436 0004 0C000000 		.4byte	.LVL1-.Ltext0
 3437 0008 0100     		.2byte	0x1
 3438 000a 50       		.byte	0x50
 3439 000b 0C000000 		.4byte	.LVL1-.Ltext0
 3440 000f 0E000000 		.4byte	.LVL2-.Ltext0
 3441 0013 0400     		.2byte	0x4
 3442 0015 F3       		.byte	0xf3
 3443 0016 01       		.uleb128 0x1
 3444 0017 50       		.byte	0x50
 3445 0018 9F       		.byte	0x9f
 3446 0019 0E000000 		.4byte	.LVL2-.Ltext0
 3447 001d 18000000 		.4byte	.LVL4-.Ltext0
 3448 0021 0100     		.2byte	0x1
 3449 0023 50       		.byte	0x50
 3450 0024 18000000 		.4byte	.LVL4-.Ltext0
 3451 0028 10020000 		.4byte	.LFE133-.Ltext0
 3452 002c 0100     		.2byte	0x1
 3453 002e 54       		.byte	0x54
ARM GAS  /tmp/ccvfQcT2.s 			page 62


 3454 002f 00000000 		.4byte	0
 3455 0033 00000000 		.4byte	0
 3456              	.LLST1:
 3457 0037 78000000 		.4byte	.LVL12-.Ltext0
 3458 003b 7C000000 		.4byte	.LVL13-.Ltext0
 3459 003f 0200     		.2byte	0x2
 3460 0041 30       		.byte	0x30
 3461 0042 9F       		.byte	0x9f
 3462 0043 C0000000 		.4byte	.LVL16-.Ltext0
 3463 0047 C6000000 		.4byte	.LVL17-.Ltext0
 3464 004b 0300     		.2byte	0x3
 3465 004d 76       		.byte	0x76
 3466 004e 01       		.sleb128 1
 3467 004f 9F       		.byte	0x9f
 3468 0050 00000000 		.4byte	0
 3469 0054 00000000 		.4byte	0
 3470              	.LLST2:
 3471 0058 7C000000 		.4byte	.LVL13-.Ltext0
 3472 005c C6000000 		.4byte	.LVL17-.Ltext0
 3473 0060 0100     		.2byte	0x1
 3474 0062 59       		.byte	0x59
 3475 0063 F2000000 		.4byte	.LVL20-.Ltext0
 3476 0067 48010000 		.4byte	.LVL25-.Ltext0
 3477 006b 0100     		.2byte	0x1
 3478 006d 59       		.byte	0x59
 3479 006e 00000000 		.4byte	0
 3480 0072 00000000 		.4byte	0
 3481              		.section	.debug_aranges,"",%progbits
 3482 0000 1C000000 		.4byte	0x1c
 3483 0004 0200     		.2byte	0x2
 3484 0006 00000000 		.4byte	.Ldebug_info0
 3485 000a 04       		.byte	0x4
 3486 000b 00       		.byte	0
 3487 000c 0000     		.2byte	0
 3488 000e 0000     		.2byte	0
 3489 0010 00000000 		.4byte	.Ltext0
 3490 0014 10020000 		.4byte	.Letext0-.Ltext0
 3491 0018 00000000 		.4byte	0
 3492 001c 00000000 		.4byte	0
 3493              		.section	.debug_ranges,"",%progbits
 3494              	.Ldebug_ranges0:
 3495 0000 16000000 		.4byte	.LBB9-.Ltext0
 3496 0004 2A000000 		.4byte	.LBE9-.Ltext0
 3497 0008 30000000 		.4byte	.LBB20-.Ltext0
 3498 000c 10020000 		.4byte	.LBE20-.Ltext0
 3499 0010 00000000 		.4byte	0
 3500 0014 00000000 		.4byte	0
 3501 0018 1C000000 		.4byte	.LBB11-.Ltext0
 3502 001c 2A000000 		.4byte	.LBE11-.Ltext0
 3503 0020 30000000 		.4byte	.LBB18-.Ltext0
 3504 0024 10020000 		.4byte	.LBE18-.Ltext0
 3505 0028 00000000 		.4byte	0
 3506 002c 00000000 		.4byte	0
 3507 0030 7C000000 		.4byte	.LBB14-.Ltext0
 3508 0034 C0000000 		.4byte	.LBE14-.Ltext0
 3509 0038 D8000000 		.4byte	.LBB15-.Ltext0
 3510 003c 48010000 		.4byte	.LBE15-.Ltext0
ARM GAS  /tmp/ccvfQcT2.s 			page 63


 3511 0040 00000000 		.4byte	0
 3512 0044 00000000 		.4byte	0
 3513              		.section	.debug_line,"",%progbits
 3514              	.Ldebug_line0:
 3515 0000 F8020000 		.section	.debug_str,"MS",%progbits,1
 3515      02009102 
 3515      00000201 
 3515      FB0E0D00 
 3515      01010101 
 3516              	.LASF77:
 3517 0000 6950726F 		.ascii	"iProduct\000"
 3517      64756374 
 3517      00
 3518              	.LASF89:
 3519 0009 62416C74 		.ascii	"bAlternateSetting\000"
 3519      65726E61 
 3519      74655365 
 3519      7474696E 
 3519      6700
 3520              	.LASF18:
 3521 001b 73697A65 		.ascii	"size_t\000"
 3521      5F7400
 3522              	.LASF82:
 3523 0022 62456E64 		.ascii	"bEndpointAddress\000"
 3523      706F696E 
 3523      74416464 
 3523      72657373 
 3523      00
 3524              	.LASF17:
 3525 0033 73697A65 		.ascii	"sizetype\000"
 3525      74797065 
 3525      00
 3526              	.LASF231:
 3527 003c 56656E64 		.ascii	"Vendor_Class\000"
 3527      6F725F43 
 3527      6C617373 
 3527      00
 3528              	.LASF31:
 3529 0049 705F6374 		.ascii	"p_ctx\000"
 3529      7800
 3530              	.LASF168:
 3531 004f 69735F63 		.ascii	"is_connected\000"
 3531      6F6E6E65 
 3531      63746564 
 3531      00
 3532              	.LASF24:
 3533 005c 74707269 		.ascii	"tprio_t\000"
 3533      6F5F7400 
 3534              	.LASF234:
 3535 0064 55534248 		.ascii	"USBH_AllocPipe\000"
 3535      5F416C6C 
 3535      6F635069 
 3535      706500
 3536              	.LASF39:
 3537 0073 705F6D73 		.ascii	"p_msgqueue\000"
 3537      67717565 
 3537      756500
ARM GAS  /tmp/ccvfQcT2.s 			page 64


 3538              	.LASF129:
 3539 007e 454E554D 		.ascii	"ENUM_GET_CFG_DESC\000"
 3539      5F474554 
 3539      5F434647 
 3539      5F444553 
 3539      4300
 3540              	.LASF15:
 3541 0090 696E7433 		.ascii	"int32_t\000"
 3541      325F7400 
 3542              	.LASF70:
 3543 0098 62446576 		.ascii	"bDeviceSubClass\000"
 3543      69636553 
 3543      7562436C 
 3543      61737300 
 3544              	.LASF221:
 3545 00a8 55534248 		.ascii	"USBH_Vendor_InterfaceInit\000"
 3545      5F56656E 
 3545      646F725F 
 3545      496E7465 
 3545      72666163 
 3546              	.LASF114:
 3547 00c2 484F5354 		.ascii	"HOST_DEV_ATTACHED\000"
 3547      5F444556 
 3547      5F415454 
 3547      41434845 
 3547      4400
 3548              	.LASF112:
 3549 00d4 484F5354 		.ascii	"HOST_IDLE\000"
 3549      5F49444C 
 3549      4500
 3550              	.LASF63:
 3551 00de 774C656E 		.ascii	"wLength\000"
 3551      67746800 
 3552              	.LASF105:
 3553 00e6 55534248 		.ascii	"USBH_OK\000"
 3553      5F4F4B00 
 3554              	.LASF106:
 3555 00ee 55534248 		.ascii	"USBH_BUSY\000"
 3555      5F425553 
 3555      5900
 3556              	.LASF142:
 3557 00f8 4354524C 		.ascii	"CTRL_STATUS_IN\000"
 3557      5F535441 
 3557      5455535F 
 3557      494E00
 3558              	.LASF209:
 3559 0107 4F757445 		.ascii	"OutEp\000"
 3559      7000
 3560              	.LASF161:
 3561 010d 73746174 		.ascii	"state\000"
 3561      6500
 3562              	.LASF203:
 3563 0113 4D494449 		.ascii	"MIDI_RETRY\000"
 3563      5F524554 
 3563      525900
 3564              	.LASF115:
 3565 011e 484F5354 		.ascii	"HOST_DEV_DISCONNECTED\000"
ARM GAS  /tmp/ccvfQcT2.s 			page 65


 3565      5F444556 
 3565      5F444953 
 3565      434F4E4E 
 3565      45435445 
 3566              	.LASF68:
 3567 0134 62636455 		.ascii	"bcdUSB\000"
 3567      534200
 3568              	.LASF153:
 3569 013b 434D445F 		.ascii	"CMD_StateTypeDef\000"
 3569      53746174 
 3569      65547970 
 3569      65446566 
 3569      00
 3570              	.LASF156:
 3571 014c 70697065 		.ascii	"pipe_size\000"
 3571      5F73697A 
 3571      6500
 3572              	.LASF197:
 3573 0156 4D494449 		.ascii	"MIDI_INIT\000"
 3573      5F494E49 
 3573      5400
 3574              	.LASF51:
 3575 0160 6D5F6F77 		.ascii	"m_owner\000"
 3575      6E657200 
 3576              	.LASF54:
 3577 0168 65786974 		.ascii	"exitcode\000"
 3577      636F6465 
 3577      00
 3578              	.LASF124:
 3579 0171 484F5354 		.ascii	"HOST_ABORT_STATE\000"
 3579      5F41424F 
 3579      52545F53 
 3579      54415445 
 3579      00
 3580              	.LASF3:
 3581 0182 5F5F7569 		.ascii	"__uint8_t\000"
 3581      6E74385F 
 3581      7400
 3582              	.LASF56:
 3583 018c 65776D61 		.ascii	"ewmask\000"
 3583      736B00
 3584              	.LASF171:
 3585 0193 43666744 		.ascii	"CfgDesc\000"
 3585      65736300 
 3586              	.LASF97:
 3587 019b 5F436F6E 		.ascii	"_ConfigurationDescriptor\000"
 3587      66696775 
 3587      72617469 
 3587      6F6E4465 
 3587      73637269 
 3588              	.LASF32:
 3589 01b4 705F6E65 		.ascii	"p_newer\000"
 3589      77657200 
 3590              	.LASF7:
 3591 01bc 6C6F6E67 		.ascii	"long int\000"
 3591      20696E74 
 3591      00
ARM GAS  /tmp/ccvfQcT2.s 			page 66


 3592              	.LASF28:
 3593 01c5 705F6E65 		.ascii	"p_next\000"
 3593      787400
 3594              	.LASF204:
 3595 01cc 4D494449 		.ascii	"MIDI_ERROR\000"
 3595      5F455252 
 3595      4F5200
 3596              	.LASF29:
 3597 01d7 705F7072 		.ascii	"p_prev\000"
 3597      657600
 3598              	.LASF190:
 3599 01de 50697065 		.ascii	"Pipes\000"
 3599      7300
 3600              	.LASF134:
 3601 01e4 454E554D 		.ascii	"ENUM_StateTypeDef\000"
 3601      5F537461 
 3601      74655479 
 3601      70654465 
 3601      6600
 3602              	.LASF227:
 3603 01f6 6E756D5F 		.ascii	"num_ep\000"
 3603      657000
 3604              	.LASF22:
 3605 01fd 74737461 		.ascii	"tstate_t\000"
 3605      74655F74 
 3605      00
 3606              	.LASF42:
 3607 0206 705F6D74 		.ascii	"p_mtxlist\000"
 3607      786C6973 
 3607      7400
 3608              	.LASF46:
 3609 0210 72656761 		.ascii	"regarm_t\000"
 3609      726D5F74 
 3609      00
 3610              	.LASF81:
 3611 0219 5F456E64 		.ascii	"_EndpointDescriptor\000"
 3611      706F696E 
 3611      74446573 
 3611      63726970 
 3611      746F7200 
 3612              	.LASF118:
 3613 022d 484F5354 		.ascii	"HOST_CLASS_REQUEST\000"
 3613      5F434C41 
 3613      53535F52 
 3613      45515545 
 3613      535400
 3614              	.LASF198:
 3615 0240 4D494449 		.ascii	"MIDI_IDLE\000"
 3615      5F49444C 
 3615      4500
 3616              	.LASF93:
 3617 024a 62496E74 		.ascii	"bInterfaceProtocol\000"
 3617      65726661 
 3617      63655072 
 3617      6F746F63 
 3617      6F6C00
 3618              	.LASF0:
ARM GAS  /tmp/ccvfQcT2.s 			page 67


 3619 025d 7369676E 		.ascii	"signed char\000"
 3619      65642063 
 3619      68617200 
 3620              	.LASF37:
 3621 0269 705F7072 		.ascii	"p_preempt\000"
 3621      65656D70 
 3621      7400
 3622              	.LASF13:
 3623 0273 75696E74 		.ascii	"uint8_t\000"
 3623      385F7400 
 3624              	.LASF144:
 3625 027b 4354524C 		.ascii	"CTRL_STATUS_OUT\000"
 3625      5F535441 
 3625      5455535F 
 3625      4F555400 
 3626              	.LASF120:
 3627 028b 484F5354 		.ascii	"HOST_SET_CONFIGURATION\000"
 3627      5F534554 
 3627      5F434F4E 
 3627      46494755 
 3627      52415449 
 3628              	.LASF26:
 3629 02a2 6576656E 		.ascii	"eventmask_t\000"
 3629      746D6173 
 3629      6B5F7400 
 3630              	.LASF48:
 3631 02ae 636F6E74 		.ascii	"context\000"
 3631      65787400 
 3632              	.LASF75:
 3633 02b6 62636444 		.ascii	"bcdDevice\000"
 3633      65766963 
 3633      6500
 3634              	.LASF1:
 3635 02c0 756E7369 		.ascii	"unsigned char\000"
 3635      676E6564 
 3635      20636861 
 3635      7200
 3636              	.LASF59:
 3637 02ce 626D5265 		.ascii	"bmRequestType\000"
 3637      71756573 
 3637      74547970 
 3637      6500
 3638              	.LASF220:
 3639 02dc 4D494449 		.ascii	"MIDI_HandleTypeDef\000"
 3639      5F48616E 
 3639      646C6554 
 3639      79706544 
 3639      656600
 3640              	.LASF219:
 3641 02ef 62756666 		.ascii	"buff_out_len\000"
 3641      5F6F7574 
 3641      5F6C656E 
 3641      00
 3642              	.LASF211:
 3643 02fc 4F757445 		.ascii	"OutEpSize\000"
 3643      7053697A 
 3643      6500
ARM GAS  /tmp/ccvfQcT2.s 			page 68


 3644              	.LASF241:
 3645 0306 75736268 		.ascii	"usbh_midi_init\000"
 3645      5F6D6964 
 3645      695F696E 
 3645      697400
 3646              	.LASF170:
 3647 0315 44657644 		.ascii	"DevDesc\000"
 3647      65736300 
 3648              	.LASF61:
 3649 031d 7756616C 		.ascii	"wValue\000"
 3649      756500
 3650              	.LASF20:
 3651 0324 5F426F6F 		.ascii	"_Bool\000"
 3651      6C00
 3652              	.LASF133:
 3653 032a 454E554D 		.ascii	"ENUM_GET_SERIALNUM_STRING_DESC\000"
 3653      5F474554 
 3653      5F534552 
 3653      49414C4E 
 3653      554D5F53 
 3654              	.LASF110:
 3655 0349 55534248 		.ascii	"USBH_ERROR_SPEED_UNKNOWN\000"
 3655      5F455252 
 3655      4F525F53 
 3655      50454544 
 3655      5F554E4B 
 3656              	.LASF19:
 3657 0362 63686172 		.ascii	"char\000"
 3657      00
 3658              	.LASF240:
 3659 0367 75736268 		.ascii	"usbh_midi_reset_buffer\000"
 3659      5F6D6964 
 3659      695F7265 
 3659      7365745F 
 3659      62756666 
 3660              	.LASF237:
 3661 037e 55534248 		.ascii	"USBH_BulkSendData\000"
 3661      5F42756C 
 3661      6B53656E 
 3661      64446174 
 3661      6100
 3662              	.LASF136:
 3663 0390 4354524C 		.ascii	"CTRL_SETUP\000"
 3663      5F534554 
 3663      555000
 3664              	.LASF30:
 3665 039b 705F7072 		.ascii	"p_prio\000"
 3665      696F00
 3666              	.LASF4:
 3667 03a2 5F5F7569 		.ascii	"__uint16_t\000"
 3667      6E743136 
 3667      5F7400
 3668              	.LASF146:
 3669 03ad 4354524C 		.ascii	"CTRL_ERROR\000"
 3669      5F455252 
 3669      4F5200
 3670              	.LASF55:
ARM GAS  /tmp/ccvfQcT2.s 			page 69


 3671 03b8 77746F62 		.ascii	"wtobjp\000"
 3671      6A7000
 3672              	.LASF159:
 3673 03bf 74696D65 		.ascii	"timer\000"
 3673      7200
 3674              	.LASF185:
 3675 03c5 436F6E74 		.ascii	"Control\000"
 3675      726F6C00 
 3676              	.LASF245:
 3677 03cd 5F555342 		.ascii	"_USB_Setup\000"
 3677      5F536574 
 3677      757000
 3678              	.LASF208:
 3679 03d8 496E5069 		.ascii	"InPipe\000"
 3679      706500
 3680              	.LASF184:
 3681 03df 52657175 		.ascii	"RequestState\000"
 3681      65737453 
 3681      74617465 
 3681      00
 3682              	.LASF235:
 3683 03ec 55534248 		.ascii	"USBH_OpenPipe\000"
 3683      5F4F7065 
 3683      6E506970 
 3683      6500
 3684              	.LASF154:
 3685 03fa 70697065 		.ascii	"pipe_in\000"
 3685      5F696E00 
 3686              	.LASF138:
 3687 0402 4354524C 		.ascii	"CTRL_DATA_IN\000"
 3687      5F444154 
 3687      415F494E 
 3687      00
 3688              	.LASF141:
 3689 040f 4354524C 		.ascii	"CTRL_DATA_OUT_WAIT\000"
 3689      5F444154 
 3689      415F4F55 
 3689      545F5741 
 3689      495400
 3690              	.LASF109:
 3691 0422 55534248 		.ascii	"USBH_UNRECOVERED_ERROR\000"
 3691      5F554E52 
 3691      45434F56 
 3691      45524544 
 3691      5F455252 
 3692              	.LASF111:
 3693 0439 55534248 		.ascii	"USBH_StatusTypeDef\000"
 3693      5F537461 
 3693      74757354 
 3693      79706544 
 3693      656600
 3694              	.LASF148:
 3695 044c 4354524C 		.ascii	"CTRL_COMPLETE\000"
 3695      5F434F4D 
 3695      504C4554 
 3695      4500
 3696              	.LASF160:
ARM GAS  /tmp/ccvfQcT2.s 			page 70


 3697 045a 73657475 		.ascii	"setup\000"
 3697      7000
 3698              	.LASF47:
 3699 0460 696E7463 		.ascii	"intctx\000"
 3699      747800
 3700              	.LASF167:
 3701 0467 73706565 		.ascii	"speed\000"
 3701      6400
 3702              	.LASF41:
 3703 046d 705F6570 		.ascii	"p_epending\000"
 3703      656E6469 
 3703      6E6700
 3704              	.LASF174:
 3705 0478 436C6173 		.ascii	"ClassCode\000"
 3705      73436F64 
 3705      6500
 3706              	.LASF58:
 3707 0482 5F536574 		.ascii	"_SetupPkt_Struc\000"
 3707      7570506B 
 3707      745F5374 
 3707      72756300 
 3708              	.LASF150:
 3709 0492 434D445F 		.ascii	"CMD_IDLE\000"
 3709      49444C45 
 3709      00
 3710              	.LASF226:
 3711 049b 696E7465 		.ascii	"interface\000"
 3711      72666163 
 3711      6500
 3712              	.LASF67:
 3713 04a5 62446573 		.ascii	"bDescriptorType\000"
 3713      63726970 
 3713      746F7254 
 3713      79706500 
 3714              	.LASF199:
 3715 04b5 4D494449 		.ascii	"MIDI_SEND_DATA\000"
 3715      5F53454E 
 3715      445F4441 
 3715      544100
 3716              	.LASF9:
 3717 04c4 6C6F6E67 		.ascii	"long unsigned int\000"
 3717      20756E73 
 3717      69676E65 
 3717      6420696E 
 3717      7400
 3718              	.LASF230:
 3719 04d6 4D494449 		.ascii	"MIDI_Setup\000"
 3719      5F536574 
 3719      757000
 3720              	.LASF78:
 3721 04e1 69536572 		.ascii	"iSerialNumber\000"
 3721      69616C4E 
 3721      756D6265 
 3721      7200
 3722              	.LASF210:
 3723 04ef 496E4570 		.ascii	"InEp\000"
 3723      00
ARM GAS  /tmp/ccvfQcT2.s 			page 71


 3724              	.LASF131:
 3725 04f4 454E554D 		.ascii	"ENUM_GET_MFC_STRING_DESC\000"
 3725      5F474554 
 3725      5F4D4643 
 3725      5F535452 
 3725      494E475F 
 3726              	.LASF224:
 3727 050d 73746174 		.ascii	"status\000"
 3727      757300
 3728              	.LASF166:
 3729 0514 61646472 		.ascii	"address\000"
 3729      65737300 
 3730              	.LASF130:
 3731 051c 454E554D 		.ascii	"ENUM_GET_FULL_CFG_DESC\000"
 3731      5F474554 
 3731      5F46554C 
 3731      4C5F4346 
 3731      475F4445 
 3732              	.LASF122:
 3733 0533 484F5354 		.ascii	"HOST_CLASS\000"
 3733      5F434C41 
 3733      535300
 3734              	.LASF96:
 3735 053e 55534248 		.ascii	"USBH_InterfaceDescTypeDef\000"
 3735      5F496E74 
 3735      65726661 
 3735      63654465 
 3735      73635479 
 3736              	.LASF90:
 3737 0558 624E756D 		.ascii	"bNumEndpoints\000"
 3737      456E6470 
 3737      6F696E74 
 3737      7300
 3738              	.LASF236:
 3739 0566 55534248 		.ascii	"USBH_LL_SetToggle\000"
 3739      5F4C4C5F 
 3739      53657454 
 3739      6F67676C 
 3739      6500
 3740              	.LASF200:
 3741 0578 4D494449 		.ascii	"MIDI_BUSY\000"
 3741      5F425553 
 3741      5900
 3742              	.LASF64:
 3743 0582 5553425F 		.ascii	"USB_Setup_TypeDef\000"
 3743      53657475 
 3743      705F5479 
 3743      70654465 
 3743      6600
 3744              	.LASF216:
 3745 0594 6F757470 		.ascii	"output_valid\000"
 3745      75745F76 
 3745      616C6964 
 3745      00
 3746              	.LASF83:
 3747 05a1 626D4174 		.ascii	"bmAttributes\000"
 3747      74726962 
ARM GAS  /tmp/ccvfQcT2.s 			page 72


 3747      75746573 
 3747      00
 3748              	.LASF183:
 3749 05ae 456E756D 		.ascii	"EnumState\000"
 3749      53746174 
 3749      6500
 3750              	.LASF125:
 3751 05b8 484F5354 		.ascii	"HOST_StateTypeDef\000"
 3751      5F537461 
 3751      74655479 
 3751      70654465 
 3751      6600
 3752              	.LASF8:
 3753 05ca 5F5F7569 		.ascii	"__uint32_t\000"
 3753      6E743332 
 3753      5F7400
 3754              	.LASF49:
 3755 05d5 4D757465 		.ascii	"Mutex\000"
 3755      7800
 3756              	.LASF238:
 3757 05db 55534248 		.ascii	"USBH_SelectInterface\000"
 3757      5F53656C 
 3757      65637449 
 3757      6E746572 
 3757      66616365 
 3758              	.LASF10:
 3759 05f0 6C6F6E67 		.ascii	"long long int\000"
 3759      206C6F6E 
 3759      6720696E 
 3759      7400
 3760              	.LASF135:
 3761 05fe 4354524C 		.ascii	"CTRL_IDLE\000"
 3761      5F49444C 
 3761      4500
 3762              	.LASF50:
 3763 0608 6D5F7175 		.ascii	"m_queue\000"
 3763      65756500 
 3764              	.LASF187:
 3765 0610 70436C61 		.ascii	"pClass\000"
 3765      737300
 3766              	.LASF103:
 3767 0617 4974665F 		.ascii	"Itf_Desc\000"
 3767      44657363 
 3767      00
 3768              	.LASF84:
 3769 0620 774D6178 		.ascii	"wMaxPacketSize\000"
 3769      5061636B 
 3769      65745369 
 3769      7A6500
 3770              	.LASF206:
 3771 062f 5F4D4944 		.ascii	"_MIDI_Process\000"
 3771      495F5072 
 3771      6F636573 
 3771      7300
 3772              	.LASF155:
 3773 063d 70697065 		.ascii	"pipe_out\000"
 3773      5F6F7574 
ARM GAS  /tmp/ccvfQcT2.s 			page 73


 3773      00
 3774              	.LASF76:
 3775 0646 694D616E 		.ascii	"iManufacturer\000"
 3775      75666163 
 3775      74757265 
 3775      7200
 3776              	.LASF213:
 3777 0654 73746174 		.ascii	"state_in\000"
 3777      655F696E 
 3777      00
 3778              	.LASF229:
 3779 065d 49544D5F 		.ascii	"ITM_RxBuffer\000"
 3779      52784275 
 3779      66666572 
 3779      00
 3780              	.LASF233:
 3781 066a 69735661 		.ascii	"isValidInput\000"
 3781      6C696449 
 3781      6E707574 
 3781      00
 3782              	.LASF157:
 3783 0677 62756666 		.ascii	"buff\000"
 3783      00
 3784              	.LASF38:
 3785 067c 705F7761 		.ascii	"p_waiting\000"
 3785      6974696E 
 3785      6700
 3786              	.LASF123:
 3787 0686 484F5354 		.ascii	"HOST_SUSPENDED\000"
 3787      5F535553 
 3787      50454E44 
 3787      454400
 3788              	.LASF36:
 3789 0695 705F666C 		.ascii	"p_flags\000"
 3789      61677300 
 3790              	.LASF145:
 3791 069d 4354524C 		.ascii	"CTRL_STATUS_OUT_WAIT\000"
 3791      5F535441 
 3791      5455535F 
 3791      4F55545F 
 3791      57414954 
 3792              	.LASF12:
 3793 06b2 756E7369 		.ascii	"unsigned int\000"
 3793      676E6564 
 3793      20696E74 
 3793      00
 3794              	.LASF116:
 3795 06bf 484F5354 		.ascii	"HOST_DETECT_DEVICE_SPEED\000"
 3795      5F444554 
 3795      4543545F 
 3795      44455649 
 3795      43455F53 
 3796              	.LASF196:
 3797 06d8 55534248 		.ascii	"USBH_HandleTypeDef\000"
 3797      5F48616E 
 3797      646C6554 
 3797      79706544 
ARM GAS  /tmp/ccvfQcT2.s 			page 74


 3797      656600
 3798              	.LASF172:
 3799 06eb 55534248 		.ascii	"USBH_DeviceTypeDef\000"
 3799      5F446576 
 3799      69636554 
 3799      79706544 
 3799      656600
 3800              	.LASF99:
 3801 06fe 624E756D 		.ascii	"bNumInterfaces\000"
 3801      496E7465 
 3801      72666163 
 3801      657300
 3802              	.LASF91:
 3803 070d 62496E74 		.ascii	"bInterfaceClass\000"
 3803      65726661 
 3803      6365436C 
 3803      61737300 
 3804              	.LASF100:
 3805 071d 62436F6E 		.ascii	"bConfigurationValue\000"
 3805      66696775 
 3805      72617469 
 3805      6F6E5661 
 3805      6C756500 
 3806              	.LASF182:
 3807 0731 67537461 		.ascii	"gState\000"
 3807      746500
 3808              	.LASF163:
 3809 0738 55534248 		.ascii	"USBH_CtrlTypeDef\000"
 3809      5F437472 
 3809      6C547970 
 3809      65446566 
 3809      00
 3810              	.LASF95:
 3811 0749 45705F44 		.ascii	"Ep_Desc\000"
 3811      65736300 
 3812              	.LASF45:
 3813 0751 54687265 		.ascii	"ThreadsList\000"
 3813      6164734C 
 3813      69737400 
 3814              	.LASF119:
 3815 075d 484F5354 		.ascii	"HOST_INPUT\000"
 3815      5F494E50 
 3815      555400
 3816              	.LASF101:
 3817 0768 69436F6E 		.ascii	"iConfiguration\000"
 3817      66696775 
 3817      72617469 
 3817      6F6E00
 3818              	.LASF243:
 3819 0777 75736268 		.ascii	"usbh_vendor.c\000"
 3819      5F76656E 
 3819      646F722E 
 3819      6300
 3820              	.LASF60:
 3821 0785 62526571 		.ascii	"bRequest\000"
 3821      75657374 
 3821      00
ARM GAS  /tmp/ccvfQcT2.s 			page 75


 3822              	.LASF72:
 3823 078e 624D6178 		.ascii	"bMaxPacketSize\000"
 3823      5061636B 
 3823      65745369 
 3823      7A6500
 3824              	.LASF175:
 3825 079d 496E6974 		.ascii	"Init\000"
 3825      00
 3826              	.LASF201:
 3827 07a2 4D494449 		.ascii	"MIDI_GET_DATA\000"
 3827      5F474554 
 3827      5F444154 
 3827      4100
 3828              	.LASF113:
 3829 07b0 484F5354 		.ascii	"HOST_DEV_WAIT_FOR_ATTACHMENT\000"
 3829      5F444556 
 3829      5F574149 
 3829      545F464F 
 3829      525F4154 
 3830              	.LASF173:
 3831 07cd 4E616D65 		.ascii	"Name\000"
 3831      00
 3832              	.LASF98:
 3833 07d2 77546F74 		.ascii	"wTotalLength\000"
 3833      616C4C65 
 3833      6E677468 
 3833      00
 3834              	.LASF43:
 3835 07df 705F7265 		.ascii	"p_realprio\000"
 3835      616C7072 
 3835      696F00
 3836              	.LASF207:
 3837 07ea 4F757450 		.ascii	"OutPipe\000"
 3837      69706500 
 3838              	.LASF193:
 3839 07f2 6F735F65 		.ascii	"os_event\000"
 3839      76656E74 
 3839      00
 3840              	.LASF181:
 3841 07fb 5F555342 		.ascii	"_USBH_HandleTypeDef\000"
 3841      485F4861 
 3841      6E646C65 
 3841      54797065 
 3841      44656600 
 3842              	.LASF66:
 3843 080f 624C656E 		.ascii	"bLength\000"
 3843      67746800 
 3844              	.LASF11:
 3845 0817 6C6F6E67 		.ascii	"long long unsigned int\000"
 3845      206C6F6E 
 3845      6720756E 
 3845      7369676E 
 3845      65642069 
 3846              	.LASF121:
 3847 082e 484F5354 		.ascii	"HOST_CHECK_CLASS\000"
 3847      5F434845 
 3847      434B5F43 
ARM GAS  /tmp/ccvfQcT2.s 			page 76


 3847      4C415353 
 3847      00
 3848              	.LASF62:
 3849 083f 77496E64 		.ascii	"wIndex\000"
 3849      657800
 3850              	.LASF128:
 3851 0846 454E554D 		.ascii	"ENUM_SET_ADDR\000"
 3851      5F534554 
 3851      5F414444 
 3851      5200
 3852              	.LASF33:
 3853 0854 705F6F6C 		.ascii	"p_older\000"
 3853      64657200 
 3854              	.LASF158:
 3855 085c 6C656E67 		.ascii	"length\000"
 3855      746800
 3856              	.LASF14:
 3857 0863 75696E74 		.ascii	"uint16_t\000"
 3857      31365F74 
 3857      00
 3858              	.LASF192:
 3859 086c 70557365 		.ascii	"pUser\000"
 3859      7200
 3860              	.LASF57:
 3861 0872 75696E74 		.ascii	"uint16_t_uint8_t\000"
 3861      31365F74 
 3861      5F75696E 
 3861      74385F74 
 3861      00
 3862              	.LASF195:
 3863 0883 55534248 		.ascii	"USBH_ClassTypeDef\000"
 3863      5F436C61 
 3863      73735479 
 3863      70654465 
 3863      6600
 3864              	.LASF151:
 3865 0895 434D445F 		.ascii	"CMD_SEND\000"
 3865      53454E44 
 3865      00
 3866              	.LASF25:
 3867 089e 6D73675F 		.ascii	"msg_t\000"
 3867      7400
 3868              	.LASF23:
 3869 08a4 74736C69 		.ascii	"tslices_t\000"
 3869      6365735F 
 3869      7400
 3870              	.LASF79:
 3871 08ae 624E756D 		.ascii	"bNumConfigurations\000"
 3871      436F6E66 
 3871      69677572 
 3871      6174696F 
 3871      6E7300
 3872              	.LASF107:
 3873 08c1 55534248 		.ascii	"USBH_FAIL\000"
 3873      5F464149 
 3873      4C00
 3874              	.LASF74:
ARM GAS  /tmp/ccvfQcT2.s 			page 77


 3875 08cb 69645072 		.ascii	"idProduct\000"
 3875      6F647563 
 3875      7400
 3876              	.LASF162:
 3877 08d5 6572726F 		.ascii	"errorcount\000"
 3877      72636F75 
 3877      6E7400
 3878              	.LASF73:
 3879 08e0 69645665 		.ascii	"idVendor\000"
 3879      6E646F72 
 3879      00
 3880              	.LASF87:
 3881 08e9 5F496E74 		.ascii	"_InterfaceDescriptor\000"
 3881      65726661 
 3881      63654465 
 3881      73637269 
 3881      70746F72 
 3882              	.LASF108:
 3883 08fe 55534248 		.ascii	"USBH_NOT_SUPPORTED\000"
 3883      5F4E4F54 
 3883      5F535550 
 3883      504F5254 
 3883      454400
 3884              	.LASF149:
 3885 0911 4354524C 		.ascii	"CTRL_StateTypeDef\000"
 3885      5F537461 
 3885      74655479 
 3885      70654465 
 3885      6600
 3886              	.LASF94:
 3887 0923 69496E74 		.ascii	"iInterface\000"
 3887      65726661 
 3887      636500
 3888              	.LASF232:
 3889 092e 69735661 		.ascii	"isValidOutput\000"
 3889      6C69644F 
 3889      75747075 
 3889      7400
 3890              	.LASF152:
 3891 093c 434D445F 		.ascii	"CMD_WAIT\000"
 3891      57414954 
 3891      00
 3892              	.LASF228:
 3893 0945 62496E70 		.ascii	"bInput\000"
 3893      757400
 3894              	.LASF179:
 3895 094c 534F4650 		.ascii	"SOFProcess\000"
 3895      726F6365 
 3895      737300
 3896              	.LASF80:
 3897 0957 55534248 		.ascii	"USBH_DevDescTypeDef\000"
 3897      5F446576 
 3897      44657363 
 3897      54797065 
 3897      44656600 
 3898              	.LASF92:
 3899 096b 62496E74 		.ascii	"bInterfaceSubClass\000"
ARM GAS  /tmp/ccvfQcT2.s 			page 78


 3899      65726661 
 3899      63655375 
 3899      62436C61 
 3899      737300
 3900              	.LASF21:
 3901 097e 746D6F64 		.ascii	"tmode_t\000"
 3901      655F7400 
 3902              	.LASF186:
 3903 0986 64657669 		.ascii	"device\000"
 3903      636500
 3904              	.LASF147:
 3905 098d 4354524C 		.ascii	"CTRL_STALLED\000"
 3905      5F535441 
 3905      4C4C4544 
 3905      00
 3906              	.LASF239:
 3907 099a 66616B65 		.ascii	"fakemalloc\000"
 3907      6D616C6C 
 3907      6F6300
 3908              	.LASF205:
 3909 09a5 4D494449 		.ascii	"MIDI_State_t\000"
 3909      5F537461 
 3909      74655F74 
 3909      00
 3910              	.LASF69:
 3911 09b2 62446576 		.ascii	"bDeviceClass\000"
 3911      69636543 
 3911      6C617373 
 3911      00
 3912              	.LASF194:
 3913 09bf 74687265 		.ascii	"thread\000"
 3913      616400
 3914              	.LASF188:
 3915 09c6 70416374 		.ascii	"pActiveClass\000"
 3915      69766543 
 3915      6C617373 
 3915      00
 3916              	.LASF65:
 3917 09d3 5F446576 		.ascii	"_DeviceDescriptor\000"
 3917      69636544 
 3917      65736372 
 3917      6970746F 
 3917      7200
 3918              	.LASF88:
 3919 09e5 62496E74 		.ascii	"bInterfaceNumber\000"
 3919      65726661 
 3919      63654E75 
 3919      6D626572 
 3919      00
 3920              	.LASF165:
 3921 09f6 44617461 		.ascii	"Data\000"
 3921      00
 3922              	.LASF2:
 3923 09fb 73686F72 		.ascii	"short int\000"
 3923      7420696E 
 3923      7400
 3924              	.LASF218:
ARM GAS  /tmp/ccvfQcT2.s 			page 79


 3925 0a05 62756666 		.ascii	"buff_out\000"
 3925      5F6F7574 
 3925      00
 3926              	.LASF139:
 3927 0a0e 4354524C 		.ascii	"CTRL_DATA_IN_WAIT\000"
 3927      5F444154 
 3927      415F494E 
 3927      5F574149 
 3927      5400
 3928              	.LASF85:
 3929 0a20 62496E74 		.ascii	"bInterval\000"
 3929      65727661 
 3929      6C00
 3930              	.LASF246:
 3931 0a2a 4C6F6754 		.ascii	"LogTextMessage\000"
 3931      6578744D 
 3931      65737361 
 3931      676500
 3932              	.LASF225:
 3933 0a39 4D494449 		.ascii	"MIDI_Handle\000"
 3933      5F48616E 
 3933      646C6500 
 3934              	.LASF212:
 3935 0a45 496E4570 		.ascii	"InEpSize\000"
 3935      53697A65 
 3935      00
 3936              	.LASF137:
 3937 0a4e 4354524C 		.ascii	"CTRL_SETUP_WAIT\000"
 3937      5F534554 
 3937      55505F57 
 3937      41495400 
 3938              	.LASF178:
 3939 0a5e 42676E64 		.ascii	"BgndProcess\000"
 3939      50726F63 
 3939      65737300 
 3940              	.LASF27:
 3941 0a6a 54687265 		.ascii	"Thread\000"
 3941      616400
 3942              	.LASF164:
 3943 0a71 43666744 		.ascii	"CfgDesc_Raw\000"
 3943      6573635F 
 3943      52617700 
 3944              	.LASF127:
 3945 0a7d 454E554D 		.ascii	"ENUM_GET_FULL_DEV_DESC\000"
 3945      5F474554 
 3945      5F46554C 
 3945      4C5F4445 
 3945      565F4445 
 3946              	.LASF242:
 3947 0a94 474E5520 		.ascii	"GNU C 4.9.3 20150529 (release) [ARM/embedded-4_9-br"
 3947      4320342E 
 3947      392E3320 
 3947      32303135 
 3947      30353239 
 3948 0ac7 616E6368 		.ascii	"anch revision 224288] -mcpu=cortex-m4 -mfloat-abi=h"
 3948      20726576 
 3948      6973696F 
ARM GAS  /tmp/ccvfQcT2.s 			page 80


 3948      6E203232 
 3948      34323838 
 3949 0afa 61726420 		.ascii	"ard -mfpu=fpv4-sp-d16 -mno-thumb-interwork -mthumb "
 3949      2D6D6670 
 3949      753D6670 
 3949      76342D73 
 3949      702D6431 
 3950 0b2d 2D676764 		.ascii	"-ggdb -O2 -fomit-frame-pointer -falign-functions=16"
 3950      62202D4F 
 3950      32202D66 
 3950      6F6D6974 
 3950      2D667261 
 3951 0b60 202D666E 		.ascii	" -fno-math-errno -fsingle-precision-constant\000"
 3951      6F2D6D61 
 3951      74682D65 
 3951      72726E6F 
 3951      202D6673 
 3952              	.LASF169:
 3953 0b8d 63757272 		.ascii	"current_interface\000"
 3953      656E745F 
 3953      696E7465 
 3953      72666163 
 3953      6500
 3954              	.LASF71:
 3955 0b9f 62446576 		.ascii	"bDeviceProtocol\000"
 3955      69636550 
 3955      726F746F 
 3955      636F6C00 
 3956              	.LASF177:
 3957 0baf 52657175 		.ascii	"Requests\000"
 3957      65737473 
 3957      00
 3958              	.LASF176:
 3959 0bb8 4465496E 		.ascii	"DeInit\000"
 3959      697400
 3960              	.LASF126:
 3961 0bbf 454E554D 		.ascii	"ENUM_IDLE\000"
 3961      5F49444C 
 3961      4500
 3962              	.LASF117:
 3963 0bc9 484F5354 		.ascii	"HOST_ENUMERATION\000"
 3963      5F454E55 
 3963      4D455241 
 3963      54494F4E 
 3963      00
 3964              	.LASF214:
 3965 0bda 73746174 		.ascii	"state_out\000"
 3965      655F6F75 
 3965      7400
 3966              	.LASF16:
 3967 0be4 75696E74 		.ascii	"uint32_t\000"
 3967      33325F74 
 3967      00
 3968              	.LASF104:
 3969 0bed 55534248 		.ascii	"USBH_CfgDescTypeDef\000"
 3969      5F436667 
 3969      44657363 
ARM GAS  /tmp/ccvfQcT2.s 			page 81


 3969      54797065 
 3969      44656600 
 3970              	.LASF44:
 3971 0c01 54687265 		.ascii	"ThreadsQueue\000"
 3971      61647351 
 3971      75657565 
 3971      00
 3972              	.LASF140:
 3973 0c0e 4354524C 		.ascii	"CTRL_DATA_OUT\000"
 3973      5F444154 
 3973      415F4F55 
 3973      5400
 3974              	.LASF102:
 3975 0c1c 624D6178 		.ascii	"bMaxPower\000"
 3975      506F7765 
 3975      7200
 3976              	.LASF86:
 3977 0c26 55534248 		.ascii	"USBH_EpDescTypeDef\000"
 3977      5F457044 
 3977      65736354 
 3977      79706544 
 3977      656600
 3978              	.LASF53:
 3979 0c39 7264796D 		.ascii	"rdymsg\000"
 3979      736700
 3980              	.LASF5:
 3981 0c40 73686F72 		.ascii	"short unsigned int\000"
 3981      7420756E 
 3981      7369676E 
 3981      65642069 
 3981      6E7400
 3982              	.LASF191:
 3983 0c53 54696D65 		.ascii	"Timer\000"
 3983      7200
 3984              	.LASF132:
 3985 0c59 454E554D 		.ascii	"ENUM_GET_PRODUCT_STRING_DESC\000"
 3985      5F474554 
 3985      5F50524F 
 3985      44554354 
 3985      5F535452 
 3986              	.LASF202:
 3987 0c76 4D494449 		.ascii	"MIDI_POLL\000"
 3987      5F504F4C 
 3987      4C00
 3988              	.LASF223:
 3989 0c80 70686F73 		.ascii	"phost\000"
 3989      7400
 3990              	.LASF6:
 3991 0c86 5F5F696E 		.ascii	"__int32_t\000"
 3991      7433325F 
 3991      7400
 3992              	.LASF244:
 3993 0c90 2F645F64 		.ascii	"/d_drive/axoloti/firmware\000"
 3993      72697665 
 3993      2F61786F 
 3993      6C6F7469 
 3993      2F666972 
ARM GAS  /tmp/ccvfQcT2.s 			page 82


 3994              	.LASF222:
 3995 0caa 55534248 		.ascii	"USBH_Virus_InterfaceInit\000"
 3995      5F566972 
 3995      75735F49 
 3995      6E746572 
 3995      66616365 
 3996              	.LASF180:
 3997 0cc3 70446174 		.ascii	"pData\000"
 3997      6100
 3998              	.LASF215:
 3999 0cc9 696E7075 		.ascii	"input_valid\000"
 3999      745F7661 
 3999      6C696400 
 4000              	.LASF217:
 4001 0cd5 62756666 		.ascii	"buff_in\000"
 4001      5F696E00 
 4002              	.LASF189:
 4003 0cdd 436C6173 		.ascii	"ClassNumber\000"
 4003      734E756D 
 4003      62657200 
 4004              	.LASF34:
 4005 0ce9 705F6E61 		.ascii	"p_name\000"
 4005      6D6500
 4006              	.LASF52:
 4007 0cf0 6D5F6E65 		.ascii	"m_next\000"
 4007      787400
 4008              	.LASF143:
 4009 0cf7 4354524C 		.ascii	"CTRL_STATUS_IN_WAIT\000"
 4009      5F535441 
 4009      5455535F 
 4009      494E5F57 
 4009      41495400 
 4010              	.LASF40:
 4011 0d0b 705F6D73 		.ascii	"p_msg\000"
 4011      6700
 4012              	.LASF35:
 4013 0d11 705F7374 		.ascii	"p_state\000"
 4013      61746500 
 4014              		.ident	"GCC: (GNU Tools for ARM Embedded Processors) 4.9.3 20150529 (release) [ARM/embedded-4_9-br
ARM GAS  /tmp/ccvfQcT2.s 			page 83


DEFINED SYMBOLS
                            *ABS*:00000000 usbh_vendor.c
     /tmp/ccvfQcT2.s:20     .text:00000000 $t
     /tmp/ccvfQcT2.s:25     .text:00000000 USBH_Vendor_InterfaceInit
     /tmp/ccvfQcT2.s:365    .text:000001f0 $d
     /tmp/ccvfQcT2.s:395    .data:00000004 Vendor_Class
                            *COM*:00000008 MIDI_Setup
     /tmp/ccvfQcT2.s:384    .data:00000000 $d
     /tmp/ccvfQcT2.s:388    .data:00000000 seq.8281
     /tmp/ccvfQcT2.s:406    .rodata.str1.4:00000000 $d
                     .debug_frame:00000010 $d

UNDEFINED SYMBOLS
LogTextMessage
usbh_midi_init
USBH_SelectInterface
fakemalloc
isValidOutput
isValidInput
USBH_AllocPipe
USBH_OpenPipe
USBH_LL_SetToggle
USBH_BulkSendData
usbh_midi_reset_buffer
USBH_MIDI_InterfaceDeInit
USBH_MIDI_ClassRequest
USBH_MIDI_Process
USBH_MIDI_SOFProcess
