ARM GAS  /tmp/ccAQrkyD.s 			page 1


   1              		.syntax unified
   2              		.cpu cortex-m4
   3              		.eabi_attribute 27, 1
   4              		.eabi_attribute 28, 1
   5              		.fpu fpv4-sp-d16
   6              		.eabi_attribute 20, 1
   7              		.eabi_attribute 21, 1
   8              		.eabi_attribute 23, 3
   9              		.eabi_attribute 24, 1
  10              		.eabi_attribute 25, 1
  11              		.eabi_attribute 26, 1
  12              		.eabi_attribute 30, 2
  13              		.eabi_attribute 34, 1
  14              		.eabi_attribute 18, 4
  15              		.thumb
  16              		.file	"usbh_hid_parser.c"
  17              		.text
  18              	.Ltext0:
  19              		.cfi_sections	.debug_frame
  20              		.align	2
  21              		.p2align 4,,15
  22              		.global	HID_ReadItem
  23              		.thumb
  24              		.thumb_func
  25              		.type	HID_ReadItem, %function
  26              	HID_ReadItem:
  27              	.LFB133:
  28              		.file 1 "./STM32_USB_Host_Library/Class/HID/Src/usbh_hid_parser.c"
  29              		.loc 1 101 0
  30              		.cfi_startproc
  31              		@ args = 0, pretend = 0, frame = 0
  32              		@ frame_needed = 0, uses_anonymous_args = 0
  33              	.LVL0:
  34 0000 F0B5     		push	{r4, r5, r6, r7, lr}
  35              		.cfi_def_cfa_offset 20
  36              		.cfi_offset 4, -20
  37              		.cfi_offset 5, -16
  38              		.cfi_offset 6, -12
  39              		.cfi_offset 7, -8
  40              		.cfi_offset 14, -4
  41              		.loc 1 111 0
  42 0002 437A     		ldrb	r3, [r0, #9]	@ zero_extendqisi2
  43              		.loc 1 105 0
  44 0004 0668     		ldr	r6, [r0]
  45              	.LVL1:
  46              		.loc 1 106 0
  47 0006 90F808E0 		ldrb	lr, [r0, #8]	@ zero_extendqisi2
  48              	.LVL2:
  49              		.loc 1 111 0
  50 000a 63BB     		cbnz	r3, .L2
  51 000c 4768     		ldr	r7, [r0, #4]
  52              	.LVL3:
  53              	.L3:
  54              		.loc 1 127 0
  55 000e FD08     		lsrs	r5, r7, #3
  56 0010 6A1C     		adds	r2, r5, #1
  57 0012 17F0070F 		tst	r7, #7
ARM GAS  /tmp/ccAQrkyD.s 			page 2


  58 0016 4FF00003 		mov	r3, #0
  59 001a 18BF     		it	ne
  60 001c 1546     		movne	r5, r2
  61              		.loc 1 102 0
  62 001e 1A46     		mov	r2, r3
  63              		.loc 1 127 0
  64 0020 03E0     		b	.L5
  65              	.LVL4:
  66              	.L6:
  67              		.loc 1 129 0 discriminator 7
  68 0022 3278     		ldrb	r2, [r6]	@ zero_extendqisi2
  69 0024 DC00     		lsls	r4, r3, #3
  70 0026 A240     		lsls	r2, r2, r4
  71              	.LVL5:
  72              		.loc 1 127 0 discriminator 7
  73 0028 0133     		adds	r3, r3, #1
  74              	.LVL6:
  75              	.L5:
  76              		.loc 1 127 0 is_stmt 0 discriminator 1
  77 002a AB42     		cmp	r3, r5
  78 002c F9D1     		bne	.L6
  79              		.loc 1 131 0 is_stmt 1
  80 002e 0121     		movs	r1, #1
  81 0030 01FA07F4 		lsl	r4, r1, r7
  82 0034 22FA0EF2 		lsr	r2, r2, lr
  83 0038 631E     		subs	r3, r4, #1
  84              	.LVL7:
  85              		.loc 1 133 0
  86 003a C568     		ldr	r5, [r0, #12]
  87              		.loc 1 131 0
  88 003c 1A40     		ands	r2, r2, r3
  89              	.LVL8:
  90              		.loc 1 133 0
  91 003e AA42     		cmp	r2, r5
  92 0040 13D3     		bcc	.L10
  93              		.loc 1 133 0 is_stmt 0 discriminator 1
  94 0042 0369     		ldr	r3, [r0, #16]
  95 0044 9A42     		cmp	r2, r3
  96 0046 10D8     		bhi	.L10
  97              		.loc 1 140 0 is_stmt 1
  98 0048 837A     		ldrb	r3, [r0, #10]	@ zero_extendqisi2
  99 004a C3B1     		cbz	r3, .L7
 100              		.loc 1 140 0 is_stmt 0 discriminator 1
 101 004c 013F     		subs	r7, r7, #1
 102 004e B940     		lsls	r1, r1, r7
 103 0050 0A42     		tst	r2, r1
 104 0052 14D0     		beq	.L7
 105              	.LBB2:
 106              		.loc 1 145 0 is_stmt 1
 107 0054 C369     		ldr	r3, [r0, #28]
 108              		.loc 1 143 0
 109 0056 6042     		negs	r0, r4
 110              	.LVL9:
 111              		.loc 1 145 0
 112 0058 012B     		cmp	r3, #1
 113              		.loc 1 143 0
 114 005a 40EA0200 		orr	r0, r0, r2
ARM GAS  /tmp/ccAQrkyD.s 			page 3


 115              	.LVL10:
 116              		.loc 1 145 0
 117 005e 15D0     		beq	.L4
 118              		.loc 1 149 0
 119 0060 03FB00F0 		mul	r0, r3, r0
 120              	.LVL11:
 121 0064 F0BD     		pop	{r4, r5, r6, r7, pc}
 122              	.LVL12:
 123              	.L2:
 124              	.LBE2:
 125              		.loc 1 114 0
 126 0066 8B42     		cmp	r3, r1
 127 0068 01D8     		bhi	.L23
 128              	.LVL13:
 129              	.L10:
 130              		.loc 1 116 0
 131 006a 0020     		movs	r0, #0
 132              	.LVL14:
 133 006c F0BD     		pop	{r4, r5, r6, r7, pc}
 134              	.LVL15:
 135              	.L23:
 136              		.loc 1 120 0
 137 006e 4768     		ldr	r7, [r0, #4]
 138              	.LVL16:
 139              		.loc 1 121 0
 140 0070 07FB01E1 		mla	r1, r7, r1, lr
 141              	.LVL17:
 142              		.loc 1 123 0
 143 0074 06EBD106 		add	r6, r6, r1, lsr #3
 144              	.LVL18:
 145              		.loc 1 124 0
 146 0078 01F0070E 		and	lr, r1, #7
 147              	.LVL19:
 148 007c C7E7     		b	.L3
 149              	.LVL20:
 150              	.L7:
 151              		.loc 1 153 0
 152 007e C069     		ldr	r0, [r0, #28]
 153              	.LVL21:
 154 0080 0128     		cmp	r0, #1
 155 0082 02D0     		beq	.L11
 156              		.loc 1 157 0
 157 0084 00FB02F0 		mul	r0, r0, r2
 158 0088 F0BD     		pop	{r4, r5, r6, r7, pc}
 159              	.LVL22:
 160              	.L11:
 161 008a 1046     		mov	r0, r2
 162              	.L4:
 163              		.loc 1 159 0
 164 008c F0BD     		pop	{r4, r5, r6, r7, pc}
 165              		.cfi_endproc
 166              	.LFE133:
 167              		.size	HID_ReadItem, .-HID_ReadItem
 168 008e 00BF     		.align	2
 169              		.p2align 4,,15
 170              		.global	HID_WriteItem
 171              		.thumb
ARM GAS  /tmp/ccAQrkyD.s 			page 4


 172              		.thumb_func
 173              		.type	HID_WriteItem, %function
 174              	HID_WriteItem:
 175              	.LFB134:
 176              		.loc 1 169 0
 177              		.cfi_startproc
 178              		@ args = 0, pretend = 0, frame = 0
 179              		@ frame_needed = 0, uses_anonymous_args = 0
 180              		@ link register save eliminated.
 181              	.LVL23:
 182 0090 F0B4     		push	{r4, r5, r6, r7}
 183              		.cfi_def_cfa_offset 16
 184              		.cfi_offset 4, -16
 185              		.cfi_offset 5, -12
 186              		.cfi_offset 6, -8
 187              		.cfi_offset 7, -4
 188              		.loc 1 176 0
 189 0092 4369     		ldr	r3, [r0, #20]
 190              		.loc 1 174 0
 191 0094 057A     		ldrb	r5, [r0, #8]	@ zero_extendqisi2
 192              	.LVL24:
 193              		.loc 1 176 0
 194 0096 8B42     		cmp	r3, r1
 195 0098 2FD8     		bhi	.L36
 196              		.loc 1 176 0 is_stmt 0 discriminator 1
 197 009a 8369     		ldr	r3, [r0, #24]
 198 009c 9942     		cmp	r1, r3
 199 009e 2CD8     		bhi	.L36
 200              		.loc 1 182 0 is_stmt 1
 201 00a0 437A     		ldrb	r3, [r0, #9]	@ zero_extendqisi2
 202 00a2 6BBB     		cbnz	r3, .L26
 203 00a4 4468     		ldr	r4, [r0, #4]
 204              	.LVL25:
 205              	.L27:
 206              		.loc 1 199 0
 207 00a6 C369     		ldr	r3, [r0, #28]
 208              		.loc 1 205 0
 209 00a8 0126     		movs	r6, #1
 210 00aa A640     		lsls	r6, r6, r4
 211 00ac 013E     		subs	r6, r6, #1
 212              		.loc 1 199 0
 213 00ae 012B     		cmp	r3, #1
 214              		.loc 1 201 0
 215 00b0 18BF     		it	ne
 216 00b2 B1FBF3F1 		udivne	r1, r1, r3
 217              	.LVL26:
 218              		.loc 1 206 0
 219 00b6 3140     		ands	r1, r1, r6
 220              	.LVL27:
 221 00b8 A940     		lsls	r1, r1, r5
 222              	.LVL28:
 223              		.loc 1 208 0
 224 00ba 0023     		movs	r3, #0
 225 00bc 07E0     		b	.L30
 226              	.LVL29:
 227              	.L33:
 228              		.loc 1 210 0 discriminator 7
ARM GAS  /tmp/ccAQrkyD.s 			page 5


 229 00be 0768     		ldr	r7, [r0]
 230 00c0 FC5C     		ldrb	r4, [r7, r3]	@ zero_extendqisi2
 231 00c2 24EA0505 		bic	r5, r4, r5
 232 00c6 2A43     		orrs	r2, r2, r5
 233 00c8 FA54     		strb	r2, [r7, r3]
 234 00ca 4468     		ldr	r4, [r0, #4]
 235              		.loc 1 208 0 discriminator 7
 236 00cc 0133     		adds	r3, r3, #1
 237              	.LVL30:
 238              	.L30:
 239              		.loc 1 208 0 is_stmt 0 discriminator 1
 240 00ce 14F0070F 		tst	r4, #7
 241 00d2 4FEAD402 		lsr	r2, r4, #3
 242 00d6 18BF     		it	ne
 243 00d8 541C     		addne	r4, r2, #1
 244 00da 4FEAC302 		lsl	r2, r3, #3
 245              		.loc 1 210 0 is_stmt 1 discriminator 1
 246 00de 26FA02F5 		lsr	r5, r6, r2
 247              		.loc 1 208 0 discriminator 1
 248 00e2 08BF     		it	eq
 249 00e4 E408     		lsreq	r4, r4, #3
 250              		.loc 1 210 0 discriminator 1
 251 00e6 EDB2     		uxtb	r5, r5
 252 00e8 21FA02F2 		lsr	r2, r1, r2
 253              		.loc 1 208 0 discriminator 1
 254 00ec A342     		cmp	r3, r4
 255              		.loc 1 210 0 discriminator 1
 256 00ee 02EA0502 		and	r2, r2, r5
 257              		.loc 1 208 0 discriminator 1
 258 00f2 E4D3     		bcc	.L33
 259              	.LVL31:
 260              	.L34:
 261              		.loc 1 187 0
 262 00f4 0020     		movs	r0, #0
 263              	.LVL32:
 264              		.loc 1 213 0
 265 00f6 F0BC     		pop	{r4, r5, r6, r7}
 266              		.cfi_remember_state
 267              		.cfi_restore 4
 268              		.cfi_restore 5
 269              		.cfi_restore 6
 270              		.cfi_restore 7
 271              		.cfi_def_cfa_offset 0
 272 00f8 7047     		bx	lr
 273              	.LVL33:
 274              	.L36:
 275              		.cfi_restore_state
 276              		.loc 1 178 0
 277 00fa 0120     		movs	r0, #1
 278              	.LVL34:
 279              		.loc 1 213 0
 280 00fc F0BC     		pop	{r4, r5, r6, r7}
 281              		.cfi_remember_state
 282              		.cfi_restore 7
 283              		.cfi_restore 6
 284              		.cfi_restore 5
 285              		.cfi_restore 4
ARM GAS  /tmp/ccAQrkyD.s 			page 6


 286              		.cfi_def_cfa_offset 0
 287              	.LVL35:
 288 00fe 7047     		bx	lr
 289              	.LVL36:
 290              	.L26:
 291              		.cfi_restore_state
 292              		.loc 1 185 0
 293 0100 9342     		cmp	r3, r2
 294 0102 F7D2     		bcs	.L34
 295              		.loc 1 190 0
 296 0104 4468     		ldr	r4, [r0, #4]
 297              	.LVL37:
 298              		.loc 1 191 0
 299 0106 04FB0255 		mla	r5, r4, r2, r5
 300              	.LVL38:
 301              		.loc 1 194 0
 302 010a 05F00705 		and	r5, r5, #7
 303              	.LVL39:
 304 010e CAE7     		b	.L27
 305              		.cfi_endproc
 306              	.LFE134:
 307              		.size	HID_WriteItem, .-HID_WriteItem
 308              	.Letext0:
 309              		.file 2 "/home/sbcu/Dropbox/pcb-layouts/axo-on-discovery-board/axoloti/platform_linux/arm-none-eab
 310              		.file 3 "/home/sbcu/Dropbox/pcb-layouts/axo-on-discovery-board/axoloti/platform_linux/arm-none-eab
 311              		.file 4 "./STM32_USB_Host_Library/Class/HID/Inc/usbh_hid_parser.h"
 312              		.file 5 "/home/sbcu/Dropbox/pcb-layouts/axo-on-discovery-board/axoloti/platform_linux/../CMSIS//In