ARM GAS  /tmp/ccL5iU9U.s 			page 1


   1              		.syntax unified
   2              		.cpu cortex-m4
   3              		.eabi_attribute 27, 1
   4              		.eabi_attribute 28, 1
   5              		.fpu fpv4-sp-d16
   6              		.eabi_attribute 20, 1
   7              		.eabi_attribute 21, 1
   8              		.eabi_attribute 23, 3
   9              		.eabi_attribute 24, 1
  10              		.eabi_attribute 25, 1
  11              		.eabi_attribute 26, 1
  12              		.eabi_attribute 30, 2
  13              		.eabi_attribute 34, 1
  14              		.eabi_attribute 18, 4
  15              		.thumb
  16              		.file	"usbh_hid_mouse.c"
  17              		.text
  18              	.Ltext0:
  19              		.cfi_sections	.debug_frame
  20              		.align	2
  21              		.p2align 4,,15
  22              		.global	USBH_HID_MouseInit
  23              		.thumb
  24              		.thumb_func
  25              		.type	USBH_HID_MouseInit, %function
  26              	USBH_HID_MouseInit:
  27              	.LFB133:
  28              		.file 1 "./STM32_USB_Host_Library/Class/HID/Src/usbh_hid_mouse.c"
  29              		.loc 1 177 0
  30              		.cfi_startproc
  31              		@ args = 0, pretend = 0, frame = 0
  32              		@ frame_needed = 0, uses_anonymous_args = 0
  33              	.LVL0:
  34 0000 38B5     		push	{r3, r4, r5, lr}
  35              		.cfi_def_cfa_offset 16
  36              		.cfi_offset 3, -16
  37              		.cfi_offset 4, -12
  38              		.cfi_offset 5, -8
  39              		.cfi_offset 14, -4
  40              		.loc 1 178 0
  41 0002 D0F8A435 		ldr	r3, [r0, #1444]
  42              		.loc 1 180 0
  43 0006 0C4A     		ldr	r2, .L4
  44              		.loc 1 186 0
  45 0008 0C4C     		ldr	r4, .L4+4
  46              		.loc 1 177 0
  47 000a 0146     		mov	r1, r0
  48              		.loc 1 178 0
  49 000c D869     		ldr	r0, [r3, #28]
  50              	.LVL1:
  51              		.loc 1 188 0
  52 000e 058B     		ldrh	r5, [r0, #24]
  53              		.loc 1 192 0
  54 0010 4461     		str	r4, [r0, #20]
  55              		.loc 1 180 0
  56 0012 0023     		movs	r3, #0
  57              		.loc 1 188 0
ARM GAS  /tmp/ccL5iU9U.s 			page 2


  58 0014 042D     		cmp	r5, #4
  59              		.loc 1 180 0
  60 0016 1370     		strb	r3, [r2]
  61              		.loc 1 181 0
  62 0018 5370     		strb	r3, [r2, #1]
  63              		.loc 1 182 0
  64 001a 9370     		strb	r3, [r2, #2]
  65              		.loc 1 183 0
  66 001c D370     		strb	r3, [r2, #3]
  67              		.loc 1 184 0
  68 001e 1371     		strb	r3, [r2, #4]
  69              		.loc 1 186 0
  70 0020 2360     		str	r3, [r4]
  71              		.loc 1 190 0
  72 0022 84BF     		itt	hi
  73 0024 0423     		movhi	r3, #4
  74 0026 0383     		strhhi	r3, [r0, #24]	@ movhi
  75              		.loc 1 193 0
  76 0028 01F50771 		add	r1, r1, #540
  77              	.LVL2:
  78 002c 0830     		adds	r0, r0, #8
  79              	.LVL3:
  80 002e 2822     		movs	r2, #40
  81 0030 FFF7FEFF 		bl	fifo_init
  82              	.LVL4:
  83              		.loc 1 196 0
  84 0034 0020     		movs	r0, #0
  85 0036 38BD     		pop	{r3, r4, r5, pc}
  86              	.L5:
  87              		.align	2
  88              	.L4:
  89 0038 00000000 		.word	mouse_info
  90 003c 00000000 		.word	mouse_report_data
  91              		.cfi_endproc
  92              	.LFE133:
  93              		.size	USBH_HID_MouseInit, .-USBH_HID_MouseInit
  94              		.align	2
  95              		.p2align 4,,15
  96              		.global	USBH_HID_GetMouseInfo
  97              		.thumb
  98              		.thumb_func
  99              		.type	USBH_HID_GetMouseInfo, %function
 100              	USBH_HID_GetMouseInfo:
 101              	.LFB134:
 102              		.loc 1 205 0
 103              		.cfi_startproc
 104              		@ args = 0, pretend = 0, frame = 0
 105              		@ frame_needed = 0, uses_anonymous_args = 0
 106              	.LVL5:
 107              	.LBB4:
 108              	.LBB5:
 109              		.loc 1 224 0
 110 0040 D0F8A435 		ldr	r3, [r0, #1444]
 111              	.LBE5:
 112              	.LBE4:
 113              		.loc 1 205 0
 114 0044 10B5     		push	{r4, lr}
ARM GAS  /tmp/ccL5iU9U.s 			page 3


 115              		.cfi_def_cfa_offset 8
 116              		.cfi_offset 4, -8
 117              		.cfi_offset 14, -4
 118              	.LBB9:
 119              	.LBB6:
 120              		.loc 1 224 0
 121 0046 DC69     		ldr	r4, [r3, #28]
 122              	.LVL6:
 123              		.loc 1 226 0
 124 0048 228B     		ldrh	r2, [r4, #24]
 125 004a 12B9     		cbnz	r2, .L15
 126              	.LVL7:
 127              	.L7:
 128              	.LBE6:
 129              	.LBE9:
 130              		.loc 1 212 0
 131 004c 0023     		movs	r3, #0
 132              	.LVL8:
 133              	.L12:
 134              		.loc 1 214 0
 135 004e 1846     		mov	r0, r3
 136 0050 10BD     		pop	{r4, pc}
 137              	.LVL9:
 138              	.L15:
 139              	.LBB10:
 140              	.LBB7:
 141              		.loc 1 231 0
 142 0052 04F10800 		add	r0, r4, #8
 143              	.LVL10:
 144 0056 1149     		ldr	r1, .L16
 145 0058 FFF7FEFF 		bl	fifo_read
 146              	.LVL11:
 147 005c 238B     		ldrh	r3, [r4, #24]
 148 005e 8342     		cmp	r3, r0
 149 0060 F4D1     		bne	.L7
 150              		.loc 1 235 0
 151 0062 0021     		movs	r1, #0
 152 0064 0E48     		ldr	r0, .L16+4
 153 0066 0F4C     		ldr	r4, .L16+8
 154              	.LVL12:
 155 0068 FFF7FEFF 		bl	HID_ReadItem
 156              	.LVL13:
 157              		.loc 1 236 0
 158 006c 0021     		movs	r1, #0
 159              		.loc 1 235 0
 160 006e 2070     		strb	r0, [r4]
 161              		.loc 1 236 0
 162 0070 0D48     		ldr	r0, .L16+12
 163 0072 FFF7FEFF 		bl	HID_ReadItem
 164              	.LVL14:
 165              		.loc 1 238 0
 166 0076 0021     		movs	r1, #0
 167              		.loc 1 236 0
 168 0078 6070     		strb	r0, [r4, #1]
 169              		.loc 1 238 0
 170 007a 0C48     		ldr	r0, .L16+16
 171 007c FFF7FEFF 		bl	HID_ReadItem
ARM GAS  /tmp/ccL5iU9U.s 			page 4


 172              	.LVL15:
 173              		.loc 1 239 0
 174 0080 0021     		movs	r1, #0
 175              		.loc 1 238 0
 176 0082 A070     		strb	r0, [r4, #2]
 177              		.loc 1 239 0
 178 0084 0A48     		ldr	r0, .L16+20
 179 0086 FFF7FEFF 		bl	HID_ReadItem
 180              	.LVL16:
 181              		.loc 1 240 0
 182 008a 0021     		movs	r1, #0
 183              		.loc 1 239 0
 184 008c E070     		strb	r0, [r4, #3]
 185              		.loc 1 240 0
 186 008e 0948     		ldr	r0, .L16+24
 187 0090 FFF7FEFF 		bl	HID_ReadItem
 188              	.LVL17:
 189              	.LBE7:
 190              	.LBE10:
 191              		.loc 1 208 0
 192 0094 2346     		mov	r3, r4
 193              	.LBB11:
 194              	.LBB8:
 195              		.loc 1 240 0
 196 0096 2071     		strb	r0, [r4, #4]
 197 0098 D9E7     		b	.L12
 198              	.L17:
 199 009a 00BF     		.align	2
 200              	.L16:
 201 009c 00000000 		.word	mouse_report_data
 202 00a0 00000000 		.word	.LANCHOR0
 203 00a4 00000000 		.word	mouse_info
 204 00a8 20000000 		.word	.LANCHOR0+32
 205 00ac 40000000 		.word	.LANCHOR0+64
 206 00b0 60000000 		.word	.LANCHOR0+96
 207 00b4 80000000 		.word	.LANCHOR0+128
 208              	.LBE8:
 209              	.LBE11:
 210              		.cfi_endproc
 211              	.LFE134:
 212              		.size	USBH_HID_GetMouseInfo, .-USBH_HID_GetMouseInfo
 213              		.comm	mouse_report_data,4,4
 214              		.comm	mouse_info,5,4
 215              		.section	.rodata
 216              		.align	2
 217              		.set	.LANCHOR0,. + 0
 218              		.type	prop_x, %object
 219              		.size	prop_x, 32
 220              	prop_x:
 221 0000 01000000 		.word	mouse_report_data+1
 222 0004 08000000 		.word	8
 223 0008 00       		.byte	0
 224 0009 00       		.byte	0
 225 000a 01       		.byte	1
 226 000b 00       		.space	1
 227 000c 00000000 		.word	0
 228 0010 FFFF0000 		.word	65535
ARM GAS  /tmp/ccL5iU9U.s 			page 5


 229 0014 00000000 		.word	0
 230 0018 FFFF0000 		.word	65535
 231 001c 01000000 		.word	1
 232              		.type	prop_y, %object
 233              		.size	prop_y, 32
 234              	prop_y:
 235 0020 02000000 		.word	mouse_report_data+2
 236 0024 08000000 		.word	8
 237 0028 00       		.byte	0
 238 0029 00       		.byte	0
 239 002a 01       		.byte	1
 240 002b 00       		.space	1
 241 002c 00000000 		.word	0
 242 0030 FFFF0000 		.word	65535
 243 0034 00000000 		.word	0
 244 0038 FFFF0000 		.word	65535
 245 003c 01000000 		.word	1
 246              		.type	prop_b1, %object
 247              		.size	prop_b1, 32
 248              	prop_b1:
 249 0040 00000000 		.word	mouse_report_data
 250 0044 01000000 		.word	1
 251 0048 00       		.byte	0
 252 0049 00       		.byte	0
 253 004a 00       		.byte	0
 254 004b 00       		.space	1
 255 004c 00000000 		.word	0
 256 0050 01000000 		.word	1
 257 0054 00000000 		.word	0
 258 0058 01000000 		.word	1
 259 005c 01000000 		.word	1
 260              		.type	prop_b2, %object
 261              		.size	prop_b2, 32
 262              	prop_b2:
 263 0060 00000000 		.word	mouse_report_data
 264 0064 01000000 		.word	1
 265 0068 01       		.byte	1
 266 0069 00       		.byte	0
 267 006a 00       		.byte	0
 268 006b 00       		.space	1
 269 006c 00000000 		.word	0
 270 0070 01000000 		.word	1
 271 0074 00000000 		.word	0
 272 0078 01000000 		.word	1
 273 007c 01000000 		.word	1
 274              		.type	prop_b3, %object
 275              		.size	prop_b3, 32
 276              	prop_b3:
 277 0080 00000000 		.word	mouse_report_data
 278 0084 01000000 		.word	1
 279 0088 02       		.byte	2
 280 0089 00       		.byte	0
 281 008a 00       		.byte	0
 282 008b 00       		.space	1
 283 008c 00000000 		.word	0
 284 0090 01000000 		.word	1
 285 0094 00000000 		.word	0
ARM GAS  /tmp/ccL5iU9U.s 			page 6


 286 0098 01000000 		.word	1
 287 009c 01000000 		.word	1
 288              		.text
 289              	.Letext0:
 290              		.file 2 "/home/sbcu/Dropbox/pcb-layouts/axo-on-discovery-board/axoloti/platform_linux/arm-none-eab
 291              		.file 3 "/home/sbcu/Dropbox/pcb-layouts/axo-on-discovery-board/axoloti/platform_linux/arm-none-eab
 292              		.file 4 "/home/sbcu/Dropbox/pcb-layouts/axo-on-discovery-board/axoloti/platform_linux/../chibios/o
 293              		.file 5 "/home/sbcu/Dropbox/pcb-layouts/axo-on-discovery-board/axoloti/platform_linux/../chibios/o
 294              		.file 6 "/home/sbcu/Dropbox/pcb-layouts/axo-on-discovery-board/axoloti/platform_linux/../chibios/o
 295              		.file 7 "/home/sbcu/Dropbox/pcb-layouts/axo-on-discovery-board/axoloti/platform_linux/../chibios/o
 296              		.file 8 "/home/sbcu/Dropbox/pcb-layouts/axo-on-discovery-board/axoloti/platform_linux/../chibios/o
 297              		.file 9 "./STM32_USB_Host_Library/Core/Inc/usbh_def.h"
 298              		.file 10 "./STM32_USB_Host_Library/Class/HID/Inc/usbh_hid.h"
 299              		.file 11 "./STM32_USB_Host_Library/Class/HID/Inc/usbh_hid_mouse.h"
 300              		.file 12 "./STM32_USB_Host_Library/Class/HID/Inc/usbh_hid_parser.h"
 301              		.file 13 "/home/sbcu/Dropbox/pcb-layouts/axo-on-discovery-board/axoloti/platform_linux/../CMSIS//I