ARM GAS  /tmp/ccDBvaUc.s 			page 1


   1              		.syntax unified
   2              		.cpu cortex-m4
   3              		.eabi_attribute 27, 1
   4              		.eabi_attribute 28, 1
   5              		.fpu fpv4-sp-d16
   6              		.eabi_attribute 20, 1
   7              		.eabi_attribute 21, 1
   8              		.eabi_attribute 23, 3
   9              		.eabi_attribute 24, 1
  10              		.eabi_attribute 25, 1
  11              		.eabi_attribute 26, 1
  12              		.eabi_attribute 30, 2
  13              		.eabi_attribute 34, 1
  14              		.eabi_attribute 18, 4
  15              		.thumb
  16              		.file	"usbh_core.c"
  17              		.text
  18              	.Ltext0:
  19              		.cfi_sections	.debug_frame
  20              		.align	2
  21              		.p2align 4,,15
  22              		.global	USBH_Init
  23              		.thumb
  24              		.thumb_func
  25              		.type	USBH_Init, %function
  26              	USBH_Init:
  27              	.LFB133:
  28              		.file 1 "./STM32_USB_Host_Library/Core/Src/usbh_core.c"
  29              		.loc 1 99 0
  30              		.cfi_startproc
  31              		@ args = 0, pretend = 0, frame = 40
  32              		@ frame_needed = 0, uses_anonymous_args = 0
  33              	.LVL0:
  34 0000 F0B5     		push	{r4, r5, r6, r7, lr}
  35              		.cfi_def_cfa_offset 20
  36              		.cfi_offset 4, -20
  37              		.cfi_offset 5, -16
  38              		.cfi_offset 6, -12
  39              		.cfi_offset 7, -8
  40              		.cfi_offset 14, -4
  41              		.loc 1 101 0
  42 0002 0546     		mov	r5, r0
  43              		.loc 1 99 0
  44 0004 8DB0     		sub	sp, sp, #52
  45              		.cfi_def_cfa_offset 72
  46              		.loc 1 101 0
  47 0006 0028     		cmp	r0, #0
  48 0008 4FD0     		beq	.L14
  49              		.loc 1 111 0
  50 000a 0023     		movs	r3, #0
  51              		.loc 1 108 0
  52 000c 80F8EC25 		strb	r2, [r0, #1516]
  53              		.loc 1 111 0
  54 0010 C0F8A435 		str	r3, [r0, #1444]
  55              		.loc 1 112 0
  56 0014 C0F8A835 		str	r3, [r0, #1448]
  57              	.LVL1:
ARM GAS  /tmp/ccDBvaUc.s 			page 2


  58              	.LBB16:
  59              	.LBB17:
  60              		.loc 1 175 0
  61 0018 1A46     		mov	r2, r3
  62              	.LVL2:
  63 001a 00F5B563 		add	r3, r0, #1448
  64 001e 00F2E450 		addw	r0, r0, #1508
  65              	.LVL3:
  66              	.L4:
  67 0022 43F8042F 		str	r2, [r3, #4]!
  68              		.loc 1 173 0
  69 0026 8342     		cmp	r3, r0
  70 0028 FBD1     		bne	.L4
  71 002a 05F21B23 		addw	r3, r5, #539
  72 002e 05F21B44 		addw	r4, r5, #1051
  73              		.loc 1 180 0
  74 0032 0020     		movs	r0, #0
  75              	.L5:
  76 0034 03F8010F 		strb	r0, [r3, #1]!
  77              		.loc 1 178 0
  78 0038 A342     		cmp	r3, r4
  79              		.loc 1 180 0
  80 003a 4FF00002 		mov	r2, #0
  81              		.loc 1 178 0
  82 003e F9D1     		bne	.L5
  83              		.loc 1 185 0
  84 0040 0123     		movs	r3, #1
  85              		.loc 1 189 0
  86 0042 4020     		movs	r0, #64
  87              		.loc 1 183 0
  88 0044 2A70     		strb	r2, [r5]
  89              		.loc 1 184 0
  90 0046 6A70     		strb	r2, [r5, #1]
  91              		.loc 1 186 0
  92 0048 C5F8E825 		str	r2, [r5, #1512]
  93              		.loc 1 190 0
  94 004c 6A76     		strb	r2, [r5, #25]
  95              		.loc 1 192 0
  96 004e 85F81C24 		strb	r2, [r5, #1052]
  97              		.loc 1 185 0
  98 0052 AB70     		strb	r3, [r5, #2]
  99              		.loc 1 188 0
 100 0054 2B76     		strb	r3, [r5, #24]
 101              		.loc 1 193 0
 102 0056 85F81D34 		strb	r3, [r5, #1053]
 103              		.loc 1 189 0
 104 005a A871     		strb	r0, [r5, #6]
 105              	.LBE17:
 106              	.LBE16:
 107              		.loc 1 118 0
 108 005c 09B1     		cbz	r1, .L6
 109              		.loc 1 120 0
 110 005e C5F8F415 		str	r1, [r5, #1524]
 111              	.L6:
 112              		.loc 1 126 0
 113 0062 154E     		ldr	r6, .L15
 114              		.loc 1 133 0
ARM GAS  /tmp/ccDBvaUc.s 			page 3


 115 0064 154B     		ldr	r3, .L15+4
 116              		.loc 1 126 0
 117 0066 0696     		str	r6, [sp, #24]
 118 0068 03AF     		add	r7, sp, #12
 119 006a 0024     		movs	r4, #0
 120 006c 06F1140E 		add	lr, r6, #20
 121              		.loc 1 127 0
 122 0070 C5F8F875 		str	r7, [r5, #1528]
 123              		.loc 1 133 0
 124 0074 4FF47471 		mov	r1, #976
 125              	.LVL4:
 126 0078 7F22     		movs	r2, #127
 127 007a 06F11800 		add	r0, r6, #24
 128 007e 0095     		str	r5, [sp]
 129              		.loc 1 126 0
 130 0080 CDF81CE0 		str	lr, [sp, #28]
 131 0084 0896     		str	r6, [sp, #32]
 132 0086 0996     		str	r6, [sp, #36]
 133 0088 0397     		str	r7, [sp, #12]
 134 008a 0497     		str	r7, [sp, #16]
 135 008c 0594     		str	r4, [sp, #20]
 136 008e 0A94     		str	r4, [sp, #40]
 137 0090 0B94     		str	r4, [sp, #44]
 138              		.loc 1 133 0
 139 0092 FFF7FEFF 		bl	chThdCreateStatic
 140              	.LVL5:
 141 0096 C5F8F805 		str	r0, [r5, #1528]
 142              		.loc 1 135 0
 143 009a C5F8FC05 		str	r0, [r5, #1532]
 144              		.loc 1 139 0
 145 009e 2846     		mov	r0, r5
 146              	.LVL6:
 147 00a0 FFF7FEFF 		bl	USBH_LL_Init
 148              	.LVL7:
 149              		.loc 1 140 0
 150 00a4 2046     		mov	r0, r4
 151              		.loc 1 141 0
 152 00a6 0DB0     		add	sp, sp, #52
 153              		.cfi_remember_state
 154              		.cfi_def_cfa_offset 20
 155              		@ sp needed
 156 00a8 F0BD     		pop	{r4, r5, r6, r7, pc}
 157              	.LVL8:
 158              	.L14:
 159              		.cfi_restore_state
 160              		.loc 1 103 0
 161 00aa 0548     		ldr	r0, .L15+8
 162              	.LVL9:
 163 00ac FFF7FEFF 		bl	LogTextMessage
 164              	.LVL10:
 165              		.loc 1 104 0
 166 00b0 0220     		movs	r0, #2
 167              		.loc 1 141 0
 168 00b2 0DB0     		add	sp, sp, #52
 169              		.cfi_def_cfa_offset 20
 170              		@ sp needed
 171 00b4 F0BD     		pop	{r4, r5, r6, r7, pc}
ARM GAS  /tmp/ccDBvaUc.s 			page 4


 172              	.LVL11:
 173              	.L16:
 174 00b6 00BF     		.align	2
 175              	.L15:
 176 00b8 00000000 		.word	.LANCHOR0
 177 00bc 00000000 		.word	USBH_Process_OS
 178 00c0 00000000 		.word	.LC0
 179              		.cfi_endproc
 180              	.LFE133:
 181              		.size	USBH_Init, .-USBH_Init
 182              		.align	2
 183 00c4 AFF30080 		.p2align 4,,15
 183      AFF30080 
 183      AFF30080 
 184              		.global	USBH_DeInit
 185              		.thumb
 186              		.thumb_func
 187              		.type	USBH_DeInit, %function
 188              	USBH_DeInit:
 189              	.LFB134:
 190              		.loc 1 150 0
 191              		.cfi_startproc
 192              		@ args = 0, pretend = 0, frame = 0
 193              		@ frame_needed = 0, uses_anonymous_args = 0
 194              	.LVL12:
 195 00d0 00F5B563 		add	r3, r0, #1448
 196 00d4 00F2E451 		addw	r1, r0, #1508
 197              	.LBB18:
 198              	.LBB19:
 199              		.loc 1 175 0
 200 00d8 0022     		movs	r2, #0
 201              	.LVL13:
 202              	.L18:
 203 00da 43F8042F 		str	r2, [r3, #4]!
 204              		.loc 1 173 0
 205 00de 8B42     		cmp	r3, r1
 206 00e0 FBD1     		bne	.L18
 207              	.LBE19:
 208              	.LBE18:
 209              		.loc 1 150 0
 210 00e2 10B5     		push	{r4, lr}
 211              		.cfi_def_cfa_offset 8
 212              		.cfi_offset 4, -8
 213              		.cfi_offset 14, -4
 214 00e4 00F21B23 		addw	r3, r0, #539
 215 00e8 00F21B44 		addw	r4, r0, #1051
 216              	.LBB22:
 217              	.LBB20:
 218              		.loc 1 180 0
 219 00ec 0021     		movs	r1, #0
 220              	.L19:
 221 00ee 03F8011F 		strb	r1, [r3, #1]!
 222              		.loc 1 178 0
 223 00f2 A342     		cmp	r3, r4
 224              		.loc 1 180 0
 225 00f4 4FF00002 		mov	r2, #0
 226              		.loc 1 178 0
ARM GAS  /tmp/ccDBvaUc.s 			page 5


 227 00f8 F9D1     		bne	.L19
 228              	.LBE20:
 229              	.LBE22:
 230              		.loc 1 153 0
 231 00fa D0F8F015 		ldr	r1, [r0, #1520]
 232              	.LBB23:
 233              	.LBB21:
 234              		.loc 1 183 0
 235 00fe 0270     		strb	r2, [r0]
 236              		.loc 1 185 0
 237 0100 0123     		movs	r3, #1
 238              		.loc 1 189 0
 239 0102 4024     		movs	r4, #64
 240              		.loc 1 184 0
 241 0104 4270     		strb	r2, [r0, #1]
 242              		.loc 1 186 0
 243 0106 C0F8E825 		str	r2, [r0, #1512]
 244              		.loc 1 190 0
 245 010a 4276     		strb	r2, [r0, #25]
 246              		.loc 1 192 0
 247 010c 80F81C24 		strb	r2, [r0, #1052]
 248              		.loc 1 185 0
 249 0110 8370     		strb	r3, [r0, #2]
 250              		.loc 1 188 0
 251 0112 0376     		strb	r3, [r0, #24]
 252              		.loc 1 193 0
 253 0114 80F81D34 		strb	r3, [r0, #1053]
 254              		.loc 1 189 0
 255 0118 8471     		strb	r4, [r0, #6]
 256              	.LBE21:
 257              	.LBE23:
 258              		.loc 1 153 0
 259 011a 21B1     		cbz	r1, .L20
 260              		.loc 1 155 0
 261 011c D0F8A435 		ldr	r3, [r0, #1444]
 262 0120 DA61     		str	r2, [r3, #28]
 263              		.loc 1 156 0
 264 0122 FFF7FEFF 		bl	USBH_LL_Stop
 265              	.LVL14:
 266              	.L20:
 267              		.loc 1 160 0
 268 0126 0020     		movs	r0, #0
 269 0128 10BD     		pop	{r4, pc}
 270              		.cfi_endproc
 271              	.LFE134:
 272              		.size	USBH_DeInit, .-USBH_DeInit
 273 012a 00BF     		.align	2
 274 012c AFF30080 		.p2align 4,,15
 275              		.global	USBH_RegisterClass
 276              		.thumb
 277              		.thumb_func
 278              		.type	USBH_RegisterClass, %function
 279              	USBH_RegisterClass:
 280              	.LFB136:
 281              		.loc 1 206 0
 282              		.cfi_startproc
 283              		@ args = 0, pretend = 0, frame = 0
ARM GAS  /tmp/ccDBvaUc.s 			page 6


 284              		@ frame_needed = 0, uses_anonymous_args = 0
 285              	.LVL15:
 286 0130 10B5     		push	{r4, lr}
 287              		.cfi_def_cfa_offset 8
 288              		.cfi_offset 4, -8
 289              		.cfi_offset 14, -4
 290              		.loc 1 209 0
 291 0132 91B1     		cbz	r1, .L28
 292              		.loc 1 211 0
 293 0134 D0F8A835 		ldr	r3, [r0, #1448]
 294 0138 022B     		cmp	r3, #2
 295 013a 0246     		mov	r2, r0
 296 013c 08D8     		bhi	.L29
 297              		.loc 1 214 0
 298 013e 03F5B374 		add	r4, r3, #358
 299 0142 0133     		adds	r3, r3, #1
 300 0144 C0F8A835 		str	r3, [r0, #1448]
 301              		.loc 1 215 0
 302 0148 0020     		movs	r0, #0
 303              	.LVL16:
 304              		.loc 1 214 0
 305 014a 42F82410 		str	r1, [r2, r4, lsl #2]
 306 014e 10BD     		pop	{r4, pc}
 307              	.LVL17:
 308              	.L29:
 309              		.loc 1 219 0
 310 0150 0448     		ldr	r0, .L32
 311              	.LVL18:
 312 0152 FFF7FEFF 		bl	LogTextMessage
 313              	.LVL19:
 314              		.loc 1 220 0
 315 0156 0220     		movs	r0, #2
 316 0158 10BD     		pop	{r4, pc}
 317              	.LVL20:
 318              	.L28:
 319              		.loc 1 225 0
 320 015a 0348     		ldr	r0, .L32+4
 321              	.LVL21:
 322 015c FFF7FEFF 		bl	LogTextMessage
 323              	.LVL22:
 324              		.loc 1 226 0
 325 0160 0220     		movs	r0, #2
 326              	.LVL23:
 327              		.loc 1 230 0
 328 0162 10BD     		pop	{r4, pc}
 329              	.L33:
 330              		.align	2
 331              	.L32:
 332 0164 14000000 		.word	.LC1
 333 0168 30000000 		.word	.LC2
 334              		.cfi_endproc
 335              	.LFE136:
 336              		.size	USBH_RegisterClass, .-USBH_RegisterClass
 337              		.align	2
 338 016c AFF30080 		.p2align 4,,15
 339              		.global	USBH_SelectInterface
 340              		.thumb
ARM GAS  /tmp/ccDBvaUc.s 			page 7


 341              		.thumb_func
 342              		.type	USBH_SelectInterface, %function
 343              	USBH_SelectInterface:
 344              	.LFB137:
 345              		.loc 1 240 0
 346              		.cfi_startproc
 347              		@ args = 0, pretend = 0, frame = 0
 348              		@ frame_needed = 0, uses_anonymous_args = 0
 349              	.LVL24:
 350 0170 38B5     		push	{r3, r4, r5, lr}
 351              		.cfi_def_cfa_offset 16
 352              		.cfi_offset 3, -16
 353              		.cfi_offset 4, -12
 354              		.cfi_offset 5, -8
 355              		.cfi_offset 14, -4
 356              		.loc 1 243 0
 357 0172 90F83634 		ldrb	r3, [r0, #1078]	@ zero_extendqisi2
 358 0176 8B42     		cmp	r3, r1
 359              		.loc 1 240 0
 360 0178 0546     		mov	r5, r0
 361 017a 0C46     		mov	r4, r1
 362              		.loc 1 243 0
 363 017c 04D8     		bhi	.L38
 364              		.loc 1 253 0
 365 017e 0F48     		ldr	r0, .L39
 366              	.LVL25:
 367 0180 FFF7FEFF 		bl	LogTextMessage
 368              	.LVL26:
 369              		.loc 1 254 0
 370 0184 0220     		movs	r0, #2
 371              	.LVL27:
 372              		.loc 1 257 0
 373 0186 38BD     		pop	{r3, r4, r5, pc}
 374              	.LVL28:
 375              	.L38:
 376              		.loc 1 245 0
 377 0188 85F81F14 		strb	r1, [r5, #1055]
 378              		.loc 1 246 0
 379 018c 0C48     		ldr	r0, .L39+4
 380              	.LVL29:
 381 018e FFF7FEFF 		bl	LogTextMessage
 382              	.LVL30:
 383              		.loc 1 247 0
 384 0192 3A23     		movs	r3, #58
 385 0194 03FB0454 		mla	r4, r3, r4, r5
 386 0198 0A48     		ldr	r0, .L39+8
 387 019a 94F84114 		ldrb	r1, [r4, #1089]	@ zero_extendqisi2
 388 019e FFF7FEFF 		bl	LogTextMessage
 389              	.LVL31:
 390              		.loc 1 248 0
 391 01a2 94F84214 		ldrb	r1, [r4, #1090]	@ zero_extendqisi2
 392 01a6 0848     		ldr	r0, .L39+12
 393 01a8 FFF7FEFF 		bl	LogTextMessage
 394              	.LVL32:
 395              		.loc 1 249 0
 396 01ac 94F84314 		ldrb	r1, [r4, #1091]	@ zero_extendqisi2
 397 01b0 0648     		ldr	r0, .L39+16
ARM GAS  /tmp/ccDBvaUc.s 			page 8


 398 01b2 FFF7FEFF 		bl	LogTextMessage
 399              	.LVL33:
 400              		.loc 1 241 0
 401 01b6 0020     		movs	r0, #0
 402 01b8 38BD     		pop	{r3, r4, r5, pc}
 403              	.LVL34:
 404              	.L40:
 405 01ba 00BF     		.align	2
 406              	.L39:
 407 01bc 98000000 		.word	.LC7
 408 01c0 48000000 		.word	.LC3
 409 01c4 68000000 		.word	.LC4
 410 01c8 78000000 		.word	.LC5
 411 01cc 88000000 		.word	.LC6
 412              		.cfi_endproc
 413              	.LFE137:
 414              		.size	USBH_SelectInterface, .-USBH_SelectInterface
 415              		.align	2
 416              		.p2align 4,,15
 417              		.global	USBH_GetActiveClass
 418              		.thumb
 419              		.thumb_func
 420              		.type	USBH_GetActiveClass, %function
 421              	USBH_GetActiveClass:
 422              	.LFB138:
 423              		.loc 1 267 0
 424              		.cfi_startproc
 425              		@ args = 0, pretend = 0, frame = 0
 426              		@ frame_needed = 0, uses_anonymous_args = 0
 427              		@ link register save eliminated.
 428              	.LVL35:
 429              		.loc 1 269 0
 430 01d0 90F84104 		ldrb	r0, [r0, #1089]	@ zero_extendqisi2
 431              	.LVL36:
 432 01d4 7047     		bx	lr
 433              		.cfi_endproc
 434              	.LFE138:
 435              		.size	USBH_GetActiveClass, .-USBH_GetActiveClass
 436 01d6 00BF     		.align	2
 437 01d8 AFF30080 		.p2align 4,,15
 437      AFF30080 
 438              		.global	USBH_FindInterface
 439              		.thumb
 440              		.thumb_func
 441              		.type	USBH_FindInterface, %function
 442              	USBH_FindInterface:
 443              	.LFB139:
 444              		.loc 1 281 0
 445              		.cfi_startproc
 446              		@ args = 0, pretend = 0, frame = 0
 447              		@ frame_needed = 0, uses_anonymous_args = 0
 448              		@ link register save eliminated.
 449              	.LVL37:
 450 01e0 70B4     		push	{r4, r5, r6}
 451              		.cfi_def_cfa_offset 12
 452              		.cfi_offset 4, -12
 453              		.cfi_offset 5, -8
ARM GAS  /tmp/ccDBvaUc.s 			page 9


 454              		.cfi_offset 6, -4
 455              		.loc 1 281 0
 456 01e2 0024     		movs	r4, #0
 457 01e4 05E0     		b	.L49
 458              	.LVL38:
 459              	.L56:
 460              		.loc 1 292 0 discriminator 2
 461 01e6 FF29     		cmp	r1, #255
 462 01e8 0AD0     		beq	.L43
 463              	.L44:
 464              		.loc 1 289 0
 465 01ea 062C     		cmp	r4, #6
 466 01ec 00F13A00 		add	r0, r0, #58
 467 01f0 14D0     		beq	.L55
 468              	.LVL39:
 469              	.L49:
 470              		.loc 1 292 0
 471 01f2 90F84154 		ldrb	r5, [r0, #1089]	@ zero_extendqisi2
 472 01f6 8D42     		cmp	r5, r1
 473 01f8 E6B2     		uxtb	r6, r4
 474              	.LVL40:
 475 01fa 04F10104 		add	r4, r4, #1
 476              	.LVL41:
 477 01fe F2D1     		bne	.L56
 478              	.L43:
 479              		.loc 1 292 0 is_stmt 0 discriminator 3
 480 0200 90F84254 		ldrb	r5, [r0, #1090]	@ zero_extendqisi2
 481 0204 9542     		cmp	r5, r2
 482 0206 01D0     		beq	.L45
 483              		.loc 1 293 0 is_stmt 1
 484 0208 FF2A     		cmp	r2, #255
 485 020a EED1     		bne	.L44
 486              	.L45:
 487              		.loc 1 293 0 is_stmt 0 discriminator 1
 488 020c 90F84354 		ldrb	r5, [r0, #1091]	@ zero_extendqisi2
 489 0210 9D42     		cmp	r5, r3
 490 0212 01D0     		beq	.L48
 491              		.loc 1 294 0 is_stmt 1
 492 0214 FF2B     		cmp	r3, #255
 493 0216 E8D1     		bne	.L44
 494              	.L48:
 495              		.loc 1 296 0
 496 0218 F0B2     		uxtb	r0, r6
 497 021a 00E0     		b	.L47
 498              	.L55:
 499              		.loc 1 300 0
 500 021c FF20     		movs	r0, #255
 501              	.L47:
 502              		.loc 1 301 0
 503 021e 70BC     		pop	{r4, r5, r6}
 504              		.cfi_restore 6
 505              		.cfi_restore 5
 506              		.cfi_restore 4
 507              		.cfi_def_cfa_offset 0
 508              	.LVL42:
 509 0220 7047     		bx	lr
 510              		.cfi_endproc
ARM GAS  /tmp/ccDBvaUc.s 			page 10


 511              	.LFE139:
 512              		.size	USBH_FindInterface, .-USBH_FindInterface
 513 0222 00BF     		.align	2
 514 0224 AFF30080 		.p2align 4,,15
 514      AFF30080 
 514      AFF30080 
 515              		.global	USBH_FindInterfaceIndex
 516              		.thumb
 517              		.thumb_func
 518              		.type	USBH_FindInterfaceIndex, %function
 519              	USBH_FindInterfaceIndex:
 520              	.LFB140:
 521              		.loc 1 313 0
 522              		.cfi_startproc
 523              		@ args = 0, pretend = 0, frame = 0
 524              		@ frame_needed = 0, uses_anonymous_args = 0
 525              		@ link register save eliminated.
 526              	.LVL43:
 527 0230 30B4     		push	{r4, r5}
 528              		.cfi_def_cfa_offset 8
 529              		.cfi_offset 4, -8
 530              		.cfi_offset 5, -4
 531              		.loc 1 313 0
 532 0232 0023     		movs	r3, #0
 533 0234 03E0     		b	.L60
 534              	.LVL44:
 535              	.L58:
 536              		.loc 1 321 0
 537 0236 062B     		cmp	r3, #6
 538 0238 00F13A00 		add	r0, r0, #58
 539 023c 0CD0     		beq	.L63
 540              	.LVL45:
 541              	.L60:
 542              		.loc 1 324 0
 543 023e 90F83E44 		ldrb	r4, [r0, #1086]	@ zero_extendqisi2
 544 0242 8C42     		cmp	r4, r1
 545 0244 DDB2     		uxtb	r5, r3
 546              	.LVL46:
 547 0246 03F10103 		add	r3, r3, #1
 548              	.LVL47:
 549 024a F4D1     		bne	.L58
 550              		.loc 1 324 0 is_stmt 0 discriminator 1
 551 024c 90F83F44 		ldrb	r4, [r0, #1087]	@ zero_extendqisi2
 552 0250 9442     		cmp	r4, r2
 553 0252 F0D1     		bne	.L58
 554              		.loc 1 326 0 is_stmt 1
 555 0254 E8B2     		uxtb	r0, r5
 556 0256 00E0     		b	.L59
 557              	.L63:
 558              		.loc 1 330 0
 559 0258 FF20     		movs	r0, #255
 560              	.L59:
 561              		.loc 1 331 0
 562 025a 30BC     		pop	{r4, r5}
 563              		.cfi_restore 5
 564              		.cfi_restore 4
 565              		.cfi_def_cfa_offset 0
ARM GAS  /tmp/ccDBvaUc.s 			page 11


 566              	.LVL48:
 567 025c 7047     		bx	lr
 568              		.cfi_endproc
 569              	.LFE140:
 570              		.size	USBH_FindInterfaceIndex, .-USBH_FindInterfaceIndex
 571 025e 00BF     		.align	2
 572              		.p2align 4,,15
 573              		.global	USBH_Start
 574              		.thumb
 575              		.thumb_func
 576              		.type	USBH_Start, %function
 577              	USBH_Start:
 578              	.LFB141:
 579              		.loc 1 340 0
 580              		.cfi_startproc
 581              		@ args = 0, pretend = 0, frame = 0
 582              		@ frame_needed = 0, uses_anonymous_args = 0
 583              	.LVL49:
 584 0260 10B5     		push	{r4, lr}
 585              		.cfi_def_cfa_offset 8
 586              		.cfi_offset 4, -8
 587              		.cfi_offset 14, -4
 588              		.loc 1 340 0
 589 0262 0446     		mov	r4, r0
 590              		.loc 1 342 0
 591 0264 FFF7FEFF 		bl	USBH_LL_Start
 592              	.LVL50:
 593              		.loc 1 345 0
 594 0268 2046     		mov	r0, r4
 595 026a 0121     		movs	r1, #1
 596 026c FFF7FEFF 		bl	USBH_LL_DriverVBUS
 597              	.LVL51:
 598              		.loc 1 348 0
 599 0270 0020     		movs	r0, #0
 600 0272 10BD     		pop	{r4, pc}
 601              		.cfi_endproc
 602              	.LFE141:
 603              		.size	USBH_Start, .-USBH_Start
 604              		.align	2
 605 0274 AFF30080 		.p2align 4,,15
 605      AFF30080 
 605      AFF30080 
 606              		.global	USBH_Stop
 607              		.thumb
 608              		.thumb_func
 609              		.type	USBH_Stop, %function
 610              	USBH_Stop:
 611              	.LFB142:
 612              		.loc 1 357 0
 613              		.cfi_startproc
 614              		@ args = 0, pretend = 0, frame = 0
 615              		@ frame_needed = 0, uses_anonymous_args = 0
 616              	.LVL52:
 617 0280 10B5     		push	{r4, lr}
 618              		.cfi_def_cfa_offset 8
 619              		.cfi_offset 4, -8
 620              		.cfi_offset 14, -4
ARM GAS  /tmp/ccDBvaUc.s 			page 12


 621              		.loc 1 357 0
 622 0282 0446     		mov	r4, r0
 623              		.loc 1 359 0
 624 0284 FFF7FEFF 		bl	USBH_LL_Stop
 625              	.LVL53:
 626              		.loc 1 362 0
 627 0288 2046     		mov	r0, r4
 628 028a 0021     		movs	r1, #0
 629 028c FFF7FEFF 		bl	USBH_LL_DriverVBUS
 630              	.LVL54:
 631              		.loc 1 365 0
 632 0290 2179     		ldrb	r1, [r4, #4]	@ zero_extendqisi2
 633 0292 2046     		mov	r0, r4
 634 0294 FFF7FEFF 		bl	USBH_FreePipe
 635              	.LVL55:
 636              		.loc 1 366 0
 637 0298 2046     		mov	r0, r4
 638 029a 6179     		ldrb	r1, [r4, #5]	@ zero_extendqisi2
 639 029c FFF7FEFF 		bl	USBH_FreePipe
 640              	.LVL56:
 641              		.loc 1 369 0
 642 02a0 0020     		movs	r0, #0
 643 02a2 10BD     		pop	{r4, pc}
 644              		.cfi_endproc
 645              	.LFE142:
 646              		.size	USBH_Stop, .-USBH_Stop
 647              		.align	2
 648 02a4 AFF30080 		.p2align 4,,15
 648      AFF30080 
 648      AFF30080 
 649              		.global	USBH_ReEnumerate
 650              		.thumb
 651              		.thumb_func
 652              		.type	USBH_ReEnumerate, %function
 653              	USBH_ReEnumerate:
 654              	.LFB143:
 655              		.loc 1 378 0
 656              		.cfi_startproc
 657              		@ args = 0, pretend = 0, frame = 0
 658              		@ frame_needed = 0, uses_anonymous_args = 0
 659              	.LVL57:
 660 02b0 70B5     		push	{r4, r5, r6, lr}
 661              		.cfi_def_cfa_offset 16
 662              		.cfi_offset 4, -16
 663              		.cfi_offset 5, -12
 664              		.cfi_offset 6, -8
 665              		.cfi_offset 14, -4
 666              		.loc 1 378 0
 667 02b2 0546     		mov	r5, r0
 668              		.loc 1 380 0
 669 02b4 FFF7FEFF 		bl	USBH_Stop
 670              	.LVL58:
 671              		.loc 1 383 0
 672 02b8 C820     		movs	r0, #200
 673 02ba FFF7FEFF 		bl	USBH_Delay
 674              	.LVL59:
 675 02be 05F5B563 		add	r3, r5, #1448
ARM GAS  /tmp/ccDBvaUc.s 			page 13


 676 02c2 05F2E451 		addw	r1, r5, #1508
 677              	.LBB24:
 678              	.LBB25:
 679              		.loc 1 175 0
 680 02c6 0022     		movs	r2, #0
 681              	.LVL60:
 682              	.L69:
 683 02c8 43F8042F 		str	r2, [r3, #4]!
 684              		.loc 1 173 0
 685 02cc 8B42     		cmp	r3, r1
 686 02ce FBD1     		bne	.L69
 687 02d0 05F21B23 		addw	r3, r5, #539
 688 02d4 05F21B41 		addw	r1, r5, #1051
 689              		.loc 1 180 0
 690 02d8 0022     		movs	r2, #0
 691              	.L70:
 692 02da 03F8012F 		strb	r2, [r3, #1]!
 693              		.loc 1 178 0
 694 02de 8B42     		cmp	r3, r1
 695              		.loc 1 180 0
 696 02e0 4FF00004 		mov	r4, #0
 697              		.loc 1 178 0
 698 02e4 F9D1     		bne	.L70
 699              		.loc 1 185 0
 700 02e6 0126     		movs	r6, #1
 701              		.loc 1 189 0
 702 02e8 4023     		movs	r3, #64
 703 02ea AB71     		strb	r3, [r5, #6]
 704              		.loc 1 183 0
 705 02ec 2C70     		strb	r4, [r5]
 706              		.loc 1 184 0
 707 02ee 6C70     		strb	r4, [r5, #1]
 708              		.loc 1 186 0
 709 02f0 C5F8E845 		str	r4, [r5, #1512]
 710              		.loc 1 190 0
 711 02f4 6C76     		strb	r4, [r5, #25]
 712              		.loc 1 192 0
 713 02f6 85F81C44 		strb	r4, [r5, #1052]
 714              		.loc 1 185 0
 715 02fa AE70     		strb	r6, [r5, #2]
 716              		.loc 1 188 0
 717 02fc 2E76     		strb	r6, [r5, #24]
 718              		.loc 1 193 0
 719 02fe 85F81D64 		strb	r6, [r5, #1053]
 720              	.LVL61:
 721              	.LBE25:
 722              	.LBE24:
 723              	.LBB26:
 724              	.LBB27:
 725              		.loc 1 342 0
 726 0302 2846     		mov	r0, r5
 727 0304 FFF7FEFF 		bl	USBH_LL_Start
 728              	.LVL62:
 729              		.loc 1 345 0
 730 0308 3146     		mov	r1, r6
 731 030a 2846     		mov	r0, r5
 732 030c FFF7FEFF 		bl	USBH_LL_DriverVBUS
ARM GAS  /tmp/ccDBvaUc.s 			page 14


 733              	.LVL63:
 734              	.LBE27:
 735              	.LBE26:
 736              		.loc 1 392 0
 737 0310 D5F8F805 		ldr	r0, [r5, #1528]
 738 0314 0221     		movs	r1, #2
 739 0316 FFF7FEFF 		bl	chEvtSignal
 740              	.LVL64:
 741              		.loc 1 395 0
 742 031a 2046     		mov	r0, r4
 743 031c 70BD     		pop	{r4, r5, r6, pc}
 744              		.cfi_endproc
 745              	.LFE143:
 746              		.size	USBH_ReEnumerate, .-USBH_ReEnumerate
 747 031e 00BF     		.align	2
 748              		.p2align 4,,15
 749              		.global	USBH_Process
 750              		.thumb
 751              		.thumb_func
 752              		.type	USBH_Process, %function
 753              	USBH_Process:
 754              	.LFB144:
 755              		.loc 1 404 0
 756              		.cfi_startproc
 757              		@ args = 0, pretend = 0, frame = 8
 758              		@ frame_needed = 0, uses_anonymous_args = 0
 759              	.LVL65:
 760 0320 F0B5     		push	{r4, r5, r6, r7, lr}
 761              		.cfi_def_cfa_offset 20
 762              		.cfi_offset 4, -20
 763              		.cfi_offset 5, -16
 764              		.cfi_offset 6, -12
 765              		.cfi_offset 7, -8
 766              		.cfi_offset 14, -4
 767 0322 87B0     		sub	sp, sp, #28
 768              		.cfi_def_cfa_offset 48
 769              		.loc 1 405 0
 770 0324 0223     		movs	r3, #2
 771 0326 8DF81730 		strb	r3, [sp, #23]
 772              	.LVL66:
 773              		.loc 1 409 0
 774 032a 0378     		ldrb	r3, [r0]	@ zero_extendqisi2
 775              		.loc 1 404 0
 776 032c 0546     		mov	r5, r0
 777              		.loc 1 409 0
 778 032e 0A2B     		cmp	r3, #10
 779 0330 2BD8     		bhi	.L132
 780 0332 DFE813F0 		tbh	[pc, r3, lsl #1]
 781              	.L77:
 782 0336 6A00     		.2byte	(.L76-.L77)/2
 783 0338 2A00     		.2byte	(.L132-.L77)/2
 784 033a 7C00     		.2byte	(.L78-.L77)/2
 785 033c B600     		.2byte	(.L79-.L77)/2
 786 033e 2A00     		.2byte	(.L132-.L77)/2
 787 0340 FB00     		.2byte	(.L80-.L77)/2
 788 0342 2001     		.2byte	(.L81-.L77)/2
 789 0344 1101     		.2byte	(.L82-.L77)/2
ARM GAS  /tmp/ccDBvaUc.s 			page 15


 790 0346 3101     		.2byte	(.L83-.L77)/2
 791 0348 2D00     		.2byte	(.L84-.L77)/2
 792 034a 4301     		.2byte	(.L85-.L77)/2
 793              	.LVL67:
 794              		.p2align 1
 795              	.L96:
 796              	.LBB34:
 797              	.LBB35:
 798              		.loc 1 792 0
 799 034c 90F83014 		ldrb	r1, [r0, #1072]	@ zero_extendqisi2
 800 0350 0029     		cmp	r1, #0
 801 0352 00F02C82 		beq	.L101
 802              		.loc 1 796 0
 803 0356 00F50774 		add	r4, r0, #540
 804              		.loc 1 794 0
 805 035a 2246     		mov	r2, r4
 806 035c FF23     		movs	r3, #255
 807 035e FFF7FEFF 		bl	USBH_Get_StringDesc
 808              	.LVL68:
 809 0362 0028     		cmp	r0, #0
 810 0364 40F04981 		bne	.L87
 811              		.loc 1 800 0
 812 0368 2146     		mov	r1, r4
 813 036a CF48     		ldr	r0, .L148
 814 036c FFF7FEFF 		bl	LogTextMessage
 815              	.LVL69:
 816              	.L102:
 817              	.LBE35:
 818              	.LBE34:
 819              		.loc 1 473 0
 820 0370 CE48     		ldr	r0, .L148+4
 821 0372 FFF7FEFF 		bl	LogTextMessage
 822              	.LVL70:
 823              		.loc 1 475 0
 824 0376 95F83134 		ldrb	r3, [r5, #1073]	@ zero_extendqisi2
 825              		.loc 1 474 0
 826 037a 0022     		movs	r2, #0
 827              		.loc 1 475 0
 828 037c 012B     		cmp	r3, #1
 829              		.loc 1 474 0
 830 037e 85F81F24 		strb	r2, [r5, #1055]
 831              		.loc 1 475 0
 832 0382 00F00982 		beq	.L145
 833              		.loc 1 483 0
 834 0386 0723     		movs	r3, #7
 835 0388 2B70     		strb	r3, [r5]
 836              	.LVL71:
 837              	.L132:
 838              		.loc 1 635 0
 839 038a 0020     		movs	r0, #0
 840 038c 07B0     		add	sp, sp, #28
 841              		.cfi_remember_state
 842              		.cfi_def_cfa_offset 20
 843              		@ sp needed
 844 038e F0BD     		pop	{r4, r5, r6, r7, pc}
 845              	.LVL72:
 846              	.L84:
ARM GAS  /tmp/ccDBvaUc.s 			page 16


 847              		.cfi_restore_state
 848              		.loc 1 521 0
 849 0390 D0F8A835 		ldr	r3, [r0, #1448]
 850 0394 002B     		cmp	r3, #0
 851 0396 00F0F081 		beq	.L146
 852              	.LBB40:
 853              		.loc 1 527 0
 854 039a 0024     		movs	r4, #0
 855 039c C0F8A445 		str	r4, [r0, #1444]
 856              	.LVL73:
 857 03a0 00F5B366 		add	r6, r0, #1432
 858 03a4 00F5B467 		add	r7, r0, #1440
 859              		.loc 1 530 0
 860 03a8 0320     		movs	r0, #3
 861              	.LVL74:
 862              	.L107:
 863              		.loc 1 533 0 discriminator 1
 864 03aa 95F83634 		ldrb	r3, [r5, #1078]	@ zero_extendqisi2
 865 03ae E3B1     		cbz	r3, .L109
 866              		.loc 1 534 0
 867 03b0 D6F800C0 		ldr	ip, [r6]
 868 03b4 95F84124 		ldrb	r2, [r5, #1089]	@ zero_extendqisi2
 869 03b8 9CF804E0 		ldrb	lr, [ip, #4]	@ zero_extendqisi2
 870 03bc 7245     		cmp	r2, lr
 871 03be 00F02F81 		beq	.L115
 872 03c2 013B     		subs	r3, r3, #1
 873 03c4 DBB2     		uxtb	r3, r3
 874 03c6 C3EBC302 		rsb	r2, r3, r3, lsl #3
 875 03ca 03EB8202 		add	r2, r3, r2, lsl #2
 876 03ce 05EB4202 		add	r2, r5, r2, lsl #1
 877 03d2 2B46     		mov	r3, r5
 878 03d4 04E0     		b	.L108
 879              	.LVL75:
 880              	.L112:
 881 03d6 93F84114 		ldrb	r1, [r3, #1089]	@ zero_extendqisi2
 882 03da 7145     		cmp	r1, lr
 883 03dc 00F02081 		beq	.L115
 884              	.L108:
 885              		.loc 1 533 0 discriminator 2
 886 03e0 9342     		cmp	r3, r2
 887 03e2 03F13A03 		add	r3, r3, #58
 888 03e6 F6D1     		bne	.L112
 889 03e8 0023     		movs	r3, #0
 890              	.L109:
 891              	.LVL76:
 892              		.loc 1 551 0
 893 03ea D5F8A425 		ldr	r2, [r5, #1444]
 894 03ee 002A     		cmp	r2, #0
 895 03f0 40F00781 		bne	.L113
 896              		.loc 1 531 0 discriminator 2
 897 03f4 BE42     		cmp	r6, r7
 898 03f6 02D0     		beq	.L111
 899 03f8 0436     		adds	r6, r6, #4
 900              		.loc 1 531 0 is_stmt 0 discriminator 3
 901 03fa 002B     		cmp	r3, #0
 902 03fc D5D0     		beq	.L107
 903              	.LVL77:
ARM GAS  /tmp/ccDBvaUc.s 			page 17


 904              	.L111:
 905              		.loc 1 569 0 is_stmt 1
 906 03fe 0C23     		movs	r3, #12
 907 0400 2B70     		strb	r3, [r5]
 908              		.loc 1 570 0
 909 0402 AB48     		ldr	r0, .L148+8
 910 0404 FFF7FEFF 		bl	LogTextMessage
 911              	.LVL78:
 912 0408 02E1     		b	.L106
 913              	.LVL79:
 914              	.L76:
 915              	.LBE40:
 916              		.loc 1 413 0
 917 040a 90F81E34 		ldrb	r3, [r0, #1054]	@ zero_extendqisi2
 918 040e 002B     		cmp	r3, #0
 919 0410 BBD0     		beq	.L132
 920              		.loc 1 416 0
 921 0412 0123     		movs	r3, #1
 922 0414 0370     		strb	r3, [r0]
 923              		.loc 1 417 0
 924 0416 C820     		movs	r0, #200
 925              	.LVL80:
 926 0418 FFF7FEFF 		bl	USBH_Delay
 927              	.LVL81:
 928              		.loc 1 418 0
 929 041c 2846     		mov	r0, r5
 930 041e FFF7FEFF 		bl	USBH_LL_ResetPort
 931              	.LVL82:
 932              		.loc 1 420 0
 933 0422 D5F8F805 		ldr	r0, [r5, #1528]
 934 0426 0221     		movs	r1, #2
 935 0428 FFF7FEFF 		bl	chEvtSignal
 936              	.LVL83:
 937 042c ADE7     		b	.L132
 938              	.LVL84:
 939              	.L78:
 940              		.loc 1 430 0
 941 042e A148     		ldr	r0, .L148+12
 942              	.LVL85:
 943 0430 FFF7FEFF 		bl	LogTextMessage
 944              	.LVL86:
 945              		.loc 1 433 0
 946 0434 6420     		movs	r0, #100
 947 0436 FFF7FEFF 		bl	USBH_Delay
 948              	.LVL87:
 949              		.loc 1 435 0
 950 043a 2846     		mov	r0, r5
 951 043c FFF7FEFF 		bl	USBH_LL_GetSpeed
 952              	.LVL88:
 953              		.loc 1 437 0
 954 0440 0523     		movs	r3, #5
 955 0442 2B70     		strb	r3, [r5]
 956              		.loc 1 435 0
 957 0444 85F81D04 		strb	r0, [r5, #1053]
 958              		.loc 1 439 0
 959 0448 0021     		movs	r1, #0
 960 044a 2846     		mov	r0, r5
ARM GAS  /tmp/ccDBvaUc.s 			page 18


 961 044c FFF7FEFF 		bl	USBH_AllocPipe
 962              	.LVL89:
 963              		.loc 1 440 0
 964 0450 8021     		movs	r1, #128
 965              		.loc 1 439 0
 966 0452 6871     		strb	r0, [r5, #5]
 967              		.loc 1 440 0
 968 0454 2846     		mov	r0, r5
 969 0456 FFF7FEFF 		bl	USBH_AllocPipe
 970              	.LVL90:
 971 045a 0146     		mov	r1, r0
 972              		.loc 1 444 0
 973 045c 95F81D04 		ldrb	r0, [r5, #1053]	@ zero_extendqisi2
 974 0460 AA79     		ldrb	r2, [r5, #6]	@ zero_extendqisi2
 975 0462 95F81C34 		ldrb	r3, [r5, #1052]	@ zero_extendqisi2
 976              		.loc 1 440 0
 977 0466 2971     		strb	r1, [r5, #4]
 978              		.loc 1 444 0
 979 0468 0024     		movs	r4, #0
 980 046a 8DE81100 		stmia	sp, {r0, r4}
 981 046e 0292     		str	r2, [sp, #8]
 982 0470 2846     		mov	r0, r5
 983 0472 8022     		movs	r2, #128
 984 0474 FFF7FEFF 		bl	USBH_OpenPipe
 985              	.LVL91:
 986              		.loc 1 453 0
 987 0478 A879     		ldrb	r0, [r5, #6]	@ zero_extendqisi2
 988 047a 95F81D64 		ldrb	r6, [r5, #1053]	@ zero_extendqisi2
 989 047e 6979     		ldrb	r1, [r5, #5]	@ zero_extendqisi2
 990 0480 95F81C34 		ldrb	r3, [r5, #1052]	@ zero_extendqisi2
 991 0484 0290     		str	r0, [sp, #8]
 992 0486 2246     		mov	r2, r4
 993 0488 0194     		str	r4, [sp, #4]
 994 048a 0096     		str	r6, [sp]
 995 048c 2846     		mov	r0, r5
 996 048e FFF7FEFF 		bl	USBH_OpenPipe
 997              	.LVL92:
 998              		.loc 1 463 0
 999 0492 D5F8F805 		ldr	r0, [r5, #1528]
 1000 0496 0221     		movs	r1, #2
 1001 0498 FFF7FEFF 		bl	chEvtSignal
 1002              	.LVL93:
 1003              		.loc 1 635 0
 1004 049c 0020     		movs	r0, #0
 1005 049e 07B0     		add	sp, sp, #28
 1006              		.cfi_remember_state
 1007              		.cfi_def_cfa_offset 20
 1008              		@ sp needed
 1009 04a0 F0BD     		pop	{r4, r5, r6, r7, pc}
 1010              	.LVL94:
 1011              	.L79:
 1012              		.cfi_restore_state
 1013 04a2 00F5B563 		add	r3, r0, #1448
 1014 04a6 00F2E451 		addw	r1, r0, #1508
 1015              	.LBB41:
 1016              	.LBB42:
 1017              		.loc 1 175 0
ARM GAS  /tmp/ccDBvaUc.s 			page 19


 1018 04aa 0022     		movs	r2, #0
 1019              	.L118:
 1020 04ac 43F8042F 		str	r2, [r3, #4]!
 1021              	.LVL95:
 1022              		.loc 1 173 0
 1023 04b0 8B42     		cmp	r3, r1
 1024 04b2 FBD1     		bne	.L118
 1025 04b4 05F21B23 		addw	r3, r5, #539
 1026 04b8 05F21B41 		addw	r1, r5, #1051
 1027              		.loc 1 180 0
 1028 04bc 0022     		movs	r2, #0
 1029              	.L119:
 1030 04be 03F8012F 		strb	r2, [r3, #1]!
 1031              		.loc 1 178 0
 1032 04c2 8B42     		cmp	r3, r1
 1033              		.loc 1 180 0
 1034 04c4 4FF00004 		mov	r4, #0
 1035              		.loc 1 178 0
 1036 04c8 F9D1     		bne	.L119
 1037              	.LBE42:
 1038              	.LBE41:
 1039              		.loc 1 614 0
 1040 04ca D5F8A425 		ldr	r2, [r5, #1444]
 1041              	.LBB44:
 1042              	.LBB43:
 1043              		.loc 1 183 0
 1044 04ce 2C70     		strb	r4, [r5]
 1045              		.loc 1 185 0
 1046 04d0 0123     		movs	r3, #1
 1047              		.loc 1 189 0
 1048 04d2 4021     		movs	r1, #64
 1049              		.loc 1 184 0
 1050 04d4 6C70     		strb	r4, [r5, #1]
 1051              		.loc 1 186 0
 1052 04d6 C5F8E845 		str	r4, [r5, #1512]
 1053              		.loc 1 190 0
 1054 04da 6C76     		strb	r4, [r5, #25]
 1055              		.loc 1 192 0
 1056 04dc 85F81C44 		strb	r4, [r5, #1052]
 1057              		.loc 1 185 0
 1058 04e0 AB70     		strb	r3, [r5, #2]
 1059              		.loc 1 188 0
 1060 04e2 2B76     		strb	r3, [r5, #24]
 1061              		.loc 1 193 0
 1062 04e4 85F81D34 		strb	r3, [r5, #1053]
 1063              		.loc 1 189 0
 1064 04e8 A971     		strb	r1, [r5, #6]
 1065              	.LBE43:
 1066              	.LBE44:
 1067              		.loc 1 614 0
 1068 04ea 002A     		cmp	r2, #0
 1069 04ec 3FF44DAF 		beq	.L132
 1070              	.LBB45:
 1071              		.loc 1 616 0
 1072 04f0 D368     		ldr	r3, [r2, #12]
 1073 04f2 2846     		mov	r0, r5
 1074              	.LVL96:
ARM GAS  /tmp/ccDBvaUc.s 			page 20


 1075 04f4 9847     		blx	r3
 1076              	.LVL97:
 1077              		.loc 1 617 0
 1078 04f6 C5F8A445 		str	r4, [r5, #1444]
 1079              		.loc 1 619 0
 1080 04fa 6420     		movs	r0, #100
 1081 04fc FFF7FEFF 		bl	USBH_Delay
 1082              	.LVL98:
 1083              		.loc 1 620 0
 1084 0500 D5F8F005 		ldr	r0, [r5, #1520]
 1085 0504 FFF7FEFF 		bl	HAL_HCD_Stop
 1086              	.LVL99:
 1087              		.loc 1 621 0
 1088 0508 6420     		movs	r0, #100
 1089 050a FFF7FEFF 		bl	USBH_Delay
 1090              	.LVL100:
 1091              		.loc 1 622 0
 1092 050e D5F8F005 		ldr	r0, [r5, #1520]
 1093 0512 FFF7FEFF 		bl	HAL_HCD_Init
 1094              	.LVL101:
 1095              		.loc 1 623 0
 1096 0516 6420     		movs	r0, #100
 1097 0518 FFF7FEFF 		bl	USBH_Delay
 1098              	.LVL102:
 1099              		.loc 1 624 0
 1100 051c D5F8F005 		ldr	r0, [r5, #1520]
 1101 0520 FFF7FEFF 		bl	HAL_HCD_Start
 1102              	.LVL103:
 1103              		.loc 1 625 0
 1104 0524 6420     		movs	r0, #100
 1105 0526 FFF7FEFF 		bl	USBH_Delay
 1106              	.LVL104:
 1107 052a 2EE7     		b	.L132
 1108              	.LVL105:
 1109              	.L80:
 1110              	.LBE45:
 1111              	.LBB46:
 1112              	.LBB36:
 1113              		.loc 1 648 0
 1114 052c 4378     		ldrb	r3, [r0, #1]	@ zero_extendqisi2
 1115 052e 072B     		cmp	r3, #7
 1116 0530 63D8     		bhi	.L87
 1117 0532 01A2     		adr	r2, .L89
 1118 0534 52F823F0 		ldr	pc, [r2, r3, lsl #2]
 1119              		.p2align 2
 1120              	.L89:
 1121 0538 E7060000 		.word	.L88+1
 1122 053c 85060000 		.word	.L90+1
 1123 0540 43070000 		.word	.L91+1
 1124 0544 31070000 		.word	.L92+1
 1125 0548 D5060000 		.word	.L93+1
 1126 054c CD050000 		.word	.L94+1
 1127 0550 5D060000 		.word	.L95+1
 1128 0554 4D030000 		.word	.L96+1
 1129              	.LVL106:
 1130              		.p2align 1
 1131              	.L82:
ARM GAS  /tmp/ccDBvaUc.s 			page 21


 1132              	.LBE36:
 1133              	.LBE46:
 1134              		.loc 1 496 0
 1135 0558 D0F8F435 		ldr	r3, [r0, #1524]
 1136 055c 002B     		cmp	r3, #0
 1137 055e 3FF414AF 		beq	.L132
 1138              		.loc 1 498 0
 1139 0562 0121     		movs	r1, #1
 1140 0564 9847     		blx	r3
 1141              	.LVL107:
 1142              		.loc 1 499 0
 1143 0566 0823     		movs	r3, #8
 1144 0568 2B70     		strb	r3, [r5]
 1145              		.loc 1 502 0
 1146 056a D5F8F805 		ldr	r0, [r5, #1528]
 1147 056e 2021     		movs	r1, #32
 1148 0570 FFF7FEFF 		bl	chEvtSignal
 1149              	.LVL108:
 1150 0574 09E7     		b	.L132
 1151              	.LVL109:
 1152              	.L81:
 1153              		.loc 1 581 0
 1154 0576 D0F8A435 		ldr	r3, [r0, #1444]
 1155 057a 002B     		cmp	r3, #0
 1156 057c 00F00181 		beq	.L117
 1157              		.loc 1 583 0
 1158 0580 1B69     		ldr	r3, [r3, #16]
 1159 0582 9847     		blx	r3
 1160              	.LVL110:
 1161 0584 8DF81700 		strb	r0, [sp, #23]
 1162              		.loc 1 585 0
 1163 0588 9DF81730 		ldrb	r3, [sp, #23]	@ zero_extendqisi2
 1164 058c 002B     		cmp	r3, #0
 1165 058e 7FF4FCAE 		bne	.L132
 1166              		.loc 1 587 0
 1167 0592 0A23     		movs	r3, #10
 1168 0594 2B70     		strb	r3, [r5]
 1169 0596 F8E6     		b	.L132
 1170              	.LVL111:
 1171              	.L83:
 1172              		.loc 1 510 0
 1173 0598 95F83714 		ldrb	r1, [r5, #1079]	@ zero_extendqisi2
 1174 059c FFF7FEFF 		bl	USBH_SetCfg
 1175              	.LVL112:
 1176 05a0 20B9     		cbnz	r0, .L143
 1177              		.loc 1 512 0
 1178 05a2 0923     		movs	r3, #9
 1179 05a4 2B70     		strb	r3, [r5]
 1180              		.loc 1 513 0
 1181 05a6 4448     		ldr	r0, .L148+16
 1182 05a8 FFF7FEFF 		bl	LogTextMessage
 1183              	.LVL113:
 1184              	.L143:
 1185              		.loc 1 489 0
 1186 05ac D5F8F805 		ldr	r0, [r5, #1528]
 1187 05b0 0221     		movs	r1, #2
 1188 05b2 FFF7FEFF 		bl	chEvtSignal
ARM GAS  /tmp/ccDBvaUc.s 			page 22


 1189              	.LVL114:
 1190              		.loc 1 635 0
 1191 05b6 0020     		movs	r0, #0
 1192 05b8 07B0     		add	sp, sp, #28
 1193              		.cfi_remember_state
 1194              		.cfi_def_cfa_offset 20
 1195              		@ sp needed
 1196 05ba F0BD     		pop	{r4, r5, r6, r7, pc}
 1197              	.LVL115:
 1198              	.L85:
 1199              		.cfi_restore_state
 1200              		.loc 1 603 0
 1201 05bc D0F8A435 		ldr	r3, [r0, #1444]
 1202 05c0 002B     		cmp	r3, #0
 1203 05c2 3FF4E2AE 		beq	.L132
 1204              		.loc 1 605 0
 1205 05c6 5B69     		ldr	r3, [r3, #20]
 1206 05c8 9847     		blx	r3
 1207              	.LVL116:
 1208 05ca DEE6     		b	.L132
 1209              	.LVL117:
 1210              	.L94:
 1211              	.LBB47:
 1212              	.LBB37:
 1213              		.loc 1 741 0
 1214 05cc 90F82E14 		ldrb	r1, [r0, #1070]	@ zero_extendqisi2
 1215 05d0 0029     		cmp	r1, #0
 1216 05d2 00F00081 		beq	.L99
 1217              		.loc 1 746 0
 1218 05d6 00F50774 		add	r4, r0, #540
 1219              		.loc 1 744 0
 1220 05da 2246     		mov	r2, r4
 1221 05dc FF23     		movs	r3, #255
 1222 05de FFF7FEFF 		bl	USBH_Get_StringDesc
 1223              	.LVL118:
 1224 05e2 50B9     		cbnz	r0, .L87
 1225              		.loc 1 750 0
 1226 05e4 2146     		mov	r1, r4
 1227 05e6 3548     		ldr	r0, .L148+20
 1228 05e8 FFF7FEFF 		bl	LogTextMessage
 1229              	.LVL119:
 1230              	.L141:
 1231              		.loc 1 761 0
 1232 05ec 0623     		movs	r3, #6
 1233 05ee 6B70     		strb	r3, [r5, #1]
 1234              		.loc 1 763 0
 1235 05f0 D5F8F805 		ldr	r0, [r5, #1528]
 1236 05f4 2021     		movs	r1, #32
 1237 05f6 FFF7FEFF 		bl	chEvtSignal
 1238              	.LVL120:
 1239              	.L87:
 1240              	.LBE37:
 1241              	.LBE47:
 1242              		.loc 1 487 0
 1243 05fa 0120     		movs	r0, #1
 1244 05fc FFF7FEFF 		bl	chThdSleep
 1245              	.LVL121:
ARM GAS  /tmp/ccDBvaUc.s 			page 23


 1246 0600 D4E7     		b	.L143
 1247              	.LVL122:
 1248              	.L113:
 1249              	.LBB48:
 1250              		.loc 1 556 0
 1251 0602 E8B1     		cbz	r0, .L147
 1252              		.loc 1 563 0
 1253 0604 0C23     		movs	r3, #12
 1254              	.LVL123:
 1255              		.loc 1 564 0
 1256 0606 1168     		ldr	r1, [r2]
 1257 0608 2D48     		ldr	r0, .L148+24
 1258              	.LVL124:
 1259              		.loc 1 563 0
 1260 060a 2B70     		strb	r3, [r5]
 1261              		.loc 1 564 0
 1262 060c FFF7FEFF 		bl	LogTextMessage
 1263              	.LVL125:
 1264              	.L106:
 1265              	.LBE48:
 1266              		.loc 1 575 0
 1267 0610 D5F8F805 		ldr	r0, [r5, #1528]
 1268 0614 2021     		movs	r1, #32
 1269 0616 FFF7FEFF 		bl	chEvtSignal
 1270              	.LVL126:
 1271              		.loc 1 635 0
 1272 061a 0020     		movs	r0, #0
 1273 061c 07B0     		add	sp, sp, #28
 1274              		.cfi_remember_state
 1275              		.cfi_def_cfa_offset 20
 1276              		@ sp needed
 1277 061e F0BD     		pop	{r4, r5, r6, r7, pc}
 1278              	.LVL127:
 1279              	.L115:
 1280              		.cfi_restore_state
 1281              	.LBB49:
 1282              		.loc 1 536 0
 1283 0620 C5F8A4C5 		str	ip, [r5, #1444]
 1284              		.loc 1 537 0
 1285 0624 DCF80830 		ldr	r3, [ip, #8]
 1286 0628 2846     		mov	r0, r5
 1287 062a 9847     		blx	r3
 1288              	.LVL128:
 1289              		.loc 1 538 0
 1290 062c A0B1     		cbz	r0, .L124
 1291              		.loc 1 540 0
 1292 062e 0328     		cmp	r0, #3
 1293 0630 12D1     		bne	.L124
 1294              		.loc 1 531 0
 1295 0632 BE42     		cmp	r6, r7
 1296              		.loc 1 542 0
 1297 0634 C5F8A445 		str	r4, [r5, #1444]
 1298              	.LVL129:
 1299              		.loc 1 531 0
 1300 0638 3FF4E1AE 		beq	.L111
 1301 063c 0436     		adds	r6, r6, #4
 1302 063e B4E6     		b	.L107
ARM GAS  /tmp/ccDBvaUc.s 			page 24


 1303              	.LVL130:
 1304              	.L147:
 1305              		.loc 1 557 0
 1306 0640 0623     		movs	r3, #6
 1307              	.LVL131:
 1308              		.loc 1 558 0
 1309 0642 1168     		ldr	r1, [r2]
 1310 0644 1F48     		ldr	r0, .L148+28
 1311              	.LVL132:
 1312              		.loc 1 557 0
 1313 0646 2B70     		strb	r3, [r5]
 1314              		.loc 1 558 0
 1315 0648 FFF7FEFF 		bl	LogTextMessage
 1316              	.LVL133:
 1317              		.loc 1 561 0
 1318 064c D5F8F435 		ldr	r3, [r5, #1524]
 1319 0650 2846     		mov	r0, r5
 1320 0652 0321     		movs	r1, #3
 1321 0654 9847     		blx	r3
 1322              	.LVL134:
 1323 0656 DBE7     		b	.L106
 1324              	.LVL135:
 1325              	.L124:
 1326              		.loc 1 546 0
 1327 0658 0123     		movs	r3, #1
 1328 065a C6E6     		b	.L109
 1329              	.LVL136:
 1330              	.L95:
 1331              	.LBE49:
 1332              	.LBB50:
 1333              	.LBB38:
 1334              		.loc 1 769 0
 1335 065c 90F82F14 		ldrb	r1, [r0, #1071]	@ zero_extendqisi2
 1336 0660 0029     		cmp	r1, #0
 1337 0662 00F0AD80 		beq	.L100
 1338              		.loc 1 773 0
 1339 0666 00F50774 		add	r4, r0, #540
 1340              		.loc 1 771 0
 1341 066a 2246     		mov	r2, r4
 1342 066c FF23     		movs	r3, #255
 1343 066e FFF7FEFF 		bl	USBH_Get_StringDesc
 1344              	.LVL137:
 1345 0672 0028     		cmp	r0, #0
 1346 0674 C1D1     		bne	.L87
 1347              		.loc 1 777 0
 1348 0676 2146     		mov	r1, r4
 1349 0678 1348     		ldr	r0, .L148+32
 1350 067a FFF7FEFF 		bl	LogTextMessage
 1351              	.LVL138:
 1352              		.loc 1 778 0
 1353 067e 0723     		movs	r3, #7
 1354 0680 6B70     		strb	r3, [r5, #1]
 1355 0682 BAE7     		b	.L87
 1356              	.LVL139:
 1357              	.L90:
 1358              		.loc 1 681 0
 1359 0684 1221     		movs	r1, #18
ARM GAS  /tmp/ccDBvaUc.s 			page 25


 1360 0686 FFF7FEFF 		bl	USBH_Get_DevDesc
 1361              	.LVL140:
 1362 068a 0028     		cmp	r0, #0
 1363 068c B5D1     		bne	.L87
 1364              		.loc 1 683 0
 1365 068e 0F48     		ldr	r0, .L148+36
 1366 0690 B5F82A14 		ldrh	r1, [r5, #1066]
 1367 0694 FFF7FEFF 		bl	LogTextMessage
 1368              	.LVL141:
 1369              		.loc 1 684 0
 1370 0698 0D48     		ldr	r0, .L148+40
 1371 069a B5F82814 		ldrh	r1, [r5, #1064]
 1372 069e FFF7FEFF 		bl	LogTextMessage
 1373              	.LVL142:
 1374              		.loc 1 686 0
 1375 06a2 0223     		movs	r3, #2
 1376 06a4 6B70     		strb	r3, [r5, #1]
 1377 06a6 A8E7     		b	.L87
 1378              	.L149:
 1379              		.align	2
 1380              	.L148:
 1381 06a8 44010000 		.word	.LC16
 1382 06ac 3C020000 		.word	.LC25
 1383 06b0 FC010000 		.word	.LC23
 1384 06b4 B8000000 		.word	.LC8
 1385 06b8 94010000 		.word	.LC19
 1386 06bc FC000000 		.word	.LC12
 1387 06c0 E4010000 		.word	.LC22
 1388 06c4 D0010000 		.word	.LC21
 1389 06c8 24010000 		.word	.LC14
 1390 06cc CC000000 		.word	.LC9
 1391 06d0 D8000000 		.word	.LC10
 1392              	.LVL143:
 1393              	.L93:
 1394              		.loc 1 733 0
 1395 06d4 B5F83414 		ldrh	r1, [r5, #1076]
 1396 06d8 FFF7FEFF 		bl	USBH_Get_CfgDesc
 1397              	.LVL144:
 1398 06dc 0028     		cmp	r0, #0
 1399 06de 8CD1     		bne	.L87
 1400              		.loc 1 736 0
 1401 06e0 0523     		movs	r3, #5
 1402 06e2 6B70     		strb	r3, [r5, #1]
 1403 06e4 89E7     		b	.L87
 1404              	.LVL145:
 1405              	.L88:
 1406              		.loc 1 652 0
 1407 06e6 0821     		movs	r1, #8
 1408 06e8 FFF7FEFF 		bl	USBH_Get_DevDesc
 1409              	.LVL146:
 1410 06ec 0446     		mov	r4, r0
 1411 06ee 0028     		cmp	r0, #0
 1412 06f0 83D1     		bne	.L87
 1413              		.loc 1 654 0
 1414 06f2 95F82724 		ldrb	r2, [r5, #1063]	@ zero_extendqisi2
 1415              		.loc 1 659 0
 1416 06f6 95F81D04 		ldrb	r0, [r5, #1053]	@ zero_extendqisi2
ARM GAS  /tmp/ccDBvaUc.s 			page 26


 1417 06fa 2979     		ldrb	r1, [r5, #4]	@ zero_extendqisi2
 1418 06fc 95F81C34 		ldrb	r3, [r5, #1052]	@ zero_extendqisi2
 1419 0700 0194     		str	r4, [sp, #4]
 1420              		.loc 1 656 0
 1421 0702 0126     		movs	r6, #1
 1422              		.loc 1 654 0
 1423 0704 AA71     		strb	r2, [r5, #6]
 1424              		.loc 1 659 0
 1425 0706 0292     		str	r2, [sp, #8]
 1426              		.loc 1 656 0
 1427 0708 6E70     		strb	r6, [r5, #1]
 1428              		.loc 1 659 0
 1429 070a 0090     		str	r0, [sp]
 1430              	.L142:
 1431              		.loc 1 703 0
 1432 070c 2846     		mov	r0, r5
 1433 070e 8022     		movs	r2, #128
 1434 0710 FFF7FEFF 		bl	USBH_OpenPipe
 1435              	.LVL147:
 1436              		.loc 1 712 0
 1437 0714 A879     		ldrb	r0, [r5, #6]	@ zero_extendqisi2
 1438 0716 95F81D64 		ldrb	r6, [r5, #1053]	@ zero_extendqisi2
 1439 071a 6979     		ldrb	r1, [r5, #5]	@ zero_extendqisi2
 1440 071c 95F81C34 		ldrb	r3, [r5, #1052]	@ zero_extendqisi2
 1441 0720 0290     		str	r0, [sp, #8]
 1442 0722 0194     		str	r4, [sp, #4]
 1443 0724 2246     		mov	r2, r4
 1444 0726 0096     		str	r6, [sp]
 1445 0728 2846     		mov	r0, r5
 1446 072a FFF7FEFF 		bl	USBH_OpenPipe
 1447              	.LVL148:
 1448 072e 64E7     		b	.L87
 1449              	.LVL149:
 1450              	.L92:
 1451              		.loc 1 724 0
 1452 0730 0921     		movs	r1, #9
 1453 0732 FFF7FEFF 		bl	USBH_Get_CfgDesc
 1454              	.LVL150:
 1455 0736 0028     		cmp	r0, #0
 1456 0738 7FF45FAF 		bne	.L87
 1457              		.loc 1 727 0
 1458 073c 0423     		movs	r3, #4
 1459 073e 6B70     		strb	r3, [r5, #1]
 1460 0740 5BE7     		b	.L87
 1461              	.LVL151:
 1462              	.L91:
 1463              		.loc 1 693 0
 1464 0742 0121     		movs	r1, #1
 1465 0744 FFF7FEFF 		bl	USBH_SetAddress
 1466              	.LVL152:
 1467 0748 0446     		mov	r4, r0
 1468 074a 0028     		cmp	r0, #0
 1469 074c 7FF455AF 		bne	.L87
 1470              		.loc 1 695 0
 1471 0750 0220     		movs	r0, #2
 1472 0752 FFF7FEFF 		bl	USBH_Delay
 1473              	.LVL153:
ARM GAS  /tmp/ccDBvaUc.s 			page 27


 1474              		.loc 1 696 0
 1475 0756 0121     		movs	r1, #1
 1476 0758 85F81C14 		strb	r1, [r5, #1052]
 1477              		.loc 1 699 0
 1478 075c 2048     		ldr	r0, .L150
 1479 075e FFF7FEFF 		bl	LogTextMessage
 1480              	.LVL154:
 1481              		.loc 1 700 0
 1482 0762 0326     		movs	r6, #3
 1483              		.loc 1 703 0
 1484 0764 95F81D04 		ldrb	r0, [r5, #1053]	@ zero_extendqisi2
 1485 0768 AA79     		ldrb	r2, [r5, #6]	@ zero_extendqisi2
 1486 076a 2979     		ldrb	r1, [r5, #4]	@ zero_extendqisi2
 1487 076c 95F81C34 		ldrb	r3, [r5, #1052]	@ zero_extendqisi2
 1488 0770 0194     		str	r4, [sp, #4]
 1489              		.loc 1 700 0
 1490 0772 6E70     		strb	r6, [r5, #1]
 1491              		.loc 1 703 0
 1492 0774 0090     		str	r0, [sp]
 1493 0776 0292     		str	r2, [sp, #8]
 1494 0778 C8E7     		b	.L142
 1495              	.LVL155:
 1496              	.L146:
 1497              	.LBE38:
 1498              	.LBE50:
 1499              		.loc 1 523 0
 1500 077a 1A48     		ldr	r0, .L150+4
 1501              	.LVL156:
 1502 077c FFF7FEFF 		bl	LogTextMessage
 1503              	.LVL157:
 1504 0780 46E7     		b	.L106
 1505              	.LVL158:
 1506              	.L117:
 1507              		.loc 1 592 0
 1508 0782 0C23     		movs	r3, #12
 1509 0784 0370     		strb	r3, [r0]
 1510              		.loc 1 593 0
 1511 0786 1848     		ldr	r0, .L150+8
 1512              	.LVL159:
 1513 0788 FFF7FEFF 		bl	LogTextMessage
 1514              	.LVL160:
 1515              		.loc 1 596 0
 1516 078c D5F8F805 		ldr	r0, [r5, #1528]
 1517 0790 2021     		movs	r1, #32
 1518 0792 FFF7FEFF 		bl	chEvtSignal
 1519              	.LVL161:
 1520 0796 F8E5     		b	.L132
 1521              	.LVL162:
 1522              	.L145:
 1523              		.loc 1 477 0
 1524 0798 1448     		ldr	r0, .L150+12
 1525 079a FFF7FEFF 		bl	LogTextMessage
 1526              	.LVL163:
 1527              		.loc 1 478 0
 1528 079e 0823     		movs	r3, #8
 1529 07a0 2B70     		strb	r3, [r5]
 1530              		.loc 1 479 0
ARM GAS  /tmp/ccDBvaUc.s 			page 28


 1531 07a2 D5F8F805 		ldr	r0, [r5, #1528]
 1532 07a6 0221     		movs	r1, #2
 1533 07a8 FFF7FEFF 		bl	chEvtSignal
 1534              	.LVL164:
 1535 07ac EDE5     		b	.L132
 1536              	.LVL165:
 1537              	.L101:
 1538              	.LBB51:
 1539              	.LBB39:
 1540              		.loc 1 806 0
 1541 07ae 1048     		ldr	r0, .L150+16
 1542              	.LVL166:
 1543 07b0 FFF7FEFF 		bl	LogTextMessage
 1544              	.LVL167:
 1545              		.loc 1 809 0
 1546 07b4 D5F8F805 		ldr	r0, [r5, #1528]
 1547 07b8 2021     		movs	r1, #32
 1548 07ba FFF7FEFF 		bl	chEvtSignal
 1549              	.LVL168:
 1550 07be D7E5     		b	.L102
 1551              	.LVL169:
 1552              	.L100:
 1553              		.loc 1 783 0
 1554 07c0 0C48     		ldr	r0, .L150+20
 1555              	.LVL170:
 1556 07c2 FFF7FEFF 		bl	LogTextMessage
 1557              	.LVL171:
 1558              		.loc 1 784 0
 1559 07c6 0723     		movs	r3, #7
 1560 07c8 6B70     		strb	r3, [r5, #1]
 1561              		.loc 1 786 0
 1562 07ca D5F8F805 		ldr	r0, [r5, #1528]
 1563 07ce 2021     		movs	r1, #32
 1564 07d0 FFF7FEFF 		bl	chEvtSignal
 1565              	.LVL172:
 1566 07d4 11E7     		b	.L87
 1567              	.LVL173:
 1568              	.L99:
 1569              		.loc 1 760 0
 1570 07d6 0848     		ldr	r0, .L150+24
 1571              	.LVL174:
 1572 07d8 FFF7FEFF 		bl	LogTextMessage
 1573              	.LVL175:
 1574 07dc 06E7     		b	.L141
 1575              	.L151:
 1576 07de 00BF     		.align	2
 1577              	.L150:
 1578 07e0 E4000000 		.word	.LC11
 1579 07e4 B0010000 		.word	.LC20
 1580 07e8 24020000 		.word	.LC24
 1581 07ec 6C010000 		.word	.LC18
 1582 07f0 58010000 		.word	.LC17
 1583 07f4 34010000 		.word	.LC15
 1584 07f8 10010000 		.word	.LC13
 1585              	.LBE39:
 1586              	.LBE51:
 1587              		.cfi_endproc
ARM GAS  /tmp/ccDBvaUc.s 			page 29


 1588              	.LFE144:
 1589              		.size	USBH_Process, .-USBH_Process
 1590              		.align	2
 1591 07fc AFF30080 		.p2align 4,,15
 1592              		.thumb
 1593              		.thumb_func
 1594              		.type	USBH_Process_OS, %function
 1595              	USBH_Process_OS:
 1596              	.LFB151:
 1597              		.loc 1 927 0
 1598              		.cfi_startproc
 1599              		@ args = 0, pretend = 0, frame = 0
 1600              		@ frame_needed = 0, uses_anonymous_args = 0
 1601              	.LVL176:
 1602              		.loc 1 929 0
 1603 0800 064B     		ldr	r3, .L155
 1604 0802 074A     		ldr	r2, .L155+4
 1605 0804 9B69     		ldr	r3, [r3, #24]
 1606              		.loc 1 927 0
 1607 0806 10B5     		push	{r4, lr}
 1608              		.cfi_def_cfa_offset 8
 1609              		.cfi_offset 4, -8
 1610              		.cfi_offset 14, -4
 1611              		.loc 1 927 0
 1612 0808 0446     		mov	r4, r0
 1613              		.loc 1 929 0
 1614 080a 9A61     		str	r2, [r3, #24]
 1615              	.LVL177:
 1616              	.L153:
 1617              		.loc 1 936 0 discriminator 1
 1618 080c 0549     		ldr	r1, .L155+8
 1619 080e FF20     		movs	r0, #255
 1620 0810 FFF7FEFF 		bl	chEvtWaitOneTimeout
 1621              	.LVL178:
 1622              		.loc 1 940 0 discriminator 1
 1623 0814 2046     		mov	r0, r4
 1624 0816 FFF7FEFF 		bl	USBH_Process
 1625              	.LVL179:
 1626              		.loc 1 942 0 discriminator 1
 1627 081a F7E7     		b	.L153
 1628              	.L156:
 1629              		.align	2
 1630              	.L155:
 1631 081c 00000000 		.word	rlist
 1632 0820 50020000 		.word	.LC26
 1633 0824 38894100 		.word	4294968
 1634              		.cfi_endproc
 1635              	.LFE151:
 1636              		.size	USBH_Process_OS, .-USBH_Process_OS
 1637              		.align	2
 1638 0828 AFF30080 		.p2align 4,,15
 1638      AFF30080 
 1639              		.global	USBH_LL_SetTimer
 1640              		.thumb
 1641              		.thumb_func
 1642              		.type	USBH_LL_SetTimer, %function
 1643              	USBH_LL_SetTimer:
ARM GAS  /tmp/ccDBvaUc.s 			page 30


 1644              	.LFB146:
 1645              		.loc 1 827 0
 1646              		.cfi_startproc
 1647              		@ args = 0, pretend = 0, frame = 0
 1648              		@ frame_needed = 0, uses_anonymous_args = 0
 1649              		@ link register save eliminated.
 1650              	.LVL180:
 1651              		.loc 1 828 0
 1652 0830 C0F8E815 		str	r1, [r0, #1512]
 1653 0834 7047     		bx	lr
 1654              		.cfi_endproc
 1655              	.LFE146:
 1656              		.size	USBH_LL_SetTimer, .-USBH_LL_SetTimer
 1657 0836 00BF     		.align	2
 1658 0838 AFF30080 		.p2align 4,,15
 1658      AFF30080 
 1659              		.global	USBH_LL_IncTimer
 1660              		.thumb
 1661              		.thumb_func
 1662              		.type	USBH_LL_IncTimer, %function
 1663              	USBH_LL_IncTimer:
 1664              	.LFB147:
 1665              		.loc 1 837 0
 1666              		.cfi_startproc
 1667              		@ args = 0, pretend = 0, frame = 0
 1668              		@ frame_needed = 0, uses_anonymous_args = 0
 1669              		@ link register save eliminated.
 1670              	.LVL181:
 1671              		.loc 1 838 0
 1672 0840 D0F8E825 		ldr	r2, [r0, #1512]
 1673 0844 0132     		adds	r2, r2, #1
 1674 0846 C0F8E825 		str	r2, [r0, #1512]
 1675              	.LVL182:
 1676              	.LBB52:
 1677              	.LBB53:
 1678              		.loc 1 850 0
 1679 084a 0278     		ldrb	r2, [r0]	@ zero_extendqisi2
 1680 084c 0A2A     		cmp	r2, #10
 1681 084e 00D0     		beq	.L163
 1682              	.L158:
 1683 0850 7047     		bx	lr
 1684              	.L163:
 1685 0852 D0F8A435 		ldr	r3, [r0, #1444]
 1686 0856 002B     		cmp	r3, #0
 1687 0858 FAD0     		beq	.L158
 1688              		.loc 1 852 0
 1689 085a 9B69     		ldr	r3, [r3, #24]
 1690 085c 1847     		bx	r3
 1691              	.LVL183:
 1692              	.LBE53:
 1693              	.LBE52:
 1694              		.cfi_endproc
 1695              	.LFE147:
 1696              		.size	USBH_LL_IncTimer, .-USBH_LL_IncTimer
 1697 085e 00BF     		.align	2
 1698              		.p2align 4,,15
 1699              		.global	USBH_LL_Connect
ARM GAS  /tmp/ccDBvaUc.s 			page 31


 1700              		.thumb
 1701              		.thumb_func
 1702              		.type	USBH_LL_Connect, %function
 1703              	USBH_LL_Connect:
 1704              	.LFB149:
 1705              		.loc 1 862 0
 1706              		.cfi_startproc
 1707              		@ args = 0, pretend = 0, frame = 0
 1708              		@ frame_needed = 0, uses_anonymous_args = 0
 1709              	.LVL184:
 1710              		.loc 1 863 0
 1711 0860 0378     		ldrb	r3, [r0]	@ zero_extendqisi2
 1712              		.loc 1 862 0
 1713 0862 10B5     		push	{r4, lr}
 1714              		.cfi_def_cfa_offset 8
 1715              		.cfi_offset 4, -8
 1716              		.cfi_offset 14, -4
 1717              		.loc 1 862 0
 1718 0864 0446     		mov	r4, r0
 1719              		.loc 1 863 0
 1720 0866 73B9     		cbnz	r3, .L165
 1721              		.loc 1 867 0
 1722 0868 D0F8F435 		ldr	r3, [r0, #1524]
 1723              		.loc 1 865 0
 1724 086c 0122     		movs	r2, #1
 1725 086e 80F81E24 		strb	r2, [r0, #1054]
 1726              		.loc 1 867 0
 1727 0872 0BB1     		cbz	r3, .L167
 1728              		.loc 1 869 0
 1729 0874 0421     		movs	r1, #4
 1730 0876 9847     		blx	r3
 1731              	.LVL185:
 1732              	.L167:
 1733              		.loc 1 877 0
 1734 0878 D4F8F805 		ldr	r0, [r4, #1528]
 1735 087c 0221     		movs	r1, #2
 1736 087e FFF7FEFF 		bl	chEvtSignalI
 1737              	.LVL186:
 1738              		.loc 1 881 0
 1739 0882 0020     		movs	r0, #0
 1740 0884 10BD     		pop	{r4, pc}
 1741              	.LVL187:
 1742              	.L165:
 1743              		.loc 1 872 0
 1744 0886 0378     		ldrb	r3, [r0]	@ zero_extendqisi2
 1745 0888 012B     		cmp	r3, #1
 1746              		.loc 1 874 0
 1747 088a 04BF     		itt	eq
 1748 088c 0223     		moveq	r3, #2
 1749 088e 0370     		strbeq	r3, [r0]
 1750 0890 F2E7     		b	.L167
 1751              		.cfi_endproc
 1752              	.LFE149:
 1753              		.size	USBH_LL_Connect, .-USBH_LL_Connect
 1754 0892 00BF     		.align	2
 1755 0894 AFF30080 		.p2align 4,,15
 1755      AFF30080 
ARM GAS  /tmp/ccDBvaUc.s 			page 32


 1755      AFF30080 
 1756              		.global	USBH_LL_Disconnect
 1757              		.thumb
 1758              		.thumb_func
 1759              		.type	USBH_LL_Disconnect, %function
 1760              	USBH_LL_Disconnect:
 1761              	.LFB150:
 1762              		.loc 1 890 0
 1763              		.cfi_startproc
 1764              		@ args = 0, pretend = 0, frame = 0
 1765              		@ frame_needed = 0, uses_anonymous_args = 0
 1766              	.LVL188:
 1767 08a0 10B5     		push	{r4, lr}
 1768              		.cfi_def_cfa_offset 8
 1769              		.cfi_offset 4, -8
 1770              		.cfi_offset 14, -4
 1771              		.loc 1 890 0
 1772 08a2 0446     		mov	r4, r0
 1773              		.loc 1 892 0
 1774 08a4 FFF7FEFF 		bl	USBH_LL_Stop
 1775              	.LVL189:
 1776              		.loc 1 895 0
 1777 08a8 2179     		ldrb	r1, [r4, #4]	@ zero_extendqisi2
 1778 08aa 2046     		mov	r0, r4
 1779 08ac FFF7FEFF 		bl	USBH_FreePipe
 1780              	.LVL190:
 1781              		.loc 1 896 0
 1782 08b0 2046     		mov	r0, r4
 1783 08b2 6179     		ldrb	r1, [r4, #5]	@ zero_extendqisi2
 1784 08b4 FFF7FEFF 		bl	USBH_FreePipe
 1785              	.LVL191:
 1786              		.loc 1 900 0
 1787 08b8 D4F8F435 		ldr	r3, [r4, #1524]
 1788              		.loc 1 898 0
 1789 08bc 0022     		movs	r2, #0
 1790 08be 84F81E24 		strb	r2, [r4, #1054]
 1791              		.loc 1 900 0
 1792 08c2 13B1     		cbz	r3, .L171
 1793              		.loc 1 902 0
 1794 08c4 2046     		mov	r0, r4
 1795 08c6 0521     		movs	r1, #5
 1796 08c8 9847     		blx	r3
 1797              	.LVL192:
 1798              	.L171:
 1799              		.loc 1 908 0
 1800 08ca 2046     		mov	r0, r4
 1801 08cc FFF7FEFF 		bl	USBH_LL_Start
 1802              	.LVL193:
 1803              		.loc 1 910 0
 1804 08d0 0323     		movs	r3, #3
 1805              		.loc 1 913 0
 1806 08d2 D4F8F805 		ldr	r0, [r4, #1528]
 1807              		.loc 1 910 0
 1808 08d6 2370     		strb	r3, [r4]
 1809              		.loc 1 913 0
 1810 08d8 0221     		movs	r1, #2
 1811 08da FFF7FEFF 		bl	chEvtSignalI
ARM GAS  /tmp/ccDBvaUc.s 			page 33


 1812              	.LVL194:
 1813              		.loc 1 917 0
 1814 08de 0020     		movs	r0, #0
 1815 08e0 10BD     		pop	{r4, pc}
 1816              		.cfi_endproc
 1817              	.LFE150:
 1818              		.size	USBH_LL_Disconnect, .-USBH_LL_Disconnect
 1819 08e2 00BF     		.align	2
 1820 08e4 AFF30080 		.p2align 4,,15
 1820      AFF30080 
 1820      AFF30080 
 1821              		.global	USBH_LL_NotifyURBChange
 1822              		.thumb
 1823              		.thumb_func
 1824              		.type	USBH_LL_NotifyURBChange, %function
 1825              	USBH_LL_NotifyURBChange:
 1826              	.LFB152:
 1827              		.loc 1 952 0
 1828              		.cfi_startproc
 1829              		@ args = 0, pretend = 0, frame = 0
 1830              		@ frame_needed = 0, uses_anonymous_args = 0
 1831              	.LVL195:
 1832 08f0 08B5     		push	{r3, lr}
 1833              		.cfi_def_cfa_offset 8
 1834              		.cfi_offset 3, -8
 1835              		.cfi_offset 14, -4
 1836              		.loc 1 953 0
 1837 08f2 D0F8F805 		ldr	r0, [r0, #1528]
 1838              	.LVL196:
 1839 08f6 0421     		movs	r1, #4
 1840 08f8 FFF7FEFF 		bl	chEvtSignalI
 1841              	.LVL197:
 1842              		.loc 1 955 0
 1843 08fc 0020     		movs	r0, #0
 1844 08fe 08BD     		pop	{r3, pc}
 1845              		.cfi_endproc
 1846              	.LFE152:
 1847              		.size	USBH_LL_NotifyURBChange, .-USBH_LL_NotifyURBChange
 1848              		.section	.rodata.str1.4,"aMS",%progbits,1
 1849              		.align	2
 1850              	.LC0:
 1851 0000 496E7661 		.ascii	"Invalid Host handle\000"
 1851      6C696420 
 1851      486F7374 
 1851      2068616E 
 1851      646C6500 
 1852              	.LC1:
 1853 0014 4D617820 		.ascii	"Max Class Number reached\000"
 1853      436C6173 
 1853      73204E75 
 1853      6D626572 
 1853      20726561 
 1854 002d 000000   		.space	3
 1855              	.LC2:
 1856 0030 496E7661 		.ascii	"Invalid Class handle\000"
 1856      6C696420 
 1856      436C6173 
ARM GAS  /tmp/ccDBvaUc.s 			page 34


 1856      73206861 
 1856      6E646C65 
 1857 0045 000000   		.space	3
 1858              	.LC3:
 1859 0048 53776974 		.ascii	"Switching to Interface (#%d)\000"
 1859      6368696E 
 1859      6720746F 
 1859      20496E74 
 1859      65726661 
 1860 0065 000000   		.space	3
 1861              	.LC4:
 1862 0068 436C6173 		.ascii	"Class    : %xh\000"
 1862      73202020 
 1862      203A2025 
 1862      786800
 1863 0077 00       		.space	1
 1864              	.LC5:
 1865 0078 53756243 		.ascii	"SubClass : %xh\000"
 1865      6C617373 
 1865      203A2025 
 1865      786800
 1866 0087 00       		.space	1
 1867              	.LC6:
 1868 0088 50726F74 		.ascii	"Protocol : %xh\000"
 1868      6F636F6C 
 1868      203A2025 
 1868      786800
 1869 0097 00       		.space	1
 1870              	.LC7:
 1871 0098 43616E6E 		.ascii	"Cannot Select This Interface.\000"
 1871      6F742053 
 1871      656C6563 
 1871      74205468 
 1871      69732049 
 1872 00b6 0000     		.space	2
 1873              	.LC8:
 1874 00b8 55534220 		.ascii	"USB Device Attached\000"
 1874      44657669 
 1874      63652041 
 1874      74746163 
 1874      68656400 
 1875              	.LC9:
 1876 00cc 5049443A 		.ascii	"PID: %xh\000"
 1876      20257868 
 1876      00
 1877 00d5 000000   		.space	3
 1878              	.LC10:
 1879 00d8 5649443A 		.ascii	"VID: %xh\000"
 1879      20257868 
 1879      00
 1880 00e1 000000   		.space	3
 1881              	.LC11:
 1882 00e4 41646472 		.ascii	"Address (#%d) assigned.\000"
 1882      65737320 
 1882      28232564 
 1882      29206173 
 1882      7369676E 
ARM GAS  /tmp/ccDBvaUc.s 			page 35


 1883              	.LC12:
 1884 00fc 4D616E75 		.ascii	"Manufacturer : %s\000"
 1884      66616374 
 1884      75726572 
 1884      203A2025 
 1884      7300
 1885 010e 0000     		.space	2
 1886              	.LC13:
 1887 0110 4D616E75 		.ascii	"Manufacturer : N/A\000"
 1887      66616374 
 1887      75726572 
 1887      203A204E 
 1887      2F4100
 1888 0123 00       		.space	1
 1889              	.LC14:
 1890 0124 50726F64 		.ascii	"Product : %s\000"
 1890      75637420 
 1890      3A202573 
 1890      00
 1891 0131 000000   		.space	3
 1892              	.LC15:
 1893 0134 50726F64 		.ascii	"Product : N/A\000"
 1893      75637420 
 1893      3A204E2F 
 1893      4100
 1894 0142 0000     		.space	2
 1895              	.LC16:
 1896 0144 53657269 		.ascii	"Serial Number : %s\000"
 1896      616C204E 
 1896      756D6265 
 1896      72203A20 
 1896      257300
 1897 0157 00       		.space	1
 1898              	.LC17:
 1899 0158 53657269 		.ascii	"Serial Number : N/A\000"
 1899      616C204E 
 1899      756D6265 
 1899      72203A20 
 1899      4E2F4100 
 1900              	.LC18:
 1901 016c 54686973 		.ascii	"This device has only 1 configuration.\000"
 1901      20646576 
 1901      69636520 
 1901      68617320 
 1901      6F6E6C79 
 1902 0192 0000     		.space	2
 1903              	.LC19:
 1904 0194 44656661 		.ascii	"Default configuration set.\000"
 1904      756C7420 
 1904      636F6E66 
 1904      69677572 
 1904      6174696F 
 1905 01af 00       		.space	1
 1906              	.LC20:
 1907 01b0 4E6F2043 		.ascii	"No Class has been registered.\000"
 1907      6C617373 
 1907      20686173 
ARM GAS  /tmp/ccDBvaUc.s 			page 36


 1907      20626565 
 1907      6E207265 
 1908 01ce 0000     		.space	2
 1909              	.LC21:
 1910 01d0 25732063 		.ascii	"%s class started.\000"
 1910      6C617373 
 1910      20737461 
 1910      72746564 
 1910      2E00
 1911 01e2 0000     		.space	2
 1912              	.LC22:
 1913 01e4 25732063 		.ascii	"%s class failed to init\000"
 1913      6C617373 
 1913      20666169 
 1913      6C656420 
 1913      746F2069 
 1914              	.LC23:
 1915 01fc 4E6F2072 		.ascii	"No registered class for this device.\000"
 1915      65676973 
 1915      74657265 
 1915      6420636C 
 1915      61737320 
 1916 0221 000000   		.space	3
 1917              	.LC24:
 1918 0224 496E7661 		.ascii	"Invalid Class Driver.\000"
 1918      6C696420 
 1918      436C6173 
 1918      73204472 
 1918      69766572 
 1919 023a 0000     		.space	2
 1920              	.LC25:
 1921 023c 456E756D 		.ascii	"Enumeration done.\000"
 1921      65726174 
 1921      696F6E20 
 1921      646F6E65 
 1921      2E00
 1922 024e 0000     		.space	2
 1923              	.LC26:
 1924 0250 75736268 		.ascii	"usbh\000"
 1924      00
 1925              		.bss
 1926              		.align	3
 1927              		.set	.LANCHOR0,. + 0
 1928              		.type	buf.8228, %object
 1929              		.size	buf.8228, 20
 1930              	buf.8228:
 1931 0000 00000000 		.space	20
 1931      00000000 
 1931      00000000 
 1931      00000000 
 1931      00000000 
 1932 0014 00000000 		.space	4
 1933              		.type	waUSBH_Thread.8230, %object
 1934              		.size	waUSBH_Thread.8230, 976
 1935              	waUSBH_Thread.8230:
 1936 0018 00000000 		.space	976
 1936      00000000 
ARM GAS  /tmp/ccDBvaUc.s 			page 37


 1936      00000000 
 1936      00000000 
 1936      00000000 
 1937              		.text
 1938              	.Letext0:
 1939              		.file 2 "/home/sbcu/Dropbox/pcb-layouts/axo-on-discovery-board/axoloti/platform_linux/arm-none-eab
 1940              		.file 3 "/home/sbcu/Dropbox/pcb-layouts/axo-on-discovery-board/axoloti/platform_linux/arm-none-eab
 1941              		.file 4 "/home/sbcu/Dropbox/pcb-layouts/axo-on-discovery-board/axoloti/platform_linux/lib/gcc/arm-
 1942              		.file 5 "/home/sbcu/Dropbox/pcb-layouts/axo-on-discovery-board/axoloti/platform_linux/../chibios/o
 1943              		.file 6 "/home/sbcu/Dropbox/pcb-layouts/axo-on-discovery-board/axoloti/platform_linux/../chibios/o
 1944              		.file 7 "/home/sbcu/Dropbox/pcb-layouts/axo-on-discovery-board/axoloti/platform_linux/../chibios/o
 1945              		.file 8 "/home/sbcu/Dropbox/pcb-layouts/axo-on-discovery-board/axoloti/platform_linux/../chibios/o
 1946              		.file 9 "/home/sbcu/Dropbox/pcb-layouts/axo-on-discovery-board/axoloti/platform_linux/../chibios/o
 1947              		.file 10 "/home/sbcu/Dropbox/pcb-layouts/axo-on-discovery-board/axoloti/platform_linux/../chibios/
 1948              		.file 11 "/home/sbcu/Dropbox/pcb-layouts/axo-on-discovery-board/axoloti/platform_linux/../chibios/
 1949              		.file 12 "./usbh_conf.h"
 1950              		.file 13 "./STM32_USB_Host_Library/Core/Inc/usbh_def.h"
 1951              		.file 14 "/home/sbcu/Dropbox/pcb-layouts/axo-on-discovery-board/axoloti/platform_linux/../CMSIS//I
 1952              		.file 15 "./STM32_USB_Host_Library/Core/Inc/usbh_core.h"
 1953              		.file 16 "./STM32_USB_Host_Library/Core/Inc/usbh_pipes.h"
 1954              		.file 17 "/home/sbcu/Dropbox/pcb-layouts/axo-on-discovery-board/axoloti/platform_linux/../chibios/
 1955              		.file 18 "./STM32_USB_Host_Library/Core/Inc/usbh_ctlreq.h"