ARM GAS  /tmp/ccm4MLjS.s 			page 1


   1              		.syntax unified
   2              		.cpu cortex-m4
   3              		.eabi_attribute 27, 1
   4              		.eabi_attribute 28, 1
   5              		.fpu fpv4-sp-d16
   6              		.eabi_attribute 20, 1
   7              		.eabi_attribute 21, 1
   8              		.eabi_attribute 23, 3
   9              		.eabi_attribute 24, 1
  10              		.eabi_attribute 25, 1
  11              		.eabi_attribute 26, 1
  12              		.eabi_attribute 30, 2
  13              		.eabi_attribute 34, 1
  14              		.eabi_attribute 18, 4
  15              		.thumb
  16              		.file	"usbh_ctlreq.c"
  17              		.text
  18              	.Ltext0:
  19              		.cfi_sections	.debug_frame
  20              		.align	2
  21              		.p2align 4,,15
  22              		.global	USBH_GetNextDesc
  23              		.thumb
  24              		.thumb_func
  25              		.type	USBH_GetNextDesc, %function
  26              	USBH_GetNextDesc:
  27              	.LFB146:
  28              		.file 1 "./STM32_USB_Host_Library/Core/Src/usbh_ctlreq.c"
  29              		.loc 1 526 0
  30              		.cfi_startproc
  31              		@ args = 0, pretend = 0, frame = 0
  32              		@ frame_needed = 0, uses_anonymous_args = 0
  33              		@ link register save eliminated.
  34              	.LVL0:
  35              		.loc 1 529 0
  36 0000 0278     		ldrb	r2, [r0]	@ zero_extendqisi2
  37 0002 0B88     		ldrh	r3, [r1]
  38 0004 1344     		add	r3, r3, r2
  39 0006 0B80     		strh	r3, [r1]	@ movhi
  40              	.LVL1:
  41              		.loc 1 530 0
  42 0008 0378     		ldrb	r3, [r0]	@ zero_extendqisi2
  43              		.loc 1 534 0
  44 000a 1844     		add	r0, r0, r3
  45              	.LVL2:
  46 000c 7047     		bx	lr
  47              		.cfi_endproc
  48              	.LFE146:
  49              		.size	USBH_GetNextDesc, .-USBH_GetNextDesc
  50 000e 00BF     		.align	2
  51              		.p2align 4,,15
  52              		.global	USBH_CtlReq
  53              		.thumb
  54              		.thumb_func
  55              		.type	USBH_CtlReq, %function
  56              	USBH_CtlReq:
  57              	.LFB147:
ARM GAS  /tmp/ccm4MLjS.s 			page 2


  58              		.loc 1 550 0
  59              		.cfi_startproc
  60              		@ args = 0, pretend = 0, frame = 0
  61              		@ frame_needed = 0, uses_anonymous_args = 0
  62              	.LVL3:
  63 0010 30B5     		push	{r4, r5, lr}
  64              		.cfi_def_cfa_offset 12
  65              		.cfi_offset 4, -12
  66              		.cfi_offset 5, -8
  67              		.cfi_offset 14, -4
  68              		.loc 1 554 0
  69 0012 8478     		ldrb	r4, [r0, #2]	@ zero_extendqisi2
  70 0014 012C     		cmp	r4, #1
  71              		.loc 1 550 0
  72 0016 83B0     		sub	sp, sp, #12
  73              		.cfi_def_cfa_offset 24
  74              		.loc 1 550 0
  75 0018 0546     		mov	r5, r0
  76              	.LVL4:
  77              		.loc 1 554 0
  78 001a 10D0     		beq	.L4
  79 001c 022C     		cmp	r4, #2
  80 001e 02D0     		beq	.L5
  81              	.LVL5:
  82              	.L25:
  83              	.LBB35:
  84              	.LBB36:
  85              	.LBB37:
  86              	.LBB38:
  87              		.loc 1 600 0
  88 0020 0120     		movs	r0, #1
  89              	.LVL6:
  90              	.L40:
  91              	.LBE38:
  92              	.LBE37:
  93              	.LBE36:
  94              	.LBE35:
  95              		.loc 1 589 0
  96 0022 03B0     		add	sp, sp, #12
  97              		.cfi_remember_state
  98              		.cfi_def_cfa_offset 12
  99              		@ sp needed
 100 0024 30BD     		pop	{r4, r5, pc}
 101              	.LVL7:
 102              	.L5:
 103              		.cfi_restore_state
 104              	.LBB59:
 105              	.LBB57:
 106              	.LBB53:
 107              	.LBB49:
 108              		.loc 1 603 0
 109 0026 037E     		ldrb	r3, [r0, #24]	@ zero_extendqisi2
 110 0028 013B     		subs	r3, r3, #1
 111 002a 0A2B     		cmp	r3, #10
 112 002c F8D8     		bhi	.L25
 113 002e DFE803F0 		tbb	[pc, r3]
 114              	.LVL8:
ARM GAS  /tmp/ccm4MLjS.s 			page 3


 115              	.L8:
 116 0032 27       		.byte	(.L7-.L8)/2
 117 0033 30       		.byte	(.L9-.L8)/2
 118 0034 44       		.byte	(.L10-.L8)/2
 119 0035 50       		.byte	(.L11-.L8)/2
 120 0036 6E       		.byte	(.L12-.L8)/2
 121 0037 7C       		.byte	(.L13-.L8)/2
 122 0038 62       		.byte	(.L14-.L8)/2
 123 0039 B0       		.byte	(.L15-.L8)/2
 124 003a 95       		.byte	(.L16-.L8)/2
 125 003b A3       		.byte	(.L17-.L8)/2
 126 003c 13       		.byte	(.L18-.L8)/2
 127 003d 00       		.p2align 1
 128              	.L4:
 129              	.LBE49:
 130              	.LBE53:
 131              	.LBE57:
 132              	.LBE59:
 133              		.loc 1 561 0
 134 003e 0223     		movs	r3, #2
 135              		.loc 1 558 0
 136 0040 8160     		str	r1, [r0, #8]
 137              		.loc 1 559 0
 138 0042 8281     		strh	r2, [r0, #12]	@ movhi
 139              		.loc 1 560 0
 140 0044 0476     		strb	r4, [r0, #24]
 141              		.loc 1 561 0
 142 0046 8370     		strb	r3, [r0, #2]
 143              		.loc 1 564 0
 144 0048 0821     		movs	r1, #8
 145              	.LVL9:
 146 004a D0F8F805 		ldr	r0, [r0, #1528]
 147              	.LVL10:
 148 004e FFF7FEFF 		bl	chEvtSignal
 149              	.LVL11:
 150              		.loc 1 562 0
 151 0052 2046     		mov	r0, r4
 152              		.loc 1 589 0
 153 0054 03B0     		add	sp, sp, #12
 154              		.cfi_remember_state
 155              		.cfi_def_cfa_offset 12
 156              		@ sp needed
 157 0056 30BD     		pop	{r4, r5, pc}
 158              	.LVL12:
 159              	.L18:
 160              		.cfi_restore_state
 161              	.LBB60:
 162              	.LBB58:
 163              	.LBB54:
 164              	.LBB50:
 165              		.loc 1 853 0
 166 0058 437E     		ldrb	r3, [r0, #25]	@ zero_extendqisi2
 167 005a 0133     		adds	r3, r3, #1
 168 005c DBB2     		uxtb	r3, r3
 169 005e 022B     		cmp	r3, #2
 170 0060 4376     		strb	r3, [r0, #25]
 171 0062 40F2A480 		bls	.L50
ARM GAS  /tmp/ccm4MLjS.s 			page 4


 172              		.loc 1 864 0
 173 0066 D0F8F435 		ldr	r3, [r0, #1524]
 174 006a 0621     		movs	r1, #6
 175              	.LVL13:
 176 006c 9847     		blx	r3
 177              	.LVL14:
 178              		.loc 1 865 0
 179 006e 0023     		movs	r3, #0
 180 0070 6B76     		strb	r3, [r5, #25]
 181              		.loc 1 866 0
 182 0072 6748     		ldr	r0, .L55
 183 0074 FFF7FEFF 		bl	LogTextMessage
 184              	.LVL15:
 185              	.L31:
 186              	.LBE50:
 187              	.LBE54:
 188              		.loc 1 580 0
 189 0078 0123     		movs	r3, #1
 190 007a AB70     		strb	r3, [r5, #2]
 191              	.LVL16:
 192              		.loc 1 581 0
 193 007c 0220     		movs	r0, #2
 194 007e D0E7     		b	.L40
 195              	.LVL17:
 196              	.L7:
 197              	.LBB55:
 198              	.LBB51:
 199              		.loc 1 607 0
 200 0080 05F11001 		add	r1, r5, #16
 201              	.LVL18:
 202 0084 6A79     		ldrb	r2, [r5, #5]	@ zero_extendqisi2
 203 0086 FFF7FEFF 		bl	USBH_CtlSendSetup
 204              	.LVL19:
 205              		.loc 1 611 0
 206 008a 0223     		movs	r3, #2
 207 008c 2B76     		strb	r3, [r5, #24]
 208              		.loc 1 600 0
 209 008e 0120     		movs	r0, #1
 210 0090 C7E7     		b	.L40
 211              	.LVL20:
 212              	.L9:
 213              	.LBB39:
 214              	.LBB40:
 215              		.file 2 "./usbh_conf.h"
 216              		.loc 2 208 0
 217 0092 D0F8F005 		ldr	r0, [r0, #1520]
 218              	.LVL21:
 219 0096 6979     		ldrb	r1, [r5, #5]	@ zero_extendqisi2
 220              	.LVL22:
 221 0098 FFF7FEFF 		bl	HAL_HCD_HC_GetURBState
 222              	.LVL23:
 223 009c C0B2     		uxtb	r0, r0
 224              	.LVL24:
 225              	.LBE40:
 226              	.LBE39:
 227              		.loc 1 618 0
 228 009e 0128     		cmp	r0, #1
ARM GAS  /tmp/ccm4MLjS.s 			page 5


 229 00a0 00F08B80 		beq	.L51
 230              	.LVL25:
 231              	.L36:
 232              		.loc 1 834 0
 233 00a4 0428     		cmp	r0, #4
 234 00a6 BBD1     		bne	.L25
 235              	.L46:
 236              		.loc 1 836 0
 237 00a8 0B23     		movs	r3, #11
 238              	.L43:
 239              		.loc 1 648 0
 240 00aa 2B76     		strb	r3, [r5, #24]
 241              	.L23:
 242              		.loc 1 652 0
 243 00ac D5F8F805 		ldr	r0, [r5, #1528]
 244 00b0 0821     		movs	r1, #8
 245 00b2 FFF7FEFF 		bl	chEvtSignal
 246              	.LVL26:
 247              		.loc 1 600 0
 248 00b6 0120     		movs	r0, #1
 249 00b8 B3E7     		b	.L40
 250              	.LVL27:
 251              	.L10:
 252              		.loc 1 666 0
 253 00ba D0F8E835 		ldr	r3, [r0, #1512]
 254 00be C381     		strh	r3, [r0, #14]	@ movhi
 255              		.loc 1 667 0
 256 00c0 A968     		ldr	r1, [r5, #8]
 257              	.LVL28:
 258 00c2 2B79     		ldrb	r3, [r5, #4]	@ zero_extendqisi2
 259 00c4 AA89     		ldrh	r2, [r5, #12]
 260 00c6 FFF7FEFF 		bl	USBH_CtlReceiveData
 261              	.LVL29:
 262              		.loc 1 672 0
 263 00ca 0423     		movs	r3, #4
 264 00cc 2B76     		strb	r3, [r5, #24]
 265              		.loc 1 600 0
 266 00ce 0120     		movs	r0, #1
 267 00d0 A7E7     		b	.L40
 268              	.LVL30:
 269              	.L11:
 270              	.LBB41:
 271              	.LBB42:
 272              		.loc 2 208 0
 273 00d2 D0F8F005 		ldr	r0, [r0, #1520]
 274              	.LVL31:
 275 00d6 2979     		ldrb	r1, [r5, #4]	@ zero_extendqisi2
 276              	.LVL32:
 277 00d8 FFF7FEFF 		bl	HAL_HCD_HC_GetURBState
 278              	.LVL33:
 279 00dc C0B2     		uxtb	r0, r0
 280              	.LVL34:
 281              	.LBE42:
 282              	.LBE41:
 283              		.loc 1 680 0
 284 00de 0128     		cmp	r0, #1
 285 00e0 00F08B80 		beq	.L52
ARM GAS  /tmp/ccm4MLjS.s 			page 6


 286              		.loc 1 689 0
 287 00e4 0528     		cmp	r0, #5
 288 00e6 DDD1     		bne	.L36
 289              	.LVL35:
 290              	.L44:
 291              		.loc 1 737 0
 292 00e8 D5F8F805 		ldr	r0, [r5, #1528]
 293 00ec 0821     		movs	r1, #8
 294 00ee FFF7FEFF 		bl	chEvtSignal
 295              	.LVL36:
 296              		.loc 1 735 0
 297 00f2 0320     		movs	r0, #3
 298 00f4 95E7     		b	.L40
 299              	.LVL37:
 300              	.L14:
 301              		.loc 1 764 0
 302 00f6 0021     		movs	r1, #0
 303              	.LVL38:
 304 00f8 2B79     		ldrb	r3, [r5, #4]	@ zero_extendqisi2
 305 00fa 0A46     		mov	r2, r1
 306 00fc FFF7FEFF 		bl	USBH_CtlReceiveData
 307              	.LVL39:
 308              		.loc 1 768 0
 309 0100 D5F8E835 		ldr	r3, [r5, #1512]
 310 0104 EB81     		strh	r3, [r5, #14]	@ movhi
 311              		.loc 1 769 0
 312 0106 0823     		movs	r3, #8
 313 0108 2B76     		strb	r3, [r5, #24]
 314              		.loc 1 600 0
 315 010a 0120     		movs	r0, #1
 316 010c 89E7     		b	.L40
 317              	.LVL40:
 318              	.L12:
 319              		.loc 1 709 0
 320 010e 0124     		movs	r4, #1
 321 0110 4379     		ldrb	r3, [r0, #5]	@ zero_extendqisi2
 322 0112 8168     		ldr	r1, [r0, #8]
 323              	.LVL41:
 324 0114 8289     		ldrh	r2, [r0, #12]
 325 0116 0094     		str	r4, [sp]
 326 0118 FFF7FEFF 		bl	USBH_CtlSendData
 327              	.LVL42:
 328              		.loc 1 714 0
 329 011c D5F8E835 		ldr	r3, [r5, #1512]
 330 0120 EB81     		strh	r3, [r5, #14]	@ movhi
 331              		.loc 1 715 0
 332 0122 0623     		movs	r3, #6
 333              		.loc 1 600 0
 334 0124 2046     		mov	r0, r4
 335              		.loc 1 715 0
 336 0126 2B76     		strb	r3, [r5, #24]
 337 0128 7BE7     		b	.L40
 338              	.LVL43:
 339              	.L13:
 340              	.LBB43:
 341              	.LBB44:
 342              		.loc 2 208 0
ARM GAS  /tmp/ccm4MLjS.s 			page 7


 343 012a D0F8F005 		ldr	r0, [r0, #1520]
 344              	.LVL44:
 345 012e 6979     		ldrb	r1, [r5, #5]	@ zero_extendqisi2
 346              	.LVL45:
 347 0130 FFF7FEFF 		bl	HAL_HCD_HC_GetURBState
 348              	.LVL46:
 349 0134 C4B2     		uxtb	r4, r0
 350              	.LVL47:
 351              	.LBE44:
 352              	.LBE43:
 353              		.loc 1 722 0
 354 0136 012C     		cmp	r4, #1
 355 0138 4CD0     		beq	.L24
 356              		.loc 1 731 0
 357 013a 052C     		cmp	r4, #5
 358 013c 47D0     		beq	.L53
 359              		.loc 1 740 0
 360 013e 022C     		cmp	r4, #2
 361              		.loc 1 743 0
 362 0140 08BF     		it	eq
 363 0142 0523     		moveq	r3, #5
 364              		.loc 1 740 0
 365 0144 B1D0     		beq	.L43
 366              		.loc 1 749 0
 367 0146 042C     		cmp	r4, #4
 368 0148 7FF46AAF 		bne	.L25
 369              		.loc 1 752 0
 370 014c 0B23     		movs	r3, #11
 371 014e 2B76     		strb	r3, [r5, #24]
 372              	.LVL48:
 373              		.loc 1 756 0
 374 0150 D5F8F805 		ldr	r0, [r5, #1528]
 375 0154 0821     		movs	r1, #8
 376 0156 FFF7FEFF 		bl	chEvtSignal
 377              	.LVL49:
 378 015a 8DE7     		b	.L31
 379              	.LVL50:
 380              	.L16:
 381              		.loc 1 805 0
 382 015c 0124     		movs	r4, #1
 383 015e 0021     		movs	r1, #0
 384              	.LVL51:
 385 0160 4379     		ldrb	r3, [r0, #5]	@ zero_extendqisi2
 386 0162 0094     		str	r4, [sp]
 387 0164 0A46     		mov	r2, r1
 388 0166 FFF7FEFF 		bl	USBH_CtlSendData
 389              	.LVL52:
 390              		.loc 1 810 0
 391 016a D5F8E835 		ldr	r3, [r5, #1512]
 392 016e EB81     		strh	r3, [r5, #14]	@ movhi
 393              		.loc 1 811 0
 394 0170 0A23     		movs	r3, #10
 395              		.loc 1 600 0
 396 0172 2046     		mov	r0, r4
 397              		.loc 1 811 0
 398 0174 2B76     		strb	r3, [r5, #24]
 399 0176 54E7     		b	.L40
ARM GAS  /tmp/ccm4MLjS.s 			page 8


 400              	.LVL53:
 401              	.L17:
 402              	.LBB45:
 403              	.LBB46:
 404              		.loc 2 208 0
 405 0178 D0F8F005 		ldr	r0, [r0, #1520]
 406              	.LVL54:
 407 017c 6979     		ldrb	r1, [r5, #5]	@ zero_extendqisi2
 408              	.LVL55:
 409 017e FFF7FEFF 		bl	HAL_HCD_HC_GetURBState
 410              	.LVL56:
 411 0182 C0B2     		uxtb	r0, r0
 412              	.LVL57:
 413              	.LBE46:
 414              	.LBE45:
 415              		.loc 1 817 0
 416 0184 0128     		cmp	r0, #1
 417 0186 27D0     		beq	.L42
 418              		.loc 1 826 0
 419 0188 0228     		cmp	r0, #2
 420              		.loc 1 828 0
 421 018a 08BF     		it	eq
 422 018c 0923     		moveq	r3, #9
 423              		.loc 1 826 0
 424 018e 89D1     		bne	.L36
 425 0190 8BE7     		b	.L43
 426              	.LVL58:
 427              	.L15:
 428              	.LBB47:
 429              	.LBB48:
 430              		.loc 2 208 0
 431 0192 D0F8F005 		ldr	r0, [r0, #1520]
 432              	.LVL59:
 433 0196 2979     		ldrb	r1, [r5, #4]	@ zero_extendqisi2
 434              	.LVL60:
 435 0198 FFF7FEFF 		bl	HAL_HCD_HC_GetURBState
 436              	.LVL61:
 437 019c C0B2     		uxtb	r0, r0
 438              	.LVL62:
 439              	.LBE48:
 440              	.LBE47:
 441              		.loc 1 777 0
 442 019e 0128     		cmp	r0, #1
 443 01a0 1AD0     		beq	.L42
 444              		.loc 1 786 0
 445 01a2 0428     		cmp	r0, #4
 446 01a4 80D0     		beq	.L46
 447              		.loc 1 793 0
 448 01a6 0528     		cmp	r0, #5
 449 01a8 7FF43AAF 		bne	.L25
 450 01ac 9CE7     		b	.L44
 451              	.LVL63:
 452              	.L50:
 453              		.loc 1 856 0
 454 01ae FFF7FEFF 		bl	USBH_LL_Stop
 455              	.LVL64:
 456              		.loc 1 859 0
ARM GAS  /tmp/ccm4MLjS.s 			page 9


 457 01b2 0120     		movs	r0, #1
 458 01b4 2876     		strb	r0, [r5, #24]
 459              		.loc 1 860 0
 460 01b6 A870     		strb	r0, [r5, #2]
 461 01b8 33E7     		b	.L40
 462              	.LVL65:
 463              	.L51:
 464              		.loc 1 620 0
 465 01ba 2B7C     		ldrb	r3, [r5, #16]	@ zero_extendqisi2
 466              		.loc 1 623 0
 467 01bc EA8A     		ldrh	r2, [r5, #22]
 468              		.loc 1 620 0
 469 01be 23F07F03 		bic	r3, r3, #127
 470 01c2 DBB2     		uxtb	r3, r3
 471              	.LVL66:
 472              		.loc 1 623 0
 473 01c4 A2B1     		cbz	r2, .L21
 474              		.loc 1 625 0
 475 01c6 03BB     		cbnz	r3, .L54
 476              		.loc 1 633 0
 477 01c8 0523     		movs	r3, #5
 478              	.LVL67:
 479 01ca 2B76     		strb	r3, [r5, #24]
 480 01cc 6EE7     		b	.L23
 481              	.LVL68:
 482              	.L53:
 483              		.loc 1 734 0
 484 01ce 0C23     		movs	r3, #12
 485 01d0 2B76     		strb	r3, [r5, #24]
 486 01d2 89E7     		b	.L44
 487              	.LVL69:
 488              	.L24:
 489              		.loc 1 648 0
 490 01d4 0723     		movs	r3, #7
 491 01d6 68E7     		b	.L43
 492              	.L42:
 493              	.LVL70:
 494              		.loc 1 820 0
 495 01d8 0D23     		movs	r3, #13
 496 01da 2B76     		strb	r3, [r5, #24]
 497              		.loc 1 823 0
 498 01dc D5F8F805 		ldr	r0, [r5, #1528]
 499 01e0 0821     		movs	r1, #8
 500 01e2 FFF7FEFF 		bl	chEvtSignal
 501              	.LVL71:
 502              	.LBE51:
 503              	.LBE55:
 504              		.loc 1 573 0
 505 01e6 0123     		movs	r3, #1
 506              		.loc 1 574 0
 507 01e8 0020     		movs	r0, #0
 508              		.loc 1 573 0
 509 01ea AB70     		strb	r3, [r5, #2]
 510              		.loc 1 574 0
 511 01ec 2876     		strb	r0, [r5, #24]
 512              	.LVL72:
 513 01ee 18E7     		b	.L40
ARM GAS  /tmp/ccm4MLjS.s 			page 10


 514              	.LVL73:
 515              	.L21:
 516              	.LBB56:
 517              	.LBB52:
 518              		.loc 1 640 0
 519 01f0 002B     		cmp	r3, #0
 520 01f2 EFD0     		beq	.L24
 521              		.loc 1 643 0
 522 01f4 0923     		movs	r3, #9
 523              	.LVL74:
 524 01f6 2B76     		strb	r3, [r5, #24]
 525 01f8 58E7     		b	.L23
 526              	.LVL75:
 527              	.L52:
 528              		.loc 1 682 0
 529 01fa 0923     		movs	r3, #9
 530 01fc 2B76     		strb	r3, [r5, #24]
 531              		.loc 1 684 0
 532 01fe D5F8F805 		ldr	r0, [r5, #1528]
 533 0202 0821     		movs	r1, #8
 534 0204 FFF7FEFF 		bl	chEvtSignal
 535              	.LVL76:
 536 0208 0AE7     		b	.L25
 537              	.LVL77:
 538              	.L54:
 539              		.loc 1 628 0
 540 020a 0323     		movs	r3, #3
 541              	.LVL78:
 542 020c 2B76     		strb	r3, [r5, #24]
 543 020e 4DE7     		b	.L23
 544              	.L56:
 545              		.align	2
 546              	.L55:
 547 0210 00000000 		.word	.LC0
 548              	.LBE52:
 549              	.LBE56:
 550              	.LBE58:
 551              	.LBE60:
 552              		.cfi_endproc
 553              	.LFE147:
 554              		.size	USBH_CtlReq, .-USBH_CtlReq
 555              		.align	2
 556 0214 AFF30080 		.p2align 4,,15
 556      AFF30080 
 556      AFF30080 
 557              		.global	USBH_GetDescriptor
 558              		.thumb
 559              		.thumb_func
 560              		.type	USBH_GetDescriptor, %function
 561              	USBH_GetDescriptor:
 562              	.LFB136:
 563              		.loc 1 209 0
 564              		.cfi_startproc
 565              		@ args = 4, pretend = 0, frame = 0
 566              		@ frame_needed = 0, uses_anonymous_args = 0
 567              		@ link register save eliminated.
 568              	.LVL79:
ARM GAS  /tmp/ccm4MLjS.s 			page 11


 569 0220 70B4     		push	{r4, r5, r6}
 570              		.cfi_def_cfa_offset 12
 571              		.cfi_offset 4, -12
 572              		.cfi_offset 5, -8
 573              		.cfi_offset 6, -4
 574              		.loc 1 210 0
 575 0222 8578     		ldrb	r5, [r0, #2]	@ zero_extendqisi2
 576              		.loc 1 209 0
 577 0224 BDF80C40 		ldrh	r4, [sp, #12]
 578              		.loc 1 210 0
 579 0228 012D     		cmp	r5, #1
 580 022a 10D1     		bne	.L58
 581              		.loc 1 212 0
 582 022c 61F07F05 		orn	r5, r1, #127
 583              		.loc 1 216 0
 584 0230 02F47F41 		and	r1, r2, #65280
 585              	.LVL80:
 586 0234 B1F5407F 		cmp	r1, #768
 587              		.loc 1 214 0
 588 0238 4282     		strh	r2, [r0, #18]	@ movhi
 589              		.loc 1 213 0
 590 023a 4FF00606 		mov	r6, #6
 591              		.loc 1 218 0
 592 023e 0CBF     		ite	eq
 593 0240 40F20942 		movweq	r2, #1033
 594              	.LVL81:
 595              		.loc 1 222 0
 596 0244 0022     		movne	r2, #0
 597              		.loc 1 212 0
 598 0246 0574     		strb	r5, [r0, #16]
 599              		.loc 1 213 0
 600 0248 4674     		strb	r6, [r0, #17]
 601              		.loc 1 222 0
 602 024a 8282     		strh	r2, [r0, #20]	@ movhi
 603              		.loc 1 224 0
 604 024c C482     		strh	r4, [r0, #22]	@ movhi
 605              	.LVL82:
 606              	.L58:
 607              		.loc 1 226 0
 608 024e 2246     		mov	r2, r4
 609 0250 1946     		mov	r1, r3
 610              		.loc 1 227 0
 611 0252 70BC     		pop	{r4, r5, r6}
 612              		.cfi_restore 6
 613              		.cfi_restore 5
 614              		.cfi_restore 4
 615              		.cfi_def_cfa_offset 0
 616              	.LVL83:
 617              		.loc 1 226 0
 618 0254 FFF7FEBF 		b	USBH_CtlReq
 619              	.LVL84:
 620              		.cfi_endproc
 621              	.LFE136:
 622              		.size	USBH_GetDescriptor, .-USBH_GetDescriptor
 623              		.align	2
 624 0258 AFF30080 		.p2align 4,,15
 624      AFF30080 
ARM GAS  /tmp/ccm4MLjS.s 			page 12


 625              		.global	USBH_Get_DevDesc
 626              		.thumb
 627              		.thumb_func
 628              		.type	USBH_Get_DevDesc, %function
 629              	USBH_Get_DevDesc:
 630              	.LFB133:
 631              		.loc 1 113 0
 632              		.cfi_startproc
 633              		@ args = 0, pretend = 0, frame = 0
 634              		@ frame_needed = 0, uses_anonymous_args = 0
 635              	.LVL85:
 636 0260 2DE9F043 		push	{r4, r5, r6, r7, r8, r9, lr}
 637              		.cfi_def_cfa_offset 28
 638              		.cfi_offset 4, -28
 639              		.cfi_offset 5, -24
 640              		.cfi_offset 6, -20
 641              		.cfi_offset 7, -16
 642              		.cfi_offset 8, -12
 643              		.cfi_offset 9, -8
 644              		.cfi_offset 14, -4
 645 0264 83B0     		sub	sp, sp, #12
 646              		.cfi_def_cfa_offset 40
 647              		.loc 1 116 0
 648 0266 0D46     		mov	r5, r1
 649 0268 0091     		str	r1, [sp]
 650 026a 00F50773 		add	r3, r0, #540
 651 026e 0021     		movs	r1, #0
 652              	.LVL86:
 653 0270 4FF48072 		mov	r2, #256
 654              		.loc 1 113 0
 655 0274 0446     		mov	r4, r0
 656              		.loc 1 116 0
 657 0276 FFF7FEFF 		bl	USBH_GetDescriptor
 658              	.LVL87:
 659 027a 10B1     		cbz	r0, .L67
 660              	.L64:
 661              		.loc 1 126 0
 662 027c 03B0     		add	sp, sp, #12
 663              		.cfi_remember_state
 664              		.cfi_def_cfa_offset 28
 665              		@ sp needed
 666 027e BDE8F083 		pop	{r4, r5, r6, r7, r8, r9, pc}
 667              	.LVL88:
 668              	.L67:
 669              		.cfi_restore_state
 670              	.LBB63:
 671              	.LBB64:
 672              		.loc 1 339 0
 673 0282 94F81FC2 		ldrb	ip, [r4, #543]	@ zero_extendqisi2
 674 0286 94F81E32 		ldrb	r3, [r4, #542]	@ zero_extendqisi2
 675              		.loc 1 337 0
 676 028a 94F81C82 		ldrb	r8, [r4, #540]	@ zero_extendqisi2
 677              		.loc 1 338 0
 678 028e 94F81DE2 		ldrb	lr, [r4, #541]	@ zero_extendqisi2
 679              		.loc 1 340 0
 680 0292 94F82072 		ldrb	r7, [r4, #544]	@ zero_extendqisi2
 681              		.loc 1 341 0
ARM GAS  /tmp/ccm4MLjS.s 			page 13


 682 0296 94F82162 		ldrb	r6, [r4, #545]	@ zero_extendqisi2
 683              		.loc 1 342 0
 684 029a 94F82212 		ldrb	r1, [r4, #546]	@ zero_extendqisi2
 685              		.loc 1 343 0
 686 029e 94F82322 		ldrb	r2, [r4, #547]	@ zero_extendqisi2
 687              		.loc 1 337 0
 688 02a2 84F82084 		strb	r8, [r4, #1056]
 689              		.loc 1 339 0
 690 02a6 03EB0C23 		add	r3, r3, ip, lsl #8
 691              		.loc 1 345 0
 692 02aa 082D     		cmp	r5, #8
 693              		.loc 1 339 0
 694 02ac A4F82234 		strh	r3, [r4, #1058]	@ movhi
 695              		.loc 1 338 0
 696 02b0 84F821E4 		strb	lr, [r4, #1057]
 697              		.loc 1 340 0
 698 02b4 84F82474 		strb	r7, [r4, #1060]
 699              		.loc 1 341 0
 700 02b8 84F82564 		strb	r6, [r4, #1061]
 701              		.loc 1 342 0
 702 02bc 84F82614 		strb	r1, [r4, #1062]
 703              		.loc 1 343 0
 704 02c0 84F82724 		strb	r2, [r4, #1063]
 705              		.loc 1 345 0
 706 02c4 DAD9     		bls	.L64
 707              		.loc 1 348 0
 708 02c6 94F82582 		ldrb	r8, [r4, #549]	@ zero_extendqisi2
 709 02ca 94F82412 		ldrb	r1, [r4, #548]	@ zero_extendqisi2
 710              		.loc 1 349 0
 711 02ce 94F827C2 		ldrb	ip, [r4, #551]	@ zero_extendqisi2
 712 02d2 94F82622 		ldrb	r2, [r4, #550]	@ zero_extendqisi2
 713              		.loc 1 350 0
 714 02d6 94F829E2 		ldrb	lr, [r4, #553]	@ zero_extendqisi2
 715 02da 94F82832 		ldrb	r3, [r4, #552]	@ zero_extendqisi2
 716              		.loc 1 351 0
 717 02de 94F82A92 		ldrb	r9, [r4, #554]	@ zero_extendqisi2
 718              		.loc 1 352 0
 719 02e2 94F82B72 		ldrb	r7, [r4, #555]	@ zero_extendqisi2
 720              		.loc 1 353 0
 721 02e6 94F82C62 		ldrb	r6, [r4, #556]	@ zero_extendqisi2
 722              		.loc 1 354 0
 723 02ea 94F82D52 		ldrb	r5, [r4, #557]	@ zero_extendqisi2
 724              	.LVL89:
 725              		.loc 1 351 0
 726 02ee 84F82E94 		strb	r9, [r4, #1070]
 727              		.loc 1 348 0
 728 02f2 01EB0821 		add	r1, r1, r8, lsl #8
 729              		.loc 1 349 0
 730 02f6 02EB0C22 		add	r2, r2, ip, lsl #8
 731              		.loc 1 350 0
 732 02fa 03EB0E23 		add	r3, r3, lr, lsl #8
 733              		.loc 1 348 0
 734 02fe A4F82814 		strh	r1, [r4, #1064]	@ movhi
 735              		.loc 1 349 0
 736 0302 A4F82A24 		strh	r2, [r4, #1066]	@ movhi
 737              		.loc 1 350 0
 738 0306 A4F82C34 		strh	r3, [r4, #1068]	@ movhi
ARM GAS  /tmp/ccm4MLjS.s 			page 14


 739              		.loc 1 352 0
 740 030a 84F82F74 		strb	r7, [r4, #1071]
 741              		.loc 1 353 0
 742 030e 84F83064 		strb	r6, [r4, #1072]
 743              		.loc 1 354 0
 744 0312 84F83154 		strb	r5, [r4, #1073]
 745              	.LBE64:
 746              	.LBE63:
 747              		.loc 1 126 0
 748 0316 03B0     		add	sp, sp, #12
 749              		.cfi_def_cfa_offset 28
 750              		@ sp needed
 751 0318 BDE8F083 		pop	{r4, r5, r6, r7, r8, r9, pc}
 752              		.cfi_endproc
 753              	.LFE133:
 754              		.size	USBH_Get_DevDesc, .-USBH_Get_DevDesc
 755              		.align	2
 756 031c AFF30080 		.p2align 4,,15
 757              		.global	USBH_Get_CfgDesc
 758              		.thumb
 759              		.thumb_func
 760              		.type	USBH_Get_CfgDesc, %function
 761              	USBH_Get_CfgDesc:
 762              	.LFB134:
 763              		.loc 1 140 0
 764              		.cfi_startproc
 765              		@ args = 0, pretend = 0, frame = 8
 766              		@ frame_needed = 0, uses_anonymous_args = 0
 767              	.LVL90:
 768 0320 2DE9F04F 		push	{r4, r5, r6, r7, r8, r9, r10, fp, lr}
 769              		.cfi_def_cfa_offset 36
 770              		.cfi_offset 4, -36
 771              		.cfi_offset 5, -32
 772              		.cfi_offset 6, -28
 773              		.cfi_offset 7, -24
 774              		.cfi_offset 8, -20
 775              		.cfi_offset 9, -16
 776              		.cfi_offset 10, -12
 777              		.cfi_offset 11, -8
 778              		.cfi_offset 14, -4
 779 0324 85B0     		sub	sp, sp, #20
 780              		.cfi_def_cfa_offset 56
 781              		.loc 1 144 0
 782 0326 00F11C04 		add	r4, r0, #28
 783              	.LVL91:
 784              		.loc 1 148 0
 785 032a 0091     		str	r1, [sp]
 786              		.loc 1 140 0
 787 032c 0F46     		mov	r7, r1
 788              		.loc 1 148 0
 789 032e 2346     		mov	r3, r4
 790 0330 0021     		movs	r1, #0
 791              	.LVL92:
 792 0332 4FF40072 		mov	r2, #512
 793              		.loc 1 140 0
 794 0336 0546     		mov	r5, r0
 795              		.loc 1 148 0
ARM GAS  /tmp/ccm4MLjS.s 			page 15


 796 0338 FFF7FEFF 		bl	USBH_GetDescriptor
 797              	.LVL93:
 798 033c 0646     		mov	r6, r0
 799 033e 18B1     		cbz	r0, .L85
 800              	.LVL94:
 801              	.L79:
 802              		.loc 1 162 0
 803 0340 3046     		mov	r0, r6
 804 0342 05B0     		add	sp, sp, #20
 805              		.cfi_remember_state
 806              		.cfi_def_cfa_offset 36
 807              		@ sp needed
 808 0344 BDE8F08F 		pop	{r4, r5, r6, r7, r8, r9, r10, fp, pc}
 809              	.LVL95:
 810              	.L85:
 811              		.cfi_restore_state
 812              	.LBB74:
 813              	.LBB75:
 814              		.loc 1 382 0
 815 0348 95F81F90 		ldrb	r9, [r5, #31]	@ zero_extendqisi2
 816 034c AB7F     		ldrb	r3, [r5, #30]	@ zero_extendqisi2
 817              		.loc 1 380 0
 818 034e 95F81CA0 		ldrb	r10, [r5, #28]	@ zero_extendqisi2
 819              		.loc 1 381 0
 820 0352 95F81D80 		ldrb	r8, [r5, #29]	@ zero_extendqisi2
 821              		.loc 1 383 0
 822 0356 95F82010 		ldrb	r1, [r5, #32]	@ zero_extendqisi2
 823              		.loc 1 384 0
 824 035a 95F821C0 		ldrb	ip, [r5, #33]	@ zero_extendqisi2
 825              		.loc 1 385 0
 826 035e 95F822E0 		ldrb	lr, [r5, #34]	@ zero_extendqisi2
 827              		.loc 1 386 0
 828 0362 95F82300 		ldrb	r0, [r5, #35]	@ zero_extendqisi2
 829              	.LVL96:
 830              		.loc 1 387 0
 831 0366 95F82420 		ldrb	r2, [r5, #36]	@ zero_extendqisi2
 832              		.loc 1 380 0
 833 036a 85F832A4 		strb	r10, [r5, #1074]
 834              		.loc 1 382 0
 835 036e 03EB0923 		add	r3, r3, r9, lsl #8
 836              		.loc 1 389 0
 837 0372 092F     		cmp	r7, #9
 838              		.loc 1 382 0
 839 0374 A5F83434 		strh	r3, [r5, #1076]	@ movhi
 840              		.loc 1 381 0
 841 0378 85F83384 		strb	r8, [r5, #1075]
 842              		.loc 1 383 0
 843 037c 85F83614 		strb	r1, [r5, #1078]
 844              		.loc 1 384 0
 845 0380 85F837C4 		strb	ip, [r5, #1079]
 846              		.loc 1 385 0
 847 0384 85F838E4 		strb	lr, [r5, #1080]
 848              		.loc 1 386 0
 849 0388 85F83904 		strb	r0, [r5, #1081]
 850              		.loc 1 387 0
 851 038c 85F83A24 		strb	r2, [r5, #1082]
 852              		.loc 1 389 0
ARM GAS  /tmp/ccm4MLjS.s 			page 16


 853 0390 D6D9     		bls	.L79
 854              	.LBB76:
 855              		.loc 1 391 0
 856 0392 5348     		ldr	r0, .L88
 857 0394 FFF7FEFF 		bl	LogTextMessage
 858              	.LVL97:
 859 0398 B5F83404 		ldrh	r0, [r5, #1076]
 860              		.loc 1 392 0
 861 039c 4FF0090B 		mov	fp, #9
 862              		.loc 1 397 0
 863 03a0 4FF0FF09 		mov	r9, #255
 864              		.loc 1 395 0
 865 03a4 B246     		mov	r10, r6
 866              		.loc 1 394 0
 867 03a6 B046     		mov	r8, r6
 868              		.loc 1 393 0
 869 03a8 3746     		mov	r7, r6
 870              	.LVL98:
 871              	.L71:
 872              		.loc 1 399 0
 873 03aa 8345     		cmp	fp, r0
 874 03ac C8D2     		bcs	.L79
 875              	.LVL99:
 876              	.LBB77:
 877              	.LBB78:
 878              		.loc 1 529 0
 879 03ae 2378     		ldrb	r3, [r4]	@ zero_extendqisi2
 880              		.loc 1 530 0
 881 03b0 1C44     		add	r4, r4, r3
 882              	.LVL100:
 883              		.loc 1 529 0
 884 03b2 5B44     		add	r3, r3, fp
 885              	.LBE78:
 886              	.LBE77:
 887              		.loc 1 402 0
 888 03b4 6278     		ldrb	r2, [r4, #1]	@ zero_extendqisi2
 889 03b6 042A     		cmp	r2, #4
 890              	.LBB80:
 891              	.LBB79:
 892              		.loc 1 529 0
 893 03b8 1FFA83FB 		uxth	fp, r3
 894              	.LVL101:
 895              	.LBE79:
 896              	.LBE80:
 897              		.loc 1 402 0
 898 03bc 39D0     		beq	.L86
 899              		.loc 1 424 0
 900 03be 052A     		cmp	r2, #5
 901 03c0 F3D1     		bne	.L71
 902              		.loc 1 426 0
 903 03c2 4FFA89F1 		sxtb	r1, r9
 904 03c6 4B1C     		adds	r3, r1, #1
 905 03c8 EFD0     		beq	.L71
 906 03ca 002F     		cmp	r7, #0
 907 03cc EDD0     		beq	.L71
 908 03ce 3B79     		ldrb	r3, [r7, #4]	@ zero_extendqisi2
 909 03d0 4FFA8AF2 		sxtb	r2, r10
ARM GAS  /tmp/ccm4MLjS.s 			page 17


 910 03d4 9A42     		cmp	r2, r3
 911 03d6 E8DA     		bge	.L71
 912 03d8 052A     		cmp	r2, #5
 913 03da E6DC     		bgt	.L71
 914              	.LVL102:
 915              	.LBB81:
 916              	.LBB82:
 917              		.loc 1 472 0
 918 03dc 3A20     		movs	r0, #58
 919 03de 00FB01F3 		mul	r3, r0, r1
 920 03e2 501C     		adds	r0, r2, #1
 921              	.LVL103:
 922 03e4 03EBC000 		add	r0, r3, r0, lsl #3
 923              	.LVL104:
 924 03e8 2844     		add	r0, r0, r5
 925 03ea 2378     		ldrb	r3, [r4]	@ zero_extendqisi2
 926 03ec 80F83E34 		strb	r3, [r0, #1086]
 927              		.loc 1 473 0
 928 03f0 6378     		ldrb	r3, [r4, #1]	@ zero_extendqisi2
 929 03f2 80F83F34 		strb	r3, [r0, #1087]
 930              		.loc 1 474 0
 931 03f6 A378     		ldrb	r3, [r4, #2]	@ zero_extendqisi2
 932 03f8 80F84034 		strb	r3, [r0, #1088]
 933              		.loc 1 475 0
 934 03fc E378     		ldrb	r3, [r4, #3]	@ zero_extendqisi2
 935 03fe 80F84134 		strb	r3, [r0, #1089]
 936              		.loc 1 476 0
 937 0402 94F805C0 		ldrb	ip, [r4, #5]	@ zero_extendqisi2
 938 0406 94F804E0 		ldrb	lr, [r4, #4]	@ zero_extendqisi2
 939              	.LBE82:
 940              	.LBE81:
 941              		.loc 1 430 0
 942 040a 90F84034 		ldrb	r3, [r0, #1088]	@ zero_extendqisi2
 943              	.LBB84:
 944              	.LBB83:
 945              		.loc 1 476 0
 946 040e 0EEB0C2E 		add	lr, lr, ip, lsl #8
 947 0412 A0F842E4 		strh	lr, [r0, #1090]	@ movhi
 948              		.loc 1 477 0
 949 0416 94F806E0 		ldrb	lr, [r4, #6]	@ zero_extendqisi2
 950 041a 80F844E4 		strb	lr, [r0, #1092]
 951              	.LBE83:
 952              	.LBE84:
 953              		.loc 1 431 0
 954 041e 0AF1010A 		add	r10, r10, #1
 955              	.LVL105:
 956              		.loc 1 430 0
 957 0422 3048     		ldr	r0, .L88+4
 958 0424 FFF7FEFF 		bl	LogTextMessage
 959              	.LVL106:
 960              		.loc 1 431 0
 961 0428 5FFA8AFA 		uxtb	r10, r10
 962              	.LVL107:
 963 042c B5F83404 		ldrh	r0, [r5, #1076]
 964 0430 BBE7     		b	.L71
 965              	.LVL108:
 966              	.L86:
ARM GAS  /tmp/ccm4MLjS.s 			page 18


 967              		.loc 1 404 0
 968 0432 4FFA88F9 		sxtb	r9, r8
 969              	.LVL109:
 970 0436 B9F1050F 		cmp	r9, #5
 971 043a 02DD     		ble	.L87
 972              		.loc 1 421 0
 973 043c 4FF0FF09 		mov	r9, #255
 974 0440 B3E7     		b	.L71
 975              	.L87:
 976              		.loc 1 406 0
 977 0442 3A27     		movs	r7, #58
 978              	.LVL110:
 979 0444 07FB09F7 		mul	r7, r7, r9
 980              	.LBB85:
 981              	.LBB86:
 982              		.loc 1 450 0
 983 0448 EB19     		adds	r3, r5, r7
 984 044a 2278     		ldrb	r2, [r4]	@ zero_extendqisi2
 985 044c 83F83C24 		strb	r2, [r3, #1084]
 986              		.loc 1 451 0
 987 0450 6278     		ldrb	r2, [r4, #1]	@ zero_extendqisi2
 988 0452 83F83D24 		strb	r2, [r3, #1085]
 989              		.loc 1 452 0
 990 0456 A278     		ldrb	r2, [r4, #2]	@ zero_extendqisi2
 991 0458 83F83E24 		strb	r2, [r3, #1086]
 992              		.loc 1 453 0
 993 045c E278     		ldrb	r2, [r4, #3]	@ zero_extendqisi2
 994 045e 83F83F24 		strb	r2, [r3, #1087]
 995              		.loc 1 454 0
 996 0462 2279     		ldrb	r2, [r4, #4]	@ zero_extendqisi2
 997 0464 83F84024 		strb	r2, [r3, #1088]
 998              		.loc 1 455 0
 999 0468 6279     		ldrb	r2, [r4, #5]	@ zero_extendqisi2
 1000 046a 83F84124 		strb	r2, [r3, #1089]
 1001              		.loc 1 456 0
 1002 046e A279     		ldrb	r2, [r4, #6]	@ zero_extendqisi2
 1003 0470 83F84224 		strb	r2, [r3, #1090]
 1004              		.loc 1 457 0
 1005 0474 E279     		ldrb	r2, [r4, #7]	@ zero_extendqisi2
 1006 0476 83F84324 		strb	r2, [r3, #1091]
 1007              		.loc 1 450 0
 1008 047a 03F23A41 		addw	r1, r3, #1082
 1009              		.loc 1 458 0
 1010 047e 227A     		ldrb	r2, [r4, #8]	@ zero_extendqisi2
 1011              	.LBE86:
 1012              	.LBE85:
 1013              		.loc 1 412 0
 1014 0480 93F84104 		ldrb	r0, [r3, #1089]	@ zero_extendqisi2
 1015              	.LBB88:
 1016              	.LBB87:
 1017              		.loc 1 458 0
 1018 0484 83F84424 		strb	r2, [r3, #1092]
 1019              	.LBE87:
 1020              	.LBE88:
 1021              		.loc 1 412 0
 1022 0488 0A79     		ldrb	r2, [r1, #4]	@ zero_extendqisi2
 1023 048a 93F84034 		ldrb	r3, [r3, #1088]	@ zero_extendqisi2
ARM GAS  /tmp/ccm4MLjS.s 			page 19


 1024 048e 0090     		str	r0, [sp]
 1025 0490 097A     		ldrb	r1, [r1, #8]	@ zero_extendqisi2
 1026 0492 0191     		str	r1, [sp, #4]
 1027 0494 1448     		ldr	r0, .L88+8
 1028 0496 4946     		mov	r1, r9
 1029 0498 FFF7FEFF 		bl	LogTextMessage
 1030              	.LVL111:
 1031              		.loc 1 413 0
 1032 049c 95F83624 		ldrb	r2, [r5, #1078]	@ zero_extendqisi2
 1033              		.loc 1 411 0
 1034 04a0 08F1010A 		add	r10, r8, #1
 1035              	.LVL112:
 1036              		.loc 1 406 0
 1037 04a4 2F44     		add	r7, r7, r5
 1038              		.loc 1 411 0
 1039 04a6 5FFA8AFA 		uxtb	r10, r10
 1040              		.loc 1 413 0
 1041 04aa 9145     		cmp	r9, r2
 1042              		.loc 1 406 0
 1043 04ac 07F23C47 		addw	r7, r7, #1084
 1044              	.LVL113:
 1045              		.loc 1 411 0
 1046 04b0 5FFA8AF3 		uxtb	r3, r10
 1047              	.LVL114:
 1048              		.loc 1 413 0
 1049 04b4 06DA     		bge	.L74
 1050 04b6 C146     		mov	r9, r8
 1051 04b8 B5F83404 		ldrh	r0, [r5, #1076]
 1052              		.loc 1 411 0
 1053 04bc 9846     		mov	r8, r3
 1054              	.LVL115:
 1055              		.loc 1 409 0
 1056 04be 4FF0000A 		mov	r10, #0
 1057 04c2 72E7     		b	.L71
 1058              	.LVL116:
 1059              	.L74:
 1060              		.loc 1 415 0
 1061 04c4 0948     		ldr	r0, .L88+12
 1062 04c6 0393     		str	r3, [sp, #12]
 1063 04c8 FFF7FEFF 		bl	LogTextMessage
 1064              	.LVL117:
 1065              		.loc 1 411 0
 1066 04cc 039B     		ldr	r3, [sp, #12]
 1067              		.loc 1 416 0
 1068 04ce 85F836A4 		strb	r10, [r5, #1078]
 1069 04d2 C146     		mov	r9, r8
 1070 04d4 B5F83404 		ldrh	r0, [r5, #1076]
 1071              		.loc 1 411 0
 1072 04d8 9846     		mov	r8, r3
 1073              	.LVL118:
 1074              		.loc 1 409 0
 1075 04da 4FF0000A 		mov	r10, #0
 1076 04de 64E7     		b	.L71
 1077              	.L89:
 1078              		.align	2
 1079              	.L88:
 1080 04e0 10000000 		.word	.LC1
ARM GAS  /tmp/ccm4MLjS.s 			page 20


 1081 04e4 C0000000 		.word	.LC4
 1082 04e8 2C000000 		.word	.LC2
 1083 04ec 70000000 		.word	.LC3
 1084              	.LBE76:
 1085              	.LBE75:
 1086              	.LBE74:
 1087              		.cfi_endproc
 1088              	.LFE134:
 1089              		.size	USBH_Get_CfgDesc, .-USBH_Get_CfgDesc
 1090              		.align	2
 1091              		.p2align 4,,15
 1092              		.global	USBH_Get_StringDesc
 1093              		.thumb
 1094              		.thumb_func
 1095              		.type	USBH_Get_StringDesc, %function
 1096              	USBH_Get_StringDesc:
 1097              	.LFB135:
 1098              		.loc 1 179 0
 1099              		.cfi_startproc
 1100              		@ args = 0, pretend = 0, frame = 0
 1101              		@ frame_needed = 0, uses_anonymous_args = 0
 1102              	.LVL119:
 1103 04f0 F0B5     		push	{r4, r5, r6, r7, lr}
 1104              		.cfi_def_cfa_offset 20
 1105              		.cfi_offset 4, -20
 1106              		.cfi_offset 5, -16
 1107              		.cfi_offset 6, -12
 1108              		.cfi_offset 7, -8
 1109              		.cfi_offset 14, -4
 1110 04f2 83B0     		sub	sp, sp, #12
 1111              		.cfi_def_cfa_offset 32
 1112              		.loc 1 181 0
 1113 04f4 41F44071 		orr	r1, r1, #768
 1114              	.LVL120:
 1115              		.loc 1 184 0
 1116 04f8 00F50776 		add	r6, r0, #540
 1117              		.loc 1 179 0
 1118 04fc 1D46     		mov	r5, r3
 1119              		.loc 1 181 0
 1120 04fe 0093     		str	r3, [sp]
 1121              		.loc 1 179 0
 1122 0500 1446     		mov	r4, r2
 1123              		.loc 1 181 0
 1124 0502 3346     		mov	r3, r6
 1125              	.LVL121:
 1126 0504 0A46     		mov	r2, r1
 1127              	.LVL122:
 1128 0506 0021     		movs	r1, #0
 1129              		.loc 1 179 0
 1130 0508 0746     		mov	r7, r0
 1131              		.loc 1 181 0
 1132 050a FFF7FEFF 		bl	USBH_GetDescriptor
 1133              	.LVL123:
 1134 050e 18B9     		cbnz	r0, .L91
 1135              	.LVL124:
 1136              	.LBB89:
 1137              	.LBB90:
ARM GAS  /tmp/ccm4MLjS.s 			page 21


 1138              		.loc 1 502 0
 1139 0510 97F81D32 		ldrb	r3, [r7, #541]	@ zero_extendqisi2
 1140 0514 032B     		cmp	r3, #3
 1141 0516 01D0     		beq	.L99
 1142              	.LVL125:
 1143              	.L91:
 1144              	.LBE90:
 1145              	.LBE89:
 1146              		.loc 1 191 0
 1147 0518 03B0     		add	sp, sp, #12
 1148              		.cfi_remember_state
 1149              		.cfi_def_cfa_offset 20
 1150              		@ sp needed
 1151 051a F0BD     		pop	{r4, r5, r6, r7, pc}
 1152              	.LVL126:
 1153              	.L99:
 1154              		.cfi_restore_state
 1155              	.LBB92:
 1156              	.LBB91:
 1157              		.loc 1 506 0
 1158 051c 97F81C32 		ldrb	r3, [r7, #540]	@ zero_extendqisi2
 1159 0520 023B     		subs	r3, r3, #2
 1160 0522 9D42     		cmp	r5, r3
 1161 0524 A8BF     		it	ge
 1162 0526 1D46     		movge	r5, r3
 1163              	.LVL127:
 1164 0528 ABB2     		uxth	r3, r5
 1165              	.LVL128:
 1166              		.loc 1 509 0
 1167 052a 43B1     		cbz	r3, .L92
 1168 052c 0246     		mov	r2, r0
 1169              	.LVL129:
 1170              	.L93:
 1171              		.loc 1 511 0
 1172 052e B118     		adds	r1, r6, r2
 1173              		.loc 1 509 0
 1174 0530 0232     		adds	r2, r2, #2
 1175              	.LVL130:
 1176 0532 92B2     		uxth	r2, r2
 1177              		.loc 1 511 0
 1178 0534 8978     		ldrb	r1, [r1, #2]	@ zero_extendqisi2
 1179 0536 04F8011B 		strb	r1, [r4], #1
 1180              	.LVL131:
 1181              		.loc 1 509 0
 1182 053a 9342     		cmp	r3, r2
 1183 053c F7D8     		bhi	.L93
 1184              	.LVL132:
 1185              	.L92:
 1186              		.loc 1 514 0
 1187 053e 0023     		movs	r3, #0
 1188              	.LVL133:
 1189 0540 2370     		strb	r3, [r4]
 1190              	.LBE91:
 1191              	.LBE92:
 1192              		.loc 1 191 0
 1193 0542 03B0     		add	sp, sp, #12
 1194              		.cfi_def_cfa_offset 20
ARM GAS  /tmp/ccm4MLjS.s 			page 22


 1195              		@ sp needed
 1196 0544 F0BD     		pop	{r4, r5, r6, r7, pc}
 1197              		.cfi_endproc
 1198              	.LFE135:
 1199              		.size	USBH_Get_StringDesc, .-USBH_Get_StringDesc
 1200 0546 00BF     		.align	2
 1201 0548 AFF30080 		.p2align 4,,15
 1201      AFF30080 
 1202              		.global	USBH_SetAddress
 1203              		.thumb
 1204              		.thumb_func
 1205              		.type	USBH_SetAddress, %function
 1206              	USBH_SetAddress:
 1207              	.LFB137:
 1208              		.loc 1 238 0
 1209              		.cfi_startproc
 1210              		@ args = 0, pretend = 0, frame = 0
 1211              		@ frame_needed = 0, uses_anonymous_args = 0
 1212              		@ link register save eliminated.
 1213              	.LVL134:
 1214              		.loc 1 239 0
 1215 0550 8378     		ldrb	r3, [r0, #2]	@ zero_extendqisi2
 1216 0552 012B     		cmp	r3, #1
 1217 0554 06D1     		bne	.L101
 1218              		.loc 1 241 0
 1219 0556 0023     		movs	r3, #0
 1220              		.loc 1 244 0
 1221 0558 0522     		movs	r2, #5
 1222              		.loc 1 246 0
 1223 055a 4182     		strh	r1, [r0, #18]	@ movhi
 1224              		.loc 1 241 0
 1225 055c 0374     		strb	r3, [r0, #16]
 1226              		.loc 1 247 0
 1227 055e 8382     		strh	r3, [r0, #20]	@ movhi
 1228              		.loc 1 248 0
 1229 0560 C382     		strh	r3, [r0, #22]	@ movhi
 1230              		.loc 1 244 0
 1231 0562 4274     		strb	r2, [r0, #17]
 1232              	.L101:
 1233              		.loc 1 250 0
 1234 0564 0021     		movs	r1, #0
 1235              	.LVL135:
 1236 0566 0A46     		mov	r2, r1
 1237 0568 FFF7FEBF 		b	USBH_CtlReq
 1238              	.LVL136:
 1239              		.cfi_endproc
 1240              	.LFE137:
 1241              		.size	USBH_SetAddress, .-USBH_SetAddress
 1242              		.align	2
 1243 056c AFF30080 		.p2align 4,,15
 1244              		.global	USBH_SetCfg
 1245              		.thumb
 1246              		.thumb_func
 1247              		.type	USBH_SetCfg, %function
 1248              	USBH_SetCfg:
 1249              	.LFB138:
 1250              		.loc 1 262 0
ARM GAS  /tmp/ccm4MLjS.s 			page 23


 1251              		.cfi_startproc
 1252              		@ args = 0, pretend = 0, frame = 0
 1253              		@ frame_needed = 0, uses_anonymous_args = 0
 1254              		@ link register save eliminated.
 1255              	.LVL137:
 1256              		.loc 1 263 0
 1257 0570 8378     		ldrb	r3, [r0, #2]	@ zero_extendqisi2
 1258 0572 012B     		cmp	r3, #1
 1259 0574 06D1     		bne	.L103
 1260              		.loc 1 265 0
 1261 0576 0023     		movs	r3, #0
 1262              		.loc 1 267 0
 1263 0578 0922     		movs	r2, #9
 1264              		.loc 1 268 0
 1265 057a 4182     		strh	r1, [r0, #18]	@ movhi
 1266              		.loc 1 265 0
 1267 057c 0374     		strb	r3, [r0, #16]
 1268              		.loc 1 269 0
 1269 057e 8382     		strh	r3, [r0, #20]	@ movhi
 1270              		.loc 1 270 0
 1271 0580 C382     		strh	r3, [r0, #22]	@ movhi
 1272              		.loc 1 267 0
 1273 0582 4274     		strb	r2, [r0, #17]
 1274              	.L103:
 1275              		.loc 1 273 0
 1276 0584 0021     		movs	r1, #0
 1277              	.LVL138:
 1278 0586 0A46     		mov	r2, r1
 1279 0588 FFF7FEBF 		b	USBH_CtlReq
 1280              	.LVL139:
 1281              		.cfi_endproc
 1282              	.LFE138:
 1283              		.size	USBH_SetCfg, .-USBH_SetCfg
 1284              		.align	2
 1285 058c AFF30080 		.p2align 4,,15
 1286              		.global	USBH_SetInterface
 1287              		.thumb
 1288              		.thumb_func
 1289              		.type	USBH_SetInterface, %function
 1290              	USBH_SetInterface:
 1291              	.LFB139:
 1292              		.loc 1 285 0
 1293              		.cfi_startproc
 1294              		@ args = 0, pretend = 0, frame = 0
 1295              		@ frame_needed = 0, uses_anonymous_args = 0
 1296              		@ link register save eliminated.
 1297              	.LVL140:
 1298              		.loc 1 287 0
 1299 0590 8378     		ldrb	r3, [r0, #2]	@ zero_extendqisi2
 1300 0592 012B     		cmp	r3, #1
 1301 0594 03D0     		beq	.L108
 1302              		.loc 1 297 0
 1303 0596 0021     		movs	r1, #0
 1304              	.LVL141:
 1305 0598 0A46     		mov	r2, r1
 1306              	.LVL142:
 1307 059a FFF7FEBF 		b	USBH_CtlReq
ARM GAS  /tmp/ccm4MLjS.s 			page 24


 1308              	.LVL143:
 1309              	.L108:
 1310              		.loc 1 285 0
 1311 059e 30B4     		push	{r4, r5}
 1312              		.cfi_def_cfa_offset 8
 1313              		.cfi_offset 4, -8
 1314              		.cfi_offset 5, -4
 1315              		.loc 1 292 0
 1316 05a0 0B25     		movs	r5, #11
 1317              		.loc 1 295 0
 1318 05a2 0024     		movs	r4, #0
 1319              		.loc 1 293 0
 1320 05a4 4282     		strh	r2, [r0, #18]	@ movhi
 1321              		.loc 1 294 0
 1322 05a6 8182     		strh	r1, [r0, #20]	@ movhi
 1323              		.loc 1 289 0
 1324 05a8 0374     		strb	r3, [r0, #16]
 1325              		.loc 1 292 0
 1326 05aa 4574     		strb	r5, [r0, #17]
 1327              		.loc 1 295 0
 1328 05ac C482     		strh	r4, [r0, #22]	@ movhi
 1329              		.loc 1 297 0
 1330 05ae 0021     		movs	r1, #0
 1331              	.LVL144:
 1332 05b0 0A46     		mov	r2, r1
 1333              	.LVL145:
 1334              		.loc 1 298 0
 1335 05b2 30BC     		pop	{r4, r5}
 1336              		.cfi_restore 5
 1337              		.cfi_restore 4
 1338              		.cfi_def_cfa_offset 0
 1339              		.loc 1 297 0
 1340 05b4 FFF7FEBF 		b	USBH_CtlReq
 1341              	.LVL146:
 1342              		.cfi_endproc
 1343              	.LFE139:
 1344              		.size	USBH_SetInterface, .-USBH_SetInterface
 1345              		.align	2
 1346 05b8 AFF30080 		.p2align 4,,15
 1346      AFF30080 
 1347              		.global	USBH_ClrFeature
 1348              		.thumb
 1349              		.thumb_func
 1350              		.type	USBH_ClrFeature, %function
 1351              	USBH_ClrFeature:
 1352              	.LFB140:
 1353              		.loc 1 310 0
 1354              		.cfi_startproc
 1355              		@ args = 0, pretend = 0, frame = 0
 1356              		@ frame_needed = 0, uses_anonymous_args = 0
 1357              		@ link register save eliminated.
 1358              	.LVL147:
 1359              		.loc 1 311 0
 1360 05c0 8378     		ldrb	r3, [r0, #2]	@ zero_extendqisi2
 1361 05c2 012B     		cmp	r3, #1
 1362 05c4 03D0     		beq	.L113
 1363              		.loc 1 322 0
ARM GAS  /tmp/ccm4MLjS.s 			page 25


 1364 05c6 0021     		movs	r1, #0
 1365              	.LVL148:
 1366 05c8 0A46     		mov	r2, r1
 1367 05ca FFF7FEBF 		b	USBH_CtlReq
 1368              	.LVL149:
 1369              	.L113:
 1370              		.loc 1 310 0
 1371 05ce 10B4     		push	{r4}
 1372              		.cfi_def_cfa_offset 4
 1373              		.cfi_offset 4, -4
 1374              		.loc 1 318 0
 1375 05d0 0022     		movs	r2, #0
 1376              		.loc 1 313 0
 1377 05d2 0224     		movs	r4, #2
 1378              		.loc 1 319 0
 1379 05d4 8182     		strh	r1, [r0, #20]	@ movhi
 1380              		.loc 1 318 0
 1381 05d6 4282     		strh	r2, [r0, #18]	@ movhi
 1382              		.loc 1 320 0
 1383 05d8 C282     		strh	r2, [r0, #22]	@ movhi
 1384              		.loc 1 317 0
 1385 05da 4374     		strb	r3, [r0, #17]
 1386              		.loc 1 313 0
 1387 05dc 0474     		strb	r4, [r0, #16]
 1388              		.loc 1 322 0
 1389 05de 0021     		movs	r1, #0
 1390              	.LVL150:
 1391 05e0 0A46     		mov	r2, r1
 1392              		.loc 1 323 0
 1393 05e2 5DF8044B 		ldr	r4, [sp], #4
 1394              		.cfi_restore 4
 1395              		.cfi_def_cfa_offset 0
 1396              		.loc 1 322 0
 1397 05e6 FFF7FEBF 		b	USBH_CtlReq
 1398              	.LVL151:
 1399              		.cfi_endproc
 1400              	.LFE140:
 1401              		.size	USBH_ClrFeature, .-USBH_ClrFeature
 1402              		.section	.rodata.str1.4,"aMS",%progbits,1
 1403              		.align	2
 1404              	.LC0:
 1405 0000 436F6E74 		.ascii	"Control error\000"
 1405      726F6C20 
 1405      6572726F 
 1405      7200
 1406 000e 0000     		.space	2
 1407              	.LC1:
 1408 0010 63666720 		.ascii	"cfg desc: num interfaces %u\000"
 1408      64657363 
 1408      3A206E75 
 1408      6D20696E 
 1408      74657266 
 1409              	.LC2:
 1410 002c 696E7465 		.ascii	"interface: interface %u, num %u, numep %u, class %x"
 1410      72666163 
 1410      653A2069 
 1410      6E746572 
ARM GAS  /tmp/ccm4MLjS.s 			page 26


 1410      66616365 
 1411 005f 202C2073 		.ascii	" , sub class %x\000"
 1411      75622063 
 1411      6C617373 
 1411      20257800 
 1412 006f 00       		.space	1
 1413              	.LC3:
 1414 0070 696E7465 		.ascii	"interface: more interfaces described, that config d"
 1414      72666163 
 1414      653A206D 
 1414      6F726520 
 1414      696E7465 
 1415 00a3 65746169 		.ascii	"etailed, use actual number\000"
 1415      6C65642C 
 1415      20757365 
 1415      20616374 
 1415      75616C20 
 1416 00be 0000     		.space	2
 1417              	.LC4:
 1418 00c0 656E6470 		.ascii	"endpoint: interface %u, ep num %u, addr  %x\000"
 1418      6F696E74 
 1418      3A20696E 
 1418      74657266 
 1418      61636520 
 1419              		.text
 1420              	.Letext0:
 1421              		.file 3 "/home/sbcu/Dropbox/pcb-layouts/axo-on-discovery-board/axoloti/platform_linux/arm-none-eab
 1422              		.file 4 "/home/sbcu/Dropbox/pcb-layouts/axo-on-discovery-board/axoloti/platform_linux/arm-none-eab
 1423              		.file 5 "/home/sbcu/Dropbox/pcb-layouts/axo-on-discovery-board/axoloti/platform_linux/../chibios/o
 1424              		.file 6 "/home/sbcu/Dropbox/pcb-layouts/axo-on-discovery-board/axoloti/platform_linux/../chibios/o
 1425              		.file 7 "/home/sbcu/Dropbox/pcb-layouts/axo-on-discovery-board/axoloti/platform_linux/../chibios/o
 1426              		.file 8 "/home/sbcu/Dropbox/pcb-layouts/axo-on-discovery-board/axoloti/platform_linux/../chibios/o
 1427              		.file 9 "/home/sbcu/Dropbox/pcb-layouts/axo-on-discovery-board/axoloti/platform_linux/../chibios/o
 1428              		.file 10 "./STM32_USB_Host_Library/Core/Inc/usbh_def.h"
 1429              		.file 11 "./STM32_USB_Host_Library/Core/Inc/usbh_ioreq.h"
 1430              		.file 12 "/home/sbcu/Dropbox/pcb-layouts/axo-on-discovery-board/axoloti/platform_linux/../chibios/
 1431              		.file 13 "./STM32_USB_Host_Library/Core/Inc/usbh_core.h"
 1432              		.file 14 "/home/sbcu/Dropbox/pcb-layouts/axo-on-discovery-board/axoloti/platform_linux/../CMSIS//I