ARM GAS  /tmp/ccxyKTeE.s 			page 1


   1              		.syntax unified
   2              		.cpu cortex-m4
   3              		.eabi_attribute 27, 1
   4              		.eabi_attribute 28, 1
   5              		.fpu fpv4-sp-d16
   6              		.eabi_attribute 20, 1
   7              		.eabi_attribute 21, 1
   8              		.eabi_attribute 23, 3
   9              		.eabi_attribute 24, 1
  10              		.eabi_attribute 25, 1
  11              		.eabi_attribute 26, 1
  12              		.eabi_attribute 30, 2
  13              		.eabi_attribute 34, 1
  14              		.eabi_attribute 18, 4
  15              		.thumb
  16              		.file	"usbh_pipes.c"
  17              		.text
  18              	.Ltext0:
  19              		.cfi_sections	.debug_frame
  20              		.align	2
  21              		.p2align 4,,15
  22              		.global	USBH_OpenPipe
  23              		.thumb
  24              		.thumb_func
  25              		.type	USBH_OpenPipe, %function
  26              	USBH_OpenPipe:
  27              	.LFB133:
  28              		.file 1 "./STM32_USB_Host_Library/Core/Src/usbh_pipes.c"
  29              		.loc 1 100 0
  30              		.cfi_startproc
  31              		@ args = 12, pretend = 0, frame = 0
  32              		@ frame_needed = 0, uses_anonymous_args = 0
  33              	.LVL0:
  34 0000 70B5     		push	{r4, r5, r6, lr}
  35              		.cfi_def_cfa_offset 16
  36              		.cfi_offset 4, -16
  37              		.cfi_offset 5, -12
  38              		.cfi_offset 6, -8
  39              		.cfi_offset 14, -4
  40 0002 84B0     		sub	sp, sp, #16
  41              		.cfi_def_cfa_offset 32
  42              		.loc 1 100 0
  43 0004 9DF82060 		ldrb	r6, [sp, #32]	@ zero_extendqisi2
  44 0008 9DF82450 		ldrb	r5, [sp, #36]	@ zero_extendqisi2
  45 000c BDF82840 		ldrh	r4, [sp, #40]
  46              		.loc 1 102 0
  47 0010 0096     		str	r6, [sp]
  48 0012 0195     		str	r5, [sp, #4]
  49 0014 0294     		str	r4, [sp, #8]
  50 0016 FFF7FEFF 		bl	USBH_LL_OpenPipe
  51              	.LVL1:
  52              		.loc 1 112 0
  53 001a 0020     		movs	r0, #0
  54 001c 04B0     		add	sp, sp, #16
  55              		.cfi_def_cfa_offset 16
  56              		@ sp needed
  57 001e 70BD     		pop	{r4, r5, r6, pc}
ARM GAS  /tmp/ccxyKTeE.s 			page 2


  58              		.cfi_endproc
  59              	.LFE133:
  60              		.size	USBH_OpenPipe, .-USBH_OpenPipe
  61              		.align	2
  62              		.p2align 4,,15
  63              		.global	USBH_ClosePipe
  64              		.thumb
  65              		.thumb_func
  66              		.type	USBH_ClosePipe, %function
  67              	USBH_ClosePipe:
  68              	.LFB134:
  69              		.loc 1 123 0
  70              		.cfi_startproc
  71              		@ args = 0, pretend = 0, frame = 0
  72              		@ frame_needed = 0, uses_anonymous_args = 0
  73              	.LVL2:
  74 0020 08B5     		push	{r3, lr}
  75              		.cfi_def_cfa_offset 8
  76              		.cfi_offset 3, -8
  77              		.cfi_offset 14, -4
  78              		.loc 1 125 0
  79 0022 FFF7FEFF 		bl	USBH_LL_ClosePipe
  80              	.LVL3:
  81              		.loc 1 129 0
  82 0026 0020     		movs	r0, #0
  83 0028 08BD     		pop	{r3, pc}
  84              		.cfi_endproc
  85              	.LFE134:
  86              		.size	USBH_ClosePipe, .-USBH_ClosePipe
  87 002a 00BF     		.align	2
  88 002c AFF30080 		.p2align 4,,15
  89              		.global	USBH_AllocPipe
  90              		.thumb
  91              		.thumb_func
  92              		.type	USBH_AllocPipe, %function
  93              	USBH_AllocPipe:
  94              	.LFB135:
  95              		.loc 1 139 0
  96              		.cfi_startproc
  97              		@ args = 0, pretend = 0, frame = 0
  98              		@ frame_needed = 0, uses_anonymous_args = 0
  99              		@ link register save eliminated.
 100              	.LVL4:
 101 0030 30B4     		push	{r4, r5}
 102              		.cfi_def_cfa_offset 8
 103              		.cfi_offset 4, -8
 104              		.cfi_offset 5, -4
 105 0032 00F5B562 		add	r2, r0, #1448
 106              		.loc 1 139 0
 107 0036 0023     		movs	r3, #0
 108              	.LVL5:
 109              	.L8:
 110              	.LBB4:
 111              	.LBB5:
 112              		.loc 1 179 0
 113 0038 52F8044F 		ldr	r4, [r2, #4]!
 114 003c 2404     		lsls	r4, r4, #16
ARM GAS  /tmp/ccxyKTeE.s 			page 3


 115 003e DDB2     		uxtb	r5, r3
 116              	.LVL6:
 117 0040 05D5     		bpl	.L12
 118 0042 0133     		adds	r3, r3, #1
 119              		.loc 1 177 0
 120 0044 0B2B     		cmp	r3, #11
 121 0046 F7D1     		bne	.L8
 122 0048 FF20     		movs	r0, #255
 123              	.LVL7:
 124              	.LBE5:
 125              	.LBE4:
 126              		.loc 1 149 0
 127 004a 30BC     		pop	{r4, r5}
 128              		.cfi_remember_state
 129              		.cfi_restore 5
 130              		.cfi_restore 4
 131              		.cfi_def_cfa_offset 0
 132              	.LVL8:
 133 004c 7047     		bx	lr
 134              	.LVL9:
 135              	.L12:
 136              		.cfi_restore_state
 137              		.loc 1 146 0
 138 004e 00EB8303 		add	r3, r0, r3, lsl #2
 139 0052 41F40041 		orr	r1, r1, #32768
 140              	.LVL10:
 141 0056 2846     		mov	r0, r5
 142              	.LVL11:
 143 0058 C3F8AC15 		str	r1, [r3, #1452]
 144              		.loc 1 149 0
 145 005c 30BC     		pop	{r4, r5}
 146              		.cfi_restore 4
 147              		.cfi_restore 5
 148              		.cfi_def_cfa_offset 0
 149              	.LVL12:
 150 005e 7047     		bx	lr
 151              		.cfi_endproc
 152              	.LFE135:
 153              		.size	USBH_AllocPipe, .-USBH_AllocPipe
 154              		.align	2
 155              		.p2align 4,,15
 156              		.global	USBH_FreePipe
 157              		.thumb
 158              		.thumb_func
 159              		.type	USBH_FreePipe, %function
 160              	USBH_FreePipe:
 161              	.LFB136:
 162              		.loc 1 159 0
 163              		.cfi_startproc
 164              		@ args = 0, pretend = 0, frame = 0
 165              		@ frame_needed = 0, uses_anonymous_args = 0
 166              		@ link register save eliminated.
 167              	.LVL13:
 168              		.loc 1 160 0
 169 0060 0A29     		cmp	r1, #10
 170 0062 07D8     		bhi	.L14
 171 0064 00EB8100 		add	r0, r0, r1, lsl #2
ARM GAS  /tmp/ccxyKTeE.s 			page 4


 172              	.LVL14:
 173              		.loc 1 162 0
 174 0068 D0F8AC35 		ldr	r3, [r0, #1452]
 175 006c C3F30E03 		ubfx	r3, r3, #0, #15
 176 0070 C0F8AC35 		str	r3, [r0, #1452]
 177              	.L14:
 178              		.loc 1 165 0
 179 0074 0020     		movs	r0, #0
 180 0076 7047     		bx	lr
 181              		.cfi_endproc
 182              	.LFE136:
 183              		.size	USBH_FreePipe, .-USBH_FreePipe
 184              	.Letext0:
 185              		.file 2 "/home/sbcu/Dropbox/pcb-layouts/axo-on-discovery-board/axoloti/platform_linux/arm-none-eab
 186              		.file 3 "/home/sbcu/Dropbox/pcb-layouts/axo-on-discovery-board/axoloti/platform_linux/arm-none-eab
 187              		.file 4 "/home/sbcu/Dropbox/pcb-layouts/axo-on-discovery-board/axoloti/platform_linux/../chibios/o
 188              		.file 5 "/home/sbcu/Dropbox/pcb-layouts/axo-on-discovery-board/axoloti/platform_linux/../chibios/o
 189              		.file 6 "/home/sbcu/Dropbox/pcb-layouts/axo-on-discovery-board/axoloti/platform_linux/../chibios/o
 190              		.file 7 "/home/sbcu/Dropbox/pcb-layouts/axo-on-discovery-board/axoloti/platform_linux/../chibios/o
 191              		.file 8 "/home/sbcu/Dropbox/pcb-layouts/axo-on-discovery-board/axoloti/platform_linux/../chibios/o
 192              		.file 9 "./STM32_USB_Host_Library/Core/Inc/usbh_def.h"
 193              		.file 10 "/home/sbcu/Dropbox/pcb-layouts/axo-on-discovery-board/axoloti/platform_linux/../CMSIS//I
 194              		.file 11 "./STM32_USB_Host_Library/Core/Inc/usbh_core.h"