ARM GAS  /tmp/ccwBpafy.s 			page 1


   1              		.syntax unified
   2              		.cpu cortex-m4
   3              		.eabi_attribute 27, 1
   4              		.eabi_attribute 28, 1
   5              		.fpu fpv4-sp-d16
   6              		.eabi_attribute 20, 1
   7              		.eabi_attribute 21, 1
   8              		.eabi_attribute 23, 3
   9              		.eabi_attribute 24, 1
  10              		.eabi_attribute 25, 1
  11              		.eabi_attribute 26, 1
  12              		.eabi_attribute 30, 2
  13              		.eabi_attribute 34, 1
  14              		.eabi_attribute 18, 4
  15              		.thumb
  16              		.file	"usbh_midi_core.c"
  17              		.text
  18              	.Ltext0:
  19              		.cfi_sections	.debug_frame
  20              		.align	2
  21              		.p2align 4,,15
  22              		.global	USBH_MIDI_ClassRequest
  23              		.thumb
  24              		.thumb_func
  25              		.type	USBH_MIDI_ClassRequest, %function
  26              	USBH_MIDI_ClassRequest:
  27              	.LFB149:
  28              		.file 1 "usbh_midi_core.c"
  29              		.loc 1 423 0
  30              		.cfi_startproc
  31              		@ args = 0, pretend = 0, frame = 0
  32              		@ frame_needed = 0, uses_anonymous_args = 0
  33              		@ link register save eliminated.
  34              	.LVL0:
  35              		.loc 1 427 0
  36 0000 0020     		movs	r0, #0
  37              	.LVL1:
  38 0002 7047     		bx	lr
  39              		.cfi_endproc
  40              	.LFE149:
  41              		.size	USBH_MIDI_ClassRequest, .-USBH_MIDI_ClassRequest
  42              		.align	2
  43 0004 AFF30080 		.p2align 4,,15
  43      AFF30080 
  43      AFF30080 
  44              		.global	USBH_MIDI_InterfaceInit
  45              		.thumb
  46              		.thumb_func
  47              		.type	USBH_MIDI_InterfaceInit, %function
  48              	USBH_MIDI_InterfaceInit:
  49              	.LFB147:
  50              		.loc 1 276 0
  51              		.cfi_startproc
  52              		@ args = 0, pretend = 0, frame = 0
  53              		@ frame_needed = 0, uses_anonymous_args = 0
  54              	.LVL2:
  55 0010 2DE9F047 		push	{r4, r5, r6, r7, r8, r9, r10, lr}
ARM GAS  /tmp/ccwBpafy.s 			page 2


  56              		.cfi_def_cfa_offset 32
  57              		.cfi_offset 4, -32
  58              		.cfi_offset 5, -28
  59              		.cfi_offset 6, -24
  60              		.cfi_offset 7, -20
  61              		.cfi_offset 8, -16
  62              		.cfi_offset 9, -12
  63              		.cfi_offset 10, -8
  64              		.cfi_offset 14, -4
  65              	.LBB62:
  66              	.LBB63:
  67              		.loc 1 71 0
  68 0014 7F4F     		ldr	r7, .L32
  69              	.LBE63:
  70              	.LBE62:
  71              		.loc 1 287 0
  72 0016 90F83624 		ldrb	r2, [r0, #1078]	@ zero_extendqisi2
  73              	.LBB66:
  74              	.LBB64:
  75              		.loc 1 71 0
  76 001a 0024     		movs	r4, #0
  77              		.loc 1 72 0
  78 001c 3F23     		movs	r3, #63
  79              		.loc 1 71 0
  80 001e 87F80041 		strb	r4, [r7, #256]
  81              	.LBE64:
  82              	.LBE66:
  83              		.loc 1 276 0
  84 0022 84B0     		sub	sp, sp, #16
  85              		.cfi_def_cfa_offset 48
  86              	.LBB67:
  87              	.LBB65:
  88              		.loc 1 72 0
  89 0024 87F80131 		strb	r3, [r7, #257]
  90              	.LVL3:
  91              	.LBE65:
  92              	.LBE67:
  93              		.loc 1 287 0
  94 0028 002A     		cmp	r2, #0
  95 002a 00F09580 		beq	.L21
  96 002e 013A     		subs	r2, r2, #1
  97 0030 D2B2     		uxtb	r2, r2
  98 0032 0346     		mov	r3, r0
  99 0034 00F5AE76 		add	r6, r0, #348
 100 0038 09E0     		b	.L14
 101              	.LVL4:
 102              	.L4:
 103              		.loc 1 287 0 is_stmt 0 discriminator 2
 104 003a 9442     		cmp	r4, r2
 105 003c 03F13A03 		add	r3, r3, #58
 106 0040 04F10104 		add	r4, r4, #1
 107 0044 00F08880 		beq	.L21
 108              		.loc 1 287 0 discriminator 3
 109 0048 B342     		cmp	r3, r6
 110 004a 00F08580 		beq	.L21
 111              	.LVL5:
 112              	.L14:
ARM GAS  /tmp/ccwBpafy.s 			page 3


 113              		.loc 1 288 0 is_stmt 1
 114 004e 93F84154 		ldrb	r5, [r3, #1089]	@ zero_extendqisi2
 115 0052 012D     		cmp	r5, #1
 116 0054 E1B2     		uxtb	r1, r4
 117              	.LVL6:
 118 0056 F0D1     		bne	.L4
 119              		.loc 1 288 0 is_stmt 0 discriminator 1
 120 0058 93F84254 		ldrb	r5, [r3, #1090]	@ zero_extendqisi2
 121 005c 032D     		cmp	r5, #3
 122 005e ECD1     		bne	.L4
 123 0060 0546     		mov	r5, r0
 124              	.LBB68:
 125              		.loc 1 293 0 is_stmt 1
 126 0062 FFF7FEFF 		bl	USBH_SelectInterface
 127              	.LVL7:
 128              		.loc 1 294 0
 129 0066 9420     		movs	r0, #148
 130 0068 D5F8A465 		ldr	r6, [r5, #1444]
 131 006c FFF7FEFF 		bl	fakemalloc
 132              	.LVL8:
 133              		.loc 1 295 0
 134 0070 D5F8A435 		ldr	r3, [r5, #1444]
 135              		.loc 1 294 0
 136 0074 F061     		str	r0, [r6, #28]
 137              		.loc 1 295 0
 138 0076 D3F81C80 		ldr	r8, [r3, #28]
 139              	.LVL9:
 140              		.loc 1 296 0
 141 007a 0023     		movs	r3, #0
 142 007c 88F80830 		strb	r3, [r8, #8]
 143              		.loc 1 297 0
 144 0080 88F80930 		strb	r3, [r8, #9]
 145              		.loc 1 301 0
 146 0084 95F81F24 		ldrb	r2, [r5, #1055]	@ zero_extendqisi2
 147 0088 4FF03A0A 		mov	r10, #58
 148 008c 0AFB0252 		mla	r2, r10, r2, r5
 149              		.loc 1 300 0
 150 0090 92F84004 		ldrb	r0, [r2, #1088]	@ zero_extendqisi2
 151              		.loc 1 307 0
 152 0094 88F80A30 		strb	r3, [r8, #10]
 153              		.loc 1 300 0
 154 0098 0628     		cmp	r0, #6
 155 009a 28BF     		it	cs
 156 009c 0620     		movcs	r0, #6
 157 009e 8146     		mov	r9, r0
 158              	.LVL10:
 159              		.loc 1 308 0
 160 00a0 88F80B30 		strb	r3, [r8, #11]
 161              	.LVL11:
 162              		.loc 1 311 0
 163 00a4 1A46     		mov	r2, r3
 164 00a6 0028     		cmp	r0, #0
 165 00a8 57D0     		beq	.L23
 166              	.LVL12:
 167              	.L5:
 168              	.LBB69:
 169              	.LBB70:
ARM GAS  /tmp/ccwBpafy.s 			page 4


 170              		.loc 1 259 0
 171 00aa 002A     		cmp	r2, #0
 172 00ac 58D0     		beq	.L30
 173              	.LVL13:
 174              	.LBE70:
 175              	.LBE69:
 176              	.LBB71:
 177              	.LBB72:
 178              		.loc 1 264 0
 179 00ae 98F80B20 		ldrb	r2, [r8, #11]	@ zero_extendqisi2
 180 00b2 002A     		cmp	r2, #0
 181 00b4 00F08380 		beq	.L31
 182              	.LVL14:
 183              	.L15:
 184              	.LBE72:
 185              	.LBE71:
 186              		.loc 1 339 0
 187 00b8 98F80220 		ldrb	r2, [r8, #2]	@ zero_extendqisi2
 188 00bc 5648     		ldr	r0, .L32+4
 189 00be 2146     		mov	r1, r4
 190 00c0 FFF7FEFF 		bl	LogTextMessage
 191              	.LVL15:
 192              		.loc 1 341 0
 193 00c4 98F80210 		ldrb	r1, [r8, #2]	@ zero_extendqisi2
 194 00c8 2846     		mov	r0, r5
 195 00ca FFF7FEFF 		bl	USBH_AllocPipe
 196              	.LVL16:
 197 00ce 88F80000 		strb	r0, [r8]
 198 00d2 0146     		mov	r1, r0
 199              		.loc 1 342 0
 200 00d4 95F81D04 		ldrb	r0, [r5, #1053]	@ zero_extendqisi2
 201 00d8 95F81C34 		ldrb	r3, [r5, #1052]	@ zero_extendqisi2
 202 00dc 98F80220 		ldrb	r2, [r8, #2]	@ zero_extendqisi2
 203 00e0 0090     		str	r0, [sp]
 204 00e2 0220     		movs	r0, #2
 205 00e4 0190     		str	r0, [sp, #4]
 206 00e6 B8F80400 		ldrh	r0, [r8, #4]
 207 00ea 0290     		str	r0, [sp, #8]
 208 00ec 2846     		mov	r0, r5
 209 00ee FFF7FEFF 		bl	USBH_OpenPipe
 210              	.LVL17:
 211              		.loc 1 349 0
 212 00f2 2846     		mov	r0, r5
 213 00f4 98F80010 		ldrb	r1, [r8]	@ zero_extendqisi2
 214 00f8 0022     		movs	r2, #0
 215 00fa FFF7FEFF 		bl	USBH_LL_SetToggle
 216              	.LVL18:
 217              	.LBB73:
 218              	.LBB74:
 219              		.loc 1 87 0
 220 00fe 0023     		movs	r3, #0
 221 0100 98F80A00 		ldrb	r0, [r8, #10]	@ zero_extendqisi2
 222 0104 87F80131 		strb	r3, [r7, #257]
 223 0108 87F80031 		strb	r3, [r7, #256]
 224              	.L12:
 225              	.LVL19:
 226              	.LBE74:
ARM GAS  /tmp/ccwBpafy.s 			page 5


 227              	.LBE73:
 228              	.LBB75:
 229              	.LBB76:
 230              		.loc 1 259 0
 231 010c 28B3     		cbz	r0, .L23
 232              	.LBE76:
 233              	.LBE75:
 234              		.loc 1 356 0
 235 010e 98F80320 		ldrb	r2, [r8, #3]	@ zero_extendqisi2
 236 0112 4248     		ldr	r0, .L32+8
 237 0114 2146     		mov	r1, r4
 238 0116 FFF7FEFF 		bl	LogTextMessage
 239              	.LVL20:
 240              		.loc 1 358 0
 241 011a 98F80310 		ldrb	r1, [r8, #3]	@ zero_extendqisi2
 242 011e 2846     		mov	r0, r5
 243 0120 FFF7FEFF 		bl	USBH_AllocPipe
 244              	.LVL21:
 245 0124 88F80100 		strb	r0, [r8, #1]
 246 0128 0146     		mov	r1, r0
 247              		.loc 1 359 0
 248 012a 95F81D04 		ldrb	r0, [r5, #1053]	@ zero_extendqisi2
 249 012e 98F80320 		ldrb	r2, [r8, #3]	@ zero_extendqisi2
 250 0132 95F81C34 		ldrb	r3, [r5, #1052]	@ zero_extendqisi2
 251 0136 0090     		str	r0, [sp]
 252 0138 0220     		movs	r0, #2
 253 013a 0190     		str	r0, [sp, #4]
 254 013c B8F80600 		ldrh	r0, [r8, #6]
 255 0140 0290     		str	r0, [sp, #8]
 256 0142 2846     		mov	r0, r5
 257 0144 FFF7FEFF 		bl	USBH_OpenPipe
 258              	.LVL22:
 259              		.loc 1 366 0
 260 0148 2846     		mov	r0, r5
 261 014a 98F80110 		ldrb	r1, [r8, #1]	@ zero_extendqisi2
 262 014e 0022     		movs	r2, #0
 263 0150 FFF7FEFF 		bl	USBH_LL_SetToggle
 264              	.LVL23:
 265              		.loc 1 371 0
 266 0154 0020     		movs	r0, #0
 267 0156 00E0     		b	.L23
 268              	.LVL24:
 269              	.L21:
 270              	.LBE68:
 271              		.loc 1 376 0
 272 0158 0220     		movs	r0, #2
 273              	.LVL25:
 274              	.L23:
 275              		.loc 1 377 0
 276 015a 04B0     		add	sp, sp, #16
 277              		.cfi_remember_state
 278              		.cfi_def_cfa_offset 32
 279              		@ sp needed
 280 015c BDE8F087 		pop	{r4, r5, r6, r7, r8, r9, r10, pc}
 281              	.LVL26:
 282              	.L30:
 283              		.cfi_restore_state
ARM GAS  /tmp/ccwBpafy.s 			page 6


 284              	.LBB83:
 285              	.LBB77:
 286              		.loc 1 312 0
 287 0160 5E1C     		adds	r6, r3, #1
 288 0162 95F81F34 		ldrb	r3, [r5, #1055]	@ zero_extendqisi2
 289 0166 F200     		lsls	r2, r6, #3
 290 0168 0AFB0323 		mla	r3, r10, r3, r2
 291 016c 2B44     		add	r3, r3, r5
 292 016e 93F84034 		ldrb	r3, [r3, #1088]	@ zero_extendqisi2
 293              	.LVL27:
 294              		.loc 1 313 0
 295 0172 1906     		lsls	r1, r3, #24
 296 0174 30D4     		bmi	.L18
 297              	.LVL28:
 298              	.LBB78:
 299              	.LBB79:
 300              		.loc 1 264 0
 301 0176 98F80B20 		ldrb	r2, [r8, #11]	@ zero_extendqisi2
 302 017a CAB9     		cbnz	r2, .L6
 303              	.LVL29:
 304              	.L17:
 305              	.LBE79:
 306              	.LBE78:
 307              		.loc 1 324 0
 308 017c 88F80230 		strb	r3, [r8, #2]
 309              		.loc 1 325 0
 310 0180 95F81F34 		ldrb	r3, [r5, #1055]	@ zero_extendqisi2
 311              		.loc 1 326 0
 312 0184 2648     		ldr	r0, .L32+12
 313              		.loc 1 325 0
 314 0186 0AFB03F3 		mul	r3, r10, r3
 315 018a 03EBC603 		add	r3, r3, r6, lsl #3
 316 018e 2B44     		add	r3, r3, r5
 317 0190 B3F84214 		ldrh	r1, [r3, #1090]
 318 0194 A8F80410 		strh	r1, [r8, #4]	@ movhi
 319              		.loc 1 326 0
 320 0198 FFF7FEFF 		bl	LogTextMessage
 321              	.LVL30:
 322              		.loc 1 327 0
 323 019c B8F80430 		ldrh	r3, [r8, #4]
 324 01a0 402B     		cmp	r3, #64
 325 01a2 84BF     		itt	hi
 326 01a4 4023     		movhi	r3, #64
 327 01a6 A8F80430 		strhhi	r3, [r8, #4]	@ movhi
 328              		.loc 1 331 0
 329 01aa 0123     		movs	r3, #1
 330 01ac 88F80B30 		strb	r3, [r8, #11]
 331              	.L6:
 332              	.LVL31:
 333              	.LBE77:
 334              		.loc 1 311 0
 335 01b0 F2B2     		uxtb	r2, r6
 336 01b2 9145     		cmp	r9, r2
 337 01b4 3346     		mov	r3, r6
 338 01b6 24D9     		bls	.L8
 339 01b8 98F80A20 		ldrb	r2, [r8, #10]	@ zero_extendqisi2
 340 01bc 75E7     		b	.L5
ARM GAS  /tmp/ccwBpafy.s 			page 7


 341              	.LVL32:
 342              	.L31:
 343              	.LBB80:
 344              		.loc 1 312 0
 345 01be 95F81F24 		ldrb	r2, [r5, #1055]	@ zero_extendqisi2
 346 01c2 5E1C     		adds	r6, r3, #1
 347 01c4 0AFB02F3 		mul	r3, r10, r2
 348 01c8 03EBC603 		add	r3, r3, r6, lsl #3
 349 01cc 2B44     		add	r3, r3, r5
 350 01ce 93F84034 		ldrb	r3, [r3, #1088]	@ zero_extendqisi2
 351              	.LVL33:
 352              		.loc 1 323 0
 353 01d2 1806     		lsls	r0, r3, #24
 354 01d4 ECD4     		bmi	.L6
 355 01d6 D1E7     		b	.L17
 356              	.LVL34:
 357              	.L18:
 358              		.loc 1 314 0
 359 01d8 88F80330 		strb	r3, [r8, #3]
 360              		.loc 1 315 0
 361 01dc 95F81F34 		ldrb	r3, [r5, #1055]	@ zero_extendqisi2
 362              	.LVL35:
 363              		.loc 1 316 0
 364 01e0 1048     		ldr	r0, .L32+16
 365              		.loc 1 315 0
 366 01e2 0AFB0323 		mla	r3, r10, r3, r2
 367 01e6 2B44     		add	r3, r3, r5
 368 01e8 B3F84214 		ldrh	r1, [r3, #1090]
 369 01ec A8F80610 		strh	r1, [r8, #6]	@ movhi
 370              		.loc 1 316 0
 371 01f0 FFF7FEFF 		bl	LogTextMessage
 372              	.LVL36:
 373              		.loc 1 317 0
 374 01f4 4022     		movs	r2, #64
 375              		.loc 1 321 0
 376 01f6 0123     		movs	r3, #1
 377              		.loc 1 317 0
 378 01f8 A8F80620 		strh	r2, [r8, #6]	@ movhi
 379              		.loc 1 321 0
 380 01fc 88F80A30 		strb	r3, [r8, #10]
 381              	.LVL37:
 382 0200 D6E7     		b	.L6
 383              	.LVL38:
 384              	.L8:
 385              	.LBE80:
 386              	.LBB81:
 387              	.LBB82:
 388              		.loc 1 264 0
 389 0202 98F80B30 		ldrb	r3, [r8, #11]	@ zero_extendqisi2
 390              	.LVL39:
 391 0206 002B     		cmp	r3, #0
 392 0208 7FF456AF 		bne	.L15
 393 020c 98F80A00 		ldrb	r0, [r8, #10]	@ zero_extendqisi2
 394 0210 7CE7     		b	.L12
 395              	.L33:
 396 0212 00BF     		.align	2
 397              	.L32:
ARM GAS  /tmp/ccwBpafy.s 			page 8


 398 0214 00000000 		.word	.LANCHOR0
 399 0218 48000000 		.word	.LC2
 400 021c 70000000 		.word	.LC3
 401 0220 24000000 		.word	.LC1
 402 0224 00000000 		.word	.LC0
 403              	.LBE82:
 404              	.LBE81:
 405              	.LBE83:
 406              		.cfi_endproc
 407              	.LFE147:
 408              		.size	USBH_MIDI_InterfaceInit, .-USBH_MIDI_InterfaceInit
 409              		.align	2
 410 0228 AFF30080 		.p2align 4,,15
 410      AFF30080 
 411              		.global	USBH_MIDI_InterfaceDeInit
 412              		.thumb
 413              		.thumb_func
 414              		.type	USBH_MIDI_InterfaceDeInit, %function
 415              	USBH_MIDI_InterfaceDeInit:
 416              	.LFB148:
 417              		.loc 1 388 0
 418              		.cfi_startproc
 419              		@ args = 0, pretend = 0, frame = 0
 420              		@ frame_needed = 0, uses_anonymous_args = 0
 421              	.LVL40:
 422 0230 38B5     		push	{r3, r4, r5, lr}
 423              		.cfi_def_cfa_offset 16
 424              		.cfi_offset 3, -16
 425              		.cfi_offset 4, -12
 426              		.cfi_offset 5, -8
 427              		.cfi_offset 14, -4
 428              		.loc 1 388 0
 429 0232 0546     		mov	r5, r0
 430              		.loc 1 389 0
 431 0234 1B48     		ldr	r0, .L49
 432              	.LVL41:
 433 0236 FFF7FEFF 		bl	LogTextMessage
 434              	.LVL42:
 435              		.loc 1 390 0
 436 023a D5F8A435 		ldr	r3, [r5, #1444]
 437 023e DC69     		ldr	r4, [r3, #28]
 438              	.LVL43:
 439              	.LBB84:
 440              	.LBB85:
 441              		.loc 1 264 0
 442 0240 1CB3     		cbz	r4, .L38
 443 0242 E37A     		ldrb	r3, [r4, #11]	@ zero_extendqisi2
 444 0244 53B1     		cbz	r3, .L39
 445              	.LBE85:
 446              	.LBE84:
 447              		.loc 1 392 0
 448 0246 2178     		ldrb	r1, [r4]	@ zero_extendqisi2
 449 0248 2846     		mov	r0, r5
 450 024a FFF7FEFF 		bl	USBH_ClosePipe
 451              	.LVL44:
 452              		.loc 1 393 0
 453 024e 2846     		mov	r0, r5
ARM GAS  /tmp/ccwBpafy.s 			page 9


 454 0250 2178     		ldrb	r1, [r4]	@ zero_extendqisi2
 455 0252 FFF7FEFF 		bl	USBH_FreePipe
 456              	.LVL45:
 457              		.loc 1 394 0
 458 0256 0023     		movs	r3, #0
 459 0258 2370     		strb	r3, [r4]
 460              		.loc 1 395 0
 461 025a E372     		strb	r3, [r4, #11]
 462              	.LVL46:
 463              	.L39:
 464              	.LBB86:
 465              	.LBB87:
 466              		.loc 1 259 0
 467 025c A37A     		ldrb	r3, [r4, #10]	@ zero_extendqisi2
 468 025e E3B1     		cbz	r3, .L48
 469              	.LBE87:
 470              	.LBE86:
 471              		.loc 1 398 0
 472 0260 6178     		ldrb	r1, [r4, #1]	@ zero_extendqisi2
 473 0262 2846     		mov	r0, r5
 474 0264 FFF7FEFF 		bl	USBH_ClosePipe
 475              	.LVL47:
 476              		.loc 1 399 0
 477 0268 2846     		mov	r0, r5
 478 026a 6178     		ldrb	r1, [r4, #1]	@ zero_extendqisi2
 479 026c FFF7FEFF 		bl	USBH_FreePipe
 480              	.LVL48:
 481              		.loc 1 400 0
 482 0270 0023     		movs	r3, #0
 483 0272 6370     		strb	r3, [r4, #1]
 484 0274 D5F8A425 		ldr	r2, [r5, #1444]
 485              		.loc 1 401 0
 486 0278 A372     		strb	r3, [r4, #10]
 487 027a D069     		ldr	r0, [r2, #28]
 488              	.L40:
 489              		.loc 1 404 0
 490 027c 28B1     		cbz	r0, .L38
 491              		.loc 1 406 0
 492 027e FFF7FEFF 		bl	fakefree
 493              	.LVL49:
 494              		.loc 1 407 0
 495 0282 D5F8A435 		ldr	r3, [r5, #1444]
 496 0286 0022     		movs	r2, #0
 497 0288 DA61     		str	r2, [r3, #28]
 498              	.LVL50:
 499              	.L38:
 500              	.LBB88:
 501              	.LBB89:
 502              		.loc 1 76 0
 503 028a 074B     		ldr	r3, .L49+4
 504 028c 0020     		movs	r0, #0
 505              		.loc 1 77 0
 506 028e FF22     		movs	r2, #255
 507              		.loc 1 76 0
 508 0290 83F80001 		strb	r0, [r3, #256]
 509              		.loc 1 77 0
 510 0294 83F80121 		strb	r2, [r3, #257]
ARM GAS  /tmp/ccwBpafy.s 			page 10


 511              	.LBE89:
 512              	.LBE88:
 513              		.loc 1 413 0
 514 0298 38BD     		pop	{r3, r4, r5, pc}
 515              	.LVL51:
 516              	.L48:
 517 029a D5F8A435 		ldr	r3, [r5, #1444]
 518 029e D869     		ldr	r0, [r3, #28]
 519 02a0 ECE7     		b	.L40
 520              	.L50:
 521 02a2 00BF     		.align	2
 522              	.L49:
 523 02a4 94000000 		.word	.LC4
 524 02a8 00000000 		.word	.LANCHOR0
 525              		.cfi_endproc
 526              	.LFE148:
 527              		.size	USBH_MIDI_InterfaceDeInit, .-USBH_MIDI_InterfaceDeInit
 528              		.align	2
 529 02ac AFF30080 		.p2align 4,,15
 530              		.global	USBH_MIDI_SOFProcess
 531              		.thumb
 532              		.thumb_func
 533              		.type	USBH_MIDI_SOFProcess, %function
 534              	USBH_MIDI_SOFProcess:
 535              	.LFB153:
 536              		.loc 1 679 0
 537              		.cfi_startproc
 538              		@ args = 0, pretend = 0, frame = 0
 539              		@ frame_needed = 0, uses_anonymous_args = 0
 540              	.LVL52:
 541 02b0 08B5     		push	{r3, lr}
 542              		.cfi_def_cfa_offset 8
 543              		.cfi_offset 3, -8
 544              		.cfi_offset 14, -4
 545              		.loc 1 680 0
 546 02b2 D0F8A435 		ldr	r3, [r0, #1444]
 547 02b6 DB69     		ldr	r3, [r3, #28]
 548              	.LVL53:
 549              	.LBB100:
 550              	.LBB101:
 551              		.loc 1 259 0
 552 02b8 73B1     		cbz	r3, .L52
 553 02ba 9A7A     		ldrb	r2, [r3, #10]	@ zero_extendqisi2
 554 02bc 4AB1     		cbz	r2, .L71
 555              	.L53:
 556              	.LBE101:
 557              	.LBE100:
 558              		.loc 1 688 0
 559 02be 5A7A     		ldrb	r2, [r3, #9]	@ zero_extendqisi2
 560 02c0 022A     		cmp	r2, #2
 561 02c2 0ED0     		beq	.L72
 562              		.loc 1 699 0
 563 02c4 062A     		cmp	r2, #6
 564 02c6 13D0     		beq	.L56
 565              		.loc 1 699 0 is_stmt 0 discriminator 1
 566 02c8 1B7A     		ldrb	r3, [r3, #8]	@ zero_extendqisi2
 567              	.LVL54:
ARM GAS  /tmp/ccwBpafy.s 			page 11


 568 02ca 062B     		cmp	r3, #6
 569 02cc 10D0     		beq	.L56
 570              	.L65:
 571              		.loc 1 706 0 is_stmt 1
 572 02ce 0020     		movs	r0, #0
 573              	.LVL55:
 574 02d0 08BD     		pop	{r3, pc}
 575              	.LVL56:
 576              	.L71:
 577              	.LBB102:
 578              	.LBB103:
 579              		.loc 1 264 0
 580 02d2 DA7A     		ldrb	r2, [r3, #11]	@ zero_extendqisi2
 581 02d4 002A     		cmp	r2, #0
 582 02d6 F2D1     		bne	.L53
 583              	.LVL57:
 584              	.L52:
 585              	.LBE103:
 586              	.LBE102:
 587              		.loc 1 683 0
 588 02d8 0948     		ldr	r0, .L73
 589              	.LVL58:
 590 02da FFF7FEFF 		bl	LogTextMessage
 591              	.LVL59:
 592              		.loc 1 706 0
 593 02de 0020     		movs	r0, #0
 594 02e0 08BD     		pop	{r3, pc}
 595              	.LVL60:
 596              	.L72:
 597              		.loc 1 692 0
 598 02e2 084B     		ldr	r3, .L73+4
 599              	.LVL61:
 600 02e4 93F80021 		ldrb	r2, [r3, #256]	@ zero_extendqisi2
 601 02e8 93F80131 		ldrb	r3, [r3, #257]	@ zero_extendqisi2
 602 02ec 9342     		cmp	r3, r2
 603 02ee EED0     		beq	.L65
 604              	.L56:
 605              	.LVL62:
 606              	.LBB104:
 607              	.LBB105:
 608              		.loc 1 695 0
 609 02f0 D0F8F805 		ldr	r0, [r0, #1528]
 610              	.LVL63:
 611 02f4 0421     		movs	r1, #4
 612 02f6 FFF7FEFF 		bl	chEvtSignalI
 613              	.LVL64:
 614              	.LBE105:
 615              	.LBE104:
 616              		.loc 1 706 0
 617 02fa 0020     		movs	r0, #0
 618 02fc 08BD     		pop	{r3, pc}
 619              	.L74:
 620 02fe 00BF     		.align	2
 621              	.L73:
 622 0300 B4000000 		.word	.LC5
 623 0304 00000000 		.word	.LANCHOR0
 624              		.cfi_endproc
ARM GAS  /tmp/ccwBpafy.s 			page 12


 625              	.LFE153:
 626              		.size	USBH_MIDI_SOFProcess, .-USBH_MIDI_SOFProcess
 627              		.align	2
 628 0308 AFF30080 		.p2align 4,,15
 628      AFF30080 
 629              		.global	usbh_midi_init_buffer
 630              		.thumb
 631              		.thumb_func
 632              		.type	usbh_midi_init_buffer, %function
 633              	usbh_midi_init_buffer:
 634              	.LFB133:
 635              		.loc 1 69 0
 636              		.cfi_startproc
 637              		@ args = 0, pretend = 0, frame = 0
 638              		@ frame_needed = 0, uses_anonymous_args = 0
 639              		@ link register save eliminated.
 640              		.loc 1 71 0
 641 0310 034B     		ldr	r3, .L76
 642 0312 0021     		movs	r1, #0
 643              		.loc 1 72 0
 644 0314 3F22     		movs	r2, #63
 645              		.loc 1 71 0
 646 0316 83F80011 		strb	r1, [r3, #256]
 647              		.loc 1 72 0
 648 031a 83F80121 		strb	r2, [r3, #257]
 649 031e 7047     		bx	lr
 650              	.L77:
 651              		.align	2
 652              	.L76:
 653 0320 00000000 		.word	.LANCHOR0
 654              		.cfi_endproc
 655              	.LFE133:
 656              		.size	usbh_midi_init_buffer, .-usbh_midi_init_buffer
 657              		.align	2
 658 0324 AFF30080 		.p2align 4,,15
 658      AFF30080 
 658      AFF30080 
 659              		.global	usbh_midi_deinit_buffer
 660              		.thumb
 661              		.thumb_func
 662              		.type	usbh_midi_deinit_buffer, %function
 663              	usbh_midi_deinit_buffer:
 664              	.LFB134:
 665              		.loc 1 75 0
 666              		.cfi_startproc
 667              		@ args = 0, pretend = 0, frame = 0
 668              		@ frame_needed = 0, uses_anonymous_args = 0
 669              		@ link register save eliminated.
 670              		.loc 1 76 0
 671 0330 034B     		ldr	r3, .L79
 672 0332 0021     		movs	r1, #0
 673              		.loc 1 77 0
 674 0334 FF22     		movs	r2, #255
 675              		.loc 1 76 0
 676 0336 83F80011 		strb	r1, [r3, #256]
 677              		.loc 1 77 0
 678 033a 83F80121 		strb	r2, [r3, #257]
ARM GAS  /tmp/ccwBpafy.s 			page 13


 679 033e 7047     		bx	lr
 680              	.L80:
 681              		.align	2
 682              	.L79:
 683 0340 00000000 		.word	.LANCHOR0
 684              		.cfi_endproc
 685              	.LFE134:
 686              		.size	usbh_midi_deinit_buffer, .-usbh_midi_deinit_buffer
 687              		.align	2
 688 0344 AFF30080 		.p2align 4,,15
 688      AFF30080 
 688      AFF30080 
 689              		.global	usbh_midi_init
 690              		.thumb
 691              		.thumb_func
 692              		.type	usbh_midi_init, %function
 693              	usbh_midi_init:
 694              	.LFB135:
 695              		.loc 1 82 0
 696              		.cfi_startproc
 697              		@ args = 0, pretend = 0, frame = 0
 698              		@ frame_needed = 0, uses_anonymous_args = 0
 699              		@ link register save eliminated.
 700              	.LBB106:
 701              	.LBB107:
 702              		.loc 1 76 0
 703 0350 034B     		ldr	r3, .L82
 704 0352 0021     		movs	r1, #0
 705              		.loc 1 77 0
 706 0354 FF22     		movs	r2, #255
 707              		.loc 1 76 0
 708 0356 83F80011 		strb	r1, [r3, #256]
 709              		.loc 1 77 0
 710 035a 83F80121 		strb	r2, [r3, #257]
 711 035e 7047     		bx	lr
 712              	.L83:
 713              		.align	2
 714              	.L82:
 715 0360 00000000 		.word	.LANCHOR0
 716              	.LBE107:
 717              	.LBE106:
 718              		.cfi_endproc
 719              	.LFE135:
 720              		.size	usbh_midi_init, .-usbh_midi_init
 721              		.align	2
 722 0364 AFF30080 		.p2align 4,,15
 722      AFF30080 
 722      AFF30080 
 723              		.global	usbh_midi_reset_buffer
 724              		.thumb
 725              		.thumb_func
 726              		.type	usbh_midi_reset_buffer, %function
 727              	usbh_midi_reset_buffer:
 728              	.LFB136:
 729              		.loc 1 86 0
 730              		.cfi_startproc
 731              		@ args = 0, pretend = 0, frame = 0
ARM GAS  /tmp/ccwBpafy.s 			page 14


 732              		@ frame_needed = 0, uses_anonymous_args = 0
 733              		@ link register save eliminated.
 734              		.loc 1 87 0
 735 0370 034B     		ldr	r3, .L85
 736 0372 0022     		movs	r2, #0
 737 0374 83F80121 		strb	r2, [r3, #257]
 738 0378 83F80021 		strb	r2, [r3, #256]
 739 037c 7047     		bx	lr
 740              	.L86:
 741 037e 00BF     		.align	2
 742              	.L85:
 743 0380 00000000 		.word	.LANCHOR0
 744              		.cfi_endproc
 745              	.LFE136:
 746              		.size	usbh_midi_reset_buffer, .-usbh_midi_reset_buffer
 747              		.align	2
 748 0384 AFF30080 		.p2align 4,,15
 748      AFF30080 
 748      AFF30080 
 749              		.global	calcCIN
 750              		.thumb
 751              		.thumb_func
 752              		.type	calcCIN, %function
 753              	calcCIN:
 754              	.LFB137:
 755              		.loc 1 92 0
 756              		.cfi_startproc
 757              		@ args = 0, pretend = 0, frame = 0
 758              		@ frame_needed = 0, uses_anonymous_args = 0
 759              		@ link register save eliminated.
 760              	.LVL65:
 761              		.loc 1 95 0
 762 0390 0009     		lsrs	r0, r0, #4
 763              	.LVL66:
 764 0392 7047     		bx	lr
 765              		.cfi_endproc
 766              	.LFE137:
 767              		.size	calcCIN, .-calcCIN
 768              		.align	2
 769 0394 AFF30080 		.p2align 4,,15
 769      AFF30080 
 769      AFF30080 
 770              		.global	calcPH
 771              		.thumb
 772              		.thumb_func
 773              		.type	calcPH, %function
 774              	calcPH:
 775              	.LFB138:
 776              		.loc 1 98 0
 777              		.cfi_startproc
 778              		@ args = 0, pretend = 0, frame = 0
 779              		@ frame_needed = 0, uses_anonymous_args = 0
 780              		@ link register save eliminated.
 781              	.LVL67:
 782              	.LBB108:
 783              	.LBB109:
 784              		.loc 1 93 0
ARM GAS  /tmp/ccwBpafy.s 			page 15


 785 03a0 0909     		lsrs	r1, r1, #4
 786              	.LVL68:
 787              	.LBE109:
 788              	.LBE108:
 789              		.loc 1 100 0
 790 03a2 0138     		subs	r0, r0, #1
 791              	.LVL69:
 792 03a4 41EA0010 		orr	r0, r1, r0, lsl #4
 793              		.loc 1 102 0
 794 03a8 C0B2     		uxtb	r0, r0
 795 03aa 7047     		bx	lr
 796              		.cfi_endproc
 797              	.LFE138:
 798              		.size	calcPH, .-calcPH
 799              		.align	2
 800 03ac AFF30080 		.p2align 4,,15
 801              		.global	usbh_MidiSend1
 802              		.thumb
 803              		.thumb_func
 804              		.type	usbh_MidiSend1, %function
 805              	usbh_MidiSend1:
 806              	.LFB139:
 807              		.loc 1 105 0
 808              		.cfi_startproc
 809              		@ args = 0, pretend = 0, frame = 0
 810              		@ frame_needed = 0, uses_anonymous_args = 0
 811              		@ link register save eliminated.
 812              	.LVL70:
 813 03b0 30B4     		push	{r4, r5}
 814              		.cfi_def_cfa_offset 8
 815              		.cfi_offset 4, -8
 816              		.cfi_offset 5, -4
 817              		.loc 1 106 0
 818 03b2 164C     		ldr	r4, .L99
 819 03b4 94F80131 		ldrb	r3, [r4, #257]	@ zero_extendqisi2
 820 03b8 FF2B     		cmp	r3, #255
 821 03ba 1CD0     		beq	.L89
 822              		.loc 1 108 0
 823 03bc 94F80121 		ldrb	r2, [r4, #257]	@ zero_extendqisi2
 824 03c0 134B     		ldr	r3, .L99+4
 825 03c2 52B2     		sxtb	r2, r2
 826 03c4 0132     		adds	r2, r2, #1
 827 03c6 1340     		ands	r3, r3, r2
 828 03c8 002B     		cmp	r3, #0
 829 03ca 16DB     		blt	.L97
 830              	.L91:
 831              	.LVL71:
 832              		.loc 1 110 0
 833 03cc 94F80021 		ldrb	r2, [r4, #256]	@ zero_extendqisi2
 834 03d0 0E4C     		ldr	r4, .L99
 835 03d2 52B2     		sxtb	r2, r2
 836 03d4 DBB2     		uxtb	r3, r3
 837 03d6 9342     		cmp	r3, r2
 838 03d8 14D0     		beq	.L98
 839              	.LVL72:
 840              		.loc 1 116 0
 841 03da 04EB8302 		add	r2, r4, r3, lsl #2
ARM GAS  /tmp/ccwBpafy.s 			page 16


 842              	.LBB110:
 843              	.LBB111:
 844              	.LBB112:
 845              	.LBB113:
 846              		.loc 1 93 0
 847 03de 0D09     		lsrs	r5, r1, #4
 848              	.LBE113:
 849              	.LBE112:
 850              		.loc 1 100 0
 851 03e0 0138     		subs	r0, r0, #1
 852              	.LVL73:
 853 03e2 45EA0010 		orr	r0, r5, r0, lsl #4
 854              	.LBE111:
 855              	.LBE110:
 856              		.loc 1 117 0
 857 03e6 0025     		movs	r5, #0
 858              		.loc 1 115 0
 859 03e8 04F82300 		strb	r0, [r4, r3, lsl #2]
 860              		.loc 1 119 0
 861 03ec 84F80131 		strb	r3, [r4, #257]
 862              		.loc 1 116 0
 863 03f0 5170     		strb	r1, [r2, #1]
 864              		.loc 1 117 0
 865 03f2 9570     		strb	r5, [r2, #2]
 866              		.loc 1 118 0
 867 03f4 D570     		strb	r5, [r2, #3]
 868              	.LVL74:
 869              	.L89:
 870              		.loc 1 120 0
 871 03f6 30BC     		pop	{r4, r5}
 872              		.cfi_remember_state
 873              		.cfi_restore 5
 874              		.cfi_restore 4
 875              		.cfi_def_cfa_offset 0
 876 03f8 7047     		bx	lr
 877              	.LVL75:
 878              	.L97:
 879              		.cfi_restore_state
 880              		.loc 1 108 0
 881 03fa 013B     		subs	r3, r3, #1
 882 03fc 63F03F03 		orn	r3, r3, #63
 883 0400 0133     		adds	r3, r3, #1
 884 0402 E3E7     		b	.L91
 885              	.LVL76:
 886              	.L98:
 887              		.loc 1 120 0
 888 0404 30BC     		pop	{r4, r5}
 889              		.cfi_restore 5
 890              		.cfi_restore 4
 891              		.cfi_def_cfa_offset 0
 892              		.loc 1 111 0
 893 0406 FFF7FEBF 		b	report_usbh_midi_ringbuffer_overflow
 894              	.LVL77:
 895              	.L100:
 896 040a 00BF     		.align	2
 897              	.L99:
 898 040c 00000000 		.word	.LANCHOR0
ARM GAS  /tmp/ccwBpafy.s 			page 17


 899 0410 3F000080 		.word	-2147483585
 900              		.cfi_endproc
 901              	.LFE139:
 902              		.size	usbh_MidiSend1, .-usbh_MidiSend1
 903              		.align	2
 904 0414 AFF30080 		.p2align 4,,15
 904      AFF30080 
 904      AFF30080 
 905              		.global	usbh_MidiSend2
 906              		.thumb
 907              		.thumb_func
 908              		.type	usbh_MidiSend2, %function
 909              	usbh_MidiSend2:
 910              	.LFB140:
 911              		.loc 1 122 0
 912              		.cfi_startproc
 913              		@ args = 0, pretend = 0, frame = 0
 914              		@ frame_needed = 0, uses_anonymous_args = 0
 915              		@ link register save eliminated.
 916              	.LVL78:
 917 0420 70B4     		push	{r4, r5, r6}
 918              		.cfi_def_cfa_offset 12
 919              		.cfi_offset 4, -12
 920              		.cfi_offset 5, -8
 921              		.cfi_offset 6, -4
 922              		.loc 1 123 0
 923 0422 164D     		ldr	r5, .L111
 924 0424 95F80131 		ldrb	r3, [r5, #257]	@ zero_extendqisi2
 925 0428 FF2B     		cmp	r3, #255
 926 042a 1CD0     		beq	.L101
 927              		.loc 1 125 0
 928 042c 95F80141 		ldrb	r4, [r5, #257]	@ zero_extendqisi2
 929 0430 134B     		ldr	r3, .L111+4
 930 0432 64B2     		sxtb	r4, r4
 931 0434 0134     		adds	r4, r4, #1
 932 0436 2340     		ands	r3, r3, r4
 933 0438 002B     		cmp	r3, #0
 934 043a 16DB     		blt	.L109
 935              	.L103:
 936              	.LVL79:
 937              		.loc 1 127 0
 938 043c 95F80041 		ldrb	r4, [r5, #256]	@ zero_extendqisi2
 939 0440 0E4D     		ldr	r5, .L111
 940 0442 64B2     		sxtb	r4, r4
 941 0444 DBB2     		uxtb	r3, r3
 942 0446 A342     		cmp	r3, r4
 943 0448 14D0     		beq	.L110
 944              	.LVL80:
 945              		.loc 1 133 0
 946 044a 05EB8304 		add	r4, r5, r3, lsl #2
 947              	.LBB114:
 948              	.LBB115:
 949              	.LBB116:
 950              	.LBB117:
 951              		.loc 1 93 0
 952 044e 0E09     		lsrs	r6, r1, #4
 953              	.LBE117:
ARM GAS  /tmp/ccwBpafy.s 			page 18


 954              	.LBE116:
 955              		.loc 1 100 0
 956 0450 0138     		subs	r0, r0, #1
 957              	.LVL81:
 958 0452 46EA0010 		orr	r0, r6, r0, lsl #4
 959              	.LBE115:
 960              	.LBE114:
 961              		.loc 1 135 0
 962 0456 0026     		movs	r6, #0
 963              		.loc 1 132 0
 964 0458 05F82300 		strb	r0, [r5, r3, lsl #2]
 965              		.loc 1 136 0
 966 045c 85F80131 		strb	r3, [r5, #257]
 967              		.loc 1 133 0
 968 0460 6170     		strb	r1, [r4, #1]
 969              		.loc 1 134 0
 970 0462 A270     		strb	r2, [r4, #2]
 971              		.loc 1 135 0
 972 0464 E670     		strb	r6, [r4, #3]
 973              	.LVL82:
 974              	.L101:
 975              		.loc 1 137 0
 976 0466 70BC     		pop	{r4, r5, r6}
 977              		.cfi_remember_state
 978              		.cfi_restore 6
 979              		.cfi_restore 5
 980              		.cfi_restore 4
 981              		.cfi_def_cfa_offset 0
 982 0468 7047     		bx	lr
 983              	.LVL83:
 984              	.L109:
 985              		.cfi_restore_state
 986              		.loc 1 125 0
 987 046a 013B     		subs	r3, r3, #1
 988 046c 63F03F03 		orn	r3, r3, #63
 989 0470 0133     		adds	r3, r3, #1
 990 0472 E3E7     		b	.L103
 991              	.LVL84:
 992              	.L110:
 993              		.loc 1 137 0
 994 0474 70BC     		pop	{r4, r5, r6}
 995              		.cfi_restore 6
 996              		.cfi_restore 5
 997              		.cfi_restore 4
 998              		.cfi_def_cfa_offset 0
 999              		.loc 1 128 0
 1000 0476 FFF7FEBF 		b	report_usbh_midi_ringbuffer_overflow
 1001              	.LVL85:
 1002              	.L112:
 1003 047a 00BF     		.align	2
 1004              	.L111:
 1005 047c 00000000 		.word	.LANCHOR0
 1006 0480 3F000080 		.word	-2147483585
 1007              		.cfi_endproc
 1008              	.LFE140:
 1009              		.size	usbh_MidiSend2, .-usbh_MidiSend2
 1010              		.align	2
ARM GAS  /tmp/ccwBpafy.s 			page 19


 1011 0484 AFF30080 		.p2align 4,,15
 1011      AFF30080 
 1011      AFF30080 
 1012              		.global	usbh_MidiSend3
 1013              		.thumb
 1014              		.thumb_func
 1015              		.type	usbh_MidiSend3, %function
 1016              	usbh_MidiSend3:
 1017              	.LFB141:
 1018              		.loc 1 139 0
 1019              		.cfi_startproc
 1020              		@ args = 0, pretend = 0, frame = 0
 1021              		@ frame_needed = 0, uses_anonymous_args = 0
 1022              		@ link register save eliminated.
 1023              	.LVL86:
 1024 0490 F0B4     		push	{r4, r5, r6, r7}
 1025              		.cfi_def_cfa_offset 16
 1026              		.cfi_offset 4, -16
 1027              		.cfi_offset 5, -12
 1028              		.cfi_offset 6, -8
 1029              		.cfi_offset 7, -4
 1030              		.loc 1 140 0
 1031 0492 154E     		ldr	r6, .L123
 1032 0494 96F80141 		ldrb	r4, [r6, #257]	@ zero_extendqisi2
 1033 0498 FF2C     		cmp	r4, #255
 1034 049a 1BD0     		beq	.L113
 1035              		.loc 1 142 0
 1036 049c 96F80151 		ldrb	r5, [r6, #257]	@ zero_extendqisi2
 1037 04a0 124C     		ldr	r4, .L123+4
 1038 04a2 6DB2     		sxtb	r5, r5
 1039 04a4 0135     		adds	r5, r5, #1
 1040 04a6 2C40     		ands	r4, r4, r5
 1041 04a8 002C     		cmp	r4, #0
 1042 04aa 15DB     		blt	.L121
 1043              	.L115:
 1044              	.LVL87:
 1045              		.loc 1 144 0
 1046 04ac 96F80051 		ldrb	r5, [r6, #256]	@ zero_extendqisi2
 1047 04b0 0D4E     		ldr	r6, .L123
 1048 04b2 6DB2     		sxtb	r5, r5
 1049 04b4 E4B2     		uxtb	r4, r4
 1050 04b6 AC42     		cmp	r4, r5
 1051 04b8 13D0     		beq	.L122
 1052              	.LVL88:
 1053              		.loc 1 150 0
 1054 04ba 06EB8405 		add	r5, r6, r4, lsl #2
 1055              	.LBB118:
 1056              	.LBB119:
 1057              		.loc 1 100 0
 1058 04be 0138     		subs	r0, r0, #1
 1059              	.LVL89:
 1060              	.LBB120:
 1061              	.LBB121:
 1062              		.loc 1 93 0
 1063 04c0 0F09     		lsrs	r7, r1, #4
 1064              	.LBE121:
 1065              	.LBE120:
ARM GAS  /tmp/ccwBpafy.s 			page 20


 1066              		.loc 1 100 0
 1067 04c2 47EA0010 		orr	r0, r7, r0, lsl #4
 1068              	.LBE119:
 1069              	.LBE118:
 1070              		.loc 1 149 0
 1071 04c6 06F82400 		strb	r0, [r6, r4, lsl #2]
 1072              		.loc 1 153 0
 1073 04ca 86F80141 		strb	r4, [r6, #257]
 1074              		.loc 1 150 0
 1075 04ce 6970     		strb	r1, [r5, #1]
 1076              		.loc 1 151 0
 1077 04d0 AA70     		strb	r2, [r5, #2]
 1078              		.loc 1 152 0
 1079 04d2 EB70     		strb	r3, [r5, #3]
 1080              	.LVL90:
 1081              	.L113:
 1082              		.loc 1 154 0
 1083 04d4 F0BC     		pop	{r4, r5, r6, r7}
 1084              		.cfi_remember_state
 1085              		.cfi_restore 7
 1086              		.cfi_restore 6
 1087              		.cfi_restore 5
 1088              		.cfi_restore 4
 1089              		.cfi_def_cfa_offset 0
 1090 04d6 7047     		bx	lr
 1091              	.LVL91:
 1092              	.L121:
 1093              		.cfi_restore_state
 1094              		.loc 1 142 0
 1095 04d8 013C     		subs	r4, r4, #1
 1096 04da 64F03F04 		orn	r4, r4, #63
 1097 04de 0134     		adds	r4, r4, #1
 1098 04e0 E4E7     		b	.L115
 1099              	.LVL92:
 1100              	.L122:
 1101              		.loc 1 154 0
 1102 04e2 F0BC     		pop	{r4, r5, r6, r7}
 1103              		.cfi_restore 7
 1104              		.cfi_restore 6
 1105              		.cfi_restore 5
 1106              		.cfi_restore 4
 1107              		.cfi_def_cfa_offset 0
 1108              	.LVL93:
 1109              		.loc 1 145 0
 1110 04e4 FFF7FEBF 		b	report_usbh_midi_ringbuffer_overflow
 1111              	.LVL94:
 1112              	.L124:
 1113              		.align	2
 1114              	.L123:
 1115 04e8 00000000 		.word	.LANCHOR0
 1116 04ec 3F000080 		.word	-2147483585
 1117              		.cfi_endproc
 1118              	.LFE141:
 1119              		.size	usbh_MidiSend3, .-usbh_MidiSend3
 1120              		.align	2
 1121              		.p2align 4,,15
 1122              		.global	usbh_MidiSendSysEx
ARM GAS  /tmp/ccwBpafy.s 			page 21


 1123              		.thumb
 1124              		.thumb_func
 1125              		.type	usbh_MidiSendSysEx, %function
 1126              	usbh_MidiSendSysEx:
 1127              	.LFB142:
 1128              		.loc 1 161 0
 1129              		.cfi_startproc
 1130              		@ args = 0, pretend = 0, frame = 8
 1131              		@ frame_needed = 0, uses_anonymous_args = 0
 1132              	.LVL95:
 1133 04f0 2DE9F04F 		push	{r4, r5, r6, r7, r8, r9, r10, fp, lr}
 1134              		.cfi_def_cfa_offset 36
 1135              		.cfi_offset 4, -36
 1136              		.cfi_offset 5, -32
 1137              		.cfi_offset 6, -28
 1138              		.cfi_offset 7, -24
 1139              		.cfi_offset 8, -20
 1140              		.cfi_offset 9, -16
 1141              		.cfi_offset 10, -12
 1142              		.cfi_offset 11, -8
 1143              		.cfi_offset 14, -4
 1144              		.loc 1 162 0
 1145 04f4 454F     		ldr	r7, .L144
 1146 04f6 97F80131 		ldrb	r3, [r7, #257]	@ zero_extendqisi2
 1147              		.loc 1 161 0
 1148 04fa 83B0     		sub	sp, sp, #12
 1149              		.cfi_def_cfa_offset 48
 1150              		.loc 1 162 0
 1151 04fc FF2B     		cmp	r3, #255
 1152              		.loc 1 161 0
 1153 04fe 0092     		str	r2, [sp]
 1154              		.loc 1 162 0
 1155 0500 4CD0     		beq	.L125
 1156              		.loc 1 166 0
 1157 0502 0138     		subs	r0, r0, #1
 1158              	.LVL96:
 1159 0504 0001     		lsls	r0, r0, #4
 1160              		.loc 1 170 0
 1161 0506 A2F10309 		sub	r9, r2, #3
 1162              		.loc 1 166 0
 1163 050a C3B2     		uxtb	r3, r0
 1164              		.loc 1 170 0
 1165 050c B9F1000F 		cmp	r9, #0
 1166              		.loc 1 164 0
 1167 0510 97F80161 		ldrb	r6, [r7, #257]	@ zero_extendqisi2
 1168              		.loc 1 166 0
 1169 0514 0193     		str	r3, [sp, #4]
 1170              		.loc 1 168 0
 1171 0516 43F0040A 		orr	r10, r3, #4
 1172              	.LVL97:
 1173              		.loc 1 170 0
 1174 051a 74DD     		ble	.L136
 1175              		.loc 1 173 0
 1176 051c 97F80021 		ldrb	r2, [r7, #256]	@ zero_extendqisi2
 1177              	.LVL98:
 1178              		.loc 1 171 0
 1179 0520 731C     		adds	r3, r6, #1
ARM GAS  /tmp/ccwBpafy.s 			page 22


 1180 0522 03F03F03 		and	r3, r3, #63
 1181              		.loc 1 173 0
 1182 0526 52B2     		sxtb	r2, r2
 1183 0528 9342     		cmp	r3, r2
 1184              		.loc 1 171 0
 1185 052a DEB2     		uxtb	r6, r3
 1186              	.LVL99:
 1187              		.loc 1 173 0
 1188 052c 39D0     		beq	.L129
 1189 052e 0C46     		mov	r4, r1
 1190 0530 0020     		movs	r0, #0
 1191              		.loc 1 179 0
 1192 0532 BB46     		mov	fp, r7
 1193 0534 05E0     		b	.L131
 1194              	.LVL100:
 1195              	.L132:
 1196              		.loc 1 173 0
 1197 0536 9BF80021 		ldrb	r2, [fp, #256]	@ zero_extendqisi2
 1198 053a 52B2     		sxtb	r2, r2
 1199 053c 9342     		cmp	r3, r2
 1200              		.loc 1 171 0
 1201 053e DEB2     		uxtb	r6, r3
 1202              	.LVL101:
 1203              		.loc 1 173 0
 1204 0540 2FD0     		beq	.L129
 1205              	.LVL102:
 1206              	.L131:
 1207              		.loc 1 180 0 discriminator 2
 1208 0542 07EB8302 		add	r2, r7, r3, lsl #2
 1209 0546 11F80080 		ldrb	r8, [r1, r0]	@ zero_extendqisi2
 1210              		.loc 1 181 0 discriminator 2
 1211 054a 94F801C0 		ldrb	ip, [r4, #1]	@ zero_extendqisi2
 1212              		.loc 1 182 0 discriminator 2
 1213 054e 94F802E0 		ldrb	lr, [r4, #2]	@ zero_extendqisi2
 1214              		.loc 1 179 0 discriminator 2
 1215 0552 07F823A0 		strb	r10, [r7, r3, lsl #2]
 1216              		.loc 1 170 0 discriminator 2
 1217 0556 0330     		adds	r0, r0, #3
 1218              	.LVL103:
 1219              		.loc 1 171 0 discriminator 2
 1220 0558 751C     		adds	r5, r6, #1
 1221              		.loc 1 170 0 discriminator 2
 1222 055a 4845     		cmp	r0, r9
 1223              		.loc 1 180 0 discriminator 2
 1224 055c 82F80180 		strb	r8, [r2, #1]
 1225              		.loc 1 171 0 discriminator 2
 1226 0560 05F03F03 		and	r3, r5, #63
 1227              		.loc 1 181 0 discriminator 2
 1228 0564 82F802C0 		strb	ip, [r2, #2]
 1229              		.loc 1 182 0 discriminator 2
 1230 0568 82F803E0 		strb	lr, [r2, #3]
 1231 056c 04F10304 		add	r4, r4, #3
 1232              		.loc 1 170 0 discriminator 2
 1233 0570 E1DB     		blt	.L132
 1234              	.LVL104:
 1235              	.L127:
 1236              		.loc 1 189 0
ARM GAS  /tmp/ccwBpafy.s 			page 23


 1237 0572 97F80031 		ldrb	r3, [r7, #256]	@ zero_extendqisi2
 1238              		.loc 1 185 0
 1239 0576 009A     		ldr	r2, [sp]
 1240              		.loc 1 189 0
 1241 0578 244C     		ldr	r4, .L144
 1242              		.loc 1 188 0
 1243 057a 0136     		adds	r6, r6, #1
 1244              	.LVL105:
 1245 057c 06F03F06 		and	r6, r6, #63
 1246              		.loc 1 189 0
 1247 0580 5BB2     		sxtb	r3, r3
 1248 0582 9E42     		cmp	r6, r3
 1249              		.loc 1 185 0
 1250 0584 A2EB0002 		sub	r2, r2, r0
 1251              	.LVL106:
 1252              		.loc 1 189 0
 1253 0588 0BD0     		beq	.L129
 1254              		.loc 1 194 0
 1255 058a 012A     		cmp	r2, #1
 1256 058c 1DD0     		beq	.L141
 1257              		.loc 1 202 0
 1258 058e 022A     		cmp	r2, #2
 1259 0590 0CD0     		beq	.L142
 1260              		.loc 1 210 0
 1261 0592 032A     		cmp	r2, #3
 1262 0594 26D0     		beq	.L143
 1263              	.LVL107:
 1264              	.L134:
 1265              		.loc 1 220 0
 1266 0596 F6B2     		uxtb	r6, r6
 1267 0598 87F80161 		strb	r6, [r7, #257]
 1268              	.LVL108:
 1269              	.L125:
 1270              		.loc 1 221 0
 1271 059c 03B0     		add	sp, sp, #12
 1272              		.cfi_remember_state
 1273              		.cfi_def_cfa_offset 36
 1274              		@ sp needed
 1275 059e BDE8F08F 		pop	{r4, r5, r6, r7, r8, r9, r10, fp, pc}
 1276              	.LVL109:
 1277              	.L129:
 1278              		.cfi_restore_state
 1279 05a2 03B0     		add	sp, sp, #12
 1280              		.cfi_remember_state
 1281              		.cfi_def_cfa_offset 36
 1282              		@ sp needed
 1283 05a4 BDE8F04F 		pop	{r4, r5, r6, r7, r8, r9, r10, fp, lr}
 1284              		.cfi_restore 14
 1285              		.cfi_restore 11
 1286              		.cfi_restore 10
 1287              		.cfi_restore 9
 1288              		.cfi_restore 8
 1289              		.cfi_restore 7
 1290              		.cfi_restore 6
 1291              		.cfi_restore 5
 1292              		.cfi_restore 4
 1293              		.cfi_def_cfa_offset 0
ARM GAS  /tmp/ccwBpafy.s 			page 24


 1294              	.LVL110:
 1295              		.loc 1 174 0
 1296 05a8 FFF7FEBF 		b	report_usbh_midi_ringbuffer_overflow
 1297              	.LVL111:
 1298              	.L142:
 1299              		.cfi_restore_state
 1300              		.loc 1 204 0
 1301 05ac 019A     		ldr	r2, [sp, #4]
 1302              	.LVL112:
 1303              		.loc 1 208 0
 1304 05ae 0D18     		adds	r5, r1, r0
 1305              		.loc 1 207 0
 1306 05b0 04EB8603 		add	r3, r4, r6, lsl #2
 1307              		.loc 1 204 0
 1308 05b4 42F00602 		orr	r2, r2, #6
 1309              		.loc 1 206 0
 1310 05b8 04F82620 		strb	r2, [r4, r6, lsl #2]
 1311              		.loc 1 207 0
 1312 05bc 085C     		ldrb	r0, [r1, r0]	@ zero_extendqisi2
 1313              	.LVL113:
 1314              		.loc 1 208 0
 1315 05be 6978     		ldrb	r1, [r5, #1]	@ zero_extendqisi2
 1316              	.LVL114:
 1317              		.loc 1 207 0
 1318 05c0 5870     		strb	r0, [r3, #1]
 1319              		.loc 1 209 0
 1320 05c2 0022     		movs	r2, #0
 1321              		.loc 1 208 0
 1322 05c4 9970     		strb	r1, [r3, #2]
 1323              		.loc 1 209 0
 1324 05c6 DA70     		strb	r2, [r3, #3]
 1325 05c8 E5E7     		b	.L134
 1326              	.LVL115:
 1327              	.L141:
 1328              		.loc 1 196 0
 1329 05ca 019A     		ldr	r2, [sp, #4]
 1330              	.LVL116:
 1331              		.loc 1 199 0
 1332 05cc 095C     		ldrb	r1, [r1, r0]	@ zero_extendqisi2
 1333              	.LVL117:
 1334 05ce 04EB8603 		add	r3, r4, r6, lsl #2
 1335              		.loc 1 196 0
 1336 05d2 42F00502 		orr	r2, r2, #5
 1337              		.loc 1 198 0
 1338 05d6 04F82620 		strb	r2, [r4, r6, lsl #2]
 1339              		.loc 1 200 0
 1340 05da 0022     		movs	r2, #0
 1341              		.loc 1 199 0
 1342 05dc 5970     		strb	r1, [r3, #1]
 1343              		.loc 1 200 0
 1344 05de 9A70     		strb	r2, [r3, #2]
 1345              		.loc 1 201 0
 1346 05e0 DA70     		strb	r2, [r3, #3]
 1347 05e2 D8E7     		b	.L134
 1348              	.LVL118:
 1349              	.L143:
 1350              		.loc 1 216 0
ARM GAS  /tmp/ccwBpafy.s 			page 25


 1351 05e4 0D18     		adds	r5, r1, r0
 1352              		.loc 1 212 0
 1353 05e6 019B     		ldr	r3, [sp, #4]
 1354              		.loc 1 215 0
 1355 05e8 11F800E0 		ldrb	lr, [r1, r0]	@ zero_extendqisi2
 1356              		.loc 1 216 0
 1357 05ec 6878     		ldrb	r0, [r5, #1]	@ zero_extendqisi2
 1358              		.loc 1 217 0
 1359 05ee A978     		ldrb	r1, [r5, #2]	@ zero_extendqisi2
 1360              	.LVL119:
 1361              		.loc 1 215 0
 1362 05f0 04EB8602 		add	r2, r4, r6, lsl #2
 1363              	.LVL120:
 1364              		.loc 1 212 0
 1365 05f4 43F00703 		orr	r3, r3, #7
 1366              		.loc 1 214 0
 1367 05f8 04F82630 		strb	r3, [r4, r6, lsl #2]
 1368              		.loc 1 215 0
 1369 05fc 82F801E0 		strb	lr, [r2, #1]
 1370              		.loc 1 216 0
 1371 0600 9070     		strb	r0, [r2, #2]
 1372              		.loc 1 217 0
 1373 0602 D170     		strb	r1, [r2, #3]
 1374 0604 C7E7     		b	.L134
 1375              	.LVL121:
 1376              	.L136:
 1377              		.loc 1 170 0
 1378 0606 0020     		movs	r0, #0
 1379 0608 B3E7     		b	.L127
 1380              	.L145:
 1381 060a 00BF     		.align	2
 1382              	.L144:
 1383 060c 00000000 		.word	.LANCHOR0
 1384              		.cfi_endproc
 1385              	.LFE142:
 1386              		.size	usbh_MidiSendSysEx, .-usbh_MidiSendSysEx
 1387              		.align	2
 1388              		.p2align 4,,15
 1389              		.global	usbh_MidiGetOutputBufferPending
 1390              		.thumb
 1391              		.thumb_func
 1392              		.type	usbh_MidiGetOutputBufferPending, %function
 1393              	usbh_MidiGetOutputBufferPending:
 1394              	.LFB143:
 1395              		.loc 1 223 0
 1396              		.cfi_startproc
 1397              		@ args = 0, pretend = 0, frame = 0
 1398              		@ frame_needed = 0, uses_anonymous_args = 0
 1399              		@ link register save eliminated.
 1400              		.loc 1 225 0
 1401 0610 094B     		ldr	r3, .L149
 1402 0612 93F80111 		ldrb	r1, [r3, #257]	@ zero_extendqisi2
 1403 0616 93F80021 		ldrb	r2, [r3, #256]	@ zero_extendqisi2
 1404              	.LBB124:
 1405              	.LBB125:
 1406              		.loc 1 226 0
 1407 061a 93F80101 		ldrb	r0, [r3, #257]	@ zero_extendqisi2
ARM GAS  /tmp/ccwBpafy.s 			page 26


 1408              	.LBE125:
 1409              	.LBE124:
 1410              		.loc 1 225 0
 1411 061e 49B2     		sxtb	r1, r1
 1412 0620 52B2     		sxtb	r2, r2
 1413 0622 9142     		cmp	r1, r2
 1414              	.LBB128:
 1415              	.LBB126:
 1416              		.loc 1 226 0
 1417 0624 93F80021 		ldrb	r2, [r3, #256]	@ zero_extendqisi2
 1418              	.LBE126:
 1419              	.LBE128:
 1420              		.loc 1 229 0
 1421 0628 B6BF     		itet	lt
 1422 062a 40B2     		sxtblt	r0, r0
 1423              	.LBB129:
 1424              	.LBB127:
 1425              		.loc 1 226 0
 1426 062c 43B2     		sxtbge	r3, r0
 1427              	.LBE127:
 1428              	.LBE129:
 1429              		.loc 1 229 0
 1430 062e 00F14003 		addlt	r3, r0, #64
 1431 0632 50B2     		sxtb	r0, r2
 1432 0634 181A     		subs	r0, r3, r0
 1433              		.loc 1 230 0
 1434 0636 7047     		bx	lr
 1435              	.L150:
 1436              		.align	2
 1437              	.L149:
 1438 0638 00000000 		.word	.LANCHOR0
 1439              		.cfi_endproc
 1440              	.LFE143:
 1441              		.size	usbh_MidiGetOutputBufferPending, .-usbh_MidiGetOutputBufferPending
 1442              		.align	2
 1443 063c AFF30080 		.p2align 4,,15
 1444              		.global	usbh_MidiGetOutputBufferAvailable
 1445              		.thumb
 1446              		.thumb_func
 1447              		.type	usbh_MidiGetOutputBufferAvailable, %function
 1448              	usbh_MidiGetOutputBufferAvailable:
 1449              	.LFB144:
 1450              		.loc 1 232 0
 1451              		.cfi_startproc
 1452              		@ args = 0, pretend = 0, frame = 0
 1453              		@ frame_needed = 0, uses_anonymous_args = 0
 1454 0640 08B5     		push	{r3, lr}
 1455              		.cfi_def_cfa_offset 8
 1456              		.cfi_offset 3, -8
 1457              		.cfi_offset 14, -4
 1458              		.loc 1 233 0
 1459 0642 FFF7FEFF 		bl	usbh_MidiGetOutputBufferPending
 1460              	.LVL122:
 1461              		.loc 1 234 0
 1462 0646 C0F13F00 		rsb	r0, r0, #63
 1463 064a 08BD     		pop	{r3, pc}
 1464              		.cfi_endproc
ARM GAS  /tmp/ccwBpafy.s 			page 27


 1465              	.LFE144:
 1466              		.size	usbh_MidiGetOutputBufferAvailable, .-usbh_MidiGetOutputBufferAvailable
 1467              		.align	2
 1468 064c AFF30080 		.p2align 4,,15
 1469              		.global	isValidInput
 1470              		.thumb
 1471              		.thumb_func
 1472              		.type	isValidInput, %function
 1473              	isValidInput:
 1474              	.LFB145:
 1475              		.loc 1 258 0
 1476              		.cfi_startproc
 1477              		@ args = 0, pretend = 0, frame = 0
 1478              		@ frame_needed = 0, uses_anonymous_args = 0
 1479              		@ link register save eliminated.
 1480              	.LVL123:
 1481              		.loc 1 259 0
 1482 0650 00B1     		cbz	r0, .L154
 1483              		.loc 1 259 0 is_stmt 0 discriminator 1
 1484 0652 807A     		ldrb	r0, [r0, #10]	@ zero_extendqisi2
 1485              	.LVL124:
 1486              	.L154:
 1487              		.loc 1 260 0 is_stmt 1 discriminator 6
 1488 0654 7047     		bx	lr
 1489              		.cfi_endproc
 1490              	.LFE145:
 1491              		.size	isValidInput, .-isValidInput
 1492 0656 00BF     		.align	2
 1493 0658 AFF30080 		.p2align 4,,15
 1493      AFF30080 
 1494              		.global	isValidOutput
 1495              		.thumb
 1496              		.thumb_func
 1497              		.type	isValidOutput, %function
 1498              	isValidOutput:
 1499              	.LFB146:
 1500              		.loc 1 263 0
 1501              		.cfi_startproc
 1502              		@ args = 0, pretend = 0, frame = 0
 1503              		@ frame_needed = 0, uses_anonymous_args = 0
 1504              		@ link register save eliminated.
 1505              	.LVL125:
 1506              		.loc 1 264 0
 1507 0660 00B1     		cbz	r0, .L157
 1508              		.loc 1 264 0 is_stmt 0 discriminator 1
 1509 0662 C07A     		ldrb	r0, [r0, #11]	@ zero_extendqisi2
 1510              	.LVL126:
 1511              	.L157:
 1512              		.loc 1 265 0 is_stmt 1 discriminator 6
 1513 0664 7047     		bx	lr
 1514              		.cfi_endproc
 1515              	.LFE146:
 1516              		.size	isValidOutput, .-isValidOutput
 1517 0666 00BF     		.align	2
 1518 0668 AFF30080 		.p2align 4,,15
 1518      AFF30080 
 1519              		.global	USBH_MIDI_ProcessInput
ARM GAS  /tmp/ccwBpafy.s 			page 28


 1520              		.thumb
 1521              		.thumb_func
 1522              		.type	USBH_MIDI_ProcessInput, %function
 1523              	USBH_MIDI_ProcessInput:
 1524              	.LFB150:
 1525              		.loc 1 439 0
 1526              		.cfi_startproc
 1527              		@ args = 0, pretend = 0, frame = 0
 1528              		@ frame_needed = 0, uses_anonymous_args = 0
 1529              	.LVL127:
 1530 0670 F8B5     		push	{r3, r4, r5, r6, r7, lr}
 1531              		.cfi_def_cfa_offset 24
 1532              		.cfi_offset 3, -24
 1533              		.cfi_offset 4, -20
 1534              		.cfi_offset 5, -16
 1535              		.cfi_offset 6, -12
 1536              		.cfi_offset 7, -8
 1537              		.cfi_offset 14, -4
 1538              		.loc 1 441 0
 1539 0672 D0F8A435 		ldr	r3, [r0, #1444]
 1540 0676 DC69     		ldr	r4, [r3, #28]
 1541              	.LVL128:
 1542              		.loc 1 439 0
 1543 0678 0646     		mov	r6, r0
 1544              	.LBB130:
 1545              	.LBB131:
 1546              		.loc 1 259 0
 1547 067a 0CB1     		cbz	r4, .L160
 1548 067c A37A     		ldrb	r3, [r4, #10]	@ zero_extendqisi2
 1549 067e 23B9     		cbnz	r3, .L161
 1550              	.L160:
 1551              	.LBE131:
 1552              	.LBE130:
 1553              		.loc 1 444 0
 1554 0680 5748     		ldr	r0, .L204
 1555              	.LVL129:
 1556 0682 FFF7FEFF 		bl	LogTextMessage
 1557              	.LVL130:
 1558              	.L189:
 1559              		.loc 1 532 0
 1560 0686 0020     		movs	r0, #0
 1561 0688 F8BD     		pop	{r3, r4, r5, r6, r7, pc}
 1562              	.LVL131:
 1563              	.L161:
 1564              	.LBB132:
 1565              	.LBB133:
 1566              		.file 2 "./usbh_conf.h"
 1567              		.loc 2 208 0
 1568 068a D0F8F005 		ldr	r0, [r0, #1520]
 1569              	.LVL132:
 1570 068e 6178     		ldrb	r1, [r4, #1]	@ zero_extendqisi2
 1571 0690 FFF7FEFF 		bl	HAL_HCD_HC_GetURBState
 1572              	.LVL133:
 1573              	.LBE133:
 1574              	.LBE132:
 1575              		.loc 1 450 0
 1576 0694 237A     		ldrb	r3, [r4, #8]	@ zero_extendqisi2
ARM GAS  /tmp/ccwBpafy.s 			page 29


 1577              	.LBB135:
 1578              	.LBB134:
 1579              		.loc 2 208 0
 1580 0696 C0B2     		uxtb	r0, r0
 1581              	.LBE134:
 1582              	.LBE135:
 1583              		.loc 1 450 0
 1584 0698 062B     		cmp	r3, #6
 1585 069a F4D8     		bhi	.L189
 1586 069c 01A2     		adr	r2, .L182
 1587 069e 52F823F0 		ldr	pc, [r2, r3, lsl #2]
 1588 06a2 00BF     		.p2align 2
 1589              	.L182:
 1590 06a4 D3060000 		.word	.L197+1
 1591 06a8 87060000 		.word	.L189+1
 1592 06ac 87060000 		.word	.L189+1
 1593 06b0 87060000 		.word	.L189+1
 1594 06b4 19070000 		.word	.L164+1
 1595 06b8 DB060000 		.word	.L167+1
 1596 06bc DB060000 		.word	.L167+1
 1597              		.p2align 1
 1598              	.L200:
 1599              		.loc 1 493 0
 1600 06c0 4848     		ldr	r0, .L204+4
 1601 06c2 FFF7FEFF 		bl	LogTextMessage
 1602              	.LVL134:
 1603              		.loc 1 494 0
 1604 06c6 3046     		mov	r0, r6
 1605 06c8 E178     		ldrb	r1, [r4, #3]	@ zero_extendqisi2
 1606 06ca FFF7FEFF 		bl	USBH_ClrFeature
 1607              	.LVL135:
 1608 06ce 0028     		cmp	r0, #0
 1609 06d0 D9D1     		bne	.L189
 1610              	.L197:
 1611              		.loc 1 495 0
 1612 06d2 0423     		movs	r3, #4
 1613 06d4 2372     		strb	r3, [r4, #8]
 1614              		.loc 1 532 0
 1615 06d6 0020     		movs	r0, #0
 1616 06d8 F8BD     		pop	{r3, r4, r5, r6, r7, pc}
 1617              	.LVL136:
 1618              	.L167:
 1619              		.loc 1 471 0
 1620 06da 0128     		cmp	r0, #1
 1621 06dc 45D0     		beq	.L199
 1622              		.loc 1 492 0
 1623 06de 0528     		cmp	r0, #5
 1624 06e0 EED0     		beq	.L200
 1625              		.loc 1 498 0
 1626 06e2 0028     		cmp	r0, #0
 1627 06e4 CFD1     		bne	.L189
 1628              	.LBB136:
 1629              		.loc 1 508 0
 1630 06e6 3046     		mov	r0, r6
 1631 06e8 6178     		ldrb	r1, [r4, #1]	@ zero_extendqisi2
 1632 06ea FFF7FEFF 		bl	USBH_LL_GetLastXferSize
 1633              	.LVL137:
ARM GAS  /tmp/ccwBpafy.s 			page 30


 1634              		.loc 1 509 0
 1635 06ee 0028     		cmp	r0, #0
 1636 06f0 21DD     		ble	.L181
 1637 06f2 471E     		subs	r7, r0, #1
 1638 06f4 27F00307 		bic	r7, r7, #3
 1639 06f8 0437     		adds	r7, r7, #4
 1640 06fa 2744     		add	r7, r7, r4
 1641 06fc 2546     		mov	r5, r4
 1642 06fe 02E0     		b	.L180
 1643              	.LVL138:
 1644              	.L179:
 1645 0700 0435     		adds	r5, r5, #4
 1646              		.loc 1 509 0 is_stmt 0 discriminator 2
 1647 0702 BD42     		cmp	r5, r7
 1648 0704 17D0     		beq	.L181
 1649              	.L180:
 1650              		.loc 1 510 0 is_stmt 1
 1651 0706 287B     		ldrb	r0, [r5, #12]	@ zero_extendqisi2
 1652 0708 0028     		cmp	r0, #0
 1653 070a F9D0     		beq	.L179
 1654              		.loc 1 511 0
 1655 070c 697B     		ldrb	r1, [r5, #13]	@ zero_extendqisi2
 1656 070e AA7B     		ldrb	r2, [r5, #14]	@ zero_extendqisi2
 1657 0710 EB7B     		ldrb	r3, [r5, #15]	@ zero_extendqisi2
 1658 0712 FFF7FEFF 		bl	MIDI_CB
 1659              	.LVL139:
 1660 0716 F3E7     		b	.L179
 1661              	.L164:
 1662              	.LBE136:
 1663              		.loc 1 456 0
 1664 0718 0528     		cmp	r0, #5
 1665 071a 1ED0     		beq	.L201
 1666              		.loc 1 459 0
 1667 071c 0428     		cmp	r0, #4
 1668 071e 14D0     		beq	.L202
 1669              	.L166:
 1670              		.loc 1 464 0
 1671 0720 6378     		ldrb	r3, [r4, #1]	@ zero_extendqisi2
 1672 0722 E288     		ldrh	r2, [r4, #6]
 1673 0724 3046     		mov	r0, r6
 1674 0726 04F10C01 		add	r1, r4, #12
 1675 072a FFF7FEFF 		bl	USBH_BulkReceiveData
 1676              	.LVL140:
 1677              		.loc 1 465 0
 1678 072e 0523     		movs	r3, #5
 1679 0730 2372     		strb	r3, [r4, #8]
 1680              		.loc 1 532 0
 1681 0732 0020     		movs	r0, #0
 1682 0734 F8BD     		pop	{r3, r4, r5, r6, r7, pc}
 1683              	.LVL141:
 1684              	.L181:
 1685              	.LBB137:
 1686              		.loc 1 518 0
 1687 0736 6378     		ldrb	r3, [r4, #1]	@ zero_extendqisi2
 1688 0738 E288     		ldrh	r2, [r4, #6]
 1689 073a 3046     		mov	r0, r6
 1690 073c 04F10C01 		add	r1, r4, #12
ARM GAS  /tmp/ccwBpafy.s 			page 31


 1691 0740 FFF7FEFF 		bl	USBH_BulkReceiveData
 1692              	.LVL142:
 1693              		.loc 1 519 0
 1694 0744 0623     		movs	r3, #6
 1695 0746 2372     		strb	r3, [r4, #8]
 1696              	.LBE137:
 1697 0748 9DE7     		b	.L189
 1698              	.L202:
 1699              		.loc 1 460 0
 1700 074a 2748     		ldr	r0, .L204+8
 1701 074c FFF7FEFF 		bl	LogTextMessage
 1702              	.LVL143:
 1703              		.loc 1 461 0
 1704 0750 3046     		mov	r0, r6
 1705 0752 E178     		ldrb	r1, [r4, #3]	@ zero_extendqisi2
 1706 0754 FFF7FEFF 		bl	USBH_ClrFeature
 1707              	.LVL144:
 1708 0758 E2E7     		b	.L166
 1709              	.L201:
 1710              		.loc 1 457 0
 1711 075a 2448     		ldr	r0, .L204+12
 1712 075c FFF7FEFF 		bl	LogTextMessage
 1713              	.LVL145:
 1714              		.loc 1 458 0
 1715 0760 3046     		mov	r0, r6
 1716 0762 E178     		ldrb	r1, [r4, #3]	@ zero_extendqisi2
 1717 0764 FFF7FEFF 		bl	USBH_ClrFeature
 1718              	.LVL146:
 1719 0768 DAE7     		b	.L166
 1720              	.L199:
 1721              	.LBB138:
 1722              		.loc 1 475 0
 1723 076a 3046     		mov	r0, r6
 1724 076c 6178     		ldrb	r1, [r4, #1]	@ zero_extendqisi2
 1725 076e FFF7FEFF 		bl	USBH_LL_GetLastXferSize
 1726              	.LVL147:
 1727              		.loc 1 476 0
 1728 0772 0028     		cmp	r0, #0
 1729 0774 12DD     		ble	.L174
 1730 0776 471E     		subs	r7, r0, #1
 1731 0778 27F00307 		bic	r7, r7, #3
 1732 077c 0437     		adds	r7, r7, #4
 1733 077e 2744     		add	r7, r7, r4
 1734 0780 2546     		mov	r5, r4
 1735 0782 02E0     		b	.L173
 1736              	.LVL148:
 1737              	.L172:
 1738 0784 0435     		adds	r5, r5, #4
 1739              		.loc 1 476 0 is_stmt 0 discriminator 2
 1740 0786 BD42     		cmp	r5, r7
 1741 0788 08D0     		beq	.L174
 1742              	.L173:
 1743              		.loc 1 477 0 is_stmt 1
 1744 078a 287B     		ldrb	r0, [r5, #12]	@ zero_extendqisi2
 1745 078c 0028     		cmp	r0, #0
 1746 078e F9D0     		beq	.L172
 1747              		.loc 1 478 0
ARM GAS  /tmp/ccwBpafy.s 			page 32


 1748 0790 697B     		ldrb	r1, [r5, #13]	@ zero_extendqisi2
 1749 0792 AA7B     		ldrb	r2, [r5, #14]	@ zero_extendqisi2
 1750 0794 EB7B     		ldrb	r3, [r5, #15]	@ zero_extendqisi2
 1751 0796 FFF7FEFF 		bl	MIDI_CB
 1752              	.LVL149:
 1753 079a F3E7     		b	.L172
 1754              	.L174:
 1755              		.loc 1 483 0
 1756 079c 0523     		movs	r3, #5
 1757 079e 2372     		strb	r3, [r4, #8]
 1758              	.LVL150:
 1759              	.LBB139:
 1760              	.LBB140:
 1761              		.loc 2 208 0
 1762 07a0 D6F8F005 		ldr	r0, [r6, #1520]
 1763 07a4 6178     		ldrb	r1, [r4, #1]	@ zero_extendqisi2
 1764 07a6 FFF7FEFF 		bl	HAL_HCD_HC_GetURBState
 1765              	.LVL151:
 1766              	.LBE140:
 1767              	.LBE139:
 1768              		.loc 1 485 0
 1769 07aa C5B2     		uxtb	r5, r0
 1770 07ac 012D     		cmp	r5, #1
 1771 07ae 0FD0     		beq	.L203
 1772              		.loc 1 486 0
 1773 07b0 2946     		mov	r1, r5
 1774 07b2 0F48     		ldr	r0, .L204+16
 1775 07b4 FFF7FEFF 		bl	LogTextMessage
 1776              	.LVL152:
 1777              		.loc 1 488 0
 1778 07b8 04F10C01 		add	r1, r4, #12
 1779 07bc 3046     		mov	r0, r6
 1780 07be E288     		ldrh	r2, [r4, #6]
 1781 07c0 6378     		ldrb	r3, [r4, #1]	@ zero_extendqisi2
 1782 07c2 FFF7FEFF 		bl	USBH_BulkReceiveData
 1783              	.LVL153:
 1784              		.loc 1 490 0
 1785 07c6 2946     		mov	r1, r5
 1786 07c8 0A48     		ldr	r0, .L204+20
 1787 07ca FFF7FEFF 		bl	LogTextMessage
 1788              	.LVL154:
 1789 07ce 5AE7     		b	.L189
 1790              	.L203:
 1791              		.loc 1 488 0
 1792 07d0 3046     		mov	r0, r6
 1793 07d2 04F10C01 		add	r1, r4, #12
 1794 07d6 E288     		ldrh	r2, [r4, #6]
 1795 07d8 6378     		ldrb	r3, [r4, #1]	@ zero_extendqisi2
 1796 07da FFF7FEFF 		bl	USBH_BulkReceiveData
 1797              	.LVL155:
 1798 07de 52E7     		b	.L189
 1799              	.L205:
 1800              		.align	2
 1801              	.L204:
 1802 07e0 6C010000 		.word	.LC11
 1803 07e4 48010000 		.word	.LC10
 1804 07e8 00010000 		.word	.LC7
ARM GAS  /tmp/ccwBpafy.s 			page 33


 1805 07ec E0000000 		.word	.LC6
 1806 07f0 20010000 		.word	.LC8
 1807 07f4 34010000 		.word	.LC9
 1808              	.LBE138:
 1809              		.cfi_endproc
 1810              	.LFE150:
 1811              		.size	USBH_MIDI_ProcessInput, .-USBH_MIDI_ProcessInput
 1812              		.align	2
 1813 07f8 AFF30080 		.p2align 4,,15
 1813      AFF30080 
 1814              		.global	USBH_MIDI_ProcessOutput
 1815              		.thumb
 1816              		.thumb_func
 1817              		.type	USBH_MIDI_ProcessOutput, %function
 1818              	USBH_MIDI_ProcessOutput:
 1819              	.LFB151:
 1820              		.loc 1 537 0
 1821              		.cfi_startproc
 1822              		@ args = 0, pretend = 0, frame = 8
 1823              		@ frame_needed = 0, uses_anonymous_args = 0
 1824              	.LVL156:
 1825 0800 2DE9F04F 		push	{r4, r5, r6, r7, r8, r9, r10, fp, lr}
 1826              		.cfi_def_cfa_offset 36
 1827              		.cfi_offset 4, -36
 1828              		.cfi_offset 5, -32
 1829              		.cfi_offset 6, -28
 1830              		.cfi_offset 7, -24
 1831              		.cfi_offset 8, -20
 1832              		.cfi_offset 9, -16
 1833              		.cfi_offset 10, -12
 1834              		.cfi_offset 11, -8
 1835              		.cfi_offset 14, -4
 1836              		.loc 1 539 0
 1837 0804 D0F8A435 		ldr	r3, [r0, #1444]
 1838 0808 DC69     		ldr	r4, [r3, #28]
 1839              	.LVL157:
 1840              		.loc 1 537 0
 1841 080a 85B0     		sub	sp, sp, #20
 1842              		.cfi_def_cfa_offset 56
 1843              		.loc 1 537 0
 1844 080c 8046     		mov	r8, r0
 1845              	.LBB141:
 1846              	.LBB142:
 1847              		.loc 1 264 0
 1848 080e 0CB1     		cbz	r4, .L207
 1849 0810 E37A     		ldrb	r3, [r4, #11]	@ zero_extendqisi2
 1850 0812 33B9     		cbnz	r3, .L208
 1851              	.L207:
 1852              	.LBE142:
 1853              	.LBE141:
 1854              		.loc 1 542 0
 1855 0814 7548     		ldr	r0, .L245
 1856              	.LVL158:
 1857 0816 FFF7FEFF 		bl	LogTextMessage
 1858              	.LVL159:
 1859              	.L232:
 1860              		.loc 1 666 0
ARM GAS  /tmp/ccwBpafy.s 			page 34


 1861 081a 0020     		movs	r0, #0
 1862 081c 05B0     		add	sp, sp, #20
 1863              		.cfi_remember_state
 1864              		.cfi_def_cfa_offset 36
 1865              		@ sp needed
 1866 081e BDE8F08F 		pop	{r4, r5, r6, r7, r8, r9, r10, fp, pc}
 1867              	.LVL160:
 1868              	.L208:
 1869              		.cfi_restore_state
 1870              	.LBB143:
 1871              	.LBB144:
 1872              		.loc 2 208 0
 1873 0822 2178     		ldrb	r1, [r4]	@ zero_extendqisi2
 1874 0824 D0F8F005 		ldr	r0, [r0, #1520]
 1875              	.LVL161:
 1876 0828 FFF7FEFF 		bl	HAL_HCD_HC_GetURBState
 1877              	.LVL162:
 1878              	.LBE144:
 1879              	.LBE143:
 1880              		.loc 1 548 0
 1881 082c 637A     		ldrb	r3, [r4, #9]	@ zero_extendqisi2
 1882              	.LBB146:
 1883              	.LBB145:
 1884              		.loc 2 208 0
 1885 082e C1B2     		uxtb	r1, r0
 1886              	.LBE145:
 1887              	.LBE146:
 1888              		.loc 1 548 0
 1889 0830 062B     		cmp	r3, #6
 1890 0832 F2D8     		bhi	.L232
 1891 0834 01A2     		adr	r2, .L226
 1892 0836 52F823F0 		ldr	pc, [r2, r3, lsl #2]
 1893 083a 00BF     		.p2align 2
 1894              	.L226:
 1895 083c 6B090000 		.word	.L209+1
 1896 0840 1B080000 		.word	.L232+1
 1897 0844 A7080000 		.word	.L219+1
 1898 0848 1B080000 		.word	.L232+1
 1899 084c 1B080000 		.word	.L232+1
 1900 0850 79080000 		.word	.L211+1
 1901 0854 59080000 		.word	.L225+1
 1902              		.p2align 1
 1903              	.L225:
 1904              		.loc 1 652 0
 1905 0858 94F88C20 		ldrb	r2, [r4, #140]	@ zero_extendqisi2
 1906              	.LVL163:
 1907              	.L237:
 1908 085c 2378     		ldrb	r3, [r4]	@ zero_extendqisi2
 1909 085e 0021     		movs	r1, #0
 1910 0860 0091     		str	r1, [sp]
 1911 0862 4046     		mov	r0, r8
 1912 0864 04F14C01 		add	r1, r4, #76
 1913 0868 FFF7FEFF 		bl	USBH_BulkSendData
 1914              	.LVL164:
 1915              		.loc 1 656 0
 1916 086c 0523     		movs	r3, #5
 1917              		.loc 1 666 0
ARM GAS  /tmp/ccwBpafy.s 			page 35


 1918 086e 0020     		movs	r0, #0
 1919              		.loc 1 656 0
 1920 0870 6372     		strb	r3, [r4, #9]
 1921              		.loc 1 666 0
 1922 0872 05B0     		add	sp, sp, #20
 1923              		.cfi_remember_state
 1924              		.cfi_def_cfa_offset 36
 1925              		@ sp needed
 1926 0874 BDE8F08F 		pop	{r4, r5, r6, r7, r8, r9, r10, fp, pc}
 1927              	.LVL165:
 1928              	.L211:
 1929              		.cfi_restore_state
 1930              		.loc 1 555 0
 1931 0878 0129     		cmp	r1, #1
 1932 087a 00F08580 		beq	.L238
 1933              		.loc 1 560 0
 1934 087e 0229     		cmp	r1, #2
 1935 0880 00F0AC80 		beq	.L239
 1936              		.loc 1 566 0
 1937 0884 0029     		cmp	r1, #0
 1938 0886 7CD0     		beq	.L240
 1939              		.loc 1 586 0
 1940 0888 0429     		cmp	r1, #4
 1941 088a 00F0AD80 		beq	.L241
 1942              		.loc 1 592 0
 1943 088e 0529     		cmp	r1, #5
 1944 0890 00F09080 		beq	.L242
 1945              		.loc 1 606 0
 1946 0894 5648     		ldr	r0, .L245+4
 1947 0896 FFF7FEFF 		bl	LogTextMessage
 1948              	.LVL166:
 1949              		.loc 1 607 0
 1950 089a 0222     		movs	r2, #2
 1951              		.loc 1 608 0
 1952 089c 0023     		movs	r3, #0
 1953              		.loc 1 607 0
 1954 089e 6272     		strb	r2, [r4, #9]
 1955              		.loc 1 608 0
 1956 08a0 84F88C30 		strb	r3, [r4, #140]
 1957              		.loc 1 609 0
 1958 08a4 B9E7     		b	.L232
 1959              	.L219:
 1960              		.loc 1 613 0
 1961 08a6 0529     		cmp	r1, #5
 1962 08a8 74D0     		beq	.L243
 1963              		.loc 1 616 0
 1964 08aa 0429     		cmp	r1, #4
 1965 08ac 7AD0     		beq	.L244
 1966              	.L213:
 1967              		.loc 1 620 0
 1968 08ae 514B     		ldr	r3, .L245+8
 1969 08b0 93F80021 		ldrb	r2, [r3, #256]	@ zero_extendqisi2
 1970 08b4 93F80111 		ldrb	r1, [r3, #257]	@ zero_extendqisi2
 1971 08b8 9142     		cmp	r1, r2
 1972 08ba AED0     		beq	.L232
 1973              		.loc 1 622 0
 1974 08bc 93F80011 		ldrb	r1, [r3, #256]	@ zero_extendqisi2
ARM GAS  /tmp/ccwBpafy.s 			page 36


 1975 08c0 93F80101 		ldrb	r0, [r3, #257]	@ zero_extendqisi2
 1976              		.loc 1 621 0
 1977 08c4 0022     		movs	r2, #0
 1978              		.loc 1 622 0
 1979 08c6 8842     		cmp	r0, r1
 1980              		.loc 1 621 0
 1981 08c8 84F88C20 		strb	r2, [r4, #140]
 1982              		.loc 1 622 0
 1983 08cc C6D0     		beq	.L237
 1984              		.loc 1 623 0
 1985 08ce A188     		ldrh	r1, [r4, #4]
 1986 08d0 0291     		str	r1, [sp, #8]
 1987 08d2 0329     		cmp	r1, #3
 1988 08d4 C2DD     		ble	.L237
 1989 08d6 9146     		mov	r9, r2
 1990 08d8 4FF0030C 		mov	ip, #3
 1991 08dc 0422     		movs	r2, #4
 1992 08de CDF80C80 		str	r8, [sp, #12]
 1993 08e2 2CE0     		b	.L224
 1994              	.LVL167:
 1995              	.L222:
 1996              		.loc 1 625 0
 1997 08e4 C9B2     		uxtb	r1, r1
 1998 08e6 83F80011 		strb	r1, [r3, #256]
 1999              		.loc 1 636 0
 2000 08ea 93F800E1 		ldrb	lr, [r3, #256]	@ zero_extendqisi2
 2001              		.loc 1 637 0
 2002 08ee 93F80051 		ldrb	r5, [r3, #256]	@ zero_extendqisi2
 2003              		.loc 1 638 0
 2004 08f2 93F80001 		ldrb	r0, [r3, #256]	@ zero_extendqisi2
 2005              		.loc 1 639 0
 2006 08f6 93F80011 		ldrb	r1, [r3, #256]	@ zero_extendqisi2
 2007              		.loc 1 622 0
 2008 08fa 93F80081 		ldrb	r8, [r3, #256]	@ zero_extendqisi2
 2009 08fe 93F801A1 		ldrb	r10, [r3, #257]	@ zero_extendqisi2
 2010              		.loc 1 637 0
 2011 0902 6DB2     		sxtb	r5, r5
 2012              		.loc 1 638 0
 2013 0904 40B2     		sxtb	r0, r0
 2014              		.loc 1 639 0
 2015 0906 49B2     		sxtb	r1, r1
 2016              		.loc 1 636 0
 2017 0908 4FFA8EFE 		sxtb	lr, lr
 2018              		.loc 1 637 0
 2019 090c 03EB8505 		add	r5, r3, r5, lsl #2
 2020              		.loc 1 638 0
 2021 0910 03EB8000 		add	r0, r3, r0, lsl #2
 2022              		.loc 1 639 0
 2023 0914 03EB8101 		add	r1, r3, r1, lsl #2
 2024              		.loc 1 636 0
 2025 0918 13F82EE0 		ldrb	lr, [r3, lr, lsl #2]	@ zero_extendqisi2
 2026              		.loc 1 637 0
 2027 091c 6D78     		ldrb	r5, [r5, #1]	@ zero_extendqisi2
 2028              		.loc 1 638 0
 2029 091e 8078     		ldrb	r0, [r0, #2]	@ zero_extendqisi2
 2030              		.loc 1 639 0
 2031 0920 C978     		ldrb	r1, [r1, #3]	@ zero_extendqisi2
ARM GAS  /tmp/ccwBpafy.s 			page 37


 2032              		.loc 1 636 0
 2033 0922 87F84CE0 		strb	lr, [r7, #76]
 2034              		.loc 1 622 0
 2035 0926 C245     		cmp	r10, r8
 2036              		.loc 1 637 0
 2037 0928 87F84D50 		strb	r5, [r7, #77]
 2038              		.loc 1 638 0
 2039 092c 87F84E00 		strb	r0, [r7, #78]
 2040              		.loc 1 639 0
 2041 0930 8BF84C10 		strb	r1, [fp, #76]
 2042              		.loc 1 622 0
 2043 0934 1FD0     		beq	.L235
 2044              		.loc 1 623 0
 2045 0936 0299     		ldr	r1, [sp, #8]
 2046 0938 8C45     		cmp	ip, r1
 2047 093a 1CDA     		bge	.L235
 2048 093c 3246     		mov	r2, r6
 2049              	.L224:
 2050              		.loc 1 625 0
 2051 093e 93F80001 		ldrb	r0, [r3, #256]	@ zero_extendqisi2
 2052 0942 2D49     		ldr	r1, .L245+12
 2053 0944 40B2     		sxtb	r0, r0
 2054 0946 0130     		adds	r0, r0, #1
 2055 0948 0140     		ands	r1, r1, r0
 2056 094a 161D     		adds	r6, r2, #4
 2057 094c 0029     		cmp	r1, #0
 2058              		.loc 1 636 0
 2059 094e 04EB0907 		add	r7, r4, r9
 2060              		.loc 1 639 0
 2061 0952 04EB0C0B 		add	fp, r4, ip
 2062              		.loc 1 623 0
 2063 0956 9146     		mov	r9, r2
 2064 0958 02F1030C 		add	ip, r2, #3
 2065 095c F6B2     		uxtb	r6, r6
 2066              		.loc 1 625 0
 2067 095e C1DA     		bge	.L222
 2068 0960 0139     		subs	r1, r1, #1
 2069 0962 61F03F01 		orn	r1, r1, #63
 2070 0966 0131     		adds	r1, r1, #1
 2071 0968 BCE7     		b	.L222
 2072              	.LVL168:
 2073              	.L209:
 2074              		.loc 1 550 0
 2075 096a 0223     		movs	r3, #2
 2076              		.loc 1 666 0
 2077 096c 0020     		movs	r0, #0
 2078              		.loc 1 550 0
 2079 096e 6372     		strb	r3, [r4, #9]
 2080              		.loc 1 666 0
 2081 0970 05B0     		add	sp, sp, #20
 2082              		.cfi_remember_state
 2083              		.cfi_def_cfa_offset 36
 2084              		@ sp needed
 2085 0972 BDE8F08F 		pop	{r4, r5, r6, r7, r8, r9, r10, fp, pc}
 2086              	.LVL169:
 2087              	.L235:
 2088              		.cfi_restore_state
ARM GAS  /tmp/ccwBpafy.s 			page 38


 2089 0976 84F88C20 		strb	r2, [r4, #140]
 2090 097a DDF80C80 		ldr	r8, [sp, #12]
 2091 097e 92B2     		uxth	r2, r2
 2092 0980 6CE7     		b	.L237
 2093              	.LVL170:
 2094              	.L240:
 2095              		.loc 1 581 0
 2096 0982 0623     		movs	r3, #6
 2097 0984 6372     		strb	r3, [r4, #9]
 2098              		.loc 1 582 0
 2099 0986 48E7     		b	.L232
 2100              	.L238:
 2101              		.loc 1 556 0
 2102 0988 0022     		movs	r2, #0
 2103              		.loc 1 557 0
 2104 098a 0223     		movs	r3, #2
 2105              		.loc 1 556 0
 2106 098c 84F88C20 		strb	r2, [r4, #140]
 2107              		.loc 1 557 0
 2108 0990 6372     		strb	r3, [r4, #9]
 2109 0992 8CE7     		b	.L213
 2110              	.L243:
 2111              		.loc 1 614 0
 2112 0994 1948     		ldr	r0, .L245+16
 2113 0996 FFF7FEFF 		bl	LogTextMessage
 2114              	.LVL171:
 2115              		.loc 1 615 0
 2116 099a 4046     		mov	r0, r8
 2117 099c A178     		ldrb	r1, [r4, #2]	@ zero_extendqisi2
 2118 099e FFF7FEFF 		bl	USBH_ClrFeature
 2119              	.LVL172:
 2120 09a2 84E7     		b	.L213
 2121              	.L244:
 2122              		.loc 1 617 0
 2123 09a4 1648     		ldr	r0, .L245+20
 2124 09a6 FFF7FEFF 		bl	LogTextMessage
 2125              	.LVL173:
 2126              		.loc 1 618 0
 2127 09aa 4046     		mov	r0, r8
 2128 09ac A178     		ldrb	r1, [r4, #2]	@ zero_extendqisi2
 2129 09ae FFF7FEFF 		bl	USBH_ClrFeature
 2130              	.LVL174:
 2131 09b2 7CE7     		b	.L213
 2132              	.L242:
 2133              		.loc 1 594 0
 2134 09b4 4046     		mov	r0, r8
 2135 09b6 A178     		ldrb	r1, [r4, #2]	@ zero_extendqisi2
 2136 09b8 FFF7FEFF 		bl	USBH_ClrFeature
 2137              	.LVL175:
 2138 09bc 28B9     		cbnz	r0, .L218
 2139              		.loc 1 595 0
 2140 09be 0223     		movs	r3, #2
 2141 09c0 6372     		strb	r3, [r4, #9]
 2142              		.loc 1 596 0
 2143 09c2 1048     		ldr	r0, .L245+24
 2144 09c4 FFF7FEFF 		bl	LogTextMessage
 2145              	.LVL176:
ARM GAS  /tmp/ccwBpafy.s 			page 39


 2146 09c8 27E7     		b	.L232
 2147              	.L218:
 2148              		.loc 1 599 0
 2149 09ca 0F48     		ldr	r0, .L245+28
 2150              	.L236:
 2151 09cc FFF7FEFF 		bl	LogTextMessage
 2152              	.LVL177:
 2153              		.loc 1 600 0
 2154 09d0 0222     		movs	r2, #2
 2155              		.loc 1 601 0
 2156 09d2 0023     		movs	r3, #0
 2157              		.loc 1 600 0
 2158 09d4 6272     		strb	r2, [r4, #9]
 2159              		.loc 1 601 0
 2160 09d6 84F88C30 		strb	r3, [r4, #140]
 2161 09da 1EE7     		b	.L232
 2162              	.L239:
 2163              		.loc 1 561 0
 2164 09dc 0B48     		ldr	r0, .L245+32
 2165 09de FFF7FEFF 		bl	LogTextMessage
 2166              	.LVL178:
 2167              		.loc 1 563 0
 2168 09e2 94F88C20 		ldrb	r2, [r4, #140]	@ zero_extendqisi2
 2169 09e6 39E7     		b	.L237
 2170              	.L241:
 2171              		.loc 1 588 0
 2172 09e8 0948     		ldr	r0, .L245+36
 2173 09ea EFE7     		b	.L236
 2174              	.L246:
 2175              		.align	2
 2176              	.L245:
 2177 09ec 94020000 		.word	.LC19
 2178 09f0 2C020000 		.word	.LC16
 2179 09f4 00000000 		.word	.LANCHOR0
 2180 09f8 3F000080 		.word	-2147483585
 2181 09fc 5C020000 		.word	.LC17
 2182 0a00 78020000 		.word	.LC18
 2183 0a04 D4010000 		.word	.LC14
 2184 0a08 F8010000 		.word	.LC15
 2185 0a0c 94010000 		.word	.LC12
 2186 0a10 B0010000 		.word	.LC13
 2187              		.cfi_endproc
 2188              	.LFE151:
 2189              		.size	USBH_MIDI_ProcessOutput, .-USBH_MIDI_ProcessOutput
 2190              		.align	2
 2191 0a14 AFF30080 		.p2align 4,,15
 2191      AFF30080 
 2191      AFF30080 
 2192              		.global	USBH_MIDI_Process
 2193              		.thumb
 2194              		.thumb_func
 2195              		.type	USBH_MIDI_Process, %function
 2196              	USBH_MIDI_Process:
 2197              	.LFB152:
 2198              		.loc 1 668 0
 2199              		.cfi_startproc
 2200              		@ args = 0, pretend = 0, frame = 0
ARM GAS  /tmp/ccwBpafy.s 			page 40


 2201              		@ frame_needed = 0, uses_anonymous_args = 0
 2202              	.LVL179:
 2203 0a20 10B5     		push	{r4, lr}
 2204              		.cfi_def_cfa_offset 8
 2205              		.cfi_offset 4, -8
 2206              		.cfi_offset 14, -4
 2207              		.loc 1 668 0
 2208 0a22 0446     		mov	r4, r0
 2209              		.loc 1 671 0
 2210 0a24 FFF7FEFF 		bl	USBH_MIDI_ProcessInput
 2211              	.LVL180:
 2212              		.loc 1 672 0
 2213 0a28 00B1     		cbz	r0, .L250
 2214              		.loc 1 676 0
 2215 0a2a 10BD     		pop	{r4, pc}
 2216              	.LVL181:
 2217              	.L250:
 2218              		.loc 1 674 0
 2219 0a2c 2046     		mov	r0, r4
 2220              	.LVL182:
 2221              		.loc 1 676 0
 2222 0a2e BDE81040 		pop	{r4, lr}
 2223              		.cfi_restore 14
 2224              		.cfi_restore 4
 2225              		.cfi_def_cfa_offset 0
 2226              	.LVL183:
 2227              		.loc 1 674 0
 2228 0a32 FFF7FEBF 		b	USBH_MIDI_ProcessOutput
 2229              	.LVL184:
 2230              		.cfi_endproc
 2231              	.LFE152:
 2232              		.size	USBH_MIDI_Process, .-USBH_MIDI_Process
 2233              		.global	MIDI_Class
 2234              		.comm	MIDI_Setup,8,4
 2235              		.data
 2236              		.align	2
 2237              		.type	MIDI_Class, %object
 2238              		.size	MIDI_Class, 32
 2239              	MIDI_Class:
 2240 0000 C0020000 		.word	.LC20
 2241 0004 01       		.byte	1
 2242 0005 000000   		.space	3
 2243 0008 00000000 		.word	USBH_MIDI_InterfaceInit
 2244 000c 00000000 		.word	USBH_MIDI_InterfaceDeInit
 2245 0010 00000000 		.word	USBH_MIDI_ClassRequest
 2246 0014 00000000 		.word	USBH_MIDI_Process
 2247 0018 00000000 		.word	USBH_MIDI_SOFProcess
 2248 001c 00000000 		.word	0
 2249              		.section	.rodata.str1.4,"aMS",%progbits,1
 2250              		.align	2
 2251              	.LC0:
 2252 0000 55534220 		.ascii	"USB Host Input size requests : %x\000"
 2252      486F7374 
 2252      20496E70 
 2252      75742073 
 2252      697A6520 
 2253 0022 0000     		.space	2
ARM GAS  /tmp/ccwBpafy.s 			page 41


 2254              	.LC1:
 2255 0024 55534220 		.ascii	"USB Host Output size requests : %x\000"
 2255      486F7374 
 2255      204F7574 
 2255      70757420 
 2255      73697A65 
 2256 0047 00       		.space	1
 2257              	.LC2:
 2258 0048 55534220 		.ascii	"USB Host Output connected to %x : %x\000"
 2258      486F7374 
 2258      204F7574 
 2258      70757420 
 2258      636F6E6E 
 2259 006d 000000   		.space	3
 2260              	.LC3:
 2261 0070 55534220 		.ascii	"USB Host Input connected to %x : %x\000"
 2261      486F7374 
 2261      20496E70 
 2261      75742063 
 2261      6F6E6E65 
 2262              	.LC4:
 2263 0094 55534220 		.ascii	"USB Host : device disconnected\000"
 2263      486F7374 
 2263      203A2064 
 2263      65766963 
 2263      65206469 
 2264 00b3 00       		.space	1
 2265              	.LC5:
 2266 00b4 55534248 		.ascii	"USBH_MIDI_SOFProcess : invalid input/output\000"
 2266      5F4D4944 
 2266      495F534F 
 2266      4650726F 
 2266      63657373 
 2267              	.LC6:
 2268 00e0 55534220 		.ascii	"USB Host Input,GD  URB STALL\000"
 2268      486F7374 
 2268      20496E70 
 2268      75742C47 
 2268      44202055 
 2269 00fd 000000   		.space	3
 2270              	.LC7:
 2271 0100 55534220 		.ascii	"USB Host Input,GD  URB ERROR\000"
 2271      486F7374 
 2271      20496E70 
 2271      75742C47 
 2271      44202055 
 2272 011d 000000   		.space	3
 2273              	.LC8:
 2274 0120 55524230 		.ascii	"URB0 Not done %d\000"
 2274      204E6F74 
 2274      20646F6E 
 2274      65202564 
 2274      00
 2275 0131 000000   		.space	3
 2276              	.LC9:
 2277 0134 55524231 		.ascii	"URB1 Not done %d\000"
 2277      204E6F74 
ARM GAS  /tmp/ccwBpafy.s 			page 42


 2277      20646F6E 
 2277      65202564 
 2277      00
 2278 0145 000000   		.space	3
 2279              	.LC10:
 2280 0148 55534220 		.ascii	"USB Host Input,POLL  URB STALL 2\000"
 2280      486F7374 
 2280      20496E70 
 2280      75742C50 
 2280      4F4C4C20 
 2281 0169 000000   		.space	3
 2282              	.LC11:
 2283 016c 55534248 		.ascii	"USBH_MIDI_ProcessInput : invalid input\000"
 2283      5F4D4944 
 2283      495F5072 
 2283      6F636573 
 2283      73496E70 
 2284 0193 00       		.space	1
 2285              	.LC12:
 2286 0194 55534220 		.ascii	"USB Host Output NOT READY\000"
 2286      486F7374 
 2286      204F7574 
 2286      70757420 
 2286      4E4F5420 
 2287 01ae 0000     		.space	2
 2288              	.LC13:
 2289 01b0 55534220 		.ascii	"USB Host Output Error sending data\000"
 2289      486F7374 
 2289      204F7574 
 2289      70757420 
 2289      4572726F 
 2290 01d3 00       		.space	1
 2291              	.LC14:
 2292 01d4 55534220 		.ascii	"USB Host Output STALLED and cleared\000"
 2292      486F7374 
 2292      204F7574 
 2292      70757420 
 2292      5354414C 
 2293              	.LC15:
 2294 01f8 55534220 		.ascii	"USB Host Output  write pipe stalled unable to clear"
 2294      486F7374 
 2294      204F7574 
 2294      70757420 
 2294      20777269 
 2295 022b 00       		.ascii	"\000"
 2296              	.LC16:
 2297 022c 55534220 		.ascii	"USB Host Output  unknown state sending data %x \000"
 2297      486F7374 
 2297      204F7574 
 2297      70757420 
 2297      20756E6B 
 2298              	.LC17:
 2299 025c 55534220 		.ascii	"USB Host Output(SD) STALL\000"
 2299      486F7374 
 2299      204F7574 
 2299      70757428 
 2299      53442920 
ARM GAS  /tmp/ccwBpafy.s 			page 43


 2300 0276 0000     		.space	2
 2301              	.LC18:
 2302 0278 55534220 		.ascii	"USB Host Output(SD) ERROR\000"
 2302      486F7374 
 2302      204F7574 
 2302      70757428 
 2302      53442920 
 2303 0292 0000     		.space	2
 2304              	.LC19:
 2305 0294 55534248 		.ascii	"USBH_MIDI_ProcessOutput : invalid output\000"
 2305      5F4D4944 
 2305      495F5072 
 2305      6F636573 
 2305      734F7574 
 2306 02bd 000000   		.space	3
 2307              	.LC20:
 2308 02c0 4D494400 		.ascii	"MID\000"
 2309              		.bss
 2310              		.align	2
 2311              		.set	.LANCHOR0,. + 0
 2312              		.type	send_ring_buffer, %object
 2313              		.size	send_ring_buffer, 258
 2314              	send_ring_buffer:
 2315 0000 00000000 		.space	258
 2315      00000000 
 2315      00000000 
 2315      00000000 
 2315      00000000 
 2316              		.text
 2317              	.Letext0:
 2318              		.file 3 "/d_drive/axoloti/platform_linux/arm-none-eabi/include/machine/_default_types.h"
 2319              		.file 4 "/d_drive/axoloti/platform_linux/arm-none-eabi/include/sys/_stdint.h"
 2320              		.file 5 "/d_drive/axoloti/platform_linux/lib/gcc/arm-none-eabi/4.9.3/include/stddef.h"
 2321              		.file 6 "/d_drive/axoloti/platform_linux/../chibios/os/ports/GCC/ARMCMx/chtypes.h"
 2322              		.file 7 "/d_drive/axoloti/platform_linux/../chibios/os/kernel/include/chlists.h"
 2323              		.file 8 "/d_drive/axoloti/platform_linux/../chibios/os/kernel/include/chthreads.h"
 2324              		.file 9 "/d_drive/axoloti/platform_linux/../chibios/os/ports/GCC/ARMCMx/chcore_v7m.h"
 2325              		.file 10 "/d_drive/axoloti/platform_linux/../chibios/os/kernel/include/chmtx.h"
 2326              		.file 11 "./STM32_USB_Host_Library/Core/Inc/usbh_def.h"
 2327              		.file 12 "usbh_midi_core.h"
 2328              		.file 13 "/d_drive/axoloti/platform_linux/../CMSIS//Include/core_cm4.h"
 2329              		.file 14 "./STM32_USB_Host_Library/Core/Inc/usbh_core.h"
 2330              		.file 15 "./STM32_USB_Host_Library/Core/Inc/usbh_pipes.h"
 2331              		.file 16 "/d_drive/axoloti/platform_linux/../chibios/os/kernel/include/chevents.h"
 2332              		.file 17 "exceptions.h"
 2333              		.file 18 "./STM32_USB_Host_Library/Core/Inc/usbh_ioreq.h"
 2334              		.file 19 "./STM32_USB_Host_Library/Core/Inc/usbh_ctlreq.h"