ARM GAS  /tmp/ccK9C98X.s 			page 1


   1              		.syntax unified
   2              		.cpu cortex-m4
   3              		.eabi_attribute 27, 1
   4              		.eabi_attribute 28, 1
   5              		.fpu fpv4-sp-d16
   6              		.eabi_attribute 20, 1
   7              		.eabi_attribute 21, 1
   8              		.eabi_attribute 23, 3
   9              		.eabi_attribute 24, 1
  10              		.eabi_attribute 25, 1
  11              		.eabi_attribute 26, 1
  12              		.eabi_attribute 30, 2
  13              		.eabi_attribute 34, 1
  14              		.eabi_attribute 18, 4
  15              		.thumb
  16              		.file	"vactrol.cpp"
  17              		.text
  18              	.Ltext0:
  19              		.cfi_sections	.debug_frame
  20              		.align	2
  21              		.p2align 4,,15
  22              		.global	_ZN7streams7Vactrol4InitEv
  23              		.thumb
  24              		.thumb_func
  25              		.type	_ZN7streams7Vactrol4InitEv, %function
  26              	_ZN7streams7Vactrol4InitEv:
  27              		.fnstart
  28              	.LFB23:
  29              		.file 1 "./mutable_instruments/streams/vactrol.cpp"
  30              		.loc 1 40 0
  31              		.cfi_startproc
  32              		@ args = 0, pretend = 0, frame = 0
  33              		@ frame_needed = 0, uses_anonymous_args = 0
  34              		@ link register save eliminated.
  35              	.LVL0:
  36              		.loc 1 41 0
  37 0000 0023     		movs	r3, #0
  38 0002 0362     		str	r3, [r0, #32]
  39              		.loc 1 42 0
  40 0004 4362     		str	r3, [r0, #36]
  41              		.loc 1 43 0
  42 0006 8362     		str	r3, [r0, #40]
  43              		.loc 1 44 0
  44 0008 C362     		str	r3, [r0, #44]
  45              		.loc 1 46 0
  46 000a 0363     		str	r3, [r0, #48]
  47 000c 7047     		bx	lr
  48              		.cfi_endproc
  49              	.LFE23:
  50              		.cantunwind
  51              		.fnend
  52              		.size	_ZN7streams7Vactrol4InitEv, .-_ZN7streams7Vactrol4InitEv
  53 000e 00BF     		.align	2
  54              		.p2align 4,,15
  55              		.global	_ZN7streams7Vactrol7ProcessEssPtS1_
  56              		.thumb
  57              		.thumb_func
ARM GAS  /tmp/ccK9C98X.s 			page 2


  58              		.type	_ZN7streams7Vactrol7ProcessEssPtS1_, %function
  59              	_ZN7streams7Vactrol7ProcessEssPtS1_:
  60              		.fnstart
  61              	.LFB24:
  62              		.loc 1 53 0
  63              		.cfi_startproc
  64              		@ args = 4, pretend = 0, frame = 16
  65              		@ frame_needed = 0, uses_anonymous_args = 0
  66              	.LVL1:
  67 0010 2DE9F04F 		push	{r4, r5, r6, r7, r8, r9, r10, fp, lr}
  68              		.cfi_def_cfa_offset 36
  69              		.cfi_offset 4, -36
  70              		.cfi_offset 5, -32
  71              		.cfi_offset 6, -28
  72              		.cfi_offset 7, -24
  73              		.cfi_offset 8, -20
  74              		.cfi_offset 9, -16
  75              		.cfi_offset 10, -12
  76              		.cfi_offset 11, -8
  77              		.cfi_offset 14, -4
  78 0014 85B0     		sub	sp, sp, #20
  79              		.cfi_def_cfa_offset 56
  80              	.LBB11:
  81              		.loc 1 55 0
  82 0016 8568     		ldr	r5, [r0, #8]
  83              		.loc 1 56 0
  84 0018 C468     		ldr	r4, [r0, #12]
  85              	.LBE11:
  86              		.loc 1 53 0
  87 001a 0293     		str	r3, [sp, #8]
  88              	.LBB25:
  89              		.loc 1 55 0
  90 001c 0168     		ldr	r1, [r0]
  91              	.LVL2:
  92              		.loc 1 56 0
  93 001e 4368     		ldr	r3, [r0, #4]
  94              	.LVL3:
  95              	.LBB12:
  96              		.loc 1 67 0
  97 0020 90F83560 		ldrb	r6, [r0, #53]	@ zero_extendqisi2
  98              	.LBE12:
  99              		.loc 1 55 0
 100 0024 491B     		subs	r1, r1, r5
 101              		.loc 1 56 0
 102 0026 1B1B     		subs	r3, r3, r4
 103              		.loc 1 55 0
 104 0028 05EB212C 		add	ip, r5, r1, asr #8
 105              		.loc 1 56 0
 106 002c 04EB2328 		add	r8, r4, r3, asr #8
 107 0030 22EAE272 		bic	r2, r2, r2, asr #31
 108              	.LVL4:
 109              		.loc 1 55 0
 110 0034 C0F808C0 		str	ip, [r0, #8]
 111              		.loc 1 56 0
 112 0038 C0F80C80 		str	r8, [r0, #12]
 113              	.LVL5:
 114              	.LBB20:
ARM GAS  /tmp/ccK9C98X.s 			page 3


 115              		.loc 1 67 0
 116 003c 002E     		cmp	r6, #0
 117 003e 00F0A580 		beq	.L3
 118              	.LBB13:
 119              		.loc 1 68 0
 120 0042 90F83430 		ldrb	r3, [r0, #52]	@ zero_extendqisi2
 121 0046 002B     		cmp	r3, #0
 122 0048 40F03481 		bne	.L4
 123              		.loc 1 69 0
 124 004c 43F25553 		movw	r3, #13653
 125 0050 9A42     		cmp	r2, r3
 126 0052 00F36781 		bgt	.L5
 127              	.L7:
 128 0056 036A     		ldr	r3, [r0, #32]
 129 0058 416A     		ldr	r1, [r0, #36]
 130 005a 0393     		str	r3, [sp, #12]
 131 005c 1C46     		mov	r4, r3
 132 005e DD17     		asrs	r5, r3, #31
 133 0060 CB17     		asrs	r3, r1, #31
 134 0062 8A46     		mov	r10, r1
 135 0064 9B46     		mov	fp, r3
 136              	.LVL6:
 137              	.L6:
 138              		.loc 1 82 0
 139 0066 C369     		ldr	r3, [r0, #28]
 140              		.loc 1 84 0
 141 0068 4269     		ldr	r2, [r0, #20]
 142              		.loc 1 87 0
 143 006a D0F82890 		ldr	r9, [r0, #40]
 144              		.loc 1 82 0
 145 006e DF17     		asrs	r7, r3, #31
 146 0070 03FB05FE 		mul	lr, r3, r5
 147 0074 1E46     		mov	r6, r3
 148 0076 04FB07EE 		mla	lr, r4, r7, lr
 149 007a A3FB0445 		umull	r4, r5, r3, r4
 150              		.loc 1 84 0
 151 007e 5B46     		mov	r3, fp
 152              		.loc 1 82 0
 153 0080 7544     		add	r5, r5, lr
 154              		.loc 1 84 0
 155 0082 02FB03F3 		mul	r3, r2, r3
 156 0086 4FEAE27B 		asr	fp, r2, #31
 157              		.loc 1 82 0
 158 008a CDE90067 		strd	r6, [sp]
 159 008e E40F     		lsrs	r4, r4, #31
 160              		.loc 1 84 0
 161 0090 5646     		mov	r6, r10
 162              		.loc 1 82 0
 163 0092 44EA4504 		orr	r4, r4, r5, lsl #1
 164              		.loc 1 84 0
 165 0096 9246     		mov	r10, r2
 166 0098 06FB0B35 		mla	r5, r6, fp, r3
 167 009c A2FB0623 		umull	r2, r3, r2, r6
 168              		.loc 1 82 0
 169 00a0 039E     		ldr	r6, [sp, #12]
 170              		.loc 1 84 0
 171 00a2 2B44     		add	r3, r3, r5
ARM GAS  /tmp/ccK9C98X.s 			page 4


 172 00a4 D50F     		lsrs	r5, r2, #31
 173              		.loc 1 82 0
 174 00a6 321B     		subs	r2, r6, r4
 175              		.loc 1 84 0
 176 00a8 45EA4305 		orr	r5, r5, r3, lsl #1
 177              		.loc 1 87 0
 178 00ac C9EB0204 		rsb	r4, r9, r2
 179              	.LVL7:
 180              		.loc 1 84 0
 181 00b0 C5EB010E 		rsb	lr, r5, r1
 182              		.loc 1 89 0
 183 00b4 002C     		cmp	r4, #0
 184              		.loc 1 82 0
 185 00b6 0262     		str	r2, [r0, #32]
 186              		.loc 1 84 0
 187 00b8 C0F824E0 		str	lr, [r0, #36]
 188              		.loc 1 89 0
 189 00bc 04DD     		ble	.L8
 190 00be 8369     		ldr	r3, [r0, #24]
 191 00c0 1E46     		mov	r6, r3
 192 00c2 DF17     		asrs	r7, r3, #31
 193 00c4 CDE90067 		strd	r6, [sp]
 194              	.L8:
 195              	.LVL8:
 196              		.loc 1 90 0 discriminator 4
 197 00c8 DDE90067 		ldrd	r6, [sp]
 198 00cc E317     		asrs	r3, r4, #31
 199 00ce 04FB07F2 		mul	r2, r4, r7
 200 00d2 06FB0323 		mla	r3, r6, r3, r2
 201 00d6 A4FB0645 		umull	r4, r5, r4, r6
 202              	.LVL9:
 203              		.loc 1 93 0 discriminator 4
 204 00da C16A     		ldr	r1, [r0, #44]
 205              		.loc 1 90 0 discriminator 4
 206 00dc 1D44     		add	r5, r5, r3
 207 00de E20F     		lsrs	r2, r4, #31
 208 00e0 42EA4502 		orr	r2, r2, r5, lsl #1
 209              		.loc 1 93 0 discriminator 4
 210 00e4 C1EB0E03 		rsb	r3, r1, lr
 211              	.LVL10:
 212              		.loc 1 90 0 discriminator 4
 213 00e8 4A44     		add	r2, r2, r9
 214              		.loc 1 94 0 discriminator 4
 215 00ea 002B     		cmp	r3, #0
 216              		.loc 1 90 0 discriminator 4
 217 00ec 8262     		str	r2, [r0, #40]
 218              		.loc 1 94 0 discriminator 4
 219 00ee 03DD     		ble	.L9
 220 00f0 8469     		ldr	r4, [r0, #24]
 221 00f2 A246     		mov	r10, r4
 222 00f4 4FEAE47B 		asr	fp, r4, #31
 223              	.L9:
 224              	.LVL11:
 225              		.loc 1 96 0 discriminator 4
 226 00f8 83EAE376 		eor	r6, r3, r3, asr #31
 227 00fc A6EBE376 		sub	r6, r6, r3, asr #31
 228 0100 F517     		asrs	r5, r6, #31
ARM GAS  /tmp/ccK9C98X.s 			page 5


 229              		.loc 1 97 0 discriminator 4
 230 0102 06FB0BF4 		mul	r4, r6, fp
 231 0106 0AFB0544 		mla	r4, r10, r5, r4
 232 010a A6FB0A67 		umull	r6, r7, r6, r10
 233 010e 2744     		add	r7, r7, r4
 234 0110 F40F     		lsrs	r4, r6, #31
 235 0112 5FEA6B0B 		movs	fp, fp, asr #1
 236 0116 4FEA3A0A 		mov	r10, r10, rrx
 237              	.LVL12:
 238 011a 44EA4704 		orr	r4, r4, r7, lsl #1
 239 011e 14EB0A04 		adds	r4, r4, r10
 240 0122 4FEAE775 		asr	r5, r7, #31
 241 0126 45EB0B05 		adc	r5, r5, fp
 242              		.loc 1 98 0 discriminator 4
 243 012a 03FB05F5 		mul	r5, r3, r5
 244 012e DF17     		asrs	r7, r3, #31
 245 0130 04FB0756 		mla	r6, r4, r7, r5
 246 0134 A3FB0445 		umull	r4, r5, r3, r4
 247 0138 3544     		add	r5, r5, r6
 248 013a E30F     		lsrs	r3, r4, #31
 249              	.LVL13:
 250 013c 43EA4503 		orr	r3, r3, r5, lsl #1
 251 0140 1944     		add	r1, r1, r3
 252              	.LVL14:
 253              		.loc 1 101 0 discriminator 4
 254 0142 8C10     		asrs	r4, r1, #2
 255              	.LBB14:
 256              	.LBB15:
 257              		.file 2 "./mutable_instruments/stmlib/utils/dsp.h"
 258              		.loc 2 126 0 discriminator 4
 259 0144 864D     		ldr	r5, .L32
 260              	.LBE15:
 261              	.LBE14:
 262              		.loc 1 98 0 discriminator 4
 263 0146 C162     		str	r1, [r0, #44]
 264              	.LVL15:
 265              		.loc 1 101 0 discriminator 4
 266 0148 04EB4404 		add	r4, r4, r4, lsl #1
 267              	.LVL16:
 268              	.LBB17:
 269              	.LBB16:
 270              		.loc 2 126 0 discriminator 4
 271 014c A30D     		lsrs	r3, r4, #22
 272              		.loc 2 127 0 discriminator 4
 273 014e A81C     		adds	r0, r5, #2
 274              	.LVL17:
 275              		.loc 2 126 0 discriminator 4
 276 0150 35F81310 		ldrh	r1, [r5, r3, lsl #1]
 277              	.LVL18:
 278              		.loc 2 127 0 discriminator 4
 279 0154 30F91330 		ldrsh	r3, [r0, r3, lsl #1]
 280              	.LVL19:
 281              		.loc 2 126 0 discriminator 4
 282 0158 08B2     		sxth	r0, r1
 283              	.LVL20:
 284              		.loc 2 128 0 discriminator 4
 285 015a C4F38F14 		ubfx	r4, r4, #6, #16
ARM GAS  /tmp/ccK9C98X.s 			page 6


 286              	.LVL21:
 287 015e 1B1A     		subs	r3, r3, r0
 288 0160 04FB03F3 		mul	r3, r4, r3
 289 0164 01EB2343 		add	r3, r1, r3, asr #16
 290              	.LBE16:
 291              	.LBE17:
 292              		.loc 1 105 0 discriminator 4
 293 0168 120C     		lsrs	r2, r2, #16
 294              	.LVL22:
 295 016a 02FB0CF2 		mul	r2, r2, ip
 296              		.loc 1 103 0 discriminator 4
 297 016e 9BB2     		uxth	r3, r3
 298              		.loc 1 105 0 discriminator 4
 299 0170 08EBE238 		add	r8, r8, r2, asr #15
 300              		.loc 1 103 0 discriminator 4
 301 0174 03EB0323 		add	r3, r3, r3, lsl #8
 302 0178 029A     		ldr	r2, [sp, #8]
 303 017a 43F31023 		sbfx	r3, r3, #8, #17
 304 017e 1380     		strh	r3, [r2]	@ movhi
 305              	.LVL23:
 306              		.loc 1 105 0 discriminator 4
 307 0180 0E9B     		ldr	r3, [sp, #56]
 308 0182 A3F80080 		strh	r8, [r3]	@ movhi
 309              	.LBE13:
 310              	.LBE20:
 311              	.LBE25:
 312              		.loc 1 184 0 discriminator 4
 313 0186 05B0     		add	sp, sp, #20
 314              		.cfi_remember_state
 315              		.cfi_def_cfa_offset 36
 316              		@ sp needed
 317 0188 BDE8F08F 		pop	{r4, r5, r6, r7, r8, r9, r10, fp, pc}
 318              	.LVL24:
 319              	.L3:
 320              		.cfi_restore_state
 321              	.LBB26:
 322              		.loc 1 114 0
 323 018c 016B     		ldr	r1, [r0, #48]
 324 018e 521A     		subs	r2, r2, r1
 325              	.LVL25:
 326              		.loc 1 115 0
 327 0190 002A     		cmp	r2, #0
 328 0192 40F3C380 		ble	.L30
 329 0196 4FF08044 		mov	r4, #1073741824
 330 019a 0025     		movs	r5, #0
 331              	.L11:
 332              	.LVL26:
 333              		.loc 1 116 0 discriminator 4
 334 019c D717     		asrs	r7, r2, #31
 335 019e 04FB07F3 		mul	r3, r4, r7
 336 01a2 02FB0533 		mla	r3, r2, r5, r3
 337 01a6 A4FB0245 		umull	r4, r5, r4, r2
 338              	.LVL27:
 339 01aa 1D44     		add	r5, r5, r3
 340              		.loc 1 120 0 discriminator 4
 341 01ac 08EB6C02 		add	r2, r8, ip, asr #1
 342              	.LVL28:
ARM GAS  /tmp/ccK9C98X.s 			page 7


 343              		.loc 1 116 0 discriminator 4
 344 01b0 E30F     		lsrs	r3, r4, #31
 345 01b2 43EA4503 		orr	r3, r3, r5, lsl #1
 346              		.loc 1 121 0 discriminator 4
 347 01b6 02F57F42 		add	r2, r2, #65280
 348              		.loc 1 116 0 discriminator 4
 349 01ba 1944     		add	r1, r1, r3
 350              		.loc 1 121 0 discriminator 4
 351 01bc FF32     		adds	r2, r2, #255
 352              		.loc 1 122 0 discriminator 4
 353 01be 0DB2     		sxth	r5, r1
 354              		.loc 1 124 0 discriminator 4
 355 01c0 C66A     		ldr	r6, [r0, #44]
 356 01c2 684C     		ldr	r4, .L32+4
 357              		.loc 1 116 0 discriminator 4
 358 01c4 0163     		str	r1, [r0, #48]
 359              		.loc 1 121 0 discriminator 4
 360 01c6 5310     		asrs	r3, r2, #1
 361              		.loc 1 126 0 discriminator 4
 362 01c8 026A     		ldr	r2, [r0, #32]
 363 01ca 0092     		str	r2, [sp]
 364              	.LVL29:
 365              		.loc 1 122 0 discriminator 4
 366 01cc 03FB05F3 		mul	r3, r3, r5
 367              	.LVL30:
 368              		.loc 1 126 0 discriminator 4
 369 01d0 1746     		mov	r7, r2
 370              		.loc 1 124 0 discriminator 4
 371 01d2 9A1B     		subs	r2, r3, r6
 372 01d4 82FB0445 		smull	r4, r5, r2, r4
 373 01d8 E20F     		lsrs	r2, r4, #31
 374 01da 42EA4502 		orr	r2, r2, r5, lsl #1
 375              		.loc 1 126 0 discriminator 4
 376 01de DB1B     		subs	r3, r3, r7
 377              	.LVL31:
 378              		.loc 1 124 0 discriminator 4
 379 01e0 3244     		add	r2, r2, r6
 380              		.loc 1 128 0 discriminator 4
 381 01e2 002B     		cmp	r3, #0
 382              		.loc 1 124 0 discriminator 4
 383 01e4 C262     		str	r2, [r0, #44]
 384              		.loc 1 129 0 discriminator 4
 385 01e6 416A     		ldr	r1, [r0, #36]
 386              	.LVL32:
 387              		.loc 1 128 0 discriminator 4
 388 01e8 40F3A680 		ble	.L12
 389              		.loc 1 129 0
 390 01ec 0029     		cmp	r1, #0
 391 01ee 40F3B280 		ble	.L13
 392              		.loc 1 132 0
 393 01f2 D0F828E0 		ldr	lr, [r0, #40]
 394              		.loc 1 130 0
 395 01f6 D0F81090 		ldr	r9, [r0, #16]
 396              	.LVL33:
 397              		.loc 1 132 0
 398 01fa 4FEAEE56 		asr	r6, lr, #23
 399 01fe C6F1FF06 		rsb	r6, r6, #255
ARM GAS  /tmp/ccK9C98X.s 			page 8


 400 0202 86FB0967 		smull	r6, r7, r6, r9
 401 0206 B409     		lsrs	r4, r6, #6
 402 0208 44EA8764 		orr	r4, r4, r7, lsl #26
 403 020c BD11     		asrs	r5, r7, #6
 404              	.LVL34:
 405 020e 14EB0904 		adds	r4, r4, r9
 406 0212 45EBE975 		adc	r5, r5, r9, asr #31
 407              	.LVL35:
 408              	.L14:
 409              		.loc 1 147 0
 410 0216 5E1A     		subs	r6, r3, r1
 411 0218 4FEAE67B 		asr	fp, r6, #31
 412 021c 06FB05F9 		mul	r9, r6, r5
 413              		.loc 1 144 0
 414 0220 DF17     		asrs	r7, r3, #31
 415 0222 03FB05F5 		mul	r5, r3, r5
 416              		.loc 1 147 0
 417 0226 04FB0B99 		mla	r9, r4, fp, r9
 418 022a A6FB04AB 		umull	r10, fp, r6, r4
 419              		.loc 1 144 0
 420 022e 04FB0756 		mla	r6, r4, r7, r5
 421 0232 A3FB0445 		umull	r4, r5, r3, r4
 422              	.LVL36:
 423 0236 3544     		add	r5, r5, r6
 424 0238 E30F     		lsrs	r3, r4, #31
 425              	.LVL37:
 426 023a 009C     		ldr	r4, [sp]
 427 023c 43EA4503 		orr	r3, r3, r5, lsl #1
 428 0240 1C44     		add	r4, r4, r3
 429              		.loc 1 151 0
 430 0242 B4F1805F 		cmp	r4, #268435456
 431              		.loc 1 144 0
 432 0246 2346     		mov	r3, r4
 433 0248 0462     		str	r4, [r0, #32]
 434              		.loc 1 154 0
 435 024a D4BF     		ite	le
 436 024c E400     		lslle	r4, r4, #3
 437              		.loc 1 152 0
 438 024e 4FF00044 		movgt	r4, #-2147483648
 439              		.loc 1 156 0
 440 0252 CEEB0405 		rsb	r5, lr, r4
 441              		.loc 1 157 0
 442 0256 002D     		cmp	r5, #0
 443              		.loc 1 147 0
 444 0258 CB44     		add	fp, fp, r9
 445 025a 4FEADA76 		lsr	r6, r10, #31
 446              		.loc 1 159 0
 447 025e C8BF     		it	gt
 448 0260 414C     		ldrgt	r4, .L32+8
 449              		.loc 1 147 0
 450 0262 46EA4B06 		orr	r6, r6, fp, lsl #1
 451 0266 3144     		add	r1, r1, r6
 452              		.loc 1 162 0
 453 0268 D8BF     		it	le
 454 026a 40F27F44 		movwle	r4, #1151
 455 026e 85FB0445 		smull	r4, r5, r5, r4
 456              		.loc 1 147 0
ARM GAS  /tmp/ccK9C98X.s 			page 9


 457 0272 4162     		str	r1, [r0, #36]
 458              	.LVL38:
 459              		.loc 1 169 0
 460 0274 D213     		asrs	r2, r2, #15
 461 0276 C913     		asrs	r1, r1, #15
 462              		.loc 1 162 0
 463 0278 E40F     		lsrs	r4, r4, #31
 464              		.loc 1 169 0
 465 027a 01FB02F2 		mul	r2, r1, r2
 466              		.loc 1 162 0
 467 027e 44EA4504 		orr	r4, r4, r5, lsl #1
 468              		.loc 1 169 0
 469 0282 5210     		asrs	r2, r2, #1
 470              	.LVL39:
 471              		.loc 1 162 0
 472 0284 7444     		add	r4, r4, lr
 473              		.loc 1 170 0
 474 0286 12EB6302 		adds	r2, r2, r3, asr #1
 475              	.LVL40:
 476              		.loc 1 162 0
 477 028a 8462     		str	r4, [r0, #40]
 478              		.loc 1 170 0
 479 028c 5CD4     		bmi	.L24
 480              		.loc 1 172 0
 481 028e B2F1804F 		cmp	r2, #1073741824
 482 0292 20DB     		blt	.L31
 483              	.L21:
 484 0294 48F27E01 		movw	r1, #32894
 485              		.loc 1 177 0
 486 0298 47F6FE73 		movw	r3, #32766
 487              	.LVL41:
 488              	.L20:
 489              		.loc 1 183 0
 490 029c 03FB0CF3 		mul	r3, r3, ip
 491              	.LVL42:
 492 02a0 08EBE338 		add	r8, r8, r3, asr #15
 493              	.LVL43:
 494              		.loc 1 181 0
 495 02a4 029B     		ldr	r3, [sp, #8]
 496 02a6 1980     		strh	r1, [r3]	@ movhi
 497              		.loc 1 183 0
 498 02a8 0E9B     		ldr	r3, [sp, #56]
 499 02aa A3F80080 		strh	r8, [r3]	@ movhi
 500              	.LBE26:
 501              		.loc 1 184 0
 502 02ae 05B0     		add	sp, sp, #20
 503              		.cfi_remember_state
 504              		.cfi_def_cfa_offset 36
 505              		@ sp needed
 506 02b0 BDE8F08F 		pop	{r4, r5, r6, r7, r8, r9, r10, fp, pc}
 507              	.LVL44:
 508              	.L4:
 509              		.cfi_restore_state
 510              	.LBB27:
 511              	.LBB21:
 512              	.LBB18:
 513              		.loc 1 75 0
ARM GAS  /tmp/ccK9C98X.s 			page 10


 514 02b4 41F6A923 		movw	r3, #6825
 515 02b8 9A42     		cmp	r2, r3
 516 02ba 3FF7CCAE 		bgt	.L7
 517 02be 416A     		ldr	r1, [r0, #36]
 518 02c0 026A     		ldr	r2, [r0, #32]
 519              	.LVL45:
 520 02c2 0392     		str	r2, [sp, #12]
 521              		.loc 1 76 0
 522 02c4 0023     		movs	r3, #0
 523 02c6 CF17     		asrs	r7, r1, #31
 524 02c8 1446     		mov	r4, r2
 525 02ca D517     		asrs	r5, r2, #31
 526 02cc 8A46     		mov	r10, r1
 527 02ce BB46     		mov	fp, r7
 528 02d0 80F83430 		strb	r3, [r0, #52]
 529 02d4 C7E6     		b	.L6
 530              	.LVL46:
 531              	.L31:
 532              	.LBE18:
 533              	.LBE21:
 534              		.loc 1 177 0
 535 02d6 B2F1005F 		cmp	r2, #536870912
 536 02da DBDA     		bge	.L21
 537 02dc D100     		lsls	r1, r2, #3
 538 02de 8C0D     		lsrs	r4, r1, #22
 539 02e0 1F4E     		ldr	r6, .L32
 540 02e2 6400     		lsls	r4, r4, #1
 541 02e4 9213     		asrs	r2, r2, #14
 542              	.LVL47:
 543 02e6 C1F38F15 		ubfx	r5, r1, #6, #16
 544 02ea 93B2     		uxth	r3, r2
 545              	.LVL48:
 546 02ec 3119     		adds	r1, r6, r4
 547 02ee 0234     		adds	r4, r4, #2
 548              	.L19:
 549              	.LVL49:
 550              	.LBB22:
 551              	.LBB23:
 552              		.loc 2 126 0 discriminator 1
 553 02f0 0888     		ldrh	r0, [r1]
 554              	.LVL50:
 555              		.loc 2 127 0 discriminator 1
 556 02f2 315F     		ldrsh	r1, [r6, r4]
 557              		.loc 2 126 0 discriminator 1
 558 02f4 04B2     		sxth	r4, r0
 559              	.LVL51:
 560              		.loc 2 128 0 discriminator 1
 561 02f6 091B     		subs	r1, r1, r4
 562 02f8 05FB01F1 		mul	r1, r5, r1
 563 02fc 00EB2141 		add	r1, r0, r1, asr #16
 564              	.LBE23:
 565              	.LBE22:
 566              		.loc 1 179 0 discriminator 1
 567 0300 47F6FE70 		movw	r0, #32766
 568 0304 8242     		cmp	r2, r0
 569 0306 89B2     		uxth	r1, r1
 570 0308 01EB0121 		add	r1, r1, r1, lsl #8
ARM GAS  /tmp/ccK9C98X.s 			page 11


 571 030c D8BF     		it	le
 572 030e 5B43     		mulle	r3, r3, r3
 573 0310 C1F30F21 		ubfx	r1, r1, #8, #16
 574 0314 D4BF     		ite	le
 575 0316 DB13     		asrle	r3, r3, #15
 576 0318 0346     		movgt	r3, r0
 577 031a BFE7     		b	.L20
 578              	.LVL52:
 579              	.L30:
 580              		.loc 1 115 0 discriminator 1
 581 031c 4469     		ldr	r4, [r0, #20]
 582 031e 6400     		lsls	r4, r4, #1
 583 0320 E517     		asrs	r5, r4, #31
 584 0322 3BE7     		b	.L11
 585              	.LVL53:
 586              	.L5:
 587              	.LBB24:
 588              	.LBB19:
 589 0324 114C     		ldr	r4, .L32+12
 590 0326 1149     		ldr	r1, .L32+12
 591 0328 0391     		str	r1, [sp, #12]
 592              		.loc 1 70 0
 593 032a 0123     		movs	r3, #1
 594 032c 0025     		movs	r5, #0
 595 032e A246     		mov	r10, r4
 596 0330 AB46     		mov	fp, r5
 597 0332 80F83430 		strb	r3, [r0, #52]
 598 0336 96E6     		b	.L6
 599              	.LVL54:
 600              	.L12:
 601              	.LBE19:
 602              	.LBE24:
 603              		.loc 1 137 0
 604 0338 0029     		cmp	r1, #0
 605              		.loc 1 138 0
 606 033a B4BF     		ite	lt
 607 033c 4469     		ldrlt	r4, [r0, #20]
 608              		.loc 1 140 0
 609 033e C469     		ldrge	r4, [r0, #28]
 610 0340 D0F828E0 		ldr	lr, [r0, #40]
 611 0344 E517     		asrs	r5, r4, #31
 612              	.LVL55:
 613 0346 66E7     		b	.L14
 614              	.LVL56:
 615              	.L24:
 616 0348 054E     		ldr	r6, .L32
 617 034a 0023     		movs	r3, #0
 618 034c 3146     		mov	r1, r6
 619 034e 1A46     		mov	r2, r3
 620              	.LVL57:
 621 0350 1D46     		mov	r5, r3
 622 0352 0224     		movs	r4, #2
 623 0354 CCE7     		b	.L19
 624              	.LVL58:
 625              	.L13:
 626              		.loc 1 134 0
 627 0356 8469     		ldr	r4, [r0, #24]
ARM GAS  /tmp/ccK9C98X.s 			page 12


 628 0358 D0F828E0 		ldr	lr, [r0, #40]
 629 035c E517     		asrs	r5, r4, #31
 630              	.LVL59:
 631 035e 5AE7     		b	.L14
 632              	.L33:
 633              		.align	2
 634              	.L32:
 635 0360 00000000 		.word	_ZN7streams12wav_gompertzE
 636 0364 2F3C0D04 		.word	67976239
 637 0368 941B0200 		.word	138132
 638 036c 0000FF7F 		.word	2147418112
 639              	.LBE27:
 640              		.cfi_endproc
 641              	.LFE24:
 642              		.cantunwind
 643              		.fnend
 644              		.size	_ZN7streams7Vactrol7ProcessEssPtS1_, .-_ZN7streams7Vactrol7ProcessEssPtS1_
 645              	.Letext0:
 646              		.file 3 "/home/sbcu/Dropbox/pcb-layouts/axo-on-discovery-board/axoloti/platform_linux/arm-none-eab
 647              		.file 4 "/home/sbcu/Dropbox/pcb-layouts/axo-on-discovery-board/axoloti/platform_linux/arm-none-eab
 648              		.file 5 "./mutable_instruments/stmlib/stmlib.h"
 649              		.file 6 "./mutable_instruments/streams/meta_parameters.h"
 650              		.file 7 "./mutable_instruments/streams/vactrol.h"
 651              		.file 8 "./mutable_instruments/streams/resources.h"
 652              		.file 9 "./mutable_instruments/streams/gain.h"
 653              		.section	.debug_info,"",%progbits
 654              	.Ldebug_info0:
 655 0000 D0070000 		.4byte	0x7d0
 656 0004 0400     		.2byte	0x4
 657 0006 00000000 		.4byte	.Ldebug_abbrev0
 658 000a 04       		.byte	0x4
 659 000b 01       		.uleb128 0x1
 660 000c 2A040000 		.4byte	.LASF103
 661 0010 04       		.byte	0x4
 662 0011 49070000 		.4byte	.LASF104
 663 0015 F2000000 		.4byte	.LASF105
 664 0019 00000000 		.4byte	.Ltext0
 665 001d 70030000 		.4byte	.Letext0-.Ltext0
 666 0021 00000000 		.4byte	.Ldebug_line0
 667 0025 02       		.uleb128 0x2
 668 0026 08       		.byte	0x8
 669 0027 07       		.byte	0x7
 670 0028 4C030000 		.4byte	.LASF0
 671 002c 03       		.uleb128 0x3
 672 002d 04       		.byte	0x4
 673 002e 05       		.byte	0x5
 674 002f 696E7400 		.ascii	"int\000"
 675 0033 02       		.uleb128 0x2
 676 0034 01       		.byte	0x1
 677 0035 06       		.byte	0x6
 678 0036 3A030000 		.4byte	.LASF1
 679 003a 02       		.uleb128 0x2
 680 003b 01       		.byte	0x1
 681 003c 08       		.byte	0x8
 682 003d 18030000 		.4byte	.LASF2
 683 0041 04       		.uleb128 0x4
 684 0042 68060000 		.4byte	.LASF4
ARM GAS  /tmp/ccK9C98X.s 			page 13


 685 0046 03       		.byte	0x3
 686 0047 29       		.byte	0x29
 687 0048 4C000000 		.4byte	0x4c
 688 004c 02       		.uleb128 0x2
 689 004d 02       		.byte	0x2
 690 004e 05       		.byte	0x5
 691 004f A6000000 		.4byte	.LASF3
 692 0053 04       		.uleb128 0x4
 693 0054 54010000 		.4byte	.LASF5
 694 0058 03       		.byte	0x3
 695 0059 2B       		.byte	0x2b
 696 005a 5E000000 		.4byte	0x5e
 697 005e 02       		.uleb128 0x2
 698 005f 02       		.byte	0x2
 699 0060 07       		.byte	0x7
 700 0061 9D030000 		.4byte	.LASF6
 701 0065 04       		.uleb128 0x4
 702 0066 3B060000 		.4byte	.LASF7
 703 006a 03       		.byte	0x3
 704 006b 3F       		.byte	0x3f
 705 006c 70000000 		.4byte	0x70
 706 0070 02       		.uleb128 0x2
 707 0071 04       		.byte	0x4
 708 0072 05       		.byte	0x5
 709 0073 BB020000 		.4byte	.LASF8
 710 0077 04       		.uleb128 0x4
 711 0078 39010000 		.4byte	.LASF9
 712 007c 03       		.byte	0x3
 713 007d 41       		.byte	0x41
 714 007e 82000000 		.4byte	0x82
 715 0082 02       		.uleb128 0x2
 716 0083 04       		.byte	0x4
 717 0084 07       		.byte	0x7
 718 0085 D8050000 		.4byte	.LASF10
 719 0089 04       		.uleb128 0x4
 720 008a C4020000 		.4byte	.LASF11
 721 008e 03       		.byte	0x3
 722 008f 59       		.byte	0x59
 723 0090 94000000 		.4byte	0x94
 724 0094 02       		.uleb128 0x2
 725 0095 08       		.byte	0x8
 726 0096 05       		.byte	0x5
 727 0097 6D020000 		.4byte	.LASF12
 728 009b 02       		.uleb128 0x2
 729 009c 04       		.byte	0x4
 730 009d 07       		.byte	0x7
 731 009e 6C030000 		.4byte	.LASF13
 732 00a2 04       		.uleb128 0x4
 733 00a3 08040000 		.4byte	.LASF14
 734 00a7 04       		.byte	0x4
 735 00a8 19       		.byte	0x19
 736 00a9 41000000 		.4byte	0x41
 737 00ad 04       		.uleb128 0x4
 738 00ae 83030000 		.4byte	.LASF15
 739 00b2 04       		.byte	0x4
 740 00b3 1A       		.byte	0x1a
 741 00b4 53000000 		.4byte	0x53
ARM GAS  /tmp/ccK9C98X.s 			page 14


 742 00b8 04       		.uleb128 0x4
 743 00b9 E4030000 		.4byte	.LASF16
 744 00bd 04       		.byte	0x4
 745 00be 1F       		.byte	0x1f
 746 00bf 65000000 		.4byte	0x65
 747 00c3 04       		.uleb128 0x4
 748 00c4 63030000 		.4byte	.LASF17
 749 00c8 04       		.byte	0x4
 750 00c9 20       		.byte	0x20
 751 00ca 77000000 		.4byte	0x77
 752 00ce 04       		.uleb128 0x4
 753 00cf 72010000 		.4byte	.LASF18
 754 00d3 04       		.byte	0x4
 755 00d4 25       		.byte	0x25
 756 00d5 89000000 		.4byte	0x89
 757 00d9 05       		.uleb128 0x5
 758 00da 93030000 		.4byte	.LASF106
 759 00de 05       		.byte	0x5
 760 00df 3C       		.byte	0x3c
 761 00e0 06       		.uleb128 0x6
 762 00e1 CE020000 		.4byte	.LASF20
 763 00e5 05       		.byte	0x5
 764 00e6 5D       		.byte	0x5d
 765 00e7 02010000 		.4byte	0x102
 766 00eb 07       		.uleb128 0x7
 767 00ec 49020000 		.4byte	.LASF107
 768 00f0 02       		.byte	0x2
 769 00f1 7D       		.byte	0x7d
 770 00f2 A2000000 		.4byte	0xa2
 771 00f6 08       		.uleb128 0x8
 772 00f7 DD040000 		.4byte	0x4dd
 773 00fb 08       		.uleb128 0x8
 774 00fc C3000000 		.4byte	0xc3
 775 0100 00       		.byte	0
 776 0101 00       		.byte	0
 777 0102 02       		.uleb128 0x2
 778 0103 04       		.byte	0x4
 779 0104 07       		.byte	0x7
 780 0105 B6000000 		.4byte	.LASF19
 781 0109 06       		.uleb128 0x6
 782 010a 72060000 		.4byte	.LASF21
 783 010e 06       		.byte	0x6
 784 010f 22       		.byte	0x22
 785 0110 AC040000 		.4byte	0x4ac
 786 0114 09       		.uleb128 0x9
 787 0115 93010000 		.4byte	.LASF34
 788 0119 38       		.byte	0x38
 789 011a 07       		.byte	0x7
 790 011b 27       		.byte	0x27
 791 011c 93020000 		.4byte	0x293
 792 0120 0A       		.uleb128 0xa
 793 0121 C3010000 		.4byte	.LASF22
 794 0125 07       		.byte	0x7
 795 0126 76       		.byte	0x76
 796 0127 B8000000 		.4byte	0xb8
 797 012b 00       		.byte	0
 798 012c 0A       		.uleb128 0xa
ARM GAS  /tmp/ccK9C98X.s 			page 15


 799 012d F2010000 		.4byte	.LASF23
 800 0131 07       		.byte	0x7
 801 0132 77       		.byte	0x77
 802 0133 B8000000 		.4byte	0xb8
 803 0137 04       		.byte	0x4
 804 0138 0A       		.uleb128 0xa
 805 0139 82050000 		.4byte	.LASF24
 806 013d 07       		.byte	0x7
 807 013e 78       		.byte	0x78
 808 013f B8000000 		.4byte	0xb8
 809 0143 08       		.byte	0x8
 810 0144 0A       		.uleb128 0xa
 811 0145 9B050000 		.4byte	.LASF25
 812 0149 07       		.byte	0x7
 813 014a 79       		.byte	0x79
 814 014b B8000000 		.4byte	0xb8
 815 014f 0C       		.byte	0xc
 816 0150 0A       		.uleb128 0xa
 817 0151 D1060000 		.4byte	.LASF26
 818 0155 07       		.byte	0x7
 819 0156 7B       		.byte	0x7b
 820 0157 B8000000 		.4byte	0xb8
 821 015b 10       		.byte	0x10
 822 015c 0A       		.uleb128 0xa
 823 015d 2C070000 		.4byte	.LASF27
 824 0161 07       		.byte	0x7
 825 0162 7C       		.byte	0x7c
 826 0163 B8000000 		.4byte	0xb8
 827 0167 14       		.byte	0x14
 828 0168 0A       		.uleb128 0xa
 829 0169 7A010000 		.4byte	.LASF28
 830 016d 07       		.byte	0x7
 831 016e 7D       		.byte	0x7d
 832 016f B8000000 		.4byte	0xb8
 833 0173 18       		.byte	0x18
 834 0174 0A       		.uleb128 0xa
 835 0175 FF050000 		.4byte	.LASF29
 836 0179 07       		.byte	0x7
 837 017a 7E       		.byte	0x7e
 838 017b B8000000 		.4byte	0xb8
 839 017f 1C       		.byte	0x1c
 840 0180 0A       		.uleb128 0xa
 841 0181 EB010000 		.4byte	.LASF30
 842 0185 07       		.byte	0x7
 843 0186 80       		.byte	0x80
 844 0187 AC040000 		.4byte	0x4ac
 845 018b 20       		.byte	0x20
 846 018c 0A       		.uleb128 0xa
 847 018d 52060000 		.4byte	.LASF31
 848 0191 07       		.byte	0x7
 849 0192 81       		.byte	0x81
 850 0193 B8000000 		.4byte	0xb8
 851 0197 30       		.byte	0x30
 852 0198 0A       		.uleb128 0xa
 853 0199 9B010000 		.4byte	.LASF32
 854 019d 07       		.byte	0x7
 855 019e 83       		.byte	0x83
ARM GAS  /tmp/ccK9C98X.s 			page 16


 856 019f BC040000 		.4byte	0x4bc
 857 01a3 34       		.byte	0x34
 858 01a4 0A       		.uleb128 0xa
 859 01a5 40020000 		.4byte	.LASF33
 860 01a9 07       		.byte	0x7
 861 01aa 84       		.byte	0x84
 862 01ab BC040000 		.4byte	0x4bc
 863 01af 35       		.byte	0x35
 864 01b0 0B       		.uleb128 0xb
 865 01b1 93010000 		.4byte	.LASF34
 866 01b5 07       		.byte	0x7
 867 01b6 29       		.byte	0x29
 868 01b7 C3040000 		.4byte	0x4c3
 869 01bb 01       		.byte	0x1
 870 01bc C4010000 		.4byte	0x1c4
 871 01c0 CA010000 		.4byte	0x1ca
 872 01c4 0C       		.uleb128 0xc
 873 01c5 C3040000 		.4byte	0x4c3
 874 01c9 00       		.byte	0
 875 01ca 0B       		.uleb128 0xb
 876 01cb CD000000 		.4byte	.LASF35
 877 01cf 07       		.byte	0x7
 878 01d0 2A       		.byte	0x2a
 879 01d1 C9040000 		.4byte	0x4c9
 880 01d5 01       		.byte	0x1
 881 01d6 DE010000 		.4byte	0x1de
 882 01da E9010000 		.4byte	0x1e9
 883 01de 0C       		.uleb128 0xc
 884 01df C3040000 		.4byte	0x4c3
 885 01e3 0C       		.uleb128 0xc
 886 01e4 2C000000 		.4byte	0x2c
 887 01e8 00       		.byte	0
 888 01e9 0D       		.uleb128 0xd
 889 01ea B6020000 		.4byte	.LASF36
 890 01ee 07       		.byte	0x7
 891 01ef 2C       		.byte	0x2c
 892 01f0 7A060000 		.4byte	.LASF38
 893 01f4 01       		.byte	0x1
 894 01f5 FD010000 		.4byte	0x1fd
 895 01f9 03020000 		.4byte	0x203
 896 01fd 0C       		.uleb128 0xc
 897 01fe C3040000 		.4byte	0x4c3
 898 0202 00       		.byte	0
 899 0203 0D       		.uleb128 0xd
 900 0204 5F010000 		.4byte	.LASF37
 901 0208 07       		.byte	0x7
 902 0209 2D       		.byte	0x2d
 903 020a 2F000000 		.4byte	.LASF39
 904 020e 01       		.byte	0x1
 905 020f 17020000 		.4byte	0x217
 906 0213 31020000 		.4byte	0x231
 907 0217 0C       		.uleb128 0xc
 908 0218 C3040000 		.4byte	0x4c3
 909 021c 08       		.uleb128 0x8
 910 021d A2000000 		.4byte	0xa2
 911 0221 08       		.uleb128 0x8
 912 0222 A2000000 		.4byte	0xa2
ARM GAS  /tmp/ccK9C98X.s 			page 17


 913 0226 08       		.uleb128 0x8
 914 0227 CB040000 		.4byte	0x4cb
 915 022b 08       		.uleb128 0x8
 916 022c CB040000 		.4byte	0x4cb
 917 0230 00       		.byte	0
 918 0231 0D       		.uleb128 0xd
 919 0232 3F070000 		.4byte	.LASF40
 920 0236 07       		.byte	0x7
 921 0237 33       		.byte	0x33
 922 0238 AD050000 		.4byte	.LASF41
 923 023c 01       		.byte	0x1
 924 023d 45020000 		.4byte	0x245
 925 0241 5A020000 		.4byte	0x25a
 926 0245 0C       		.uleb128 0xc
 927 0246 C3040000 		.4byte	0x4c3
 928 024a 08       		.uleb128 0x8
 929 024b BC040000 		.4byte	0x4bc
 930 024f 08       		.uleb128 0x8
 931 0250 D1040000 		.4byte	0x4d1
 932 0254 08       		.uleb128 0x8
 933 0255 D1040000 		.4byte	0x4d1
 934 0259 00       		.byte	0
 935 025a 0E       		.uleb128 0xe
 936 025b 93010000 		.4byte	.LASF34
 937 025f 07       		.byte	0x7
 938 0260 86       		.byte	0x86
 939 0261 C3040000 		.4byte	0x4c3
 940 0265 6D020000 		.4byte	0x26d
 941 0269 78020000 		.4byte	0x278
 942 026d 0C       		.uleb128 0xc
 943 026e C3040000 		.4byte	0x4c3
 944 0272 08       		.uleb128 0x8
 945 0273 D7040000 		.4byte	0x4d7
 946 0277 00       		.byte	0
 947 0278 0F       		.uleb128 0xf
 948 0279 22070000 		.4byte	.LASF108
 949 027d 07       		.byte	0x7
 950 027e 86       		.byte	0x86
 951 027f EC030000 		.4byte	.LASF109
 952 0283 87020000 		.4byte	0x287
 953 0287 0C       		.uleb128 0xc
 954 0288 C3040000 		.4byte	0x4c3
 955 028c 08       		.uleb128 0x8
 956 028d D7040000 		.4byte	0x4d7
 957 0291 00       		.byte	0
 958 0292 00       		.byte	0
 959 0293 10       		.uleb128 0x10
 960 0294 14010000 		.4byte	0x114
 961 0298 11       		.uleb128 0x11
 962 0299 01       		.byte	0x1
 963 029a 26       		.byte	0x26
 964 029b E0000000 		.4byte	0xe0
 965 029f 12       		.uleb128 0x12
 966 02a0 66050000 		.4byte	.LASF42
 967 02a4 08       		.byte	0x8
 968 02a5 35       		.byte	0x35
 969 02a6 71000000 		.4byte	.LASF44
ARM GAS  /tmp/ccK9C98X.s 			page 18


 970 02aa AA060000 		.4byte	0x6aa
 971 02ae 12       		.uleb128 0x12
 972 02af 53000000 		.4byte	.LASF43
 973 02b3 08       		.byte	0x8
 974 02b4 41       		.byte	0x41
 975 02b5 94020000 		.4byte	.LASF45
 976 02b9 B5060000 		.4byte	0x6b5
 977 02bd 13       		.uleb128 0x13
 978 02be 67000000 		.4byte	.LASF46
 979 02c2 08       		.byte	0x8
 980 02c3 45       		.byte	0x45
 981 02c4 C0060000 		.4byte	0x6c0
 982 02c8 00       		.byte	0
 983 02c9 13       		.uleb128 0x13
 984 02ca D5020000 		.4byte	.LASF47
 985 02ce 08       		.byte	0x8
 986 02cf 46       		.byte	0x46
 987 02d0 C0060000 		.4byte	0x6c0
 988 02d4 00       		.byte	0
 989 02d5 14       		.uleb128 0x14
 990 02d6 B9030000 		.4byte	.LASF48
 991 02da 08       		.byte	0x8
 992 02db 47       		.byte	0x47
 993 02dc C0060000 		.4byte	0x6c0
 994 02e0 0104     		.2byte	0x401
 995 02e2 13       		.uleb128 0x13
 996 02e3 94050000 		.4byte	.LASF49
 997 02e7 08       		.byte	0x8
 998 02e8 48       		.byte	0x48
 999 02e9 C0060000 		.4byte	0x6c0
 1000 02ed 01       		.byte	0x1
 1001 02ee 14       		.uleb128 0x14
 1002 02ef 5A050000 		.4byte	.LASF50
 1003 02f3 08       		.byte	0x8
 1004 02f4 49       		.byte	0x49
 1005 02f5 C0060000 		.4byte	0x6c0
 1006 02f9 0101     		.2byte	0x101
 1007 02fb 13       		.uleb128 0x13
 1008 02fc 19000000 		.4byte	.LASF51
 1009 0300 08       		.byte	0x8
 1010 0301 4A       		.byte	0x4a
 1011 0302 C0060000 		.4byte	0x6c0
 1012 0306 00       		.byte	0
 1013 0307 14       		.uleb128 0x14
 1014 0308 26030000 		.4byte	.LASF52
 1015 030c 08       		.byte	0x8
 1016 030d 4B       		.byte	0x4b
 1017 030e C0060000 		.4byte	0x6c0
 1018 0312 0101     		.2byte	0x101
 1019 0314 13       		.uleb128 0x13
 1020 0315 FF020000 		.4byte	.LASF53
 1021 0319 08       		.byte	0x8
 1022 031a 4C       		.byte	0x4c
 1023 031b C0060000 		.4byte	0x6c0
 1024 031f 01       		.byte	0x1
 1025 0320 14       		.uleb128 0x14
 1026 0321 E0000000 		.4byte	.LASF54
ARM GAS  /tmp/ccK9C98X.s 			page 19


 1027 0325 08       		.byte	0x8
 1028 0326 4D       		.byte	0x4d
 1029 0327 C0060000 		.4byte	0x6c0
 1030 032b 0101     		.2byte	0x101
 1031 032d 13       		.uleb128 0x13
 1032 032e 2B060000 		.4byte	.LASF55
 1033 0332 08       		.byte	0x8
 1034 0333 4E       		.byte	0x4e
 1035 0334 C0060000 		.4byte	0x6c0
 1036 0338 02       		.byte	0x2
 1037 0339 14       		.uleb128 0x14
 1038 033a 15040000 		.4byte	.LASF56
 1039 033e 08       		.byte	0x8
 1040 033f 4F       		.byte	0x4f
 1041 0340 C0060000 		.4byte	0x6c0
 1042 0344 0101     		.2byte	0x101
 1043 0346 13       		.uleb128 0x13
 1044 0347 CB030000 		.4byte	.LASF57
 1045 034b 08       		.byte	0x8
 1046 034c 50       		.byte	0x50
 1047 034d C0060000 		.4byte	0x6c0
 1048 0351 03       		.byte	0x3
 1049 0352 14       		.uleb128 0x14
 1050 0353 EA050000 		.4byte	.LASF58
 1051 0357 08       		.byte	0x8
 1052 0358 51       		.byte	0x51
 1053 0359 C0060000 		.4byte	0x6c0
 1054 035d 0101     		.2byte	0x101
 1055 035f 13       		.uleb128 0x13
 1056 0360 95060000 		.4byte	.LASF59
 1057 0364 08       		.byte	0x8
 1058 0365 52       		.byte	0x52
 1059 0366 C0060000 		.4byte	0x6c0
 1060 036a 04       		.byte	0x4
 1061 036b 14       		.uleb128 0x14
 1062 036c 17060000 		.4byte	.LASF60
 1063 0370 08       		.byte	0x8
 1064 0371 53       		.byte	0x53
 1065 0372 C0060000 		.4byte	0x6c0
 1066 0376 0101     		.2byte	0x101
 1067 0378 13       		.uleb128 0x13
 1068 0379 45060000 		.4byte	.LASF61
 1069 037d 08       		.byte	0x8
 1070 037e 54       		.byte	0x54
 1071 037f C0060000 		.4byte	0x6c0
 1072 0383 05       		.byte	0x5
 1073 0384 14       		.uleb128 0x14
 1074 0385 A4060000 		.4byte	.LASF62
 1075 0389 08       		.byte	0x8
 1076 038a 55       		.byte	0x55
 1077 038b C0060000 		.4byte	0x6c0
 1078 038f 0101     		.2byte	0x101
 1079 0391 13       		.uleb128 0x13
 1080 0392 08070000 		.4byte	.LASF63
 1081 0396 08       		.byte	0x8
 1082 0397 56       		.byte	0x56
 1083 0398 C0060000 		.4byte	0x6c0
ARM GAS  /tmp/ccK9C98X.s 			page 20


 1084 039c 06       		.byte	0x6
 1085 039d 14       		.uleb128 0x14
 1086 039e 2F050000 		.4byte	.LASF64
 1087 03a2 08       		.byte	0x8
 1088 03a3 57       		.byte	0x57
 1089 03a4 C0060000 		.4byte	0x6c0
 1090 03a8 0101     		.2byte	0x101
 1091 03aa 13       		.uleb128 0x13
 1092 03ab BC060000 		.4byte	.LASF65
 1093 03af 08       		.byte	0x8
 1094 03b0 58       		.byte	0x58
 1095 03b1 C0060000 		.4byte	0x6c0
 1096 03b5 07       		.byte	0x7
 1097 03b6 14       		.uleb128 0x14
 1098 03b7 11020000 		.4byte	.LASF66
 1099 03bb 08       		.byte	0x8
 1100 03bc 59       		.byte	0x59
 1101 03bd C0060000 		.4byte	0x6c0
 1102 03c1 0101     		.2byte	0x101
 1103 03c3 13       		.uleb128 0x13
 1104 03c4 5A060000 		.4byte	.LASF67
 1105 03c8 08       		.byte	0x8
 1106 03c9 5A       		.byte	0x5a
 1107 03ca C0060000 		.4byte	0x6c0
 1108 03ce 08       		.byte	0x8
 1109 03cf 14       		.uleb128 0x14
 1110 03d0 EC020000 		.4byte	.LASF68
 1111 03d4 08       		.byte	0x8
 1112 03d5 5B       		.byte	0x5b
 1113 03d6 C0060000 		.4byte	0x6c0
 1114 03da 0101     		.2byte	0x101
 1115 03dc 13       		.uleb128 0x13
 1116 03dd F5060000 		.4byte	.LASF69
 1117 03e1 08       		.byte	0x8
 1118 03e2 5C       		.byte	0x5c
 1119 03e3 C0060000 		.4byte	0x6c0
 1120 03e7 00       		.byte	0
 1121 03e8 14       		.uleb128 0x14
 1122 03e9 42050000 		.4byte	.LASF70
 1123 03ed 08       		.byte	0x8
 1124 03ee 5D       		.byte	0x5d
 1125 03ef C0060000 		.4byte	0x6c0
 1126 03f3 0101     		.2byte	0x101
 1127 03f5 13       		.uleb128 0x13
 1128 03f6 92000000 		.4byte	.LASF71
 1129 03fa 08       		.byte	0x8
 1130 03fb 5E       		.byte	0x5e
 1131 03fc C0060000 		.4byte	0x6c0
 1132 0400 01       		.byte	0x1
 1133 0401 14       		.uleb128 0x14
 1134 0402 7B020000 		.4byte	.LASF72
 1135 0406 08       		.byte	0x8
 1136 0407 5F       		.byte	0x5f
 1137 0408 C0060000 		.4byte	0x6c0
 1138 040c 8002     		.2byte	0x280
 1139 040e 13       		.uleb128 0x13
 1140 040f DB030000 		.4byte	.LASF73
ARM GAS  /tmp/ccK9C98X.s 			page 21


 1141 0413 08       		.byte	0x8
 1142 0414 60       		.byte	0x60
 1143 0415 C0060000 		.4byte	0x6c0
 1144 0419 02       		.byte	0x2
 1145 041a 14       		.uleb128 0x14
 1146 041b A1010000 		.4byte	.LASF74
 1147 041f 08       		.byte	0x8
 1148 0420 61       		.byte	0x61
 1149 0421 C0060000 		.4byte	0x6c0
 1150 0425 0101     		.2byte	0x101
 1151 0427 13       		.uleb128 0x13
 1152 0428 B0030000 		.4byte	.LASF75
 1153 042c 08       		.byte	0x8
 1154 042d 62       		.byte	0x62
 1155 042e C0060000 		.4byte	0x6c0
 1156 0432 03       		.byte	0x3
 1157 0433 14       		.uleb128 0x14
 1158 0434 BF000000 		.4byte	.LASF76
 1159 0438 08       		.byte	0x8
 1160 0439 63       		.byte	0x63
 1161 043a C0060000 		.4byte	0x6c0
 1162 043e 0101     		.2byte	0x101
 1163 0440 13       		.uleb128 0x13
 1164 0441 E5060000 		.4byte	.LASF77
 1165 0445 08       		.byte	0x8
 1166 0446 64       		.byte	0x64
 1167 0447 C0060000 		.4byte	0x6c0
 1168 044b 04       		.byte	0x4
 1169 044c 14       		.uleb128 0x14
 1170 044d 2B020000 		.4byte	.LASF78
 1171 0451 08       		.byte	0x8
 1172 0452 65       		.byte	0x65
 1173 0453 C0060000 		.4byte	0x6c0
 1174 0457 0101     		.2byte	0x101
 1175 0459 14       		.uleb128 0x14
 1176 045a DC010000 		.4byte	.LASF79
 1177 045e 09       		.byte	0x9
 1178 045f 27       		.byte	0x27
 1179 0460 9B070000 		.4byte	0x79b
 1180 0464 8F02     		.2byte	0x28f
 1181 0466 14       		.uleb128 0x14
 1182 0467 62020000 		.4byte	.LASF80
 1183 046b 09       		.byte	0x9
 1184 046c 2A       		.byte	0x2a
 1185 046d 9B070000 		.4byte	0x79b
 1186 0471 FF7F     		.2byte	0x7fff
 1187 0473 14       		.uleb128 0x14
 1188 0474 44010000 		.4byte	.LASF81
 1189 0478 09       		.byte	0x9
 1190 0479 2D       		.byte	0x2d
 1191 047a 9B070000 		.4byte	0x79b
 1192 047e 8080     		.2byte	0x8080
 1193 0480 15       		.uleb128 0x15
 1194 0481 73050000 		.4byte	.LASF82
 1195 0485 09       		.byte	0x9
 1196 0486 30       		.byte	0x30
 1197 0487 9B070000 		.4byte	0x79b
ARM GAS  /tmp/ccK9C98X.s 			page 22


 1198 048b 00000100 		.4byte	0x10000
 1199 048f 15       		.uleb128 0x15
 1200 0490 AF010000 		.4byte	.LASF83
 1201 0494 09       		.byte	0x9
 1202 0495 32       		.byte	0x32
 1203 0496 9B070000 		.4byte	0x79b
 1204 049a 55550300 		.4byte	0x35555
 1205 049e 14       		.uleb128 0x14
 1206 049f 00000000 		.4byte	.LASF84
 1207 04a3 09       		.byte	0x9
 1208 04a4 34       		.byte	0x34
 1209 04a5 C7070000 		.4byte	0x7c7
 1210 04a9 5535     		.2byte	0x3555
 1211 04ab 00       		.byte	0
 1212 04ac 16       		.uleb128 0x16
 1213 04ad 70000000 		.4byte	0x70
 1214 04b1 BC040000 		.4byte	0x4bc
 1215 04b5 17       		.uleb128 0x17
 1216 04b6 02010000 		.4byte	0x102
 1217 04ba 03       		.byte	0x3
 1218 04bb 00       		.byte	0
 1219 04bc 02       		.uleb128 0x2
 1220 04bd 01       		.byte	0x1
 1221 04be 02       		.byte	0x2
 1222 04bf 98030000 		.4byte	.LASF85
 1223 04c3 18       		.uleb128 0x18
 1224 04c4 04       		.byte	0x4
 1225 04c5 14010000 		.4byte	0x114
 1226 04c9 19       		.uleb128 0x19
 1227 04ca 04       		.byte	0x4
 1228 04cb 18       		.uleb128 0x18
 1229 04cc 04       		.byte	0x4
 1230 04cd AD000000 		.4byte	0xad
 1231 04d1 18       		.uleb128 0x18
 1232 04d2 04       		.byte	0x4
 1233 04d3 B8000000 		.4byte	0xb8
 1234 04d7 1A       		.uleb128 0x1a
 1235 04d8 04       		.byte	0x4
 1236 04d9 93020000 		.4byte	0x293
 1237 04dd 18       		.uleb128 0x18
 1238 04de 04       		.byte	0x4
 1239 04df E3040000 		.4byte	0x4e3
 1240 04e3 10       		.uleb128 0x10
 1241 04e4 A2000000 		.4byte	0xa2
 1242 04e8 1B       		.uleb128 0x1b
 1243 04e9 EB000000 		.4byte	0xeb
 1244 04ed 03       		.byte	0x3
 1245 04ee 1D050000 		.4byte	0x51d
 1246 04f2 1C       		.uleb128 0x1c
 1247 04f3 B6060000 		.4byte	.LASF86
 1248 04f7 02       		.byte	0x2
 1249 04f8 7D       		.byte	0x7d
 1250 04f9 DD040000 		.4byte	0x4dd
 1251 04fd 1C       		.uleb128 0x1c
 1252 04fe D2050000 		.4byte	.LASF87
 1253 0502 02       		.byte	0x2
 1254 0503 7D       		.byte	0x7d
ARM GAS  /tmp/ccK9C98X.s 			page 23


 1255 0504 C3000000 		.4byte	0xc3
 1256 0508 1D       		.uleb128 0x1d
 1257 0509 1E       		.uleb128 0x1e
 1258 050a 6100     		.ascii	"a\000"
 1259 050c 02       		.byte	0x2
 1260 050d 7E       		.byte	0x7e
 1261 050e B8000000 		.4byte	0xb8
 1262 0512 1E       		.uleb128 0x1e
 1263 0513 6200     		.ascii	"b\000"
 1264 0515 02       		.byte	0x2
 1265 0516 7F       		.byte	0x7f
 1266 0517 B8000000 		.4byte	0xb8
 1267 051b 00       		.byte	0
 1268 051c 00       		.byte	0
 1269 051d 1F       		.uleb128 0x1f
 1270 051e E9010000 		.4byte	0x1e9
 1271 0522 01       		.byte	0x1
 1272 0523 28       		.byte	0x28
 1273 0524 00000000 		.4byte	.LFB23
 1274 0528 0E000000 		.4byte	.LFE23-.LFB23
 1275 052c 01       		.uleb128 0x1
 1276 052d 9C       		.byte	0x9c
 1277 052e 36050000 		.4byte	0x536
 1278 0532 42050000 		.4byte	0x542
 1279 0536 20       		.uleb128 0x20
 1280 0537 10040000 		.4byte	.LASF88
 1281 053b 42050000 		.4byte	0x542
 1282 053f 01       		.uleb128 0x1
 1283 0540 50       		.byte	0x50
 1284 0541 00       		.byte	0
 1285 0542 10       		.uleb128 0x10
 1286 0543 C3040000 		.4byte	0x4c3
 1287 0547 1F       		.uleb128 0x1f
 1288 0548 03020000 		.4byte	0x203
 1289 054c 01       		.byte	0x1
 1290 054d 31       		.byte	0x31
 1291 054e 10000000 		.4byte	.LFB24
 1292 0552 60030000 		.4byte	.LFE24-.LFB24
 1293 0556 01       		.uleb128 0x1
 1294 0557 9C       		.byte	0x9c
 1295 0558 60050000 		.4byte	0x560
 1296 055c AA060000 		.4byte	0x6aa
 1297 0560 21       		.uleb128 0x21
 1298 0561 10040000 		.4byte	.LASF88
 1299 0565 42050000 		.4byte	0x542
 1300 0569 00000000 		.4byte	.LLST0
 1301 056d 22       		.uleb128 0x22
 1302 056e 0B020000 		.4byte	.LASF89
 1303 0572 01       		.byte	0x1
 1304 0573 32       		.byte	0x32
 1305 0574 A2000000 		.4byte	0xa2
 1306 0578 5E000000 		.4byte	.LLST1
 1307 057c 22       		.uleb128 0x22
 1308 057d 8C030000 		.4byte	.LASF90
 1309 0581 01       		.byte	0x1
 1310 0582 33       		.byte	0x33
 1311 0583 A2000000 		.4byte	0xa2
ARM GAS  /tmp/ccK9C98X.s 			page 24


 1312 0587 7F000000 		.4byte	.LLST2
 1313 058b 22       		.uleb128 0x22
 1314 058c 73070000 		.4byte	.LASF91
 1315 0590 01       		.byte	0x1
 1316 0591 34       		.byte	0x34
 1317 0592 CB040000 		.4byte	0x4cb
 1318 0596 19010000 		.4byte	.LLST3
 1319 059a 22       		.uleb128 0x22
 1320 059b 79030000 		.4byte	.LASF92
 1321 059f 01       		.byte	0x1
 1322 05a0 35       		.byte	0x35
 1323 05a1 CB040000 		.4byte	0x4cb
 1324 05a5 38010000 		.4byte	.LLST4
 1325 05a9 23       		.uleb128 0x23
 1326 05aa 00000000 		.4byte	.Ldebug_ranges0+0
 1327 05ae 24       		.uleb128 0x24
 1328 05af B0000000 		.4byte	.LASF93
 1329 05b3 01       		.byte	0x1
 1330 05b4 3A       		.byte	0x3a
 1331 05b5 B8000000 		.4byte	0xb8
 1332 05b9 58010000 		.4byte	.LLST5
 1333 05bd 24       		.uleb128 0x24
 1334 05be 46030000 		.4byte	.LASF94
 1335 05c2 01       		.byte	0x1
 1336 05c3 3B       		.byte	0x3b
 1337 05c4 B8000000 		.4byte	0xb8
 1338 05c8 B0020000 		.4byte	.LLST6
 1339 05cc 24       		.uleb128 0x24
 1340 05cd 0C030000 		.4byte	.LASF95
 1341 05d1 01       		.byte	0x1
 1342 05d2 3C       		.byte	0x3c
 1343 05d3 CE000000 		.4byte	0xce
 1344 05d7 5C030000 		.4byte	.LLST7
 1345 05db 25       		.uleb128 0x25
 1346 05dc 16070000 		.4byte	.LASF96
 1347 05e0 01       		.byte	0x1
 1348 05e1 96       		.byte	0x96
 1349 05e2 B8000000 		.4byte	0xb8
 1350 05e6 01       		.uleb128 0x1
 1351 05e7 54       		.byte	0x54
 1352 05e8 24       		.uleb128 0x24
 1353 05e9 8C000000 		.4byte	.LASF97
 1354 05ed 01       		.byte	0x1
 1355 05ee A6       		.byte	0xa6
 1356 05ef B8000000 		.4byte	0xb8
 1357 05f3 5B040000 		.4byte	.LLST8
 1358 05f7 26       		.uleb128 0x26
 1359 05f8 E2020000 		.4byte	.LASF98
 1360 05fc 01       		.byte	0x1
 1361 05fd AF       		.byte	0xaf
 1362 05fe AD000000 		.4byte	0xad
 1363 0602 24       		.uleb128 0x24
 1364 0603 28000000 		.4byte	.LASF99
 1365 0607 01       		.byte	0x1
 1366 0608 B2       		.byte	0xb2
 1367 0609 AD000000 		.4byte	0xad
 1368 060d FE040000 		.4byte	.LLST9
ARM GAS  /tmp/ccK9C98X.s 			page 25


 1369 0611 27       		.uleb128 0x27
 1370 0612 28000000 		.4byte	.Ldebug_ranges0+0x28
 1371 0616 76060000 		.4byte	0x676
 1372 061a 24       		.uleb128 0x24
 1373 061b 59020000 		.4byte	.LASF100
 1374 061f 01       		.byte	0x1
 1375 0620 60       		.byte	0x60
 1376 0621 CE000000 		.4byte	0xce
 1377 0625 11050000 		.4byte	.LLST10
 1378 0629 24       		.uleb128 0x24
 1379 062a 67010000 		.4byte	.LASF101
 1380 062e 01       		.byte	0x1
 1381 062f 64       		.byte	0x64
 1382 0630 AD000000 		.4byte	0xad
 1383 0634 56050000 		.4byte	.LLST11
 1384 0638 26       		.uleb128 0x26
 1385 0639 D6000000 		.4byte	.LASF102
 1386 063d 01       		.byte	0x1
 1387 063e 65       		.byte	0x65
 1388 063f AD000000 		.4byte	0xad
 1389 0643 28       		.uleb128 0x28
 1390 0644 E8040000 		.4byte	0x4e8
 1391 0648 44010000 		.4byte	.LBB14
 1392 064c 48000000 		.4byte	.Ldebug_ranges0+0x48
 1393 0650 01       		.byte	0x1
 1394 0651 65       		.byte	0x65
 1395 0652 29       		.uleb128 0x29
 1396 0653 FD040000 		.4byte	0x4fd
 1397 0657 7C050000 		.4byte	.LLST12
 1398 065b 2A       		.uleb128 0x2a
 1399 065c F2040000 		.4byte	0x4f2
 1400 0660 23       		.uleb128 0x23
 1401 0661 48000000 		.4byte	.Ldebug_ranges0+0x48
 1402 0665 2B       		.uleb128 0x2b
 1403 0666 09050000 		.4byte	0x509
 1404 066a A4050000 		.4byte	.LLST13
 1405 066e 2C       		.uleb128 0x2c
 1406 066f 12050000 		.4byte	0x512
 1407 0673 00       		.byte	0
 1408 0674 00       		.byte	0
 1409 0675 00       		.byte	0
 1410 0676 2D       		.uleb128 0x2d
 1411 0677 E8040000 		.4byte	0x4e8
 1412 067b F0020000 		.4byte	.LBB22
 1413 067f 10000000 		.4byte	.LBE22-.LBB22
 1414 0683 01       		.byte	0x1
 1415 0684 B0       		.byte	0xb0
 1416 0685 2A       		.uleb128 0x2a
 1417 0686 FD040000 		.4byte	0x4fd
 1418 068a 2A       		.uleb128 0x2a
 1419 068b F2040000 		.4byte	0x4f2
 1420 068f 2E       		.uleb128 0x2e
 1421 0690 F0020000 		.4byte	.LBB23
 1422 0694 10000000 		.4byte	.LBE23-.LBB23
 1423 0698 2B       		.uleb128 0x2b
 1424 0699 09050000 		.4byte	0x509
 1425 069d C8050000 		.4byte	.LLST14
ARM GAS  /tmp/ccK9C98X.s 			page 26


 1426 06a1 2C       		.uleb128 0x2c
 1427 06a2 12050000 		.4byte	0x512
 1428 06a6 00       		.byte	0
 1429 06a7 00       		.byte	0
 1430 06a8 00       		.byte	0
 1431 06a9 00       		.byte	0
 1432 06aa 16       		.uleb128 0x16
 1433 06ab 4C000000 		.4byte	0x4c
 1434 06af B5060000 		.4byte	0x6b5
 1435 06b3 2F       		.uleb128 0x2f
 1436 06b4 00       		.byte	0
 1437 06b5 16       		.uleb128 0x16
 1438 06b6 82000000 		.4byte	0x82
 1439 06ba C0060000 		.4byte	0x6c0
 1440 06be 2F       		.uleb128 0x2f
 1441 06bf 00       		.byte	0
 1442 06c0 10       		.uleb128 0x10
 1443 06c1 2C000000 		.4byte	0x2c
 1444 06c5 30       		.uleb128 0x30
 1445 06c6 BD020000 		.4byte	0x2bd
 1446 06ca 00       		.byte	0
 1447 06cb 30       		.uleb128 0x30
 1448 06cc C9020000 		.4byte	0x2c9
 1449 06d0 00       		.byte	0
 1450 06d1 31       		.uleb128 0x31
 1451 06d2 D5020000 		.4byte	0x2d5
 1452 06d6 0104     		.2byte	0x401
 1453 06d8 30       		.uleb128 0x30
 1454 06d9 E2020000 		.4byte	0x2e2
 1455 06dd 01       		.byte	0x1
 1456 06de 31       		.uleb128 0x31
 1457 06df EE020000 		.4byte	0x2ee
 1458 06e3 0101     		.2byte	0x101
 1459 06e5 30       		.uleb128 0x30
 1460 06e6 FB020000 		.4byte	0x2fb
 1461 06ea 00       		.byte	0
 1462 06eb 31       		.uleb128 0x31
 1463 06ec 07030000 		.4byte	0x307
 1464 06f0 0101     		.2byte	0x101
 1465 06f2 30       		.uleb128 0x30
 1466 06f3 14030000 		.4byte	0x314
 1467 06f7 01       		.byte	0x1
 1468 06f8 31       		.uleb128 0x31
 1469 06f9 20030000 		.4byte	0x320
 1470 06fd 0101     		.2byte	0x101
 1471 06ff 30       		.uleb128 0x30
 1472 0700 2D030000 		.4byte	0x32d
 1473 0704 02       		.byte	0x2
 1474 0705 31       		.uleb128 0x31
 1475 0706 39030000 		.4byte	0x339
 1476 070a 0101     		.2byte	0x101
 1477 070c 30       		.uleb128 0x30
 1478 070d 46030000 		.4byte	0x346
 1479 0711 03       		.byte	0x3
 1480 0712 31       		.uleb128 0x31
 1481 0713 52030000 		.4byte	0x352
 1482 0717 0101     		.2byte	0x101
ARM GAS  /tmp/ccK9C98X.s 			page 27


 1483 0719 30       		.uleb128 0x30
 1484 071a 5F030000 		.4byte	0x35f
 1485 071e 04       		.byte	0x4
 1486 071f 31       		.uleb128 0x31
 1487 0720 6B030000 		.4byte	0x36b
 1488 0724 0101     		.2byte	0x101
 1489 0726 30       		.uleb128 0x30
 1490 0727 78030000 		.4byte	0x378
 1491 072b 05       		.byte	0x5
 1492 072c 31       		.uleb128 0x31
 1493 072d 84030000 		.4byte	0x384
 1494 0731 0101     		.2byte	0x101
 1495 0733 30       		.uleb128 0x30
 1496 0734 91030000 		.4byte	0x391
 1497 0738 06       		.byte	0x6
 1498 0739 31       		.uleb128 0x31
 1499 073a 9D030000 		.4byte	0x39d
 1500 073e 0101     		.2byte	0x101
 1501 0740 30       		.uleb128 0x30
 1502 0741 AA030000 		.4byte	0x3aa
 1503 0745 07       		.byte	0x7
 1504 0746 31       		.uleb128 0x31
 1505 0747 B6030000 		.4byte	0x3b6
 1506 074b 0101     		.2byte	0x101
 1507 074d 30       		.uleb128 0x30
 1508 074e C3030000 		.4byte	0x3c3
 1509 0752 08       		.byte	0x8
 1510 0753 31       		.uleb128 0x31
 1511 0754 CF030000 		.4byte	0x3cf
 1512 0758 0101     		.2byte	0x101
 1513 075a 30       		.uleb128 0x30
 1514 075b DC030000 		.4byte	0x3dc
 1515 075f 00       		.byte	0
 1516 0760 31       		.uleb128 0x31
 1517 0761 E8030000 		.4byte	0x3e8
 1518 0765 0101     		.2byte	0x101
 1519 0767 30       		.uleb128 0x30
 1520 0768 F5030000 		.4byte	0x3f5
 1521 076c 01       		.byte	0x1
 1522 076d 31       		.uleb128 0x31
 1523 076e 01040000 		.4byte	0x401
 1524 0772 8002     		.2byte	0x280
 1525 0774 30       		.uleb128 0x30
 1526 0775 0E040000 		.4byte	0x40e
 1527 0779 02       		.byte	0x2
 1528 077a 31       		.uleb128 0x31
 1529 077b 1A040000 		.4byte	0x41a
 1530 077f 0101     		.2byte	0x101
 1531 0781 30       		.uleb128 0x30
 1532 0782 27040000 		.4byte	0x427
 1533 0786 03       		.byte	0x3
 1534 0787 31       		.uleb128 0x31
 1535 0788 33040000 		.4byte	0x433
 1536 078c 0101     		.2byte	0x101
 1537 078e 30       		.uleb128 0x30
 1538 078f 40040000 		.4byte	0x440
 1539 0793 04       		.byte	0x4
ARM GAS  /tmp/ccK9C98X.s 			page 28


 1540 0794 31       		.uleb128 0x31
 1541 0795 4C040000 		.4byte	0x44c
 1542 0799 0101     		.2byte	0x101
 1543 079b 10       		.uleb128 0x10
 1544 079c B8000000 		.4byte	0xb8
 1545 07a0 31       		.uleb128 0x31
 1546 07a1 59040000 		.4byte	0x459
 1547 07a5 8F02     		.2byte	0x28f
 1548 07a7 31       		.uleb128 0x31
 1549 07a8 66040000 		.4byte	0x466
 1550 07ac FF7F     		.2byte	0x7fff
 1551 07ae 31       		.uleb128 0x31
 1552 07af 73040000 		.4byte	0x473
 1553 07b3 8080     		.2byte	0x8080
 1554 07b5 32       		.uleb128 0x32
 1555 07b6 80040000 		.4byte	0x480
 1556 07ba 00000100 		.4byte	0x10000
 1557 07be 32       		.uleb128 0x32
 1558 07bf 8F040000 		.4byte	0x48f
 1559 07c3 55550300 		.4byte	0x35555
 1560 07c7 10       		.uleb128 0x10
 1561 07c8 AD000000 		.4byte	0xad
 1562 07cc 31       		.uleb128 0x31
 1563 07cd 9E040000 		.4byte	0x49e
 1564 07d1 5535     		.2byte	0x3555
 1565 07d3 00       		.byte	0
 1566              		.section	.debug_abbrev,"",%progbits
 1567              	.Ldebug_abbrev0:
 1568 0000 01       		.uleb128 0x1
 1569 0001 11       		.uleb128 0x11
 1570 0002 01       		.byte	0x1
 1571 0003 25       		.uleb128 0x25
 1572 0004 0E       		.uleb128 0xe
 1573 0005 13       		.uleb128 0x13
 1574 0006 0B       		.uleb128 0xb
 1575 0007 03       		.uleb128 0x3
 1576 0008 0E       		.uleb128 0xe
 1577 0009 1B       		.uleb128 0x1b
 1578 000a 0E       		.uleb128 0xe
 1579 000b 11       		.uleb128 0x11
 1580 000c 01       		.uleb128 0x1
 1581 000d 12       		.uleb128 0x12
 1582 000e 06       		.uleb128 0x6
 1583 000f 10       		.uleb128 0x10
 1584 0010 17       		.uleb128 0x17
 1585 0011 00       		.byte	0
 1586 0012 00       		.byte	0
 1587 0013 02       		.uleb128 0x2
 1588 0014 24       		.uleb128 0x24
 1589 0015 00       		.byte	0
 1590 0016 0B       		.uleb128 0xb
 1591 0017 0B       		.uleb128 0xb
 1592 0018 3E       		.uleb128 0x3e
 1593 0019 0B       		.uleb128 0xb
 1594 001a 03       		.uleb128 0x3
 1595 001b 0E       		.uleb128 0xe
 1596 001c 00       		.byte	0
ARM GAS  /tmp/ccK9C98X.s 			page 29


 1597 001d 00       		.byte	0
 1598 001e 03       		.uleb128 0x3
 1599 001f 24       		.uleb128 0x24
 1600 0020 00       		.byte	0
 1601 0021 0B       		.uleb128 0xb
 1602 0022 0B       		.uleb128 0xb
 1603 0023 3E       		.uleb128 0x3e
 1604 0024 0B       		.uleb128 0xb
 1605 0025 03       		.uleb128 0x3
 1606 0026 08       		.uleb128 0x8
 1607 0027 00       		.byte	0
 1608 0028 00       		.byte	0
 1609 0029 04       		.uleb128 0x4
 1610 002a 16       		.uleb128 0x16
 1611 002b 00       		.byte	0
 1612 002c 03       		.uleb128 0x3
 1613 002d 0E       		.uleb128 0xe
 1614 002e 3A       		.uleb128 0x3a
 1615 002f 0B       		.uleb128 0xb
 1616 0030 3B       		.uleb128 0x3b
 1617 0031 0B       		.uleb128 0xb
 1618 0032 49       		.uleb128 0x49
 1619 0033 13       		.uleb128 0x13
 1620 0034 00       		.byte	0
 1621 0035 00       		.byte	0
 1622 0036 05       		.uleb128 0x5
 1623 0037 39       		.uleb128 0x39
 1624 0038 00       		.byte	0
 1625 0039 03       		.uleb128 0x3
 1626 003a 0E       		.uleb128 0xe
 1627 003b 3A       		.uleb128 0x3a
 1628 003c 0B       		.uleb128 0xb
 1629 003d 3B       		.uleb128 0x3b
 1630 003e 0B       		.uleb128 0xb
 1631 003f 00       		.byte	0
 1632 0040 00       		.byte	0
 1633 0041 06       		.uleb128 0x6
 1634 0042 39       		.uleb128 0x39
 1635 0043 01       		.byte	0x1
 1636 0044 03       		.uleb128 0x3
 1637 0045 0E       		.uleb128 0xe
 1638 0046 3A       		.uleb128 0x3a
 1639 0047 0B       		.uleb128 0xb
 1640 0048 3B       		.uleb128 0x3b
 1641 0049 0B       		.uleb128 0xb
 1642 004a 01       		.uleb128 0x1
 1643 004b 13       		.uleb128 0x13
 1644 004c 00       		.byte	0
 1645 004d 00       		.byte	0
 1646 004e 07       		.uleb128 0x7
 1647 004f 2E       		.uleb128 0x2e
 1648 0050 01       		.byte	0x1
 1649 0051 3F       		.uleb128 0x3f
 1650 0052 19       		.uleb128 0x19
 1651 0053 03       		.uleb128 0x3
 1652 0054 0E       		.uleb128 0xe
 1653 0055 3A       		.uleb128 0x3a
ARM GAS  /tmp/ccK9C98X.s 			page 30


 1654 0056 0B       		.uleb128 0xb
 1655 0057 3B       		.uleb128 0x3b
 1656 0058 0B       		.uleb128 0xb
 1657 0059 49       		.uleb128 0x49
 1658 005a 13       		.uleb128 0x13
 1659 005b 3C       		.uleb128 0x3c
 1660 005c 19       		.uleb128 0x19
 1661 005d 00       		.byte	0
 1662 005e 00       		.byte	0
 1663 005f 08       		.uleb128 0x8
 1664 0060 05       		.uleb128 0x5
 1665 0061 00       		.byte	0
 1666 0062 49       		.uleb128 0x49
 1667 0063 13       		.uleb128 0x13
 1668 0064 00       		.byte	0
 1669 0065 00       		.byte	0
 1670 0066 09       		.uleb128 0x9
 1671 0067 02       		.uleb128 0x2
 1672 0068 01       		.byte	0x1
 1673 0069 03       		.uleb128 0x3
 1674 006a 0E       		.uleb128 0xe
 1675 006b 0B       		.uleb128 0xb
 1676 006c 0B       		.uleb128 0xb
 1677 006d 3A       		.uleb128 0x3a
 1678 006e 0B       		.uleb128 0xb
 1679 006f 3B       		.uleb128 0x3b
 1680 0070 0B       		.uleb128 0xb
 1681 0071 01       		.uleb128 0x1
 1682 0072 13       		.uleb128 0x13
 1683 0073 00       		.byte	0
 1684 0074 00       		.byte	0
 1685 0075 0A       		.uleb128 0xa
 1686 0076 0D       		.uleb128 0xd
 1687 0077 00       		.byte	0
 1688 0078 03       		.uleb128 0x3
 1689 0079 0E       		.uleb128 0xe
 1690 007a 3A       		.uleb128 0x3a
 1691 007b 0B       		.uleb128 0xb
 1692 007c 3B       		.uleb128 0x3b
 1693 007d 0B       		.uleb128 0xb
 1694 007e 49       		.uleb128 0x49
 1695 007f 13       		.uleb128 0x13
 1696 0080 38       		.uleb128 0x38
 1697 0081 0B       		.uleb128 0xb
 1698 0082 00       		.byte	0
 1699 0083 00       		.byte	0
 1700 0084 0B       		.uleb128 0xb
 1701 0085 2E       		.uleb128 0x2e
 1702 0086 01       		.byte	0x1
 1703 0087 3F       		.uleb128 0x3f
 1704 0088 19       		.uleb128 0x19
 1705 0089 03       		.uleb128 0x3
 1706 008a 0E       		.uleb128 0xe
 1707 008b 3A       		.uleb128 0x3a
 1708 008c 0B       		.uleb128 0xb
 1709 008d 3B       		.uleb128 0x3b
 1710 008e 0B       		.uleb128 0xb
ARM GAS  /tmp/ccK9C98X.s 			page 31


 1711 008f 49       		.uleb128 0x49
 1712 0090 13       		.uleb128 0x13
 1713 0091 32       		.uleb128 0x32
 1714 0092 0B       		.uleb128 0xb
 1715 0093 3C       		.uleb128 0x3c
 1716 0094 19       		.uleb128 0x19
 1717 0095 64       		.uleb128 0x64
 1718 0096 13       		.uleb128 0x13
 1719 0097 01       		.uleb128 0x1
 1720 0098 13       		.uleb128 0x13
 1721 0099 00       		.byte	0
 1722 009a 00       		.byte	0
 1723 009b 0C       		.uleb128 0xc
 1724 009c 05       		.uleb128 0x5
 1725 009d 00       		.byte	0
 1726 009e 49       		.uleb128 0x49
 1727 009f 13       		.uleb128 0x13
 1728 00a0 34       		.uleb128 0x34
 1729 00a1 19       		.uleb128 0x19
 1730 00a2 00       		.byte	0
 1731 00a3 00       		.byte	0
 1732 00a4 0D       		.uleb128 0xd
 1733 00a5 2E       		.uleb128 0x2e
 1734 00a6 01       		.byte	0x1
 1735 00a7 3F       		.uleb128 0x3f
 1736 00a8 19       		.uleb128 0x19
 1737 00a9 03       		.uleb128 0x3
 1738 00aa 0E       		.uleb128 0xe
 1739 00ab 3A       		.uleb128 0x3a
 1740 00ac 0B       		.uleb128 0xb
 1741 00ad 3B       		.uleb128 0x3b
 1742 00ae 0B       		.uleb128 0xb
 1743 00af 6E       		.uleb128 0x6e
 1744 00b0 0E       		.uleb128 0xe
 1745 00b1 32       		.uleb128 0x32
 1746 00b2 0B       		.uleb128 0xb
 1747 00b3 3C       		.uleb128 0x3c
 1748 00b4 19       		.uleb128 0x19
 1749 00b5 64       		.uleb128 0x64
 1750 00b6 13       		.uleb128 0x13
 1751 00b7 01       		.uleb128 0x1
 1752 00b8 13       		.uleb128 0x13
 1753 00b9 00       		.byte	0
 1754 00ba 00       		.byte	0
 1755 00bb 0E       		.uleb128 0xe
 1756 00bc 2E       		.uleb128 0x2e
 1757 00bd 01       		.byte	0x1
 1758 00be 3F       		.uleb128 0x3f
 1759 00bf 19       		.uleb128 0x19
 1760 00c0 03       		.uleb128 0x3
 1761 00c1 0E       		.uleb128 0xe
 1762 00c2 3A       		.uleb128 0x3a
 1763 00c3 0B       		.uleb128 0xb
 1764 00c4 3B       		.uleb128 0x3b
 1765 00c5 0B       		.uleb128 0xb
 1766 00c6 49       		.uleb128 0x49
 1767 00c7 13       		.uleb128 0x13
ARM GAS  /tmp/ccK9C98X.s 			page 32


 1768 00c8 3C       		.uleb128 0x3c
 1769 00c9 19       		.uleb128 0x19
 1770 00ca 64       		.uleb128 0x64
 1771 00cb 13       		.uleb128 0x13
 1772 00cc 01       		.uleb128 0x1
 1773 00cd 13       		.uleb128 0x13
 1774 00ce 00       		.byte	0
 1775 00cf 00       		.byte	0
 1776 00d0 0F       		.uleb128 0xf
 1777 00d1 2E       		.uleb128 0x2e
 1778 00d2 01       		.byte	0x1
 1779 00d3 3F       		.uleb128 0x3f
 1780 00d4 19       		.uleb128 0x19
 1781 00d5 03       		.uleb128 0x3
 1782 00d6 0E       		.uleb128 0xe
 1783 00d7 3A       		.uleb128 0x3a
 1784 00d8 0B       		.uleb128 0xb
 1785 00d9 3B       		.uleb128 0x3b
 1786 00da 0B       		.uleb128 0xb
 1787 00db 6E       		.uleb128 0x6e
 1788 00dc 0E       		.uleb128 0xe
 1789 00dd 3C       		.uleb128 0x3c
 1790 00de 19       		.uleb128 0x19
 1791 00df 64       		.uleb128 0x64
 1792 00e0 13       		.uleb128 0x13
 1793 00e1 00       		.byte	0
 1794 00e2 00       		.byte	0
 1795 00e3 10       		.uleb128 0x10
 1796 00e4 26       		.uleb128 0x26
 1797 00e5 00       		.byte	0
 1798 00e6 49       		.uleb128 0x49
 1799 00e7 13       		.uleb128 0x13
 1800 00e8 00       		.byte	0
 1801 00e9 00       		.byte	0
 1802 00ea 11       		.uleb128 0x11
 1803 00eb 3A       		.uleb128 0x3a
 1804 00ec 00       		.byte	0
 1805 00ed 3A       		.uleb128 0x3a
 1806 00ee 0B       		.uleb128 0xb
 1807 00ef 3B       		.uleb128 0x3b
 1808 00f0 0B       		.uleb128 0xb
 1809 00f1 18       		.uleb128 0x18
 1810 00f2 13       		.uleb128 0x13
 1811 00f3 00       		.byte	0
 1812 00f4 00       		.byte	0
 1813 00f5 12       		.uleb128 0x12
 1814 00f6 34       		.uleb128 0x34
 1815 00f7 00       		.byte	0
 1816 00f8 03       		.uleb128 0x3
 1817 00f9 0E       		.uleb128 0xe
 1818 00fa 3A       		.uleb128 0x3a
 1819 00fb 0B       		.uleb128 0xb
 1820 00fc 3B       		.uleb128 0x3b
 1821 00fd 0B       		.uleb128 0xb
 1822 00fe 6E       		.uleb128 0x6e
 1823 00ff 0E       		.uleb128 0xe
 1824 0100 49       		.uleb128 0x49
ARM GAS  /tmp/ccK9C98X.s 			page 33


 1825 0101 13       		.uleb128 0x13
 1826 0102 3F       		.uleb128 0x3f
 1827 0103 19       		.uleb128 0x19
 1828 0104 3C       		.uleb128 0x3c
 1829 0105 19       		.uleb128 0x19
 1830 0106 00       		.byte	0
 1831 0107 00       		.byte	0
 1832 0108 13       		.uleb128 0x13
 1833 0109 34       		.uleb128 0x34
 1834 010a 00       		.byte	0
 1835 010b 03       		.uleb128 0x3
 1836 010c 0E       		.uleb128 0xe
 1837 010d 3A       		.uleb128 0x3a
 1838 010e 0B       		.uleb128 0xb
 1839 010f 3B       		.uleb128 0x3b
 1840 0110 0B       		.uleb128 0xb
 1841 0111 49       		.uleb128 0x49
 1842 0112 13       		.uleb128 0x13
 1843 0113 3C       		.uleb128 0x3c
 1844 0114 19       		.uleb128 0x19
 1845 0115 1C       		.uleb128 0x1c
 1846 0116 0B       		.uleb128 0xb
 1847 0117 00       		.byte	0
 1848 0118 00       		.byte	0
 1849 0119 14       		.uleb128 0x14
 1850 011a 34       		.uleb128 0x34
 1851 011b 00       		.byte	0
 1852 011c 03       		.uleb128 0x3
 1853 011d 0E       		.uleb128 0xe
 1854 011e 3A       		.uleb128 0x3a
 1855 011f 0B       		.uleb128 0xb
 1856 0120 3B       		.uleb128 0x3b
 1857 0121 0B       		.uleb128 0xb
 1858 0122 49       		.uleb128 0x49
 1859 0123 13       		.uleb128 0x13
 1860 0124 3C       		.uleb128 0x3c
 1861 0125 19       		.uleb128 0x19
 1862 0126 1C       		.uleb128 0x1c
 1863 0127 05       		.uleb128 0x5
 1864 0128 00       		.byte	0
 1865 0129 00       		.byte	0
 1866 012a 15       		.uleb128 0x15
 1867 012b 34       		.uleb128 0x34
 1868 012c 00       		.byte	0
 1869 012d 03       		.uleb128 0x3
 1870 012e 0E       		.uleb128 0xe
 1871 012f 3A       		.uleb128 0x3a
 1872 0130 0B       		.uleb128 0xb
 1873 0131 3B       		.uleb128 0x3b
 1874 0132 0B       		.uleb128 0xb
 1875 0133 49       		.uleb128 0x49
 1876 0134 13       		.uleb128 0x13
 1877 0135 3C       		.uleb128 0x3c
 1878 0136 19       		.uleb128 0x19
 1879 0137 1C       		.uleb128 0x1c
 1880 0138 06       		.uleb128 0x6
 1881 0139 00       		.byte	0
ARM GAS  /tmp/ccK9C98X.s 			page 34


 1882 013a 00       		.byte	0
 1883 013b 16       		.uleb128 0x16
 1884 013c 01       		.uleb128 0x1
 1885 013d 01       		.byte	0x1
 1886 013e 49       		.uleb128 0x49
 1887 013f 13       		.uleb128 0x13
 1888 0140 01       		.uleb128 0x1
 1889 0141 13       		.uleb128 0x13
 1890 0142 00       		.byte	0
 1891 0143 00       		.byte	0
 1892 0144 17       		.uleb128 0x17
 1893 0145 21       		.uleb128 0x21
 1894 0146 00       		.byte	0
 1895 0147 49       		.uleb128 0x49
 1896 0148 13       		.uleb128 0x13
 1897 0149 2F       		.uleb128 0x2f
 1898 014a 0B       		.uleb128 0xb
 1899 014b 00       		.byte	0
 1900 014c 00       		.byte	0
 1901 014d 18       		.uleb128 0x18
 1902 014e 0F       		.uleb128 0xf
 1903 014f 00       		.byte	0
 1904 0150 0B       		.uleb128 0xb
 1905 0151 0B       		.uleb128 0xb
 1906 0152 49       		.uleb128 0x49
 1907 0153 13       		.uleb128 0x13
 1908 0154 00       		.byte	0
 1909 0155 00       		.byte	0
 1910 0156 19       		.uleb128 0x19
 1911 0157 0F       		.uleb128 0xf
 1912 0158 00       		.byte	0
 1913 0159 0B       		.uleb128 0xb
 1914 015a 0B       		.uleb128 0xb
 1915 015b 00       		.byte	0
 1916 015c 00       		.byte	0
 1917 015d 1A       		.uleb128 0x1a
 1918 015e 10       		.uleb128 0x10
 1919 015f 00       		.byte	0
 1920 0160 0B       		.uleb128 0xb
 1921 0161 0B       		.uleb128 0xb
 1922 0162 49       		.uleb128 0x49
 1923 0163 13       		.uleb128 0x13
 1924 0164 00       		.byte	0
 1925 0165 00       		.byte	0
 1926 0166 1B       		.uleb128 0x1b
 1927 0167 2E       		.uleb128 0x2e
 1928 0168 01       		.byte	0x1
 1929 0169 47       		.uleb128 0x47
 1930 016a 13       		.uleb128 0x13
 1931 016b 20       		.uleb128 0x20
 1932 016c 0B       		.uleb128 0xb
 1933 016d 01       		.uleb128 0x1
 1934 016e 13       		.uleb128 0x13
 1935 016f 00       		.byte	0
 1936 0170 00       		.byte	0
 1937 0171 1C       		.uleb128 0x1c
 1938 0172 05       		.uleb128 0x5
ARM GAS  /tmp/ccK9C98X.s 			page 35


 1939 0173 00       		.byte	0
 1940 0174 03       		.uleb128 0x3
 1941 0175 0E       		.uleb128 0xe
 1942 0176 3A       		.uleb128 0x3a
 1943 0177 0B       		.uleb128 0xb
 1944 0178 3B       		.uleb128 0x3b
 1945 0179 0B       		.uleb128 0xb
 1946 017a 49       		.uleb128 0x49
 1947 017b 13       		.uleb128 0x13
 1948 017c 00       		.byte	0
 1949 017d 00       		.byte	0
 1950 017e 1D       		.uleb128 0x1d
 1951 017f 0B       		.uleb128 0xb
 1952 0180 01       		.byte	0x1
 1953 0181 00       		.byte	0
 1954 0182 00       		.byte	0
 1955 0183 1E       		.uleb128 0x1e
 1956 0184 34       		.uleb128 0x34
 1957 0185 00       		.byte	0
 1958 0186 03       		.uleb128 0x3
 1959 0187 08       		.uleb128 0x8
 1960 0188 3A       		.uleb128 0x3a
 1961 0189 0B       		.uleb128 0xb
 1962 018a 3B       		.uleb128 0x3b
 1963 018b 0B       		.uleb128 0xb
 1964 018c 49       		.uleb128 0x49
 1965 018d 13       		.uleb128 0x13
 1966 018e 00       		.byte	0
 1967 018f 00       		.byte	0
 1968 0190 1F       		.uleb128 0x1f
 1969 0191 2E       		.uleb128 0x2e
 1970 0192 01       		.byte	0x1
 1971 0193 47       		.uleb128 0x47
 1972 0194 13       		.uleb128 0x13
 1973 0195 3A       		.uleb128 0x3a
 1974 0196 0B       		.uleb128 0xb
 1975 0197 3B       		.uleb128 0x3b
 1976 0198 0B       		.uleb128 0xb
 1977 0199 11       		.uleb128 0x11
 1978 019a 01       		.uleb128 0x1
 1979 019b 12       		.uleb128 0x12
 1980 019c 06       		.uleb128 0x6
 1981 019d 40       		.uleb128 0x40
 1982 019e 18       		.uleb128 0x18
 1983 019f 64       		.uleb128 0x64
 1984 01a0 13       		.uleb128 0x13
 1985 01a1 9742     		.uleb128 0x2117
 1986 01a3 19       		.uleb128 0x19
 1987 01a4 01       		.uleb128 0x1
 1988 01a5 13       		.uleb128 0x13
 1989 01a6 00       		.byte	0
 1990 01a7 00       		.byte	0
 1991 01a8 20       		.uleb128 0x20
 1992 01a9 05       		.uleb128 0x5
 1993 01aa 00       		.byte	0
 1994 01ab 03       		.uleb128 0x3
 1995 01ac 0E       		.uleb128 0xe
ARM GAS  /tmp/ccK9C98X.s 			page 36


 1996 01ad 49       		.uleb128 0x49
 1997 01ae 13       		.uleb128 0x13
 1998 01af 34       		.uleb128 0x34
 1999 01b0 19       		.uleb128 0x19
 2000 01b1 02       		.uleb128 0x2
 2001 01b2 18       		.uleb128 0x18
 2002 01b3 00       		.byte	0
 2003 01b4 00       		.byte	0
 2004 01b5 21       		.uleb128 0x21
 2005 01b6 05       		.uleb128 0x5
 2006 01b7 00       		.byte	0
 2007 01b8 03       		.uleb128 0x3
 2008 01b9 0E       		.uleb128 0xe
 2009 01ba 49       		.uleb128 0x49
 2010 01bb 13       		.uleb128 0x13
 2011 01bc 34       		.uleb128 0x34
 2012 01bd 19       		.uleb128 0x19
 2013 01be 02       		.uleb128 0x2
 2014 01bf 17       		.uleb128 0x17
 2015 01c0 00       		.byte	0
 2016 01c1 00       		.byte	0
 2017 01c2 22       		.uleb128 0x22
 2018 01c3 05       		.uleb128 0x5
 2019 01c4 00       		.byte	0
 2020 01c5 03       		.uleb128 0x3
 2021 01c6 0E       		.uleb128 0xe
 2022 01c7 3A       		.uleb128 0x3a
 2023 01c8 0B       		.uleb128 0xb
 2024 01c9 3B       		.uleb128 0x3b
 2025 01ca 0B       		.uleb128 0xb
 2026 01cb 49       		.uleb128 0x49
 2027 01cc 13       		.uleb128 0x13
 2028 01cd 02       		.uleb128 0x2
 2029 01ce 17       		.uleb128 0x17
 2030 01cf 00       		.byte	0
 2031 01d0 00       		.byte	0
 2032 01d1 23       		.uleb128 0x23
 2033 01d2 0B       		.uleb128 0xb
 2034 01d3 01       		.byte	0x1
 2035 01d4 55       		.uleb128 0x55
 2036 01d5 17       		.uleb128 0x17
 2037 01d6 00       		.byte	0
 2038 01d7 00       		.byte	0
 2039 01d8 24       		.uleb128 0x24
 2040 01d9 34       		.uleb128 0x34
 2041 01da 00       		.byte	0
 2042 01db 03       		.uleb128 0x3
 2043 01dc 0E       		.uleb128 0xe
 2044 01dd 3A       		.uleb128 0x3a
 2045 01de 0B       		.uleb128 0xb
 2046 01df 3B       		.uleb128 0x3b
 2047 01e0 0B       		.uleb128 0xb
 2048 01e1 49       		.uleb128 0x49
 2049 01e2 13       		.uleb128 0x13
 2050 01e3 02       		.uleb128 0x2
 2051 01e4 17       		.uleb128 0x17
 2052 01e5 00       		.byte	0
ARM GAS  /tmp/ccK9C98X.s 			page 37


 2053 01e6 00       		.byte	0
 2054 01e7 25       		.uleb128 0x25
 2055 01e8 34       		.uleb128 0x34
 2056 01e9 00       		.byte	0
 2057 01ea 03       		.uleb128 0x3
 2058 01eb 0E       		.uleb128 0xe
 2059 01ec 3A       		.uleb128 0x3a
 2060 01ed 0B       		.uleb128 0xb
 2061 01ee 3B       		.uleb128 0x3b
 2062 01ef 0B       		.uleb128 0xb
 2063 01f0 49       		.uleb128 0x49
 2064 01f1 13       		.uleb128 0x13
 2065 01f2 02       		.uleb128 0x2
 2066 01f3 18       		.uleb128 0x18
 2067 01f4 00       		.byte	0
 2068 01f5 00       		.byte	0
 2069 01f6 26       		.uleb128 0x26
 2070 01f7 34       		.uleb128 0x34
 2071 01f8 00       		.byte	0
 2072 01f9 03       		.uleb128 0x3
 2073 01fa 0E       		.uleb128 0xe
 2074 01fb 3A       		.uleb128 0x3a
 2075 01fc 0B       		.uleb128 0xb
 2076 01fd 3B       		.uleb128 0x3b
 2077 01fe 0B       		.uleb128 0xb
 2078 01ff 49       		.uleb128 0x49
 2079 0200 13       		.uleb128 0x13
 2080 0201 00       		.byte	0
 2081 0202 00       		.byte	0
 2082 0203 27       		.uleb128 0x27
 2083 0204 0B       		.uleb128 0xb
 2084 0205 01       		.byte	0x1
 2085 0206 55       		.uleb128 0x55
 2086 0207 17       		.uleb128 0x17
 2087 0208 01       		.uleb128 0x1
 2088 0209 13       		.uleb128 0x13
 2089 020a 00       		.byte	0
 2090 020b 00       		.byte	0
 2091 020c 28       		.uleb128 0x28
 2092 020d 1D       		.uleb128 0x1d
 2093 020e 01       		.byte	0x1
 2094 020f 31       		.uleb128 0x31
 2095 0210 13       		.uleb128 0x13
 2096 0211 52       		.uleb128 0x52
 2097 0212 01       		.uleb128 0x1
 2098 0213 55       		.uleb128 0x55
 2099 0214 17       		.uleb128 0x17
 2100 0215 58       		.uleb128 0x58
 2101 0216 0B       		.uleb128 0xb
 2102 0217 59       		.uleb128 0x59
 2103 0218 0B       		.uleb128 0xb
 2104 0219 00       		.byte	0
 2105 021a 00       		.byte	0
 2106 021b 29       		.uleb128 0x29
 2107 021c 05       		.uleb128 0x5
 2108 021d 00       		.byte	0
 2109 021e 31       		.uleb128 0x31
ARM GAS  /tmp/ccK9C98X.s 			page 38


 2110 021f 13       		.uleb128 0x13
 2111 0220 02       		.uleb128 0x2
 2112 0221 17       		.uleb128 0x17
 2113 0222 00       		.byte	0
 2114 0223 00       		.byte	0
 2115 0224 2A       		.uleb128 0x2a
 2116 0225 05       		.uleb128 0x5
 2117 0226 00       		.byte	0
 2118 0227 31       		.uleb128 0x31
 2119 0228 13       		.uleb128 0x13
 2120 0229 00       		.byte	0
 2121 022a 00       		.byte	0
 2122 022b 2B       		.uleb128 0x2b
 2123 022c 34       		.uleb128 0x34
 2124 022d 00       		.byte	0
 2125 022e 31       		.uleb128 0x31
 2126 022f 13       		.uleb128 0x13
 2127 0230 02       		.uleb128 0x2
 2128 0231 17       		.uleb128 0x17
 2129 0232 00       		.byte	0
 2130 0233 00       		.byte	0
 2131 0234 2C       		.uleb128 0x2c
 2132 0235 34       		.uleb128 0x34
 2133 0236 00       		.byte	0
 2134 0237 31       		.uleb128 0x31
 2135 0238 13       		.uleb128 0x13
 2136 0239 00       		.byte	0
 2137 023a 00       		.byte	0
 2138 023b 2D       		.uleb128 0x2d
 2139 023c 1D       		.uleb128 0x1d
 2140 023d 01       		.byte	0x1
 2141 023e 31       		.uleb128 0x31
 2142 023f 13       		.uleb128 0x13
 2143 0240 11       		.uleb128 0x11
 2144 0241 01       		.uleb128 0x1
 2145 0242 12       		.uleb128 0x12
 2146 0243 06       		.uleb128 0x6
 2147 0244 58       		.uleb128 0x58
 2148 0245 0B       		.uleb128 0xb
 2149 0246 59       		.uleb128 0x59
 2150 0247 0B       		.uleb128 0xb
 2151 0248 00       		.byte	0
 2152 0249 00       		.byte	0
 2153 024a 2E       		.uleb128 0x2e
 2154 024b 0B       		.uleb128 0xb
 2155 024c 01       		.byte	0x1
 2156 024d 11       		.uleb128 0x11
 2157 024e 01       		.uleb128 0x1
 2158 024f 12       		.uleb128 0x12
 2159 0250 06       		.uleb128 0x6
 2160 0251 00       		.byte	0
 2161 0252 00       		.byte	0
 2162 0253 2F       		.uleb128 0x2f
 2163 0254 21       		.uleb128 0x21
 2164 0255 00       		.byte	0
 2165 0256 00       		.byte	0
 2166 0257 00       		.byte	0
ARM GAS  /tmp/ccK9C98X.s 			page 39


 2167 0258 30       		.uleb128 0x30
 2168 0259 34       		.uleb128 0x34
 2169 025a 00       		.byte	0
 2170 025b 47       		.uleb128 0x47
 2171 025c 13       		.uleb128 0x13
 2172 025d 1C       		.uleb128 0x1c
 2173 025e 0B       		.uleb128 0xb
 2174 025f 00       		.byte	0
 2175 0260 00       		.byte	0
 2176 0261 31       		.uleb128 0x31
 2177 0262 34       		.uleb128 0x34
 2178 0263 00       		.byte	0
 2179 0264 47       		.uleb128 0x47
 2180 0265 13       		.uleb128 0x13
 2181 0266 1C       		.uleb128 0x1c
 2182 0267 05       		.uleb128 0x5
 2183 0268 00       		.byte	0
 2184 0269 00       		.byte	0
 2185 026a 32       		.uleb128 0x32
 2186 026b 34       		.uleb128 0x34
 2187 026c 00       		.byte	0
 2188 026d 47       		.uleb128 0x47
 2189 026e 13       		.uleb128 0x13
 2190 026f 1C       		.uleb128 0x1c
 2191 0270 06       		.uleb128 0x6
 2192 0271 00       		.byte	0
 2193 0272 00       		.byte	0
 2194 0273 00       		.byte	0
 2195              		.section	.debug_loc,"",%progbits
 2196              	.Ldebug_loc0:
 2197              	.LLST0:
 2198 0000 10000000 		.4byte	.LVL1-.Ltext0
 2199 0004 50010000 		.4byte	.LVL17-.Ltext0
 2200 0008 0100     		.2byte	0x1
 2201 000a 50       		.byte	0x50
 2202 000b 50010000 		.4byte	.LVL17-.Ltext0
 2203 000f 8C010000 		.4byte	.LVL24-.Ltext0
 2204 0013 0400     		.2byte	0x4
 2205 0015 F3       		.byte	0xf3
 2206 0016 01       		.uleb128 0x1
 2207 0017 50       		.byte	0x50
 2208 0018 9F       		.byte	0x9f
 2209 0019 8C010000 		.4byte	.LVL24-.Ltext0
 2210 001d 9C020000 		.4byte	.LVL41-.Ltext0
 2211 0021 0100     		.2byte	0x1
 2212 0023 50       		.byte	0x50
 2213 0024 9C020000 		.4byte	.LVL41-.Ltext0
 2214 0028 B4020000 		.4byte	.LVL44-.Ltext0
 2215 002c 0400     		.2byte	0x4
 2216 002e F3       		.byte	0xf3
 2217 002f 01       		.uleb128 0x1
 2218 0030 50       		.byte	0x50
 2219 0031 9F       		.byte	0x9f
 2220 0032 B4020000 		.4byte	.LVL44-.Ltext0
 2221 0036 F2020000 		.4byte	.LVL50-.Ltext0
 2222 003a 0100     		.2byte	0x1
 2223 003c 50       		.byte	0x50
ARM GAS  /tmp/ccK9C98X.s 			page 40


 2224 003d F2020000 		.4byte	.LVL50-.Ltext0
 2225 0041 1C030000 		.4byte	.LVL52-.Ltext0
 2226 0045 0400     		.2byte	0x4
 2227 0047 F3       		.byte	0xf3
 2228 0048 01       		.uleb128 0x1
 2229 0049 50       		.byte	0x50
 2230 004a 9F       		.byte	0x9f
 2231 004b 1C030000 		.4byte	.LVL52-.Ltext0
 2232 004f 70030000 		.4byte	.LFE24-.Ltext0
 2233 0053 0100     		.2byte	0x1
 2234 0055 50       		.byte	0x50
 2235 0056 00000000 		.4byte	0
 2236 005a 00000000 		.4byte	0
 2237              	.LLST1:
 2238 005e 10000000 		.4byte	.LVL1-.Ltext0
 2239 0062 1E000000 		.4byte	.LVL2-.Ltext0
 2240 0066 0100     		.2byte	0x1
 2241 0068 51       		.byte	0x51
 2242 0069 1E000000 		.4byte	.LVL2-.Ltext0
 2243 006d 70030000 		.4byte	.LFE24-.Ltext0
 2244 0071 0400     		.2byte	0x4
 2245 0073 F3       		.byte	0xf3
 2246 0074 01       		.uleb128 0x1
 2247 0075 51       		.byte	0x51
 2248 0076 9F       		.byte	0x9f
 2249 0077 00000000 		.4byte	0
 2250 007b 00000000 		.4byte	0
 2251              	.LLST2:
 2252 007f 10000000 		.4byte	.LVL1-.Ltext0
 2253 0083 34000000 		.4byte	.LVL4-.Ltext0
 2254 0087 0100     		.2byte	0x1
 2255 0089 52       		.byte	0x52
 2256 008a 34000000 		.4byte	.LVL4-.Ltext0
 2257 008e 3C000000 		.4byte	.LVL5-.Ltext0
 2258 0092 0400     		.2byte	0x4
 2259 0094 F3       		.byte	0xf3
 2260 0095 01       		.uleb128 0x1
 2261 0096 52       		.byte	0x52
 2262 0097 9F       		.byte	0x9f
 2263 0098 3C000000 		.4byte	.LVL5-.Ltext0
 2264 009c 66000000 		.4byte	.LVL6-.Ltext0
 2265 00a0 0100     		.2byte	0x1
 2266 00a2 52       		.byte	0x52
 2267 00a3 8C010000 		.4byte	.LVL24-.Ltext0
 2268 00a7 90010000 		.4byte	.LVL25-.Ltext0
 2269 00ab 0100     		.2byte	0x1
 2270 00ad 52       		.byte	0x52
 2271 00ae CC010000 		.4byte	.LVL29-.Ltext0
 2272 00b2 E8010000 		.4byte	.LVL32-.Ltext0
 2273 00b6 0100     		.2byte	0x1
 2274 00b8 51       		.byte	0x51
 2275 00b9 E8010000 		.4byte	.LVL32-.Ltext0
 2276 00bd 9C020000 		.4byte	.LVL41-.Ltext0
 2277 00c1 0200     		.2byte	0x2
 2278 00c3 70       		.byte	0x70
 2279 00c4 30       		.sleb128 48
 2280 00c5 9C020000 		.4byte	.LVL41-.Ltext0
ARM GAS  /tmp/ccK9C98X.s 			page 41


 2281 00c9 B4020000 		.4byte	.LVL44-.Ltext0
 2282 00cd 0500     		.2byte	0x5
 2283 00cf F3       		.byte	0xf3
 2284 00d0 01       		.uleb128 0x1
 2285 00d1 50       		.byte	0x50
 2286 00d2 23       		.byte	0x23
 2287 00d3 30       		.uleb128 0x30
 2288 00d4 B4020000 		.4byte	.LVL44-.Ltext0
 2289 00d8 C2020000 		.4byte	.LVL45-.Ltext0
 2290 00dc 0100     		.2byte	0x1
 2291 00de 52       		.byte	0x52
 2292 00df D6020000 		.4byte	.LVL46-.Ltext0
 2293 00e3 F2020000 		.4byte	.LVL50-.Ltext0
 2294 00e7 0200     		.2byte	0x2
 2295 00e9 70       		.byte	0x70
 2296 00ea 30       		.sleb128 48
 2297 00eb F2020000 		.4byte	.LVL50-.Ltext0
 2298 00ef 1C030000 		.4byte	.LVL52-.Ltext0
 2299 00f3 0500     		.2byte	0x5
 2300 00f5 F3       		.byte	0xf3
 2301 00f6 01       		.uleb128 0x1
 2302 00f7 50       		.byte	0x50
 2303 00f8 23       		.byte	0x23
 2304 00f9 30       		.uleb128 0x30
 2305 00fa 24030000 		.4byte	.LVL53-.Ltext0
 2306 00fe 38030000 		.4byte	.LVL54-.Ltext0
 2307 0102 0100     		.2byte	0x1
 2308 0104 52       		.byte	0x52
 2309 0105 38030000 		.4byte	.LVL54-.Ltext0
 2310 0109 70030000 		.4byte	.LFE24-.Ltext0
 2311 010d 0200     		.2byte	0x2
 2312 010f 70       		.byte	0x70
 2313 0110 30       		.sleb128 48
 2314 0111 00000000 		.4byte	0
 2315 0115 00000000 		.4byte	0
 2316              	.LLST3:
 2317 0119 10000000 		.4byte	.LVL1-.Ltext0
 2318 011d 20000000 		.4byte	.LVL3-.Ltext0
 2319 0121 0100     		.2byte	0x1
 2320 0123 53       		.byte	0x53
 2321 0124 20000000 		.4byte	.LVL3-.Ltext0
 2322 0128 70030000 		.4byte	.LFE24-.Ltext0
 2323 012c 0200     		.2byte	0x2
 2324 012e 91       		.byte	0x91
 2325 012f 50       		.sleb128 -48
 2326 0130 00000000 		.4byte	0
 2327 0134 00000000 		.4byte	0
 2328              	.LLST4:
 2329 0138 10000000 		.4byte	.LVL1-.Ltext0
 2330 013c 8C010000 		.4byte	.LVL24-.Ltext0
 2331 0140 0200     		.2byte	0x2
 2332 0142 91       		.byte	0x91
 2333 0143 00       		.sleb128 0
 2334 0144 8C010000 		.4byte	.LVL24-.Ltext0
 2335 0148 70030000 		.4byte	.LFE24-.Ltext0
 2336 014c 0200     		.2byte	0x2
 2337 014e 91       		.byte	0x91
ARM GAS  /tmp/ccK9C98X.s 			page 42


 2338 014f 00       		.sleb128 0
 2339 0150 00000000 		.4byte	0
 2340 0154 00000000 		.4byte	0
 2341              	.LLST5:
 2342 0158 CC010000 		.4byte	.LVL29-.Ltext0
 2343 015c E0010000 		.4byte	.LVL31-.Ltext0
 2344 0160 0100     		.2byte	0x1
 2345 0162 53       		.byte	0x53
 2346 0163 E0010000 		.4byte	.LVL31-.Ltext0
 2347 0167 0E020000 		.4byte	.LVL34-.Ltext0
 2348 016b 1100     		.2byte	0x11
 2349 016d 7C       		.byte	0x7c
 2350 016e 00       		.sleb128 0
 2351 016f 31       		.byte	0x31
 2352 0170 26       		.byte	0x26
 2353 0171 78       		.byte	0x78
 2354 0172 00       		.sleb128 0
 2355 0173 22       		.byte	0x22
 2356 0174 23       		.byte	0x23
 2357 0175 FFFF03   		.uleb128 0xffff
 2358 0178 31       		.byte	0x31
 2359 0179 26       		.byte	0x26
 2360 017a 75       		.byte	0x75
 2361 017b 00       		.sleb128 0
 2362 017c 1E       		.byte	0x1e
 2363 017d 9F       		.byte	0x9f
 2364 017e 0E020000 		.4byte	.LVL34-.Ltext0
 2365 0182 9C020000 		.4byte	.LVL41-.Ltext0
 2366 0186 1700     		.2byte	0x17
 2367 0188 7C       		.byte	0x7c
 2368 0189 00       		.sleb128 0
 2369 018a 31       		.byte	0x31
 2370 018b 26       		.byte	0x26
 2371 018c 78       		.byte	0x78
 2372 018d 00       		.sleb128 0
 2373 018e 22       		.byte	0x22
 2374 018f 23       		.byte	0x23
 2375 0190 FFFF03   		.uleb128 0xffff
 2376 0193 31       		.byte	0x31
 2377 0194 26       		.byte	0x26
 2378 0195 70       		.byte	0x70
 2379 0196 30       		.sleb128 48
 2380 0197 94       		.byte	0x94
 2381 0198 02       		.byte	0x2
 2382 0199 40       		.byte	0x40
 2383 019a 24       		.byte	0x24
 2384 019b 40       		.byte	0x40
 2385 019c 26       		.byte	0x26
 2386 019d 1E       		.byte	0x1e
 2387 019e 9F       		.byte	0x9f
 2388 019f 9C020000 		.4byte	.LVL41-.Ltext0
 2389 01a3 A4020000 		.4byte	.LVL43-.Ltext0
 2390 01a7 1A00     		.2byte	0x1a
 2391 01a9 7C       		.byte	0x7c
 2392 01aa 00       		.sleb128 0
 2393 01ab 31       		.byte	0x31
 2394 01ac 26       		.byte	0x26
ARM GAS  /tmp/ccK9C98X.s 			page 43


 2395 01ad 78       		.byte	0x78
 2396 01ae 00       		.sleb128 0
 2397 01af 22       		.byte	0x22
 2398 01b0 23       		.byte	0x23
 2399 01b1 FFFF03   		.uleb128 0xffff
 2400 01b4 31       		.byte	0x31
 2401 01b5 26       		.byte	0x26
 2402 01b6 F3       		.byte	0xf3
 2403 01b7 01       		.uleb128 0x1
 2404 01b8 50       		.byte	0x50
 2405 01b9 23       		.byte	0x23
 2406 01ba 30       		.uleb128 0x30
 2407 01bb 94       		.byte	0x94
 2408 01bc 02       		.byte	0x2
 2409 01bd 40       		.byte	0x40
 2410 01be 24       		.byte	0x24
 2411 01bf 40       		.byte	0x40
 2412 01c0 26       		.byte	0x26
 2413 01c1 1E       		.byte	0x1e
 2414 01c2 9F       		.byte	0x9f
 2415 01c3 A4020000 		.4byte	.LVL43-.Ltext0
 2416 01c7 B4020000 		.4byte	.LVL44-.Ltext0
 2417 01cb 1E00     		.2byte	0x1e
 2418 01cd 7C       		.byte	0x7c
 2419 01ce 00       		.sleb128 0
 2420 01cf 31       		.byte	0x31
 2421 01d0 26       		.byte	0x26
 2422 01d1 F3       		.byte	0xf3
 2423 01d2 01       		.uleb128 0x1
 2424 01d3 50       		.byte	0x50
 2425 01d4 23       		.byte	0x23
 2426 01d5 0C       		.uleb128 0xc
 2427 01d6 06       		.byte	0x6
 2428 01d7 22       		.byte	0x22
 2429 01d8 23       		.byte	0x23
 2430 01d9 FFFF03   		.uleb128 0xffff
 2431 01dc 31       		.byte	0x31
 2432 01dd 26       		.byte	0x26
 2433 01de F3       		.byte	0xf3
 2434 01df 01       		.uleb128 0x1
 2435 01e0 50       		.byte	0x50
 2436 01e1 23       		.byte	0x23
 2437 01e2 30       		.uleb128 0x30
 2438 01e3 94       		.byte	0x94
 2439 01e4 02       		.byte	0x2
 2440 01e5 40       		.byte	0x40
 2441 01e6 24       		.byte	0x24
 2442 01e7 40       		.byte	0x40
 2443 01e8 26       		.byte	0x26
 2444 01e9 1E       		.byte	0x1e
 2445 01ea 9F       		.byte	0x9f
 2446 01eb D6020000 		.4byte	.LVL46-.Ltext0
 2447 01ef F2020000 		.4byte	.LVL50-.Ltext0
 2448 01f3 1700     		.2byte	0x17
 2449 01f5 7C       		.byte	0x7c
 2450 01f6 00       		.sleb128 0
 2451 01f7 31       		.byte	0x31
ARM GAS  /tmp/ccK9C98X.s 			page 44


 2452 01f8 26       		.byte	0x26
 2453 01f9 78       		.byte	0x78
 2454 01fa 00       		.sleb128 0
 2455 01fb 22       		.byte	0x22
 2456 01fc 23       		.byte	0x23
 2457 01fd FFFF03   		.uleb128 0xffff
 2458 0200 31       		.byte	0x31
 2459 0201 26       		.byte	0x26
 2460 0202 70       		.byte	0x70
 2461 0203 30       		.sleb128 48
 2462 0204 94       		.byte	0x94
 2463 0205 02       		.byte	0x2
 2464 0206 40       		.byte	0x40
 2465 0207 24       		.byte	0x24
 2466 0208 40       		.byte	0x40
 2467 0209 26       		.byte	0x26
 2468 020a 1E       		.byte	0x1e
 2469 020b 9F       		.byte	0x9f
 2470 020c F2020000 		.4byte	.LVL50-.Ltext0
 2471 0210 1C030000 		.4byte	.LVL52-.Ltext0
 2472 0214 1A00     		.2byte	0x1a
 2473 0216 7C       		.byte	0x7c
 2474 0217 00       		.sleb128 0
 2475 0218 31       		.byte	0x31
 2476 0219 26       		.byte	0x26
 2477 021a 78       		.byte	0x78
 2478 021b 00       		.sleb128 0
 2479 021c 22       		.byte	0x22
 2480 021d 23       		.byte	0x23
 2481 021e FFFF03   		.uleb128 0xffff
 2482 0221 31       		.byte	0x31
 2483 0222 26       		.byte	0x26
 2484 0223 F3       		.byte	0xf3
 2485 0224 01       		.uleb128 0x1
 2486 0225 50       		.byte	0x50
 2487 0226 23       		.byte	0x23
 2488 0227 30       		.uleb128 0x30
 2489 0228 94       		.byte	0x94
 2490 0229 02       		.byte	0x2
 2491 022a 40       		.byte	0x40
 2492 022b 24       		.byte	0x24
 2493 022c 40       		.byte	0x40
 2494 022d 26       		.byte	0x26
 2495 022e 1E       		.byte	0x1e
 2496 022f 9F       		.byte	0x9f
 2497 0230 38030000 		.4byte	.LVL54-.Ltext0
 2498 0234 46030000 		.4byte	.LVL55-.Ltext0
 2499 0238 1100     		.2byte	0x11
 2500 023a 7C       		.byte	0x7c
 2501 023b 00       		.sleb128 0
 2502 023c 31       		.byte	0x31
 2503 023d 26       		.byte	0x26
 2504 023e 78       		.byte	0x78
 2505 023f 00       		.sleb128 0
 2506 0240 22       		.byte	0x22
 2507 0241 23       		.byte	0x23
 2508 0242 FFFF03   		.uleb128 0xffff
ARM GAS  /tmp/ccK9C98X.s 			page 45


 2509 0245 31       		.byte	0x31
 2510 0246 26       		.byte	0x26
 2511 0247 75       		.byte	0x75
 2512 0248 00       		.sleb128 0
 2513 0249 1E       		.byte	0x1e
 2514 024a 9F       		.byte	0x9f
 2515 024b 46030000 		.4byte	.LVL55-.Ltext0
 2516 024f 56030000 		.4byte	.LVL58-.Ltext0
 2517 0253 1700     		.2byte	0x17
 2518 0255 7C       		.byte	0x7c
 2519 0256 00       		.sleb128 0
 2520 0257 31       		.byte	0x31
 2521 0258 26       		.byte	0x26
 2522 0259 78       		.byte	0x78
 2523 025a 00       		.sleb128 0
 2524 025b 22       		.byte	0x22
 2525 025c 23       		.byte	0x23
 2526 025d FFFF03   		.uleb128 0xffff
 2527 0260 31       		.byte	0x31
 2528 0261 26       		.byte	0x26
 2529 0262 70       		.byte	0x70
 2530 0263 30       		.sleb128 48
 2531 0264 94       		.byte	0x94
 2532 0265 02       		.byte	0x2
 2533 0266 40       		.byte	0x40
 2534 0267 24       		.byte	0x24
 2535 0268 40       		.byte	0x40
 2536 0269 26       		.byte	0x26
 2537 026a 1E       		.byte	0x1e
 2538 026b 9F       		.byte	0x9f
 2539 026c 56030000 		.4byte	.LVL58-.Ltext0
 2540 0270 5E030000 		.4byte	.LVL59-.Ltext0
 2541 0274 1100     		.2byte	0x11
 2542 0276 7C       		.byte	0x7c
 2543 0277 00       		.sleb128 0
 2544 0278 31       		.byte	0x31
 2545 0279 26       		.byte	0x26
 2546 027a 78       		.byte	0x78
 2547 027b 00       		.sleb128 0
 2548 027c 22       		.byte	0x22
 2549 027d 23       		.byte	0x23
 2550 027e FFFF03   		.uleb128 0xffff
 2551 0281 31       		.byte	0x31
 2552 0282 26       		.byte	0x26
 2553 0283 75       		.byte	0x75
 2554 0284 00       		.sleb128 0
 2555 0285 1E       		.byte	0x1e
 2556 0286 9F       		.byte	0x9f
 2557 0287 5E030000 		.4byte	.LVL59-.Ltext0
 2558 028b 70030000 		.4byte	.LFE24-.Ltext0
 2559 028f 1700     		.2byte	0x17
 2560 0291 7C       		.byte	0x7c
 2561 0292 00       		.sleb128 0
 2562 0293 31       		.byte	0x31
 2563 0294 26       		.byte	0x26
 2564 0295 78       		.byte	0x78
 2565 0296 00       		.sleb128 0
ARM GAS  /tmp/ccK9C98X.s 			page 46


 2566 0297 22       		.byte	0x22
 2567 0298 23       		.byte	0x23
 2568 0299 FFFF03   		.uleb128 0xffff
 2569 029c 31       		.byte	0x31
 2570 029d 26       		.byte	0x26
 2571 029e 70       		.byte	0x70
 2572 029f 30       		.sleb128 48
 2573 02a0 94       		.byte	0x94
 2574 02a1 02       		.byte	0x2
 2575 02a2 40       		.byte	0x40
 2576 02a3 24       		.byte	0x24
 2577 02a4 40       		.byte	0x40
 2578 02a5 26       		.byte	0x26
 2579 02a6 1E       		.byte	0x1e
 2580 02a7 9F       		.byte	0x9f
 2581 02a8 00000000 		.4byte	0
 2582 02ac 00000000 		.4byte	0
 2583              	.LLST6:
 2584 02b0 B0000000 		.4byte	.LVL7-.Ltext0
 2585 02b4 DA000000 		.4byte	.LVL9-.Ltext0
 2586 02b8 0100     		.2byte	0x1
 2587 02ba 54       		.byte	0x54
 2588 02bb DA000000 		.4byte	.LVL9-.Ltext0
 2589 02bf E8000000 		.4byte	.LVL10-.Ltext0
 2590 02c3 0700     		.2byte	0x7
 2591 02c5 70       		.byte	0x70
 2592 02c6 20       		.sleb128 32
 2593 02c7 06       		.byte	0x6
 2594 02c8 79       		.byte	0x79
 2595 02c9 00       		.sleb128 0
 2596 02ca 1C       		.byte	0x1c
 2597 02cb 9F       		.byte	0x9f
 2598 02cc E8000000 		.4byte	.LVL10-.Ltext0
 2599 02d0 3C010000 		.4byte	.LVL13-.Ltext0
 2600 02d4 0100     		.2byte	0x1
 2601 02d6 53       		.byte	0x53
 2602 02d7 3C010000 		.4byte	.LVL13-.Ltext0
 2603 02db 42010000 		.4byte	.LVL14-.Ltext0
 2604 02df 0600     		.2byte	0x6
 2605 02e1 7E       		.byte	0x7e
 2606 02e2 00       		.sleb128 0
 2607 02e3 71       		.byte	0x71
 2608 02e4 00       		.sleb128 0
 2609 02e5 1C       		.byte	0x1c
 2610 02e6 9F       		.byte	0x9f
 2611 02e7 42010000 		.4byte	.LVL14-.Ltext0
 2612 02eb 48010000 		.4byte	.LVL15-.Ltext0
 2613 02ef 0700     		.2byte	0x7
 2614 02f1 7E       		.byte	0x7e
 2615 02f2 00       		.sleb128 0
 2616 02f3 70       		.byte	0x70
 2617 02f4 2C       		.sleb128 44
 2618 02f5 06       		.byte	0x6
 2619 02f6 1C       		.byte	0x1c
 2620 02f7 9F       		.byte	0x9f
 2621 02f8 90010000 		.4byte	.LVL25-.Ltext0
 2622 02fc B0010000 		.4byte	.LVL28-.Ltext0
ARM GAS  /tmp/ccK9C98X.s 			page 47


 2623 0300 0100     		.2byte	0x1
 2624 0302 52       		.byte	0x52
 2625 0303 E0010000 		.4byte	.LVL31-.Ltext0
 2626 0307 3A020000 		.4byte	.LVL37-.Ltext0
 2627 030b 0100     		.2byte	0x1
 2628 030d 53       		.byte	0x53
 2629 030e 3A020000 		.4byte	.LVL37-.Ltext0
 2630 0312 74020000 		.4byte	.LVL38-.Ltext0
 2631 0316 1B00     		.2byte	0x1b
 2632 0318 7C       		.byte	0x7c
 2633 0319 00       		.sleb128 0
 2634 031a 31       		.byte	0x31
 2635 031b 26       		.byte	0x26
 2636 031c 78       		.byte	0x78
 2637 031d 00       		.sleb128 0
 2638 031e 22       		.byte	0x22
 2639 031f 23       		.byte	0x23
 2640 0320 FFFF03   		.uleb128 0xffff
 2641 0323 31       		.byte	0x31
 2642 0324 26       		.byte	0x26
 2643 0325 70       		.byte	0x70
 2644 0326 30       		.sleb128 48
 2645 0327 94       		.byte	0x94
 2646 0328 02       		.byte	0x2
 2647 0329 40       		.byte	0x40
 2648 032a 24       		.byte	0x24
 2649 032b 40       		.byte	0x40
 2650 032c 26       		.byte	0x26
 2651 032d 1E       		.byte	0x1e
 2652 032e 7D       		.byte	0x7d
 2653 032f 00       		.sleb128 0
 2654 0330 06       		.byte	0x6
 2655 0331 1C       		.byte	0x1c
 2656 0332 9F       		.byte	0x9f
 2657 0333 1C030000 		.4byte	.LVL52-.Ltext0
 2658 0337 24030000 		.4byte	.LVL53-.Ltext0
 2659 033b 0100     		.2byte	0x1
 2660 033d 52       		.byte	0x52
 2661 033e 38030000 		.4byte	.LVL54-.Ltext0
 2662 0342 48030000 		.4byte	.LVL56-.Ltext0
 2663 0346 0100     		.2byte	0x1
 2664 0348 53       		.byte	0x53
 2665 0349 56030000 		.4byte	.LVL58-.Ltext0
 2666 034d 70030000 		.4byte	.LFE24-.Ltext0
 2667 0351 0100     		.2byte	0x1
 2668 0353 53       		.byte	0x53
 2669 0354 00000000 		.4byte	0
 2670 0358 00000000 		.4byte	0
 2671              	.LLST7:
 2672 035c 3C000000 		.4byte	.LVL5-.Ltext0
 2673 0360 C8000000 		.4byte	.LVL8-.Ltext0
 2674 0364 0A00     		.2byte	0xa
 2675 0366 9E       		.byte	0x9e
 2676 0367 08       		.uleb128 0x8
 2677 0368 00000000 		.8byte	0
 2677      00000000 
 2678 0370 C8000000 		.4byte	.LVL8-.Ltext0
ARM GAS  /tmp/ccK9C98X.s 			page 48


 2679 0374 F8000000 		.4byte	.LVL11-.Ltext0
 2680 0378 0200     		.2byte	0x2
 2681 037a 7D       		.byte	0x7d
 2682 037b 00       		.sleb128 0
 2683 037c F8000000 		.4byte	.LVL11-.Ltext0
 2684 0380 1A010000 		.4byte	.LVL12-.Ltext0
 2685 0384 1800     		.2byte	0x18
 2686 0386 F5       		.byte	0xf5
 2687 0387 0A       		.uleb128 0xa
 2688 0388 25       		.uleb128 0x25
 2689 0389 31       		.byte	0x31
 2690 038a F7       		.byte	0xf7
 2691 038b 25       		.uleb128 0x25
 2692 038c 26       		.byte	0x26
 2693 038d 73       		.byte	0x73
 2694 038e 00       		.sleb128 0
 2695 038f 19       		.byte	0x19
 2696 0390 F7       		.byte	0xf7
 2697 0391 2C       		.uleb128 0x2c
 2698 0392 F7       		.byte	0xf7
 2699 0393 25       		.uleb128 0x25
 2700 0394 F5       		.byte	0xf5
 2701 0395 0A       		.uleb128 0xa
 2702 0396 25       		.uleb128 0x25
 2703 0397 1E       		.byte	0x1e
 2704 0398 4F       		.byte	0x4f
 2705 0399 F7       		.byte	0xf7
 2706 039a 25       		.uleb128 0x25
 2707 039b 26       		.byte	0x26
 2708 039c 22       		.byte	0x22
 2709 039d 9F       		.byte	0x9f
 2710 039e 8C010000 		.4byte	.LVL24-.Ltext0
 2711 03a2 9C010000 		.4byte	.LVL26-.Ltext0
 2712 03a6 0A00     		.2byte	0xa
 2713 03a8 9E       		.byte	0x9e
 2714 03a9 08       		.uleb128 0x8
 2715 03aa 00000000 		.8byte	0
 2715      00000000 
 2716 03b2 9C010000 		.4byte	.LVL26-.Ltext0
 2717 03b6 AA010000 		.4byte	.LVL27-.Ltext0
 2718 03ba 0600     		.2byte	0x6
 2719 03bc 54       		.byte	0x54
 2720 03bd 93       		.byte	0x93
 2721 03be 04       		.uleb128 0x4
 2722 03bf 55       		.byte	0x55
 2723 03c0 93       		.byte	0x93
 2724 03c1 04       		.uleb128 0x4
 2725 03c2 E0010000 		.4byte	.LVL31-.Ltext0
 2726 03c6 FA010000 		.4byte	.LVL33-.Ltext0
 2727 03ca 0A00     		.2byte	0xa
 2728 03cc 9E       		.byte	0x9e
 2729 03cd 08       		.uleb128 0x8
 2730 03ce 00000000 		.8byte	0
 2730      00000000 
 2731 03d6 FA010000 		.4byte	.LVL33-.Ltext0
 2732 03da 16020000 		.4byte	.LVL35-.Ltext0
 2733 03de 0700     		.2byte	0x7
ARM GAS  /tmp/ccK9C98X.s 			page 49


 2734 03e0 79       		.byte	0x79
 2735 03e1 00       		.sleb128 0
 2736 03e2 F7       		.byte	0xf7
 2737 03e3 2C       		.uleb128 0x2c
 2738 03e4 F7       		.byte	0xf7
 2739 03e5 25       		.uleb128 0x25
 2740 03e6 9F       		.byte	0x9f
 2741 03e7 16020000 		.4byte	.LVL35-.Ltext0
 2742 03eb 36020000 		.4byte	.LVL36-.Ltext0
 2743 03ef 0600     		.2byte	0x6
 2744 03f1 54       		.byte	0x54
 2745 03f2 93       		.byte	0x93
 2746 03f3 04       		.uleb128 0x4
 2747 03f4 55       		.byte	0x55
 2748 03f5 93       		.byte	0x93
 2749 03f6 04       		.uleb128 0x4
 2750 03f7 B4020000 		.4byte	.LVL44-.Ltext0
 2751 03fb D6020000 		.4byte	.LVL46-.Ltext0
 2752 03ff 0A00     		.2byte	0xa
 2753 0401 9E       		.byte	0x9e
 2754 0402 08       		.uleb128 0x8
 2755 0403 00000000 		.8byte	0
 2755      00000000 
 2756 040b 1C030000 		.4byte	.LVL52-.Ltext0
 2757 040f 46030000 		.4byte	.LVL55-.Ltext0
 2758 0413 0A00     		.2byte	0xa
 2759 0415 9E       		.byte	0x9e
 2760 0416 08       		.uleb128 0x8
 2761 0417 00000000 		.8byte	0
 2761      00000000 
 2762 041f 46030000 		.4byte	.LVL55-.Ltext0
 2763 0423 48030000 		.4byte	.LVL56-.Ltext0
 2764 0427 0600     		.2byte	0x6
 2765 0429 54       		.byte	0x54
 2766 042a 93       		.byte	0x93
 2767 042b 04       		.uleb128 0x4
 2768 042c 55       		.byte	0x55
 2769 042d 93       		.byte	0x93
 2770 042e 04       		.uleb128 0x4
 2771 042f 56030000 		.4byte	.LVL58-.Ltext0
 2772 0433 5E030000 		.4byte	.LVL59-.Ltext0
 2773 0437 0A00     		.2byte	0xa
 2774 0439 9E       		.byte	0x9e
 2775 043a 08       		.uleb128 0x8
 2776 043b 00000000 		.8byte	0
 2776      00000000 
 2777 0443 5E030000 		.4byte	.LVL59-.Ltext0
 2778 0447 70030000 		.4byte	.LFE24-.Ltext0
 2779 044b 0600     		.2byte	0x6
 2780 044d 54       		.byte	0x54
 2781 044e 93       		.byte	0x93
 2782 044f 04       		.uleb128 0x4
 2783 0450 55       		.byte	0x55
 2784 0451 93       		.byte	0x93
 2785 0452 04       		.uleb128 0x4
 2786 0453 00000000 		.4byte	0
 2787 0457 00000000 		.4byte	0
ARM GAS  /tmp/ccK9C98X.s 			page 50


 2788              	.LLST8:
 2789 045b 74020000 		.4byte	.LVL38-.Ltext0
 2790 045f 84020000 		.4byte	.LVL39-.Ltext0
 2791 0463 0500     		.2byte	0x5
 2792 0465 73       		.byte	0x73
 2793 0466 00       		.sleb128 0
 2794 0467 31       		.byte	0x31
 2795 0468 26       		.byte	0x26
 2796 0469 9F       		.byte	0x9f
 2797 046a 84020000 		.4byte	.LVL39-.Ltext0
 2798 046e 8A020000 		.4byte	.LVL40-.Ltext0
 2799 0472 0800     		.2byte	0x8
 2800 0474 73       		.byte	0x73
 2801 0475 00       		.sleb128 0
 2802 0476 31       		.byte	0x31
 2803 0477 26       		.byte	0x26
 2804 0478 72       		.byte	0x72
 2805 0479 00       		.sleb128 0
 2806 047a 22       		.byte	0x22
 2807 047b 9F       		.byte	0x9f
 2808 047c 8A020000 		.4byte	.LVL40-.Ltext0
 2809 0480 9C020000 		.4byte	.LVL41-.Ltext0
 2810 0484 0100     		.2byte	0x1
 2811 0486 52       		.byte	0x52
 2812 0487 D6020000 		.4byte	.LVL46-.Ltext0
 2813 048b E6020000 		.4byte	.LVL47-.Ltext0
 2814 048f 0100     		.2byte	0x1
 2815 0491 52       		.byte	0x52
 2816 0492 E6020000 		.4byte	.LVL47-.Ltext0
 2817 0496 EC020000 		.4byte	.LVL48-.Ltext0
 2818 049a 1300     		.2byte	0x13
 2819 049c 73       		.byte	0x73
 2820 049d 00       		.sleb128 0
 2821 049e 31       		.byte	0x31
 2822 049f 26       		.byte	0x26
 2823 04a0 70       		.byte	0x70
 2824 04a1 24       		.sleb128 36
 2825 04a2 06       		.byte	0x6
 2826 04a3 3F       		.byte	0x3f
 2827 04a4 26       		.byte	0x26
 2828 04a5 70       		.byte	0x70
 2829 04a6 2C       		.sleb128 44
 2830 04a7 06       		.byte	0x6
 2831 04a8 3F       		.byte	0x3f
 2832 04a9 26       		.byte	0x26
 2833 04aa 1E       		.byte	0x1e
 2834 04ab 31       		.byte	0x31
 2835 04ac 26       		.byte	0x26
 2836 04ad 22       		.byte	0x22
 2837 04ae 9F       		.byte	0x9f
 2838 04af EC020000 		.4byte	.LVL48-.Ltext0
 2839 04b3 F0020000 		.4byte	.LVL49-.Ltext0
 2840 04b7 1400     		.2byte	0x14
 2841 04b9 70       		.byte	0x70
 2842 04ba 20       		.sleb128 32
 2843 04bb 06       		.byte	0x6
 2844 04bc 31       		.byte	0x31
ARM GAS  /tmp/ccK9C98X.s 			page 51


 2845 04bd 26       		.byte	0x26
 2846 04be 70       		.byte	0x70
 2847 04bf 24       		.sleb128 36
 2848 04c0 06       		.byte	0x6
 2849 04c1 3F       		.byte	0x3f
 2850 04c2 26       		.byte	0x26
 2851 04c3 70       		.byte	0x70
 2852 04c4 2C       		.sleb128 44
 2853 04c5 06       		.byte	0x6
 2854 04c6 3F       		.byte	0x3f
 2855 04c7 26       		.byte	0x26
 2856 04c8 1E       		.byte	0x1e
 2857 04c9 31       		.byte	0x31
 2858 04ca 26       		.byte	0x26
 2859 04cb 22       		.byte	0x22
 2860 04cc 9F       		.byte	0x9f
 2861 04cd 48030000 		.4byte	.LVL56-.Ltext0
 2862 04d1 50030000 		.4byte	.LVL57-.Ltext0
 2863 04d5 0100     		.2byte	0x1
 2864 04d7 52       		.byte	0x52
 2865 04d8 50030000 		.4byte	.LVL57-.Ltext0
 2866 04dc 56030000 		.4byte	.LVL58-.Ltext0
 2867 04e0 1400     		.2byte	0x14
 2868 04e2 70       		.byte	0x70
 2869 04e3 20       		.sleb128 32
 2870 04e4 06       		.byte	0x6
 2871 04e5 31       		.byte	0x31
 2872 04e6 26       		.byte	0x26
 2873 04e7 70       		.byte	0x70
 2874 04e8 24       		.sleb128 36
 2875 04e9 06       		.byte	0x6
 2876 04ea 3F       		.byte	0x3f
 2877 04eb 26       		.byte	0x26
 2878 04ec 70       		.byte	0x70
 2879 04ed 2C       		.sleb128 44
 2880 04ee 06       		.byte	0x6
 2881 04ef 3F       		.byte	0x3f
 2882 04f0 26       		.byte	0x26
 2883 04f1 1E       		.byte	0x1e
 2884 04f2 31       		.byte	0x31
 2885 04f3 26       		.byte	0x26
 2886 04f4 22       		.byte	0x22
 2887 04f5 9F       		.byte	0x9f
 2888 04f6 00000000 		.4byte	0
 2889 04fa 00000000 		.4byte	0
 2890              	.LLST9:
 2891 04fe 9C020000 		.4byte	.LVL41-.Ltext0
 2892 0502 A0020000 		.4byte	.LVL42-.Ltext0
 2893 0506 0100     		.2byte	0x1
 2894 0508 53       		.byte	0x53
 2895 0509 00000000 		.4byte	0
 2896 050d 00000000 		.4byte	0
 2897              	.LLST10:
 2898 0511 F8000000 		.4byte	.LVL11-.Ltext0
 2899 0515 3C010000 		.4byte	.LVL13-.Ltext0
 2900 0519 0800     		.2byte	0x8
 2901 051b 73       		.byte	0x73
ARM GAS  /tmp/ccK9C98X.s 			page 52


 2902 051c 00       		.sleb128 0
 2903 051d 19       		.byte	0x19
 2904 051e F7       		.byte	0xf7
 2905 051f 2C       		.uleb128 0x2c
 2906 0520 F7       		.byte	0xf7
 2907 0521 25       		.uleb128 0x25
 2908 0522 9F       		.byte	0x9f
 2909 0523 3C010000 		.4byte	.LVL13-.Ltext0
 2910 0527 42010000 		.4byte	.LVL14-.Ltext0
 2911 052b 0B00     		.2byte	0xb
 2912 052d 7E       		.byte	0x7e
 2913 052e 00       		.sleb128 0
 2914 052f 71       		.byte	0x71
 2915 0530 00       		.sleb128 0
 2916 0531 1C       		.byte	0x1c
 2917 0532 19       		.byte	0x19
 2918 0533 F7       		.byte	0xf7
 2919 0534 2C       		.uleb128 0x2c
 2920 0535 F7       		.byte	0xf7
 2921 0536 25       		.uleb128 0x25
 2922 0537 9F       		.byte	0x9f
 2923 0538 42010000 		.4byte	.LVL14-.Ltext0
 2924 053c 48010000 		.4byte	.LVL15-.Ltext0
 2925 0540 0C00     		.2byte	0xc
 2926 0542 7E       		.byte	0x7e
 2927 0543 00       		.sleb128 0
 2928 0544 70       		.byte	0x70
 2929 0545 2C       		.sleb128 44
 2930 0546 06       		.byte	0x6
 2931 0547 1C       		.byte	0x1c
 2932 0548 19       		.byte	0x19
 2933 0549 F7       		.byte	0xf7
 2934 054a 2C       		.uleb128 0x2c
 2935 054b F7       		.byte	0xf7
 2936 054c 25       		.uleb128 0x25
 2937 054d 9F       		.byte	0x9f
 2938 054e 00000000 		.4byte	0
 2939 0552 00000000 		.4byte	0
 2940              	.LLST11:
 2941 0556 48010000 		.4byte	.LVL15-.Ltext0
 2942 055a 6A010000 		.4byte	.LVL22-.Ltext0
 2943 055e 0500     		.2byte	0x5
 2944 0560 72       		.byte	0x72
 2945 0561 00       		.sleb128 0
 2946 0562 40       		.byte	0x40
 2947 0563 26       		.byte	0x26
 2948 0564 9F       		.byte	0x9f
 2949 0565 6A010000 		.4byte	.LVL22-.Ltext0
 2950 0569 8C010000 		.4byte	.LVL24-.Ltext0
 2951 056d 0500     		.2byte	0x5
 2952 056f F3       		.byte	0xf3
 2953 0570 01       		.uleb128 0x1
 2954 0571 50       		.byte	0x50
 2955 0572 23       		.byte	0x23
 2956 0573 2A       		.uleb128 0x2a
 2957 0574 00000000 		.4byte	0
 2958 0578 00000000 		.4byte	0
ARM GAS  /tmp/ccK9C98X.s 			page 53


 2959              	.LLST12:
 2960 057c 4C010000 		.4byte	.LVL16-.Ltext0
 2961 0580 5E010000 		.4byte	.LVL21-.Ltext0
 2962 0584 0100     		.2byte	0x1
 2963 0586 54       		.byte	0x54
 2964 0587 5E010000 		.4byte	.LVL21-.Ltext0
 2965 058b 8C010000 		.4byte	.LVL24-.Ltext0
 2966 058f 0B00     		.2byte	0xb
 2967 0591 F3       		.byte	0xf3
 2968 0592 01       		.uleb128 0x1
 2969 0593 50       		.byte	0x50
 2970 0594 23       		.byte	0x23
 2971 0595 2C       		.uleb128 0x2c
 2972 0596 06       		.byte	0x6
 2973 0597 32       		.byte	0x32
 2974 0598 26       		.byte	0x26
 2975 0599 33       		.byte	0x33
 2976 059a 1E       		.byte	0x1e
 2977 059b 9F       		.byte	0x9f
 2978 059c 00000000 		.4byte	0
 2979 05a0 00000000 		.4byte	0
 2980              	.LLST13:
 2981 05a4 54010000 		.4byte	.LVL18-.Ltext0
 2982 05a8 5A010000 		.4byte	.LVL20-.Ltext0
 2983 05ac 0700     		.2byte	0x7
 2984 05ae 71       		.byte	0x71
 2985 05af 00       		.sleb128 0
 2986 05b0 40       		.byte	0x40
 2987 05b1 24       		.byte	0x24
 2988 05b2 40       		.byte	0x40
 2989 05b3 26       		.byte	0x26
 2990 05b4 9F       		.byte	0x9f
 2991 05b5 5A010000 		.4byte	.LVL20-.Ltext0
 2992 05b9 8C010000 		.4byte	.LVL24-.Ltext0
 2993 05bd 0100     		.2byte	0x1
 2994 05bf 50       		.byte	0x50
 2995 05c0 00000000 		.4byte	0
 2996 05c4 00000000 		.4byte	0
 2997              	.LLST14:
 2998 05c8 F2020000 		.4byte	.LVL50-.Ltext0
 2999 05cc F6020000 		.4byte	.LVL51-.Ltext0
 3000 05d0 0700     		.2byte	0x7
 3001 05d2 70       		.byte	0x70
 3002 05d3 00       		.sleb128 0
 3003 05d4 40       		.byte	0x40
 3004 05d5 24       		.byte	0x24
 3005 05d6 40       		.byte	0x40
 3006 05d7 26       		.byte	0x26
 3007 05d8 9F       		.byte	0x9f
 3008 05d9 F6020000 		.4byte	.LVL51-.Ltext0
 3009 05dd 1C030000 		.4byte	.LVL52-.Ltext0
 3010 05e1 0100     		.2byte	0x1
 3011 05e3 54       		.byte	0x54
 3012 05e4 00000000 		.4byte	0
 3013 05e8 00000000 		.4byte	0
 3014              		.section	.debug_aranges,"",%progbits
 3015 0000 1C000000 		.4byte	0x1c
ARM GAS  /tmp/ccK9C98X.s 			page 54


 3016 0004 0200     		.2byte	0x2
 3017 0006 00000000 		.4byte	.Ldebug_info0
 3018 000a 04       		.byte	0x4
 3019 000b 00       		.byte	0
 3020 000c 0000     		.2byte	0
 3021 000e 0000     		.2byte	0
 3022 0010 00000000 		.4byte	.Ltext0
 3023 0014 70030000 		.4byte	.Letext0-.Ltext0
 3024 0018 00000000 		.4byte	0
 3025 001c 00000000 		.4byte	0
 3026              		.section	.debug_ranges,"",%progbits
 3027              	.Ldebug_ranges0:
 3028 0000 16000000 		.4byte	.LBB11-.Ltext0
 3029 0004 1A000000 		.4byte	.LBE11-.Ltext0
 3030 0008 1C000000 		.4byte	.LBB25-.Ltext0
 3031 000c 86010000 		.4byte	.LBE25-.Ltext0
 3032 0010 8C010000 		.4byte	.LBB26-.Ltext0
 3033 0014 AE020000 		.4byte	.LBE26-.Ltext0
 3034 0018 B4020000 		.4byte	.LBB27-.Ltext0
 3035 001c 70030000 		.4byte	.LBE27-.Ltext0
 3036 0020 00000000 		.4byte	0
 3037 0024 00000000 		.4byte	0
 3038 0028 42000000 		.4byte	.LBB13-.Ltext0
 3039 002c 86010000 		.4byte	.LBE13-.Ltext0
 3040 0030 B4020000 		.4byte	.LBB18-.Ltext0
 3041 0034 D6020000 		.4byte	.LBE18-.Ltext0
 3042 0038 24030000 		.4byte	.LBB19-.Ltext0
 3043 003c 38030000 		.4byte	.LBE19-.Ltext0
 3044 0040 00000000 		.4byte	0
 3045 0044 00000000 		.4byte	0
 3046 0048 44010000 		.4byte	.LBB14-.Ltext0
 3047 004c 46010000 		.4byte	.LBE14-.Ltext0
 3048 0050 4C010000 		.4byte	.LBB17-.Ltext0
 3049 0054 68010000 		.4byte	.LBE17-.Ltext0
 3050 0058 00000000 		.4byte	0
 3051 005c 00000000 		.4byte	0
 3052              		.section	.debug_line,"",%progbits
 3053              	.Ldebug_line0:
 3054 0000 8B030000 		.section	.debug_str,"MS",%progbits,1
 3054      0200C301 
 3054      00000201 
 3054      FB0E0D00 
 3054      01010101 
 3055              	.LASF84:
 3056 0000 6B536368 		.ascii	"kSchmittTriggerThreshold\000"
 3056      6D697474 
 3056      54726967 
 3056      67657254 
 3056      68726573 
 3057              	.LASF51:
 3058 0019 4C55545F 		.ascii	"LUT_ENV_LINEAR\000"
 3058      454E565F 
 3058      4C494E45 
 3058      415200
 3059              	.LASF99:
 3060 0028 6375746F 		.ascii	"cutoff\000"
 3060      666600
ARM GAS  /tmp/ccK9C98X.s 			page 55


 3061              	.LASF39:
 3062 002f 5F5A4E37 		.ascii	"_ZN7streams7Vactrol7ProcessEssPtS1_\000"
 3062      73747265 
 3062      616D7337 
 3062      56616374 
 3062      726F6C37 
 3063              	.LASF43:
 3064 0053 6C75745F 		.ascii	"lut_lp_coefficients\000"
 3064      6C705F63 
 3064      6F656666 
 3064      69636965 
 3064      6E747300 
 3065              	.LASF46:
 3066 0067 5354525F 		.ascii	"STR_DUMMY\000"
 3066      44554D4D 
 3066      5900
 3067              	.LASF44:
 3068 0071 5F5A4E37 		.ascii	"_ZN7streams12wav_gompertzE\000"
 3068      73747265 
 3068      616D7331 
 3068      32776176 
 3068      5F676F6D 
 3069              	.LASF97:
 3070 008c 696E6465 		.ascii	"index\000"
 3070      7800
 3071              	.LASF71:
 3072 0092 4C55545F 		.ascii	"LUT_LP_COEFFICIENTS\000"
 3072      4C505F43 
 3072      4F454646 
 3072      49434945 
 3072      4E545300 
 3073              	.LASF3:
 3074 00a6 73686F72 		.ascii	"short int\000"
 3074      7420696E 
 3074      7400
 3075              	.LASF93:
 3076 00b0 696E7075 		.ascii	"input\000"
 3076      7400
 3077              	.LASF19:
 3078 00b6 73697A65 		.ascii	"sizetype\000"
 3078      74797065 
 3078      00
 3079              	.LASF76:
 3080 00bf 4C55545F 		.ascii	"LUT_LOG2_SIZE\000"
 3080      4C4F4732 
 3080      5F53495A 
 3080      4500
 3081              	.LASF35:
 3082 00cd 7E566163 		.ascii	"~Vactrol\000"
 3082      74726F6C 
 3082      00
 3083              	.LASF102:
 3084 00d6 7663615F 		.ascii	"vca_mount\000"
 3084      6D6F756E 
 3084      7400
 3085              	.LASF54:
 3086 00e0 4C55545F 		.ascii	"LUT_ENV_EXPO_SIZE\000"
ARM GAS  /tmp/ccK9C98X.s 			page 56


 3086      454E565F 
 3086      4558504F 
 3086      5F53495A 
 3086      4500
 3087              	.LASF105:
 3088 00f2 2F686F6D 		.ascii	"/home/sbcu/Dropbox/pcb-layouts/axo-on-discovery-boa"
 3088      652F7362 
 3088      63752F44 
 3088      726F7062 
 3088      6F782F70 
 3089 0125 72642F61 		.ascii	"rd/axoloti/firmware\000"
 3089      786F6C6F 
 3089      74692F66 
 3089      69726D77 
 3089      61726500 
 3090              	.LASF9:
 3091 0139 5F5F7569 		.ascii	"__uint32_t\000"
 3091      6E743332 
 3091      5F7400
 3092              	.LASF81:
 3093 0144 6B41626F 		.ascii	"kAboveUnityGain\000"
 3093      7665556E 
 3093      69747947 
 3093      61696E00 
 3094              	.LASF5:
 3095 0154 5F5F7569 		.ascii	"__uint16_t\000"
 3095      6E743136 
 3095      5F7400
 3096              	.LASF37:
 3097 015f 50726F63 		.ascii	"Process\000"
 3097      65737300 
 3098              	.LASF101:
 3099 0167 7663665F 		.ascii	"vcf_amount\000"
 3099      616D6F75 
 3099      6E7400
 3100              	.LASF18:
 3101 0172 696E7436 		.ascii	"int64_t\000"
 3101      345F7400 
 3102              	.LASF28:
 3103 017a 66617374 		.ascii	"fast_attack_coefficient_\000"
 3103      5F617474 
 3103      61636B5F 
 3103      636F6566 
 3103      66696369 
 3104              	.LASF34:
 3105 0193 56616374 		.ascii	"Vactrol\000"
 3105      726F6C00 
 3106              	.LASF32:
 3107 019b 67617465 		.ascii	"gate_\000"
 3107      5F00
 3108              	.LASF74:
 3109 01a1 4C55545F 		.ascii	"LUT_EXP2_SIZE\000"
 3109      45585032 
 3109      5F53495A 
 3109      4500
 3110              	.LASF83:
 3111 01af 6B4D6178 		.ascii	"kMaxExponentialGain\000"
ARM GAS  /tmp/ccK9C98X.s 			page 57


 3111      4578706F 
 3111      6E656E74 
 3111      69616C47 
 3111      61696E00 
 3112              	.LASF22:
 3113 01c3 74617267 		.ascii	"target_frequency_amount_\000"
 3113      65745F66 
 3113      72657175 
 3113      656E6379 
 3113      5F616D6F 
 3114              	.LASF79:
 3115 01dc 6B446566 		.ascii	"kDefaultOffset\000"
 3115      61756C74 
 3115      4F666673 
 3115      657400
 3116              	.LASF30:
 3117 01eb 73746174 		.ascii	"state_\000"
 3117      655F00
 3118              	.LASF23:
 3119 01f2 74617267 		.ascii	"target_frequency_offset_\000"
 3119      65745F66 
 3119      72657175 
 3119      656E6379 
 3119      5F6F6666 
 3120              	.LASF89:
 3121 020b 61756469 		.ascii	"audio\000"
 3121      6F00
 3122              	.LASF66:
 3123 0211 4C55545F 		.ascii	"LUT_COMPRESSOR_RATIO_SIZE\000"
 3123      434F4D50 
 3123      52455353 
 3123      4F525F52 
 3123      4154494F 
 3124              	.LASF78:
 3125 022b 4C55545F 		.ascii	"LUT_LORENZ_RATE_SIZE\000"
 3125      4C4F5245 
 3125      4E5A5F52 
 3125      4154455F 
 3125      53495A45 
 3126              	.LASF33:
 3127 0240 706C7563 		.ascii	"plucked_\000"
 3127      6B65645F 
 3127      00
 3128              	.LASF107:
 3129 0249 496E7465 		.ascii	"Interpolate1022\000"
 3129      72706F6C 
 3129      61746531 
 3129      30323200 
 3130              	.LASF100:
 3131 0259 73747265 		.ascii	"strength\000"
 3131      6E677468 
 3131      00
 3132              	.LASF80:
 3133 0262 6B556E69 		.ascii	"kUnityGain\000"
 3133      74794761 
 3133      696E00
 3134              	.LASF12:
ARM GAS  /tmp/ccK9C98X.s 			page 58


 3135 026d 6C6F6E67 		.ascii	"long long int\000"
 3135      206C6F6E 
 3135      6720696E 
 3135      7400
 3136              	.LASF72:
 3137 027b 4C55545F 		.ascii	"LUT_LP_COEFFICIENTS_SIZE\000"
 3137      4C505F43 
 3137      4F454646 
 3137      49434945 
 3137      4E54535F 
 3138              	.LASF45:
 3139 0294 5F5A4E37 		.ascii	"_ZN7streams19lut_lp_coefficientsE\000"
 3139      73747265 
 3139      616D7331 
 3139      396C7574 
 3139      5F6C705F 
 3140              	.LASF36:
 3141 02b6 496E6974 		.ascii	"Init\000"
 3141      00
 3142              	.LASF8:
 3143 02bb 6C6F6E67 		.ascii	"long int\000"
 3143      20696E74 
 3143      00
 3144              	.LASF11:
 3145 02c4 5F5F696E 		.ascii	"__int64_t\000"
 3145      7436345F 
 3145      7400
 3146              	.LASF20:
 3147 02ce 73746D6C 		.ascii	"stmlib\000"
 3147      696200
 3148              	.LASF47:
 3149 02d5 5741565F 		.ascii	"WAV_GOMPERTZ\000"
 3149      474F4D50 
 3149      4552545A 
 3149      00
 3150              	.LASF98:
 3151 02e2 616D706C 		.ascii	"amplitude\000"
 3151      69747564 
 3151      6500
 3152              	.LASF68:
 3153 02ec 4C55545F 		.ascii	"LUT_SOFT_KNEE_SIZE\000"
 3153      534F4654 
 3153      5F4B4E45 
 3153      455F5349 
 3153      5A4500
 3154              	.LASF53:
 3155 02ff 4C55545F 		.ascii	"LUT_ENV_EXPO\000"
 3155      454E565F 
 3155      4558504F 
 3155      00
 3156              	.LASF95:
 3157 030c 636F6566 		.ascii	"coefficient\000"
 3157      66696369 
 3157      656E7400 
 3158              	.LASF2:
 3159 0318 756E7369 		.ascii	"unsigned char\000"
 3159      676E6564 
ARM GAS  /tmp/ccK9C98X.s 			page 59


 3159      20636861 
 3159      7200
 3160              	.LASF52:
 3161 0326 4C55545F 		.ascii	"LUT_ENV_LINEAR_SIZE\000"
 3161      454E565F 
 3161      4C494E45 
 3161      41525F53 
 3161      495A4500 
 3162              	.LASF1:
 3163 033a 7369676E 		.ascii	"signed char\000"
 3163      65642063 
 3163      68617200 
 3164              	.LASF94:
 3165 0346 6572726F 		.ascii	"error\000"
 3165      7200
 3166              	.LASF0:
 3167 034c 6C6F6E67 		.ascii	"long long unsigned int\000"
 3167      206C6F6E 
 3167      6720756E 
 3167      7369676E 
 3167      65642069 
 3168              	.LASF17:
 3169 0363 75696E74 		.ascii	"uint32_t\000"
 3169      33325F74 
 3169      00
 3170              	.LASF13:
 3171 036c 756E7369 		.ascii	"unsigned int\000"
 3171      676E6564 
 3171      20696E74 
 3171      00
 3172              	.LASF92:
 3173 0379 66726571 		.ascii	"frequency\000"
 3173      75656E63 
 3173      7900
 3174              	.LASF15:
 3175 0383 75696E74 		.ascii	"uint16_t\000"
 3175      31365F74 
 3175      00
 3176              	.LASF90:
 3177 038c 65786369 		.ascii	"excite\000"
 3177      746500
 3178              	.LASF106:
 3179 0393 696D706C 		.ascii	"impl\000"
 3179      00
 3180              	.LASF85:
 3181 0398 626F6F6C 		.ascii	"bool\000"
 3181      00
 3182              	.LASF6:
 3183 039d 73686F72 		.ascii	"short unsigned int\000"
 3183      7420756E 
 3183      7369676E 
 3183      65642069 
 3183      6E7400
 3184              	.LASF75:
 3185 03b0 4C55545F 		.ascii	"LUT_LOG2\000"
 3185      4C4F4732 
 3185      00
ARM GAS  /tmp/ccK9C98X.s 			page 60


 3186              	.LASF48:
 3187 03b9 5741565F 		.ascii	"WAV_GOMPERTZ_SIZE\000"
 3187      474F4D50 
 3187      4552545A 
 3187      5F53495A 
 3187      4500
 3188              	.LASF57:
 3189 03cb 4C55545F 		.ascii	"LUT_SQUARE_ROOT\000"
 3189      53515541 
 3189      52455F52 
 3189      4F4F5400 
 3190              	.LASF73:
 3191 03db 4C55545F 		.ascii	"LUT_EXP2\000"
 3191      45585032 
 3191      00
 3192              	.LASF16:
 3193 03e4 696E7433 		.ascii	"int32_t\000"
 3193      325F7400 
 3194              	.LASF109:
 3195 03ec 5F5A4E37 		.ascii	"_ZN7streams7VactrolaSERKS0_\000"
 3195      73747265 
 3195      616D7337 
 3195      56616374 
 3195      726F6C61 
 3196              	.LASF14:
 3197 0408 696E7431 		.ascii	"int16_t\000"
 3197      365F7400 
 3198              	.LASF88:
 3199 0410 74686973 		.ascii	"this\000"
 3199      00
 3200              	.LASF56:
 3201 0415 4C55545F 		.ascii	"LUT_ENV_QUARTIC_SIZE\000"
 3201      454E565F 
 3201      51554152 
 3201      5449435F 
 3201      53495A45 
 3202              	.LASF103:
 3203 042a 474E5520 		.ascii	"GNU C++ 4.9.3 20150529 (release) [ARM/embedded-4_9-"
 3203      432B2B20 
 3203      342E392E 
 3203      33203230 
 3203      31353035 
 3204 045d 6272616E 		.ascii	"branch revision 224288] -mcpu=cortex-m4 -mfloat-abi"
 3204      63682072 
 3204      65766973 
 3204      696F6E20 
 3204      32323432 
 3205 0490 3D686172 		.ascii	"=hard -mfpu=fpv4-sp-d16 -mno-thumb-interwork -mthum"
 3205      64202D6D 
 3205      6670753D 
 3205      66707634 
 3205      2D73702D 
 3206 04c3 62202D67 		.ascii	"b -ggdb -O2 -fomit-frame-pointer -falign-functions="
 3206      67646220 
 3206      2D4F3220 
 3206      2D666F6D 
 3206      69742D66 
ARM GAS  /tmp/ccK9C98X.s 			page 61


 3207 04f6 3136202D 		.ascii	"16 -fno-math-errno -fsingle-precision-constant -fno"
 3207      666E6F2D 
 3207      6D617468 
 3207      2D657272 
 3207      6E6F202D 
 3208 0529 2D727474 		.ascii	"-rtti\000"
 3208      6900
 3209              	.LASF64:
 3210 052f 4C55545F 		.ascii	"LUT_2164_GAIN_SIZE\000"
 3210      32313634 
 3210      5F474149 
 3210      4E5F5349 
 3210      5A4500
 3211              	.LASF70:
 3212 0542 4C55545F 		.ascii	"LUT_ENV_INCREMENTS_SIZE\000"
 3212      454E565F 
 3212      494E4352 
 3212      454D454E 
 3212      54535F53 
 3213              	.LASF50:
 3214 055a 5741565F 		.ascii	"WAV_DB_SIZE\000"
 3214      44425F53 
 3214      495A4500 
 3215              	.LASF42:
 3216 0566 7761765F 		.ascii	"wav_gompertz\000"
 3216      676F6D70 
 3216      6572747A 
 3216      00
 3217              	.LASF82:
 3218 0573 6B4D6178 		.ascii	"kMaxLinearGain\000"
 3218      4C696E65 
 3218      61724761 
 3218      696E00
 3219              	.LASF24:
 3220 0582 66726571 		.ascii	"frequency_amount_\000"
 3220      75656E63 
 3220      795F616D 
 3220      6F756E74 
 3220      5F00
 3221              	.LASF49:
 3222 0594 5741565F 		.ascii	"WAV_DB\000"
 3222      444200
 3223              	.LASF25:
 3224 059b 66726571 		.ascii	"frequency_offset_\000"
 3224      75656E63 
 3224      795F6F66 
 3224      66736574 
 3224      5F00
 3225              	.LASF41:
 3226 05ad 5F5A4E37 		.ascii	"_ZN7streams7Vactrol9ConfigureEbPlS1_\000"
 3226      73747265 
 3226      616D7337 
 3226      56616374 
 3226      726F6C39 
 3227              	.LASF87:
 3228 05d2 70686173 		.ascii	"phase\000"
 3228      6500
ARM GAS  /tmp/ccK9C98X.s 			page 62


 3229              	.LASF10:
 3230 05d8 6C6F6E67 		.ascii	"long unsigned int\000"
 3230      20756E73 
 3230      69676E65 
 3230      6420696E 
 3230      7400
 3231              	.LASF58:
 3232 05ea 4C55545F 		.ascii	"LUT_SQUARE_ROOT_SIZE\000"
 3232      53515541 
 3232      52455F52 
 3232      4F4F545F 
 3232      53495A45 
 3233              	.LASF29:
 3234 05ff 66617374 		.ascii	"fast_decay_coefficient_\000"
 3234      5F646563 
 3234      61795F63 
 3234      6F656666 
 3234      69636965 
 3235              	.LASF60:
 3236 0617 4C55545F 		.ascii	"LUT_SVF_CUTOFF_SIZE\000"
 3236      5356465F 
 3236      4355544F 
 3236      46465F53 
 3236      495A4500 
 3237              	.LASF55:
 3238 062b 4C55545F 		.ascii	"LUT_ENV_QUARTIC\000"
 3238      454E565F 
 3238      51554152 
 3238      54494300 
 3239              	.LASF7:
 3240 063b 5F5F696E 		.ascii	"__int32_t\000"
 3240      7433325F 
 3240      7400
 3241              	.LASF61:
 3242 0645 4C55545F 		.ascii	"LUT_SVF_DAMP\000"
 3242      5356465F 
 3242      44414D50 
 3242      00
 3243              	.LASF31:
 3244 0652 65786369 		.ascii	"excite_\000"
 3244      74655F00 
 3245              	.LASF67:
 3246 065a 4C55545F 		.ascii	"LUT_SOFT_KNEE\000"
 3246      534F4654 
 3246      5F4B4E45 
 3246      4500
 3247              	.LASF4:
 3248 0668 5F5F696E 		.ascii	"__int16_t\000"
 3248      7431365F 
 3248      7400
 3249              	.LASF21:
 3250 0672 73747265 		.ascii	"streams\000"
 3250      616D7300 
 3251              	.LASF38:
 3252 067a 5F5A4E37 		.ascii	"_ZN7streams7Vactrol4InitEv\000"
 3252      73747265 
 3252      616D7337 
ARM GAS  /tmp/ccK9C98X.s 			page 63


 3252      56616374 
 3252      726F6C34 
 3253              	.LASF59:
 3254 0695 4C55545F 		.ascii	"LUT_SVF_CUTOFF\000"
 3254      5356465F 
 3254      4355544F 
 3254      464600
 3255              	.LASF62:
 3256 06a4 4C55545F 		.ascii	"LUT_SVF_DAMP_SIZE\000"
 3256      5356465F 
 3256      44414D50 
 3256      5F53495A 
 3256      4500
 3257              	.LASF86:
 3258 06b6 7461626C 		.ascii	"table\000"
 3258      6500
 3259              	.LASF65:
 3260 06bc 4C55545F 		.ascii	"LUT_COMPRESSOR_RATIO\000"
 3260      434F4D50 
 3260      52455353 
 3260      4F525F52 
 3260      4154494F 
 3261              	.LASF26:
 3262 06d1 61747461 		.ascii	"attack_coefficient_\000"
 3262      636B5F63 
 3262      6F656666 
 3262      69636965 
 3262      6E745F00 
 3263              	.LASF77:
 3264 06e5 4C55545F 		.ascii	"LUT_LORENZ_RATE\000"
 3264      4C4F5245 
 3264      4E5A5F52 
 3264      41544500 
 3265              	.LASF69:
 3266 06f5 4C55545F 		.ascii	"LUT_ENV_INCREMENTS\000"
 3266      454E565F 
 3266      494E4352 
 3266      454D454E 
 3266      545300
 3267              	.LASF63:
 3268 0708 4C55545F 		.ascii	"LUT_2164_GAIN\000"
 3268      32313634 
 3268      5F474149 
 3268      4E00
 3269              	.LASF96:
 3270 0716 73656E73 		.ascii	"sensitivity\000"
 3270      69746976 
 3270      69747900 
 3271              	.LASF108:
 3272 0722 6F706572 		.ascii	"operator=\000"
 3272      61746F72 
 3272      3D00
 3273              	.LASF27:
 3274 072c 64656361 		.ascii	"decay_coefficient_\000"
 3274      795F636F 
 3274      65666669 
 3274      6369656E 
ARM GAS  /tmp/ccK9C98X.s 			page 64


 3274      745F00
 3275              	.LASF40:
 3276 073f 436F6E66 		.ascii	"Configure\000"
 3276      69677572 
 3276      6500
 3277              	.LASF104:
 3278 0749 2E2F6D75 		.ascii	"./mutable_instruments/streams/vactrol.cpp\000"
 3278      7461626C 
 3278      655F696E 
 3278      73747275 
 3278      6D656E74 
 3279              	.LASF91:
 3280 0773 6761696E 		.ascii	"gain\000"
 3280      00
 3281              		.ident	"GCC: (GNU Tools for ARM Embedded Processors) 4.9.3 20150529 (release) [ARM/embedded-4_9-br
ARM GAS  /tmp/ccK9C98X.s 			page 65


DEFINED SYMBOLS
                            *ABS*:00000000 vactrol.cpp
     /tmp/ccK9C98X.s:20     .text:00000000 $t
     /tmp/ccK9C98X.s:26     .text:00000000 _ZN7streams7Vactrol4InitEv
                       .ARM.exidx:00000000 $d
     /tmp/ccK9C98X.s:59     .text:00000010 _ZN7streams7Vactrol7ProcessEssPtS1_
     /tmp/ccK9C98X.s:635    .text:00000360 $d
                     .debug_frame:00000010 $d

UNDEFINED SYMBOLS
_ZN7streams12wav_gompertzE
