ARM GAS  /tmp/ccK9C98X.s 			page 1


   1              		.syntax unified
   2              		.cpu cortex-m4
   3              		.eabi_attribute 27, 1
   4              		.eabi_attribute 28, 1
   5              		.fpu fpv4-sp-d16
   6              		.eabi_attribute 20, 1
   7              		.eabi_attribute 21, 1
   8              		.eabi_attribute 23, 3
   9              		.eabi_attribute 24, 1
  10              		.eabi_attribute 25, 1
  11              		.eabi_attribute 26, 1
  12              		.eabi_attribute 30, 2
  13              		.eabi_attribute 34, 1
  14              		.eabi_attribute 18, 4
  15              		.thumb
  16              		.file	"vactrol.cpp"
  17              		.text
  18              	.Ltext0:
  19              		.cfi_sections	.debug_frame
  20              		.align	2
  21              		.p2align 4,,15
  22              		.global	_ZN7streams7Vactrol4InitEv
  23              		.thumb
  24              		.thumb_func
  25              		.type	_ZN7streams7Vactrol4InitEv, %function
  26              	_ZN7streams7Vactrol4InitEv:
  27              		.fnstart
  28              	.LFB23:
  29              		.file 1 "./mutable_instruments/streams/vactrol.cpp"
  30              		.loc 1 40 0
  31              		.cfi_startproc
  32              		@ args = 0, pretend = 0, frame = 0
  33              		@ frame_needed = 0, uses_anonymous_args = 0
  34              		@ link register save eliminated.
  35              	.LVL0:
  36              		.loc 1 41 0
  37 0000 0023     		movs	r3, #0
  38 0002 0362     		str	r3, [r0, #32]
  39              		.loc 1 42 0
  40 0004 4362     		str	r3, [r0, #36]
  41              		.loc 1 43 0
  42 0006 8362     		str	r3, [r0, #40]
  43              		.loc 1 44 0
  44 0008 C362     		str	r3, [r0, #44]
  45              		.loc 1 46 0
  46 000a 0363     		str	r3, [r0, #48]
  47 000c 7047     		bx	lr
  48              		.cfi_endproc
  49              	.LFE23:
  50              		.cantunwind
  51              		.fnend
  52              		.size	_ZN7streams7Vactrol4InitEv, .-_ZN7streams7Vactrol4InitEv
  53 000e 00BF     		.align	2
  54              		.p2align 4,,15
  55              		.global	_ZN7streams7Vactrol7ProcessEssPtS1_
  56              		.thumb
  57              		.thumb_func
ARM GAS  /tmp/ccK9C98X.s 			page 2


  58              		.type	_ZN7streams7Vactrol7ProcessEssPtS1_, %function
  59              	_ZN7streams7Vactrol7ProcessEssPtS1_:
  60              		.fnstart
  61              	.LFB24:
  62              		.loc 1 53 0
  63              		.cfi_startproc
  64              		@ args = 4, pretend = 0, frame = 16
  65              		@ frame_needed = 0, uses_anonymous_args = 0
  66              	.LVL1:
  67 0010 2DE9F04F 		push	{r4, r5, r6, r7, r8, r9, r10, fp, lr}
  68              		.cfi_def_cfa_offset 36
  69              		.cfi_offset 4, -36
  70              		.cfi_offset 5, -32
  71              		.cfi_offset 6, -28
  72              		.cfi_offset 7, -24
  73              		.cfi_offset 8, -20
  74              		.cfi_offset 9, -16
  75              		.cfi_offset 10, -12
  76              		.cfi_offset 11, -8
  77              		.cfi_offset 14, -4
  78 0014 85B0     		sub	sp, sp, #20
  79              		.cfi_def_cfa_offset 56
  80              	.LBB11:
  81              		.loc 1 55 0
  82 0016 8568     		ldr	r5, [r0, #8]
  83              		.loc 1 56 0
  84 0018 C468     		ldr	r4, [r0, #12]
  85              	.LBE11:
  86              		.loc 1 53 0
  87 001a 0293     		str	r3, [sp, #8]
  88              	.LBB25:
  89              		.loc 1 55 0
  90 001c 0168     		ldr	r1, [r0]
  91              	.LVL2:
  92              		.loc 1 56 0
  93 001e 4368     		ldr	r3, [r0, #4]
  94              	.LVL3:
  95              	.LBB12:
  96              		.loc 1 67 0
  97 0020 90F83560 		ldrb	r6, [r0, #53]	@ zero_extendqisi2
  98              	.LBE12:
  99              		.loc 1 55 0
 100 0024 491B     		subs	r1, r1, r5
 101              		.loc 1 56 0
 102 0026 1B1B     		subs	r3, r3, r4
 103              		.loc 1 55 0
 104 0028 05EB212C 		add	ip, r5, r1, asr #8
 105              		.loc 1 56 0
 106 002c 04EB2328 		add	r8, r4, r3, asr #8
 107 0030 22EAE272 		bic	r2, r2, r2, asr #31
 108              	.LVL4:
 109              		.loc 1 55 0
 110 0034 C0F808C0 		str	ip, [r0, #8]
 111              		.loc 1 56 0
 112 0038 C0F80C80 		str	r8, [r0, #12]
 113              	.LVL5:
 114              	.LBB20:
ARM GAS  /tmp/ccK9C98X.s 			page 3


 115              		.loc 1 67 0
 116 003c 002E     		cmp	r6, #0
 117 003e 00F0A580 		beq	.L3
 118              	.LBB13:
 119              		.loc 1 68 0
 120 0042 90F83430 		ldrb	r3, [r0, #52]	@ zero_extendqisi2
 121 0046 002B     		cmp	r3, #0
 122 0048 40F03481 		bne	.L4
 123              		.loc 1 69 0
 124 004c 43F25553 		movw	r3, #13653
 125 0050 9A42     		cmp	r2, r3
 126 0052 00F36781 		bgt	.L5
 127              	.L7:
 128 0056 036A     		ldr	r3, [r0, #32]
 129 0058 416A     		ldr	r1, [r0, #36]
 130 005a 0393     		str	r3, [sp, #12]
 131 005c 1C46     		mov	r4, r3
 132 005e DD17     		asrs	r5, r3, #31
 133 0060 CB17     		asrs	r3, r1, #31
 134 0062 8A46     		mov	r10, r1
 135 0064 9B46     		mov	fp, r3
 136              	.LVL6:
 137              	.L6:
 138              		.loc 1 82 0
 139 0066 C369     		ldr	r3, [r0, #28]
 140              		.loc 1 84 0
 141 0068 4269     		ldr	r2, [r0, #20]
 142              		.loc 1 87 0
 143 006a D0F82890 		ldr	r9, [r0, #40]
 144              		.loc 1 82 0
 145 006e DF17     		asrs	r7, r3, #31
 146 0070 03FB05FE 		mul	lr, r3, r5
 147 0074 1E46     		mov	r6, r3
 148 0076 04FB07EE 		mla	lr, r4, r7, lr
 149 007a A3FB0445 		umull	r4, r5, r3, r4
 150              		.loc 1 84 0
 151 007e 5B46     		mov	r3, fp
 152              		.loc 1 82 0
 153 0080 7544     		add	r5, r5, lr
 154              		.loc 1 84 0
 155 0082 02FB03F3 		mul	r3, r2, r3
 156 0086 4FEAE27B 		asr	fp, r2, #31
 157              		.loc 1 82 0
 158 008a CDE90067 		strd	r6, [sp]
 159 008e E40F     		lsrs	r4, r4, #31
 160              		.loc 1 84 0
 161 0090 5646     		mov	r6, r10
 162              		.loc 1 82 0
 163 0092 44EA4504 		orr	r4, r4, r5, lsl #1
 164              		.loc 1 84 0
 165 0096 9246     		mov	r10, r2
 166 0098 06FB0B35 		mla	r5, r6, fp, r3
 167 009c A2FB0623 		umull	r2, r3, r2, r6
 168              		.loc 1 82 0
 169 00a0 039E     		ldr	r6, [sp, #12]
 170              		.loc 1 84 0
 171 00a2 2B44     		add	r3, r3, r5
ARM GAS  /tmp/ccK9C98X.s 			page 4


 172 00a4 D50F     		lsrs	r5, r2, #31
 173              		.loc 1 82 0
 174 00a6 321B     		subs	r2, r6, r4
 175              		.loc 1 84 0
 176 00a8 45EA4305 		orr	r5, r5, r3, lsl #1
 177              		.loc 1 87 0
 178 00ac C9EB0204 		rsb	r4, r9, r2
 179              	.LVL7:
 180              		.loc 1 84 0
 181 00b0 C5EB010E 		rsb	lr, r5, r1
 182              		.loc 1 89 0
 183 00b4 002C     		cmp	r4, #0
 184              		.loc 1 82 0
 185 00b6 0262     		str	r2, [r0, #32]
 186              		.loc 1 84 0
 187 00b8 C0F824E0 		str	lr, [r0, #36]
 188              		.loc 1 89 0
 189 00bc 04DD     		ble	.L8
 190 00be 8369     		ldr	r3, [r0, #24]
 191 00c0 1E46     		mov	r6, r3
 192 00c2 DF17     		asrs	r7, r3, #31
 193 00c4 CDE90067 		strd	r6, [sp]
 194              	.L8:
 195              	.LVL8:
 196              		.loc 1 90 0 discriminator 4
 197 00c8 DDE90067 		ldrd	r6, [sp]
 198 00cc E317     		asrs	r3, r4, #31
 199 00ce 04FB07F2 		mul	r2, r4, r7
 200 00d2 06FB0323 		mla	r3, r6, r3, r2
 201 00d6 A4FB0645 		umull	r4, r5, r4, r6
 202              	.LVL9:
 203              		.loc 1 93 0 discriminator 4
 204 00da C16A     		ldr	r1, [r0, #44]
 205              		.loc 1 90 0 discriminator 4
 206 00dc 1D44     		add	r5, r5, r3
 207 00de E20F     		lsrs	r2, r4, #31
 208 00e0 42EA4502 		orr	r2, r2, r5, lsl #1
 209              		.loc 1 93 0 discriminator 4
 210 00e4 C1EB0E03 		rsb	r3, r1, lr
 211              	.LVL10:
 212              		.loc 1 90 0 discriminator 4
 213 00e8 4A44     		add	r2, r2, r9
 214              		.loc 1 94 0 discriminator 4
 215 00ea 002B     		cmp	r3, #0
 216              		.loc 1 90 0 discriminator 4
 217 00ec 8262     		str	r2, [r0, #40]
 218              		.loc 1 94 0 discriminator 4
 219 00ee 03DD     		ble	.L9
 220 00f0 8469     		ldr	r4, [r0, #24]
 221 00f2 A246     		mov	r10, r4
 222 00f4 4FEAE47B 		asr	fp, r4, #31
 223              	.L9:
 224              	.LVL11:
 225              		.loc 1 96 0 discriminator 4
 226 00f8 83EAE376 		eor	r6, r3, r3, asr #31
 227 00fc A6EBE376 		sub	r6, r6, r3, asr #31
 228 0100 F517     		asrs	r5, r6, #31
ARM GAS  /tmp/ccK9C98X.s 			page 5


 229              		.loc 1 97 0 discriminator 4
 230 0102 06FB0BF4 		mul	r4, r6, fp
 231 0106 0AFB0544 		mla	r4, r10, r5, r4
 232 010a A6FB0A67 		umull	r6, r7, r6, r10
 233 010e 2744     		add	r7, r7, r4
 234 0110 F40F     		lsrs	r4, r6, #31
 235 0112 5FEA6B0B 		movs	fp, fp, asr #1
 236 0116 4FEA3A0A 		mov	r10, r10, rrx
 237              	.LVL12:
 238 011a 44EA4704 		orr	r4, r4, r7, lsl #1
 239 011e 14EB0A04 		adds	r4, r4, r10
 240 0122 4FEAE775 		asr	r5, r7, #31
 241 0126 45EB0B05 		adc	r5, r5, fp
 242              		.loc 1 98 0 discriminator 4
 243 012a 03FB05F5 		mul	r5, r3, r5
 244 012e DF17     		asrs	r7, r3, #31
 245 0130 04FB0756 		mla	r6, r4, r7, r5
 246 0134 A3FB0445 		umull	r4, r5, r3, r4
 247 0138 3544     		add	r5, r5, r6
 248 013a E30F     		lsrs	r3, r4, #31
 249              	.LVL13:
 250 013c 43EA4503 		orr	r3, r3, r5, lsl #1
 251 0140 1944     		add	r1, r1, r3
 252              	.LVL14:
 253              		.loc 1 101 0 discriminator 4
 254 0142 8C10     		asrs	r4, r1, #2
 255              	.LBB14:
 256              	.LBB15:
 257              		.file 2 "./mutable_instruments/stmlib/utils/dsp.h"
 258              		.loc 2 126 0 discriminator 4
 259 0144 864D     		ldr	r5, .L32
 260              	.LBE15:
 261              	.LBE14:
 262              		.loc 1 98 0 discriminator 4
 263 0146 C162     		str	r1, [r0, #44]
 264              	.LVL15:
 265              		.loc 1 101 0 discriminator 4
 266 0148 04EB4404 		add	r4, r4, r4, lsl #1
 267              	.LVL16:
 268              	.LBB17:
 269              	.LBB16:
 270              		.loc 2 126 0 discriminator 4
 271 014c A30D     		lsrs	r3, r4, #22
 272              		.loc 2 127 0 discriminator 4
 273 014e A81C     		adds	r0, r5, #2
 274              	.LVL17:
 275              		.loc 2 126 0 discriminator 4
 276 0150 35F81310 		ldrh	r1, [r5, r3, lsl #1]
 277              	.LVL18:
 278              		.loc 2 127 0 discriminator 4
 279 0154 30F91330 		ldrsh	r3, [r0, r3, lsl #1]
 280              	.LVL19:
 281              		.loc 2 126 0 discriminator 4
 282 0158 08B2     		sxth	r0, r1
 283              	.LVL20:
 284              		.loc 2 128 0 discriminator 4
 285 015a C4F38F14 		ubfx	r4, r4, #6, #16
ARM GAS  /tmp/ccK9C98X.s 			page 6


 286              	.LVL21:
 287 015e 1B1A     		subs	r3, r3, r0
 288 0160 04FB03F3 		mul	r3, r4, r3
 289 0164 01EB2343 		add	r3, r1, r3, asr #16
 290              	.LBE16:
 291              	.LBE17:
 292              		.loc 1 105 0 discriminator 4
 293 0168 120C     		lsrs	r2, r2, #16
 294              	.LVL22:
 295 016a 02FB0CF2 		mul	r2, r2, ip
 296              		.loc 1 103 0 discriminator 4
 297 016e 9BB2     		uxth	r3, r3
 298              		.loc 1 105 0 discriminator 4
 299 0170 08EBE238 		add	r8, r8, r2, asr #15
 300              		.loc 1 103 0 discriminator 4
 301 0174 03EB0323 		add	r3, r3, r3, lsl #8
 302 0178 029A     		ldr	r2, [sp, #8]
 303 017a 43F31023 		sbfx	r3, r3, #8, #17
 304 017e 1380     		strh	r3, [r2]	@ movhi
 305              	.LVL23:
 306              		.loc 1 105 0 discriminator 4
 307 0180 0E9B     		ldr	r3, [sp, #56]
 308 0182 A3F80080 		strh	r8, [r3]	@ movhi
 309              	.LBE13:
 310              	.LBE20:
 311              	.LBE25:
 312              		.loc 1 184 0 discriminator 4
 313 0186 05B0     		add	sp, sp, #20
 314              		.cfi_remember_state
 315              		.cfi_def_cfa_offset 36
 316              		@ sp needed
 317 0188 BDE8F08F 		pop	{r4, r5, r6, r7, r8, r9, r10, fp, pc}
 318              	.LVL24:
 319              	.L3:
 320              		.cfi_restore_state
 321              	.LBB26:
 322              		.loc 1 114 0
 323 018c 016B     		ldr	r1, [r0, #48]
 324 018e 521A     		subs	r2, r2, r1
 325              	.LVL25:
 326              		.loc 1 115 0
 327 0190 002A     		cmp	r2, #0
 328 0192 40F3C380 		ble	.L30
 329 0196 4FF08044 		mov	r4, #1073741824
 330 019a 0025     		movs	r5, #0
 331              	.L11:
 332              	.LVL26:
 333              		.loc 1 116 0 discriminator 4
 334 019c D717     		asrs	r7, r2, #31
 335 019e 04FB07F3 		mul	r3, r4, r7
 336 01a2 02FB0533 		mla	r3, r2, r5, r3
 337 01a6 A4FB0245 		umull	r4, r5, r4, r2
 338              	.LVL27:
 339 01aa 1D44     		add	r5, r5, r3
 340              		.loc 1 120 0 discriminator 4
 341 01ac 08EB6C02 		add	r2, r8, ip, asr #1
 342              	.LVL28:
ARM GAS  /tmp/ccK9C98X.s 			page 7


 343              		.loc 1 116 0 discriminator 4
 344 01b0 E30F     		lsrs	r3, r4, #31
 345 01b2 43EA4503 		orr	r3, r3, r5, lsl #1
 346              		.loc 1 121 0 discriminator 4
 347 01b6 02F57F42 		add	r2, r2, #65280
 348              		.loc 1 116 0 discriminator 4
 349 01ba 1944     		add	r1, r1, r3
 350              		.loc 1 121 0 discriminator 4
 351 01bc FF32     		adds	r2, r2, #255
 352              		.loc 1 122 0 discriminator 4
 353 01be 0DB2     		sxth	r5, r1
 354              		.loc 1 124 0 discriminator 4
 355 01c0 C66A     		ldr	r6, [r0, #44]
 356 01c2 684C     		ldr	r4, .L32+4
 357              		.loc 1 116 0 discriminator 4
 358 01c4 0163     		str	r1, [r0, #48]
 359              		.loc 1 121 0 discriminator 4
 360 01c6 5310     		asrs	r3, r2, #1
 361              		.loc 1 126 0 discriminator 4
 362 01c8 026A     		ldr	r2, [r0, #32]
 363 01ca 0092     		str	r2, [sp]
 364              	.LVL29:
 365              		.loc 1 122 0 discriminator 4
 366 01cc 03FB05F3 		mul	r3, r3, r5
 367              	.LVL30:
 368              		.loc 1 126 0 discriminator 4
 369 01d0 1746     		mov	r7, r2
 370              		.loc 1 124 0 discriminator 4
 371 01d2 9A1B     		subs	r2, r3, r6
 372 01d4 82FB0445 		smull	r4, r5, r2, r4
 373 01d8 E20F     		lsrs	r2, r4, #31
 374 01da 42EA4502 		orr	r2, r2, r5, lsl #1
 375              		.loc 1 126 0 discriminator 4
 376 01de DB1B     		subs	r3, r3, r7
 377              	.LVL31:
 378              		.loc 1 124 0 discriminator 4
 379 01e0 3244     		add	r2, r2, r6
 380              		.loc 1 128 0 discriminator 4
 381 01e2 002B     		cmp	r3, #0
 382              		.loc 1 124 0 discriminator 4
 383 01e4 C262     		str	r2, [r0, #44]
 384              		.loc 1 129 0 discriminator 4
 385 01e6 416A     		ldr	r1, [r0, #36]
 386              	.LVL32:
 387              		.loc 1 128 0 discriminator 4
 388 01e8 40F3A680 		ble	.L12
 389              		.loc 1 129 0
 390 01ec 0029     		cmp	r1, #0
 391 01ee 40F3B280 		ble	.L13
 392              		.loc 1 132 0
 393 01f2 D0F828E0 		ldr	lr, [r0, #40]
 394              		.loc 1 130 0
 395 01f6 D0F81090 		ldr	r9, [r0, #16]
 396              	.LVL33:
 397              		.loc 1 132 0
 398 01fa 4FEAEE56 		asr	r6, lr, #23
 399 01fe C6F1FF06 		rsb	r6, r6, #255
ARM GAS  /tmp/ccK9C98X.s 			page 8


 400 0202 86FB0967 		smull	r6, r7, r6, r9
 401 0206 B409     		lsrs	r4, r6, #6
 402 0208 44EA8764 		orr	r4, r4, r7, lsl #26
 403 020c BD11     		asrs	r5, r7, #6
 404              	.LVL34:
 405 020e 14EB0904 		adds	r4, r4, r9
 406 0212 45EBE975 		adc	r5, r5, r9, asr #31
 407              	.LVL35:
 408              	.L14:
 409              		.loc 1 147 0
 410 0216 5E1A     		subs	r6, r3, r1
 411 0218 4FEAE67B 		asr	fp, r6, #31
 412 021c 06FB05F9 		mul	r9, r6, r5
 413              		.loc 1 144 0
 414 0220 DF17     		asrs	r7, r3, #31
 415 0222 03FB05F5 		mul	r5, r3, r5
 416              		.loc 1 147 0
 417 0226 04FB0B99 		mla	r9, r4, fp, r9
 418 022a A6FB04AB 		umull	r10, fp, r6, r4
 419              		.loc 1 144 0
 420 022e 04FB0756 		mla	r6, r4, r7, r5
 421 0232 A3FB0445 		umull	r4, r5, r3, r4
 422              	.LVL36:
 423 0236 3544     		add	r5, r5, r6
 424 0238 E30F     		lsrs	r3, r4, #31
 425              	.LVL37:
 426 023a 009C     		ldr	r4, [sp]
 427 023c 43EA4503 		orr	r3, r3, r5, lsl #1
 428 0240 1C44     		add	r4, r4, r3
 429              		.loc 1 151 0
 430 0242 B4F1805F 		cmp	r4, #268435456
 431              		.loc 1 144 0
 432 0246 2346     		mov	r3, r4
 433 0248 0462     		str	r4, [r0, #32]
 434              		.loc 1 154 0
 435 024a D4BF     		ite	le
 436 024c E400     		lslle	r4, r4, #3
 437              		.loc 1 152 0
 438 024e 4FF00044 		movgt	r4, #-2147483648
 439              		.loc 1 156 0
 440 0252 CEEB0405 		rsb	r5, lr, r4
 441              		.loc 1 157 0
 442 0256 002D     		cmp	r5, #0
 443              		.loc 1 147 0
 444 0258 CB44     		add	fp, fp, r9
 445 025a 4FEADA76 		lsr	r6, r10, #31
 446              		.loc 1 159 0
 447 025e C8BF     		it	gt
 448 0260 414C     		ldrgt	r4, .L32+8
 449              		.loc 1 147 0
 450 0262 46EA4B06 		orr	r6, r6, fp, lsl #1
 451 0266 3144     		add	r1, r1, r6
 452              		.loc 1 162 0
 453 0268 D8BF     		it	le
 454 026a 40F27F44 		movwle	r4, #1151
 455 026e 85FB0445 		smull	r4, r5, r5, r4
 456              		.loc 1 147 0
ARM GAS  /tmp/ccK9C98X.s 			page 9


 457 0272 4162     		str	r1, [r0, #36]
 458              	.LVL38:
 459              		.loc 1 169 0
 460 0274 D213     		asrs	r2, r2, #15
 461 0276 C913     		asrs	r1, r1, #15
 462              		.loc 1 162 0
 463 0278 E40F     		lsrs	r4, r4, #31
 464              		.loc 1 169 0
 465 027a 01FB02F2 		mul	r2, r1, r2
 466              		.loc 1 162 0
 467 027e 44EA4504 		orr	r4, r4, r5, lsl #1
 468              		.loc 1 169 0
 469 0282 5210     		asrs	r2, r2, #1
 470              	.LVL39:
 471              		.loc 1 162 0
 472 0284 7444     		add	r4, r4, lr
 473              		.loc 1 170 0
 474 0286 12EB6302 		adds	r2, r2, r3, asr #1
 475              	.LVL40:
 476              		.loc 1 162 0
 477 028a 8462     		str	r4, [r0, #40]
 478              		.loc 1 170 0
 479 028c 5CD4     		bmi	.L24
 480              		.loc 1 172 0
 481 028e B2F1804F 		cmp	r2, #1073741824
 482 0292 20DB     		blt	.L31
 483              	.L21:
 484 0294 48F27E01 		movw	r1, #32894
 485              		.loc 1 177 0
 486 0298 47F6FE73 		movw	r3, #32766
 487              	.LVL41:
 488              	.L20:
 489              		.loc 1 183 0
 490 029c 03FB0CF3 		mul	r3, r3, ip
 491              	.LVL42:
 492 02a0 08EBE338 		add	r8, r8, r3, asr #15
 493              	.LVL43:
 494              		.loc 1 181 0
 495 02a4 029B     		ldr	r3, [sp, #8]
 496 02a6 1980     		strh	r1, [r3]	@ movhi
 497              		.loc 1 183 0
 498 02a8 0E9B     		ldr	r3, [sp, #56]
 499 02aa A3F80080 		strh	r8, [r3]	@ movhi
 500              	.LBE26:
 501              		.loc 1 184 0
 502 02ae 05B0     		add	sp, sp, #20
 503              		.cfi_remember_state
 504              		.cfi_def_cfa_offset 36
 505              		@ sp needed
 506 02b0 BDE8F08F 		pop	{r4, r5, r6, r7, r8, r9, r10, fp, pc}
 507              	.LVL44:
 508              	.L4:
 509              		.cfi_restore_state
 510              	.LBB27:
 511              	.LBB21:
 512              	.LBB18:
 513              		.loc 1 75 0
ARM GAS  /tmp/ccK9C98X.s 			page 10


 514 02b4 41F6A923 		movw	r3, #6825
 515 02b8 9A42     		cmp	r2, r3
 516 02ba 3FF7CCAE 		bgt	.L7
 517 02be 416A     		ldr	r1, [r0, #36]
 518 02c0 026A     		ldr	r2, [r0, #32]
 519              	.LVL45:
 520 02c2 0392     		str	r2, [sp, #12]
 521              		.loc 1 76 0
 522 02c4 0023     		movs	r3, #0
 523 02c6 CF17     		asrs	r7, r1, #31
 524 02c8 1446     		mov	r4, r2
 525 02ca D517     		asrs	r5, r2, #31
 526 02cc 8A46     		mov	r10, r1
 527 02ce BB46     		mov	fp, r7
 528 02d0 80F83430 		strb	r3, [r0, #52]
 529 02d4 C7E6     		b	.L6
 530              	.LVL46:
 531              	.L31:
 532              	.LBE18:
 533              	.LBE21:
 534              		.loc 1 177 0
 535 02d6 B2F1005F 		cmp	r2, #536870912
 536 02da DBDA     		bge	.L21
 537 02dc D100     		lsls	r1, r2, #3
 538 02de 8C0D     		lsrs	r4, r1, #22
 539 02e0 1F4E     		ldr	r6, .L32
 540 02e2 6400     		lsls	r4, r4, #1
 541 02e4 9213     		asrs	r2, r2, #14
 542              	.LVL47:
 543 02e6 C1F38F15 		ubfx	r5, r1, #6, #16
 544 02ea 93B2     		uxth	r3, r2
 545              	.LVL48:
 546 02ec 3119     		adds	r1, r6, r4
 547 02ee 0234     		adds	r4, r4, #2
 548              	.L19:
 549              	.LVL49:
 550              	.LBB22:
 551              	.LBB23:
 552              		.loc 2 126 0 discriminator 1
 553 02f0 0888     		ldrh	r0, [r1]
 554              	.LVL50:
 555              		.loc 2 127 0 discriminator 1
 556 02f2 315F     		ldrsh	r1, [r6, r4]
 557              		.loc 2 126 0 discriminator 1
 558 02f4 04B2     		sxth	r4, r0
 559              	.LVL51:
 560              		.loc 2 128 0 discriminator 1
 561 02f6 091B     		subs	r1, r1, r4
 562 02f8 05FB01F1 		mul	r1, r5, r1
 563 02fc 00EB2141 		add	r1, r0, r1, asr #16
 564              	.LBE23:
 565              	.LBE22:
 566              		.loc 1 179 0 discriminator 1
 567 0300 47F6FE70 		movw	r0, #32766
 568 0304 8242     		cmp	r2, r0
 569 0306 89B2     		uxth	r1, r1
 570 0308 01EB0121 		add	r1, r1, r1, lsl #8
ARM GAS  /tmp/ccK9C98X.s 			page 11


 571 030c D8BF     		it	le
 572 030e 5B43     		mulle	r3, r3, r3
 573 0310 C1F30F21 		ubfx	r1, r1, #8, #16
 574 0314 D4BF     		ite	le
 575 0316 DB13     		asrle	r3, r3, #15
 576 0318 0346     		movgt	r3, r0
 577 031a BFE7     		b	.L20
 578              	.LVL52:
 579              	.L30:
 580              		.loc 1 115 0 discriminator 1
 581 031c 4469     		ldr	r4, [r0, #20]
 582 031e 6400     		lsls	r4, r4, #1
 583 0320 E517     		asrs	r5, r4, #31
 584 0322 3BE7     		b	.L11
 585              	.LVL53:
 586              	.L5:
 587              	.LBB24:
 588              	.LBB19:
 589 0324 114C     		ldr	r4, .L32+12
 590 0326 1149     		ldr	r1, .L32+12
 591 0328 0391     		str	r1, [sp, #12]
 592              		.loc 1 70 0
 593 032a 0123     		movs	r3, #1
 594 032c 0025     		movs	r5, #0
 595 032e A246     		mov	r10, r4
 596 0330 AB46     		mov	fp, r5
 597 0332 80F83430 		strb	r3, [r0, #52]
 598 0336 96E6     		b	.L6
 599              	.LVL54:
 600              	.L12:
 601              	.LBE19:
 602              	.LBE24:
 603              		.loc 1 137 0
 604 0338 0029     		cmp	r1, #0
 605              		.loc 1 138 0
 606 033a B4BF     		ite	lt
 607 033c 4469     		ldrlt	r4, [r0, #20]
 608              		.loc 1 140 0
 609 033e C469     		ldrge	r4, [r0, #28]
 610 0340 D0F828E0 		ldr	lr, [r0, #40]
 611 0344 E517     		asrs	r5, r4, #31
 612              	.LVL55:
 613 0346 66E7     		b	.L14
 614              	.LVL56:
 615              	.L24:
 616 0348 054E     		ldr	r6, .L32
 617 034a 0023     		movs	r3, #0
 618 034c 3146     		mov	r1, r6
 619 034e 1A46     		mov	r2, r3
 620              	.LVL57:
 621 0350 1D46     		mov	r5, r3
 622 0352 0224     		movs	r4, #2
 623 0354 CCE7     		b	.L19
 624              	.LVL58:
 625              	.L13:
 626              		.loc 1 134 0
 627 0356 8469     		ldr	r4, [r0, #24]
ARM GAS  /tmp/ccK9C98X.s 			page 12


 628 0358 D0F828E0 		ldr	lr, [r0, #40]
 629 035c E517     		asrs	r5, r4, #31
 630              	.LVL59:
 631 035e 5AE7     		b	.L14
 632              	.L33:
 633              		.align	2
 634              	.L32:
 635 0360 00000000 		.word	_ZN7streams12wav_gompertzE
 636 0364 2F3C0D04 		.word	67976239
 637 0368 941B0200 		.word	138132
 638 036c 0000FF7F 		.word	2147418112
 639              	.LBE27:
 640              		.cfi_endproc
 641              	.LFE24:
 642              		.cantunwind
 643              		.fnend
 644              		.size	_ZN7streams7Vactrol7ProcessEssPtS1_, .-_ZN7streams7Vactrol7ProcessEssPtS1_
 645              	.Letext0:
 646              		.file 3 "/home/sbcu/Dropbox/pcb-layouts/axo-on-discovery-board/axoloti/platform_linux/arm-none-eab
 647              		.file 4 "/home/sbcu/Dropbox/pcb-layouts/axo-on-discovery-board/axoloti/platform_linux/arm-none-eab
 648              		.file 5 "./mutable_instruments/stmlib/stmlib.h"
 649              		.file 6 "./mutable_instruments/streams/meta_parameters.h"
 650              		.file 7 "./mutable_instruments/streams/vactrol.h"
 651              		.file 8 "./mutable_instruments/streams/resources.h"
 652              		.file 9 "./mutable_instruments/streams/gain.h"