ARM GAS  /tmp/ccFW05b2.s 			page 1


   1              		.syntax unified
   2              		.cpu cortex-m4
   3              		.eabi_attribute 27, 1
   4              		.eabi_attribute 28, 1
   5              		.fpu fpv4-sp-d16
   6              		.eabi_attribute 20, 1
   7              		.eabi_attribute 21, 1
   8              		.eabi_attribute 23, 3
   9              		.eabi_attribute 24, 1
  10              		.eabi_attribute 25, 1
  11              		.eabi_attribute 26, 1
  12              		.eabi_attribute 30, 2
  13              		.eabi_attribute 34, 1
  14              		.eabi_attribute 18, 4
  15              		.thumb
  16              		.file	"virtual_control.c"
  17              		.text
  18              	.Ltext0:
  19              		.cfi_sections	.debug_frame
  20              		.align	2
  21              		.p2align 4,,15
  22              		.global	TransmitLCDoverUSB
  23              		.thumb
  24              		.thumb_func
  25              		.type	TransmitLCDoverUSB, %function
  26              	TransmitLCDoverUSB:
  27              	.LFB130:
  28              		.file 1 "virtual_control.c"
  29              		.loc 1 23 0
  30              		.cfi_startproc
  31              		@ args = 0, pretend = 0, frame = 0
  32              		@ frame_needed = 0, uses_anonymous_args = 0
  33              		@ link register save eliminated.
  34              		.loc 1 26 0
  35 0000 0D4B     		ldr	r3, .L8
  36 0002 1968     		ldr	r1, [r3]
  37 0004 0131     		adds	r1, r1, #1
  38              		.loc 1 27 0
  39 0006 0929     		cmp	r1, #9
  40              		.loc 1 26 0
  41 0008 1960     		str	r1, [r3]
  42              		.loc 1 27 0
  43 000a 07D0     		beq	.L6
  44              		.loc 1 30 0
  45 000c 0729     		cmp	r1, #7
  46 000e 0EDD     		ble	.L7
  47              		.loc 1 37 0
  48 0010 0A48     		ldr	r0, .L8+4
  49 0012 0B49     		ldr	r1, .L8+8
  50 0014 0368     		ldr	r3, [r0]
  51 0016 8422     		movs	r2, #132
  52 0018 1B68     		ldr	r3, [r3]
  53 001a 1847     		bx	r3
  54              	.LVL0:
  55              	.L6:
  56              		.loc 1 28 0
  57 001c 0021     		movs	r1, #0
ARM GAS  /tmp/ccFW05b2.s 			page 2


  58 001e 1960     		str	r1, [r3]
  59              	.L3:
  60              		.loc 1 31 0
  61 0020 0648     		ldr	r0, .L8+4
  62 0022 084A     		ldr	r2, .L8+12
  63 0024 0368     		ldr	r3, [r0]
  64 0026 1144     		add	r1, r1, r2
  65 0028 1B68     		ldr	r3, [r3]
  66 002a 8422     		movs	r2, #132
  67 002c 1847     		bx	r3
  68              	.LVL1:
  69              	.L7:
  70 002e 01EB4111 		add	r1, r1, r1, lsl #5
  71 0032 8900     		lsls	r1, r1, #2
  72 0034 F4E7     		b	.L3
  73              	.L9:
  74 0036 00BF     		.align	2
  75              	.L8:
  76 0038 00000000 		.word	.LANCHOR0
  77 003c 00000000 		.word	BDU1
  78 0040 00000000 		.word	led_buffer
  79 0044 00000000 		.word	lcd_buffer
  80              		.cfi_endproc
  81              	.LFE130:
  82              		.size	TransmitLCDoverUSB, .-TransmitLCDoverUSB
  83              		.bss
  84              		.align	2
  85              		.set	.LANCHOR0,. + 0
  86              		.type	r.7654, %object
  87              		.size	r.7654, 4
  88              	r.7654:
  89 0000 00000000 		.space	4
  90              		.text
  91              	.Letext0:
  92              		.file 2 "/d_drive/axoloti/platform_linux/lib/gcc/arm-none-eabi/4.9.3/include/stddef.h"
  93              		.file 3 "/d_drive/axoloti/platform_linux/arm-none-eabi/include/machine/_default_types.h"
  94              		.file 4 "/d_drive/axoloti/platform_linux/arm-none-eabi/include/sys/_stdint.h"
  95              		.file 5 "/d_drive/axoloti/platform_linux/../chibios/os/ports/GCC/ARMCMx/chtypes.h"
  96              		.file 6 "/d_drive/axoloti/platform_linux/../chibios/os/kernel/include/chlists.h"
  97              		.file 7 "/d_drive/axoloti/platform_linux/../chibios/os/kernel/include/chthreads.h"
  98              		.file 8 "/d_drive/axoloti/platform_linux/../chibios/os/ports/GCC/ARMCMx/chcore_v7m.h"
  99              		.file 9 "/d_drive/axoloti/platform_linux/../chibios/os/kernel/include/chmtx.h"
 100              		.file 10 "/d_drive/axoloti/platform_linux/../chibios/os/kernel/include/chevents.h"
 101              		.file 11 "/d_drive/axoloti/platform_linux/../chibios/os/kernel/include/chqueues.h"
 102              		.file 12 "/d_drive/axoloti/platform_linux/../chibios/os/kernel/include/chstreams.h"
 103              		.file 13 "/d_drive/axoloti/platform_linux/../chibios/os/hal/include/usb.h"
 104              		.file 14 "/d_drive/axoloti/platform_linux/../chibios/os/hal/platforms/STM32/OTGv1/usb_lld.h"
 105              		.file 15 "/d_drive/axoloti/platform_linux/../chibios/os/hal/platforms/STM32/OTGv1/stm32_otg.h"
 106              		.file 16 "bulk_usb.h"
 107              		.file 17 "/d_drive/axoloti/platform_linux/../CMSIS//Include/core_cm4.h"
 108              		.file 18 "axoloti_control.h"
 109              		.file 19 "usbcfg.h"
 110              		.section	.debug_info,"",%progbits
 111              	.Ldebug_info0:
 112 0000 26140000 		.4byte	0x1426
 113 0004 0400     		.2byte	0x4
 114 0006 00000000 		.4byte	.Ldebug_abbrev0
ARM GAS  /tmp/ccFW05b2.s 			page 3


 115 000a 04       		.byte	0x4
 116 000b 01       		.uleb128 0x1
 117 000c 20090000 		.4byte	.LASF269
 118 0010 01       		.byte	0x1
 119 0011 C1020000 		.4byte	.LASF270
 120 0015 E10A0000 		.4byte	.LASF271
 121 0019 00000000 		.4byte	.Ltext0
 122 001d 48000000 		.4byte	.Letext0-.Ltext0
 123 0021 00000000 		.4byte	.Ldebug_line0
 124 0025 02       		.uleb128 0x2
 125 0026 04       		.byte	0x4
 126 0027 05       		.byte	0x5
 127 0028 696E7400 		.ascii	"int\000"
 128 002c 03       		.uleb128 0x3
 129 002d 00000000 		.4byte	.LASF2
 130 0031 02       		.byte	0x2
 131 0032 D4       		.byte	0xd4
 132 0033 37000000 		.4byte	0x37
 133 0037 04       		.uleb128 0x4
 134 0038 04       		.byte	0x4
 135 0039 07       		.byte	0x7
 136 003a 1E060000 		.4byte	.LASF0
 137 003e 04       		.uleb128 0x4
 138 003f 01       		.byte	0x1
 139 0040 06       		.byte	0x6
 140 0041 E5010000 		.4byte	.LASF1
 141 0045 03       		.uleb128 0x3
 142 0046 DC000000 		.4byte	.LASF3
 143 004a 03       		.byte	0x3
 144 004b 1D       		.byte	0x1d
 145 004c 50000000 		.4byte	0x50
 146 0050 04       		.uleb128 0x4
 147 0051 01       		.byte	0x1
 148 0052 08       		.byte	0x8
 149 0053 38020000 		.4byte	.LASF4
 150 0057 04       		.uleb128 0x4
 151 0058 02       		.byte	0x2
 152 0059 05       		.byte	0x5
 153 005a 6B080000 		.4byte	.LASF5
 154 005e 03       		.uleb128 0x3
 155 005f E9020000 		.4byte	.LASF6
 156 0063 03       		.byte	0x3
 157 0064 2B       		.byte	0x2b
 158 0065 69000000 		.4byte	0x69
 159 0069 04       		.uleb128 0x4
 160 006a 02       		.byte	0x2
 161 006b 07       		.byte	0x7
 162 006c 8C0A0000 		.4byte	.LASF7
 163 0070 03       		.uleb128 0x3
 164 0071 CC0A0000 		.4byte	.LASF8
 165 0075 03       		.byte	0x3
 166 0076 3F       		.byte	0x3f
 167 0077 7B000000 		.4byte	0x7b
 168 007b 04       		.uleb128 0x4
 169 007c 04       		.byte	0x4
 170 007d 05       		.byte	0x5
 171 007e 2E010000 		.4byte	.LASF9
ARM GAS  /tmp/ccFW05b2.s 			page 4


 172 0082 03       		.uleb128 0x3
 173 0083 55050000 		.4byte	.LASF10
 174 0087 03       		.byte	0x3
 175 0088 41       		.byte	0x41
 176 0089 8D000000 		.4byte	0x8d
 177 008d 04       		.uleb128 0x4
 178 008e 04       		.byte	0x4
 179 008f 07       		.byte	0x7
 180 0090 6D040000 		.4byte	.LASF11
 181 0094 04       		.uleb128 0x4
 182 0095 08       		.byte	0x8
 183 0096 05       		.byte	0x5
 184 0097 6F050000 		.4byte	.LASF12
 185 009b 03       		.uleb128 0x3
 186 009c 5A040000 		.4byte	.LASF13
 187 00a0 03       		.byte	0x3
 188 00a1 5B       		.byte	0x5b
 189 00a2 A6000000 		.4byte	0xa6
 190 00a6 04       		.uleb128 0x4
 191 00a7 08       		.byte	0x8
 192 00a8 07       		.byte	0x7
 193 00a9 1D070000 		.4byte	.LASF14
 194 00ad 03       		.uleb128 0x3
 195 00ae FB010000 		.4byte	.LASF15
 196 00b2 04       		.byte	0x4
 197 00b3 14       		.byte	0x14
 198 00b4 45000000 		.4byte	0x45
 199 00b8 03       		.uleb128 0x3
 200 00b9 5A070000 		.4byte	.LASF16
 201 00bd 04       		.byte	0x4
 202 00be 1A       		.byte	0x1a
 203 00bf 5E000000 		.4byte	0x5e
 204 00c3 03       		.uleb128 0x3
 205 00c4 40000000 		.4byte	.LASF17
 206 00c8 04       		.byte	0x4
 207 00c9 1F       		.byte	0x1f
 208 00ca 70000000 		.4byte	0x70
 209 00ce 03       		.uleb128 0x3
 210 00cf 500A0000 		.4byte	.LASF18
 211 00d3 04       		.byte	0x4
 212 00d4 20       		.byte	0x20
 213 00d5 82000000 		.4byte	0x82
 214 00d9 03       		.uleb128 0x3
 215 00da 7D080000 		.4byte	.LASF19
 216 00de 04       		.byte	0x4
 217 00df 26       		.byte	0x26
 218 00e0 9B000000 		.4byte	0x9b
 219 00e4 03       		.uleb128 0x3
 220 00e5 CB080000 		.4byte	.LASF20
 221 00e9 05       		.byte	0x5
 222 00ea 2B       		.byte	0x2b
 223 00eb EF000000 		.4byte	0xef
 224 00ef 04       		.uleb128 0x4
 225 00f0 01       		.byte	0x1
 226 00f1 02       		.byte	0x2
 227 00f2 89020000 		.4byte	.LASF21
 228 00f6 03       		.uleb128 0x3
ARM GAS  /tmp/ccFW05b2.s 			page 5


 229 00f7 2C080000 		.4byte	.LASF22
 230 00fb 05       		.byte	0x5
 231 00fc 2C       		.byte	0x2c
 232 00fd AD000000 		.4byte	0xad
 233 0101 03       		.uleb128 0x3
 234 0102 5E010000 		.4byte	.LASF23
 235 0106 05       		.byte	0x5
 236 0107 2D       		.byte	0x2d
 237 0108 AD000000 		.4byte	0xad
 238 010c 03       		.uleb128 0x3
 239 010d 9F070000 		.4byte	.LASF24
 240 0111 05       		.byte	0x5
 241 0112 2F       		.byte	0x2f
 242 0113 AD000000 		.4byte	0xad
 243 0117 03       		.uleb128 0x3
 244 0118 20000000 		.4byte	.LASF25
 245 011c 05       		.byte	0x5
 246 011d 30       		.byte	0x30
 247 011e CE000000 		.4byte	0xce
 248 0122 03       		.uleb128 0x3
 249 0123 70070000 		.4byte	.LASF26
 250 0127 05       		.byte	0x5
 251 0128 31       		.byte	0x31
 252 0129 C3000000 		.4byte	0xc3
 253 012d 03       		.uleb128 0x3
 254 012e 1D020000 		.4byte	.LASF27
 255 0132 05       		.byte	0x5
 256 0133 33       		.byte	0x33
 257 0134 CE000000 		.4byte	0xce
 258 0138 03       		.uleb128 0x3
 259 0139 95060000 		.4byte	.LASF28
 260 013d 05       		.byte	0x5
 261 013e 34       		.byte	0x34
 262 013f CE000000 		.4byte	0xce
 263 0143 03       		.uleb128 0x3
 264 0144 10000000 		.4byte	.LASF29
 265 0148 05       		.byte	0x5
 266 0149 35       		.byte	0x35
 267 014a CE000000 		.4byte	0xce
 268 014e 03       		.uleb128 0x3
 269 014f 09090000 		.4byte	.LASF30
 270 0153 06       		.byte	0x6
 271 0154 2A       		.byte	0x2a
 272 0155 59010000 		.4byte	0x159
 273 0159 05       		.uleb128 0x5
 274 015a 09090000 		.4byte	.LASF30
 275 015e 40       		.byte	0x40
 276 015f 07       		.byte	0x7
 277 0160 5E       		.byte	0x5e
 278 0161 32020000 		.4byte	0x232
 279 0165 06       		.uleb128 0x6
 280 0166 37010000 		.4byte	.LASF31
 281 016a 07       		.byte	0x7
 282 016b 5F       		.byte	0x5f
 283 016c 53020000 		.4byte	0x253
 284 0170 00       		.byte	0
 285 0171 06       		.uleb128 0x6
ARM GAS  /tmp/ccFW05b2.s 			page 6


 286 0172 4C010000 		.4byte	.LASF32
 287 0176 07       		.byte	0x7
 288 0177 61       		.byte	0x61
 289 0178 53020000 		.4byte	0x253
 290 017c 04       		.byte	0x4
 291 017d 06       		.uleb128 0x6
 292 017e D8020000 		.4byte	.LASF33
 293 0182 07       		.byte	0x7
 294 0183 63       		.byte	0x63
 295 0184 17010000 		.4byte	0x117
 296 0188 08       		.byte	0x8
 297 0189 06       		.uleb128 0x6
 298 018a 1A000000 		.4byte	.LASF34
 299 018e 07       		.byte	0x7
 300 018f 64       		.byte	0x64
 301 0190 E8030000 		.4byte	0x3e8
 302 0194 0C       		.byte	0xc
 303 0195 06       		.uleb128 0x6
 304 0196 26010000 		.4byte	.LASF35
 305 019a 07       		.byte	0x7
 306 019b 66       		.byte	0x66
 307 019c 53020000 		.4byte	0x253
 308 01a0 10       		.byte	0x10
 309 01a1 06       		.uleb128 0x6
 310 01a2 3D070000 		.4byte	.LASF36
 311 01a6 07       		.byte	0x7
 312 01a7 67       		.byte	0x67
 313 01a8 53020000 		.4byte	0x253
 314 01ac 14       		.byte	0x14
 315 01ad 06       		.uleb128 0x6
 316 01ae 400B0000 		.4byte	.LASF37
 317 01b2 07       		.byte	0x7
 318 01b3 6E       		.byte	0x6e
 319 01b4 FE040000 		.4byte	0x4fe
 320 01b8 18       		.byte	0x18
 321 01b9 06       		.uleb128 0x6
 322 01ba 8C0B0000 		.4byte	.LASF38
 323 01be 07       		.byte	0x7
 324 01bf 79       		.byte	0x79
 325 01c0 01010000 		.4byte	0x101
 326 01c4 1C       		.byte	0x1c
 327 01c5 06       		.uleb128 0x6
 328 01c6 02060000 		.4byte	.LASF39
 329 01ca 07       		.byte	0x7
 330 01cb 7D       		.byte	0x7d
 331 01cc F6000000 		.4byte	0xf6
 332 01d0 1D       		.byte	0x1d
 333 01d1 06       		.uleb128 0x6
 334 01d2 F1010000 		.4byte	.LASF40
 335 01d6 07       		.byte	0x7
 336 01d7 88       		.byte	0x88
 337 01d8 0C010000 		.4byte	0x10c
 338 01dc 1E       		.byte	0x1e
 339 01dd 07       		.uleb128 0x7
 340 01de 705F7500 		.ascii	"p_u\000"
 341 01e2 07       		.byte	0x7
 342 01e3 B4       		.byte	0xb4
ARM GAS  /tmp/ccFW05b2.s 			page 7


 343 01e4 C9040000 		.4byte	0x4c9
 344 01e8 20       		.byte	0x20
 345 01e9 06       		.uleb128 0x6
 346 01ea F2050000 		.4byte	.LASF41
 347 01ee 07       		.byte	0x7
 348 01ef B9       		.byte	0xb9
 349 01f0 79020000 		.4byte	0x279
 350 01f4 24       		.byte	0x24
 351 01f5 06       		.uleb128 0x6
 352 01f6 28000000 		.4byte	.LASF42
 353 01fa 07       		.byte	0x7
 354 01fb BF       		.byte	0xbf
 355 01fc 59020000 		.4byte	0x259
 356 0200 28       		.byte	0x28
 357 0201 06       		.uleb128 0x6
 358 0202 7A0B0000 		.4byte	.LASF43
 359 0206 07       		.byte	0x7
 360 0207 C3       		.byte	0xc3
 361 0208 22010000 		.4byte	0x122
 362 020c 30       		.byte	0x30
 363 020d 06       		.uleb128 0x6
 364 020e D3030000 		.4byte	.LASF44
 365 0212 07       		.byte	0x7
 366 0213 C9       		.byte	0xc9
 367 0214 2D010000 		.4byte	0x12d
 368 0218 34       		.byte	0x34
 369 0219 06       		.uleb128 0x6
 370 021a 73010000 		.4byte	.LASF45
 371 021e 07       		.byte	0x7
 372 021f D0       		.byte	0xd0
 373 0220 10050000 		.4byte	0x510
 374 0224 38       		.byte	0x38
 375 0225 06       		.uleb128 0x6
 376 0226 BE060000 		.4byte	.LASF46
 377 022a 07       		.byte	0x7
 378 022b D4       		.byte	0xd4
 379 022c 17010000 		.4byte	0x117
 380 0230 3C       		.byte	0x3c
 381 0231 00       		.byte	0
 382 0232 08       		.uleb128 0x8
 383 0233 08       		.byte	0x8
 384 0234 06       		.byte	0x6
 385 0235 61       		.byte	0x61
 386 0236 53020000 		.4byte	0x253
 387 023a 06       		.uleb128 0x6
 388 023b 37010000 		.4byte	.LASF31
 389 023f 06       		.byte	0x6
 390 0240 62       		.byte	0x62
 391 0241 53020000 		.4byte	0x253
 392 0245 00       		.byte	0
 393 0246 06       		.uleb128 0x6
 394 0247 4C010000 		.4byte	.LASF32
 395 024b 06       		.byte	0x6
 396 024c 64       		.byte	0x64
 397 024d 53020000 		.4byte	0x253
 398 0251 04       		.byte	0x4
 399 0252 00       		.byte	0
ARM GAS  /tmp/ccFW05b2.s 			page 8


 400 0253 09       		.uleb128 0x9
 401 0254 04       		.byte	0x4
 402 0255 4E010000 		.4byte	0x14e
 403 0259 03       		.uleb128 0x3
 404 025a 610A0000 		.4byte	.LASF47
 405 025e 06       		.byte	0x6
 406 025f 66       		.byte	0x66
 407 0260 32020000 		.4byte	0x232
 408 0264 08       		.uleb128 0x8
 409 0265 04       		.byte	0x4
 410 0266 06       		.byte	0x6
 411 0267 6B       		.byte	0x6b
 412 0268 79020000 		.4byte	0x279
 413 026c 06       		.uleb128 0x6
 414 026d 37010000 		.4byte	.LASF31
 415 0271 06       		.byte	0x6
 416 0272 6D       		.byte	0x6d
 417 0273 53020000 		.4byte	0x253
 418 0277 00       		.byte	0
 419 0278 00       		.byte	0
 420 0279 03       		.uleb128 0x3
 421 027a 66060000 		.4byte	.LASF48
 422 027e 06       		.byte	0x6
 423 027f 70       		.byte	0x70
 424 0280 64020000 		.4byte	0x264
 425 0284 03       		.uleb128 0x3
 426 0285 9D010000 		.4byte	.LASF49
 427 0289 08       		.byte	0x8
 428 028a E5       		.byte	0xe5
 429 028b 8F020000 		.4byte	0x28f
 430 028f 0A       		.uleb128 0xa
 431 0290 04       		.byte	0x4
 432 0291 03       		.uleb128 0x3
 433 0292 13030000 		.4byte	.LASF50
 434 0296 08       		.byte	0x8
 435 0297 EB       		.byte	0xeb
 436 0298 D9000000 		.4byte	0xd9
 437 029c 0B       		.uleb128 0xb
 438 029d CC030000 		.4byte	.LASF51
 439 02a1 64       		.byte	0x64
 440 02a2 08       		.byte	0x8
 441 02a3 0C01     		.2byte	0x10c
 442 02a5 E8030000 		.4byte	0x3e8
 443 02a9 0C       		.uleb128 0xc
 444 02aa 73313600 		.ascii	"s16\000"
 445 02ae 08       		.byte	0x8
 446 02af 0E01     		.2byte	0x10e
 447 02b1 84020000 		.4byte	0x284
 448 02b5 00       		.byte	0
 449 02b6 0C       		.uleb128 0xc
 450 02b7 73313700 		.ascii	"s17\000"
 451 02bb 08       		.byte	0x8
 452 02bc 0F01     		.2byte	0x10f
 453 02be 84020000 		.4byte	0x284
 454 02c2 04       		.byte	0x4
 455 02c3 0C       		.uleb128 0xc
 456 02c4 73313800 		.ascii	"s18\000"
ARM GAS  /tmp/ccFW05b2.s 			page 9


 457 02c8 08       		.byte	0x8
 458 02c9 1001     		.2byte	0x110
 459 02cb 84020000 		.4byte	0x284
 460 02cf 08       		.byte	0x8
 461 02d0 0C       		.uleb128 0xc
 462 02d1 73313900 		.ascii	"s19\000"
 463 02d5 08       		.byte	0x8
 464 02d6 1101     		.2byte	0x111
 465 02d8 84020000 		.4byte	0x284
 466 02dc 0C       		.byte	0xc
 467 02dd 0C       		.uleb128 0xc
 468 02de 73323000 		.ascii	"s20\000"
 469 02e2 08       		.byte	0x8
 470 02e3 1201     		.2byte	0x112
 471 02e5 84020000 		.4byte	0x284
 472 02e9 10       		.byte	0x10
 473 02ea 0C       		.uleb128 0xc
 474 02eb 73323100 		.ascii	"s21\000"
 475 02ef 08       		.byte	0x8
 476 02f0 1301     		.2byte	0x113
 477 02f2 84020000 		.4byte	0x284
 478 02f6 14       		.byte	0x14
 479 02f7 0C       		.uleb128 0xc
 480 02f8 73323200 		.ascii	"s22\000"
 481 02fc 08       		.byte	0x8
 482 02fd 1401     		.2byte	0x114
 483 02ff 84020000 		.4byte	0x284
 484 0303 18       		.byte	0x18
 485 0304 0C       		.uleb128 0xc
 486 0305 73323300 		.ascii	"s23\000"
 487 0309 08       		.byte	0x8
 488 030a 1501     		.2byte	0x115
 489 030c 84020000 		.4byte	0x284
 490 0310 1C       		.byte	0x1c
 491 0311 0C       		.uleb128 0xc
 492 0312 73323400 		.ascii	"s24\000"
 493 0316 08       		.byte	0x8
 494 0317 1601     		.2byte	0x116
 495 0319 84020000 		.4byte	0x284
 496 031d 20       		.byte	0x20
 497 031e 0C       		.uleb128 0xc
 498 031f 73323500 		.ascii	"s25\000"
 499 0323 08       		.byte	0x8
 500 0324 1701     		.2byte	0x117
 501 0326 84020000 		.4byte	0x284
 502 032a 24       		.byte	0x24
 503 032b 0C       		.uleb128 0xc
 504 032c 73323600 		.ascii	"s26\000"
 505 0330 08       		.byte	0x8
 506 0331 1801     		.2byte	0x118
 507 0333 84020000 		.4byte	0x284
 508 0337 28       		.byte	0x28
 509 0338 0C       		.uleb128 0xc
 510 0339 73323700 		.ascii	"s27\000"
 511 033d 08       		.byte	0x8
 512 033e 1901     		.2byte	0x119
 513 0340 84020000 		.4byte	0x284
ARM GAS  /tmp/ccFW05b2.s 			page 10


 514 0344 2C       		.byte	0x2c
 515 0345 0C       		.uleb128 0xc
 516 0346 73323800 		.ascii	"s28\000"
 517 034a 08       		.byte	0x8
 518 034b 1A01     		.2byte	0x11a
 519 034d 84020000 		.4byte	0x284
 520 0351 30       		.byte	0x30
 521 0352 0C       		.uleb128 0xc
 522 0353 73323900 		.ascii	"s29\000"
 523 0357 08       		.byte	0x8
 524 0358 1B01     		.2byte	0x11b
 525 035a 84020000 		.4byte	0x284
 526 035e 34       		.byte	0x34
 527 035f 0C       		.uleb128 0xc
 528 0360 73333000 		.ascii	"s30\000"
 529 0364 08       		.byte	0x8
 530 0365 1C01     		.2byte	0x11c
 531 0367 84020000 		.4byte	0x284
 532 036b 38       		.byte	0x38
 533 036c 0C       		.uleb128 0xc
 534 036d 73333100 		.ascii	"s31\000"
 535 0371 08       		.byte	0x8
 536 0372 1D01     		.2byte	0x11d
 537 0374 84020000 		.4byte	0x284
 538 0378 3C       		.byte	0x3c
 539 0379 0C       		.uleb128 0xc
 540 037a 723400   		.ascii	"r4\000"
 541 037d 08       		.byte	0x8
 542 037e 1F01     		.2byte	0x11f
 543 0380 84020000 		.4byte	0x284
 544 0384 40       		.byte	0x40
 545 0385 0C       		.uleb128 0xc
 546 0386 723500   		.ascii	"r5\000"
 547 0389 08       		.byte	0x8
 548 038a 2001     		.2byte	0x120
 549 038c 84020000 		.4byte	0x284
 550 0390 44       		.byte	0x44
 551 0391 0C       		.uleb128 0xc
 552 0392 723600   		.ascii	"r6\000"
 553 0395 08       		.byte	0x8
 554 0396 2101     		.2byte	0x121
 555 0398 84020000 		.4byte	0x284
 556 039c 48       		.byte	0x48
 557 039d 0C       		.uleb128 0xc
 558 039e 723700   		.ascii	"r7\000"
 559 03a1 08       		.byte	0x8
 560 03a2 2201     		.2byte	0x122
 561 03a4 84020000 		.4byte	0x284
 562 03a8 4C       		.byte	0x4c
 563 03a9 0C       		.uleb128 0xc
 564 03aa 723800   		.ascii	"r8\000"
 565 03ad 08       		.byte	0x8
 566 03ae 2301     		.2byte	0x123
 567 03b0 84020000 		.4byte	0x284
 568 03b4 50       		.byte	0x50
 569 03b5 0C       		.uleb128 0xc
 570 03b6 723900   		.ascii	"r9\000"
ARM GAS  /tmp/ccFW05b2.s 			page 11


 571 03b9 08       		.byte	0x8
 572 03ba 2401     		.2byte	0x124
 573 03bc 84020000 		.4byte	0x284
 574 03c0 54       		.byte	0x54
 575 03c1 0C       		.uleb128 0xc
 576 03c2 72313000 		.ascii	"r10\000"
 577 03c6 08       		.byte	0x8
 578 03c7 2501     		.2byte	0x125
 579 03c9 84020000 		.4byte	0x284
 580 03cd 58       		.byte	0x58
 581 03ce 0C       		.uleb128 0xc
 582 03cf 72313100 		.ascii	"r11\000"
 583 03d3 08       		.byte	0x8
 584 03d4 2601     		.2byte	0x126
 585 03d6 84020000 		.4byte	0x284
 586 03da 5C       		.byte	0x5c
 587 03db 0C       		.uleb128 0xc
 588 03dc 6C7200   		.ascii	"lr\000"
 589 03df 08       		.byte	0x8
 590 03e0 2701     		.2byte	0x127
 591 03e2 84020000 		.4byte	0x284
 592 03e6 60       		.byte	0x60
 593 03e7 00       		.byte	0
 594 03e8 0B       		.uleb128 0xb
 595 03e9 29020000 		.4byte	.LASF52
 596 03ed 04       		.byte	0x4
 597 03ee 08       		.byte	0x8
 598 03ef 3101     		.2byte	0x131
 599 03f1 03040000 		.4byte	0x403
 600 03f5 0C       		.uleb128 0xc
 601 03f6 72313300 		.ascii	"r13\000"
 602 03fa 08       		.byte	0x8
 603 03fb 3201     		.2byte	0x132
 604 03fd 03040000 		.4byte	0x403
 605 0401 00       		.byte	0
 606 0402 00       		.byte	0
 607 0403 09       		.uleb128 0x9
 608 0404 04       		.byte	0x4
 609 0405 9C020000 		.4byte	0x29c
 610 0409 0D       		.uleb128 0xd
 611 040a CE000000 		.4byte	0xce
 612 040e 04       		.uleb128 0x4
 613 040f 04       		.byte	0x4
 614 0410 07       		.byte	0x7
 615 0411 07000000 		.4byte	.LASF53
 616 0415 05       		.uleb128 0x5
 617 0416 69050000 		.4byte	.LASF54
 618 041a 10       		.byte	0x10
 619 041b 09       		.byte	0x9
 620 041c 2C       		.byte	0x2c
 621 041d 46040000 		.4byte	0x446
 622 0421 06       		.uleb128 0x6
 623 0422 87050000 		.4byte	.LASF55
 624 0426 09       		.byte	0x9
 625 0427 2D       		.byte	0x2d
 626 0428 59020000 		.4byte	0x259
 627 042c 00       		.byte	0
ARM GAS  /tmp/ccFW05b2.s 			page 12


 628 042d 06       		.uleb128 0x6
 629 042e BD000000 		.4byte	.LASF56
 630 0432 09       		.byte	0x9
 631 0433 2F       		.byte	0x2f
 632 0434 53020000 		.4byte	0x253
 633 0438 08       		.byte	0x8
 634 0439 06       		.uleb128 0x6
 635 043a 470B0000 		.4byte	.LASF57
 636 043e 09       		.byte	0x9
 637 043f 31       		.byte	0x31
 638 0440 46040000 		.4byte	0x446
 639 0444 0C       		.byte	0xc
 640 0445 00       		.byte	0
 641 0446 09       		.uleb128 0x9
 642 0447 04       		.byte	0x4
 643 0448 15040000 		.4byte	0x415
 644 044c 03       		.uleb128 0x3
 645 044d 69050000 		.4byte	.LASF54
 646 0451 09       		.byte	0x9
 647 0452 33       		.byte	0x33
 648 0453 15040000 		.4byte	0x415
 649 0457 03       		.uleb128 0x3
 650 0458 290A0000 		.4byte	.LASF58
 651 045c 0A       		.byte	0xa
 652 045d 2C       		.byte	0x2c
 653 045e 62040000 		.4byte	0x462
 654 0462 05       		.uleb128 0x5
 655 0463 290A0000 		.4byte	.LASF58
 656 0467 10       		.byte	0x10
 657 0468 0A       		.byte	0xa
 658 0469 31       		.byte	0x31
 659 046a 9F040000 		.4byte	0x49f
 660 046e 06       		.uleb128 0x6
 661 046f AD040000 		.4byte	.LASF59
 662 0473 0A       		.byte	0xa
 663 0474 32       		.byte	0x32
 664 0475 9F040000 		.4byte	0x49f
 665 0479 00       		.byte	0
 666 047a 06       		.uleb128 0x6
 667 047b 800B0000 		.4byte	.LASF60
 668 047f 0A       		.byte	0xa
 669 0480 35       		.byte	0x35
 670 0481 53020000 		.4byte	0x253
 671 0485 04       		.byte	0x4
 672 0486 06       		.uleb128 0x6
 673 0487 030B0000 		.4byte	.LASF61
 674 048b 0A       		.byte	0xa
 675 048c 37       		.byte	0x37
 676 048d 2D010000 		.4byte	0x12d
 677 0491 08       		.byte	0x8
 678 0492 06       		.uleb128 0x6
 679 0493 8F000000 		.4byte	.LASF62
 680 0497 0A       		.byte	0xa
 681 0498 3A       		.byte	0x3a
 682 0499 38010000 		.4byte	0x138
 683 049d 0C       		.byte	0xc
 684 049e 00       		.byte	0
ARM GAS  /tmp/ccFW05b2.s 			page 13


 685 049f 09       		.uleb128 0x9
 686 04a0 04       		.byte	0x4
 687 04a1 57040000 		.4byte	0x457
 688 04a5 05       		.uleb128 0x5
 689 04a6 4E040000 		.4byte	.LASF63
 690 04aa 04       		.byte	0x4
 691 04ab 0A       		.byte	0xa
 692 04ac 41       		.byte	0x41
 693 04ad BE040000 		.4byte	0x4be
 694 04b1 06       		.uleb128 0x6
 695 04b2 25040000 		.4byte	.LASF64
 696 04b6 0A       		.byte	0xa
 697 04b7 42       		.byte	0x42
 698 04b8 9F040000 		.4byte	0x49f
 699 04bc 00       		.byte	0
 700 04bd 00       		.byte	0
 701 04be 03       		.uleb128 0x3
 702 04bf 4E040000 		.4byte	.LASF63
 703 04c3 0A       		.byte	0xa
 704 04c4 45       		.byte	0x45
 705 04c5 A5040000 		.4byte	0x4a5
 706 04c9 0E       		.uleb128 0xe
 707 04ca 04       		.byte	0x4
 708 04cb 07       		.byte	0x7
 709 04cc 96       		.byte	0x96
 710 04cd FE040000 		.4byte	0x4fe
 711 04d1 0F       		.uleb128 0xf
 712 04d2 850A0000 		.4byte	.LASF65
 713 04d6 07       		.byte	0x7
 714 04d7 9D       		.byte	0x9d
 715 04d8 22010000 		.4byte	0x122
 716 04dc 0F       		.uleb128 0xf
 717 04dd C5000000 		.4byte	.LASF66
 718 04e1 07       		.byte	0x7
 719 04e2 A4       		.byte	0xa4
 720 04e3 22010000 		.4byte	0x122
 721 04e7 0F       		.uleb128 0xf
 722 04e8 01030000 		.4byte	.LASF67
 723 04ec 07       		.byte	0x7
 724 04ed AB       		.byte	0xab
 725 04ee 8F020000 		.4byte	0x28f
 726 04f2 0F       		.uleb128 0xf
 727 04f3 EC000000 		.4byte	.LASF68
 728 04f7 07       		.byte	0x7
 729 04f8 B2       		.byte	0xb2
 730 04f9 2D010000 		.4byte	0x12d
 731 04fd 00       		.byte	0
 732 04fe 09       		.uleb128 0x9
 733 04ff 04       		.byte	0x4
 734 0500 04050000 		.4byte	0x504
 735 0504 10       		.uleb128 0x10
 736 0505 09050000 		.4byte	0x509
 737 0509 04       		.uleb128 0x4
 738 050a 01       		.byte	0x1
 739 050b 08       		.byte	0x8
 740 050c AE020000 		.4byte	.LASF69
 741 0510 09       		.uleb128 0x9
ARM GAS  /tmp/ccFW05b2.s 			page 14


 742 0511 04       		.byte	0x4
 743 0512 4C040000 		.4byte	0x44c
 744 0516 09       		.uleb128 0x9
 745 0517 04       		.byte	0x4
 746 0518 1C050000 		.4byte	0x51c
 747 051c 11       		.uleb128 0x11
 748 051d 22010000 		.4byte	0x122
 749 0521 2B050000 		.4byte	0x52b
 750 0525 12       		.uleb128 0x12
 751 0526 8F020000 		.4byte	0x28f
 752 052a 00       		.byte	0
 753 052b 03       		.uleb128 0x3
 754 052c F4020000 		.4byte	.LASF70
 755 0530 0B       		.byte	0xb
 756 0531 37       		.byte	0x37
 757 0532 36050000 		.4byte	0x536
 758 0536 05       		.uleb128 0x5
 759 0537 F4020000 		.4byte	.LASF70
 760 053b 24       		.byte	0x24
 761 053c 0B       		.byte	0xb
 762 053d 45       		.byte	0x45
 763 053e A3050000 		.4byte	0x5a3
 764 0542 06       		.uleb128 0x6
 765 0543 0A080000 		.4byte	.LASF71
 766 0547 0B       		.byte	0xb
 767 0548 46       		.byte	0x46
 768 0549 59020000 		.4byte	0x259
 769 054d 00       		.byte	0
 770 054e 06       		.uleb128 0x6
 771 054f 2D040000 		.4byte	.LASF72
 772 0553 0B       		.byte	0xb
 773 0554 47       		.byte	0x47
 774 0555 2C000000 		.4byte	0x2c
 775 0559 08       		.byte	0x8
 776 055a 06       		.uleb128 0x6
 777 055b F9000000 		.4byte	.LASF73
 778 055f 0B       		.byte	0xb
 779 0560 48       		.byte	0x48
 780 0561 C5050000 		.4byte	0x5c5
 781 0565 0C       		.byte	0xc
 782 0566 06       		.uleb128 0x6
 783 0567 E6000000 		.4byte	.LASF74
 784 056b 0B       		.byte	0xb
 785 056c 49       		.byte	0x49
 786 056d C5050000 		.4byte	0x5c5
 787 0571 10       		.byte	0x10
 788 0572 06       		.uleb128 0x6
 789 0573 D1040000 		.4byte	.LASF75
 790 0577 0B       		.byte	0xb
 791 0578 4B       		.byte	0x4b
 792 0579 C5050000 		.4byte	0x5c5
 793 057d 14       		.byte	0x14
 794 057e 06       		.uleb128 0x6
 795 057f 3E010000 		.4byte	.LASF76
 796 0583 0B       		.byte	0xb
 797 0584 4C       		.byte	0x4c
 798 0585 C5050000 		.4byte	0x5c5
ARM GAS  /tmp/ccFW05b2.s 			page 15


 799 0589 18       		.byte	0x18
 800 058a 06       		.uleb128 0x6
 801 058b 1D010000 		.4byte	.LASF77
 802 058f 0B       		.byte	0xb
 803 0590 4D       		.byte	0x4d
 804 0591 A3050000 		.4byte	0x5a3
 805 0595 1C       		.byte	0x1c
 806 0596 06       		.uleb128 0x6
 807 0597 54020000 		.4byte	.LASF78
 808 059b 0B       		.byte	0xb
 809 059c 4E       		.byte	0x4e
 810 059d 8F020000 		.4byte	0x28f
 811 05a1 20       		.byte	0x20
 812 05a2 00       		.byte	0
 813 05a3 03       		.uleb128 0x3
 814 05a4 E8050000 		.4byte	.LASF79
 815 05a8 0B       		.byte	0xb
 816 05a9 3A       		.byte	0x3a
 817 05aa AE050000 		.4byte	0x5ae
 818 05ae 09       		.uleb128 0x9
 819 05af 04       		.byte	0x4
 820 05b0 B4050000 		.4byte	0x5b4
 821 05b4 13       		.uleb128 0x13
 822 05b5 BF050000 		.4byte	0x5bf
 823 05b9 12       		.uleb128 0x12
 824 05ba BF050000 		.4byte	0x5bf
 825 05be 00       		.byte	0
 826 05bf 09       		.uleb128 0x9
 827 05c0 04       		.byte	0x4
 828 05c1 2B050000 		.4byte	0x52b
 829 05c5 09       		.uleb128 0x9
 830 05c6 04       		.byte	0x4
 831 05c7 AD000000 		.4byte	0xad
 832 05cb 03       		.uleb128 0x3
 833 05cc B60A0000 		.4byte	.LASF80
 834 05d0 0B       		.byte	0xb
 835 05d1 82       		.byte	0x82
 836 05d2 2B050000 		.4byte	0x52b
 837 05d6 03       		.uleb128 0x3
 838 05d7 1E030000 		.4byte	.LASF81
 839 05db 0B       		.byte	0xb
 840 05dc F5       		.byte	0xf5
 841 05dd 2B050000 		.4byte	0x52b
 842 05e1 05       		.uleb128 0x5
 843 05e2 14080000 		.4byte	.LASF82
 844 05e6 10       		.byte	0x10
 845 05e7 0C       		.byte	0xc
 846 05e8 48       		.byte	0x48
 847 05e9 1E060000 		.4byte	0x61e
 848 05ed 06       		.uleb128 0x6
 849 05ee 64000000 		.4byte	.LASF83
 850 05f2 0C       		.byte	0xc
 851 05f3 49       		.byte	0x49
 852 05f4 42060000 		.4byte	0x642
 853 05f8 00       		.byte	0
 854 05f9 06       		.uleb128 0x6
 855 05fa 13060000 		.4byte	.LASF84
ARM GAS  /tmp/ccFW05b2.s 			page 16


 856 05fe 0C       		.byte	0xc
 857 05ff 49       		.byte	0x49
 858 0600 61060000 		.4byte	0x661
 859 0604 04       		.byte	0x4
 860 0605 07       		.uleb128 0x7
 861 0606 70757400 		.ascii	"put\000"
 862 060a 0C       		.byte	0xc
 863 060b 49       		.byte	0x49
 864 060c 7B060000 		.4byte	0x67b
 865 0610 08       		.byte	0x8
 866 0611 07       		.uleb128 0x7
 867 0612 67657400 		.ascii	"get\000"
 868 0616 0C       		.byte	0xc
 869 0617 49       		.byte	0x49
 870 0618 16050000 		.4byte	0x516
 871 061c 0C       		.byte	0xc
 872 061d 00       		.byte	0
 873 061e 11       		.uleb128 0x11
 874 061f 2C000000 		.4byte	0x2c
 875 0623 37060000 		.4byte	0x637
 876 0627 12       		.uleb128 0x12
 877 0628 8F020000 		.4byte	0x28f
 878 062c 12       		.uleb128 0x12
 879 062d 37060000 		.4byte	0x637
 880 0631 12       		.uleb128 0x12
 881 0632 2C000000 		.4byte	0x2c
 882 0636 00       		.byte	0
 883 0637 09       		.uleb128 0x9
 884 0638 04       		.byte	0x4
 885 0639 3D060000 		.4byte	0x63d
 886 063d 10       		.uleb128 0x10
 887 063e AD000000 		.4byte	0xad
 888 0642 09       		.uleb128 0x9
 889 0643 04       		.byte	0x4
 890 0644 1E060000 		.4byte	0x61e
 891 0648 11       		.uleb128 0x11
 892 0649 2C000000 		.4byte	0x2c
 893 064d 61060000 		.4byte	0x661
 894 0651 12       		.uleb128 0x12
 895 0652 8F020000 		.4byte	0x28f
 896 0656 12       		.uleb128 0x12
 897 0657 C5050000 		.4byte	0x5c5
 898 065b 12       		.uleb128 0x12
 899 065c 2C000000 		.4byte	0x2c
 900 0660 00       		.byte	0
 901 0661 09       		.uleb128 0x9
 902 0662 04       		.byte	0x4
 903 0663 48060000 		.4byte	0x648
 904 0667 11       		.uleb128 0x11
 905 0668 22010000 		.4byte	0x122
 906 066c 7B060000 		.4byte	0x67b
 907 0670 12       		.uleb128 0x12
 908 0671 8F020000 		.4byte	0x28f
 909 0675 12       		.uleb128 0x12
 910 0676 AD000000 		.4byte	0xad
 911 067a 00       		.byte	0
 912 067b 09       		.uleb128 0x9
ARM GAS  /tmp/ccFW05b2.s 			page 17


 913 067c 04       		.byte	0x4
 914 067d 67060000 		.4byte	0x667
 915 0681 08       		.uleb128 0x8
 916 0682 04       		.byte	0x4
 917 0683 0C       		.byte	0xc
 918 0684 51       		.byte	0x51
 919 0685 96060000 		.4byte	0x696
 920 0689 07       		.uleb128 0x7
 921 068a 766D7400 		.ascii	"vmt\000"
 922 068e 0C       		.byte	0xc
 923 068f 53       		.byte	0x53
 924 0690 96060000 		.4byte	0x696
 925 0694 00       		.byte	0
 926 0695 00       		.byte	0
 927 0696 09       		.uleb128 0x9
 928 0697 04       		.byte	0x4
 929 0698 9C060000 		.4byte	0x69c
 930 069c 10       		.uleb128 0x10
 931 069d E1050000 		.4byte	0x5e1
 932 06a1 03       		.uleb128 0x3
 933 06a2 71000000 		.4byte	.LASF85
 934 06a6 0C       		.byte	0xc
 935 06a7 55       		.byte	0x55
 936 06a8 81060000 		.4byte	0x681
 937 06ac 14       		.uleb128 0x14
 938 06ad CE000000 		.4byte	0xce
 939 06b1 BC060000 		.4byte	0x6bc
 940 06b5 15       		.uleb128 0x15
 941 06b6 0E040000 		.4byte	0x40e
 942 06ba 0E       		.byte	0xe
 943 06bb 00       		.byte	0
 944 06bc 0D       		.uleb128 0xd
 945 06bd C3000000 		.4byte	0xc3
 946 06c1 11       		.uleb128 0x11
 947 06c2 22010000 		.4byte	0x122
 948 06c6 DA060000 		.4byte	0x6da
 949 06ca 12       		.uleb128 0x12
 950 06cb 8F020000 		.4byte	0x28f
 951 06cf 12       		.uleb128 0x12
 952 06d0 AD000000 		.4byte	0xad
 953 06d4 12       		.uleb128 0x12
 954 06d5 43010000 		.4byte	0x143
 955 06d9 00       		.byte	0
 956 06da 09       		.uleb128 0x9
 957 06db 04       		.byte	0x4
 958 06dc C1060000 		.4byte	0x6c1
 959 06e0 11       		.uleb128 0x11
 960 06e1 22010000 		.4byte	0x122
 961 06e5 F4060000 		.4byte	0x6f4
 962 06e9 12       		.uleb128 0x12
 963 06ea 8F020000 		.4byte	0x28f
 964 06ee 12       		.uleb128 0x12
 965 06ef 43010000 		.4byte	0x143
 966 06f3 00       		.byte	0
 967 06f4 09       		.uleb128 0x9
 968 06f5 04       		.byte	0x4
 969 06f6 E0060000 		.4byte	0x6e0
ARM GAS  /tmp/ccFW05b2.s 			page 18


 970 06fa 11       		.uleb128 0x11
 971 06fb 2C000000 		.4byte	0x2c
 972 06ff 18070000 		.4byte	0x718
 973 0703 12       		.uleb128 0x12
 974 0704 8F020000 		.4byte	0x28f
 975 0708 12       		.uleb128 0x12
 976 0709 37060000 		.4byte	0x637
 977 070d 12       		.uleb128 0x12
 978 070e 2C000000 		.4byte	0x2c
 979 0712 12       		.uleb128 0x12
 980 0713 43010000 		.4byte	0x143
 981 0717 00       		.byte	0
 982 0718 09       		.uleb128 0x9
 983 0719 04       		.byte	0x4
 984 071a FA060000 		.4byte	0x6fa
 985 071e 11       		.uleb128 0x11
 986 071f 2C000000 		.4byte	0x2c
 987 0723 3C070000 		.4byte	0x73c
 988 0727 12       		.uleb128 0x12
 989 0728 8F020000 		.4byte	0x28f
 990 072c 12       		.uleb128 0x12
 991 072d C5050000 		.4byte	0x5c5
 992 0731 12       		.uleb128 0x12
 993 0732 2C000000 		.4byte	0x2c
 994 0736 12       		.uleb128 0x12
 995 0737 43010000 		.4byte	0x143
 996 073b 00       		.byte	0
 997 073c 09       		.uleb128 0x9
 998 073d 04       		.byte	0x4
 999 073e 1E070000 		.4byte	0x71e
 1000 0742 03       		.uleb128 0x3
 1001 0743 82060000 		.4byte	.LASF86
 1002 0747 0D       		.byte	0xd
 1003 0748 E9       		.byte	0xe9
 1004 0749 4D070000 		.4byte	0x74d
 1005 074d 16       		.uleb128 0x16
 1006 074e 82060000 		.4byte	.LASF86
 1007 0752 3802     		.2byte	0x238
 1008 0754 0E       		.byte	0xe
 1009 0755 7701     		.2byte	0x177
 1010 0757 7A080000 		.4byte	0x87a
 1011 075b 17       		.uleb128 0x17
 1012 075c 9F000000 		.4byte	.LASF87
 1013 0760 0E       		.byte	0xe
 1014 0761 7B01     		.2byte	0x17b
 1015 0763 AC080000 		.4byte	0x8ac
 1016 0767 00       		.byte	0
 1017 0768 17       		.uleb128 0x17
 1018 0769 98000000 		.4byte	.LASF88
 1019 076d 0E       		.byte	0xe
 1020 076e 7F01     		.2byte	0x17f
 1021 0770 C9110000 		.4byte	0x11c9
 1022 0774 04       		.byte	0x4
 1023 0775 17       		.uleb128 0x17
 1024 0776 52030000 		.4byte	.LASF89
 1025 077a 0E       		.byte	0xe
 1026 077b 8301     		.2byte	0x183
ARM GAS  /tmp/ccFW05b2.s 			page 19


 1027 077d B8000000 		.4byte	0xb8
 1028 0781 08       		.byte	0x8
 1029 0782 17       		.uleb128 0x17
 1030 0783 DF020000 		.4byte	.LASF90
 1031 0787 0E       		.byte	0xe
 1032 0788 8701     		.2byte	0x187
 1033 078a B8000000 		.4byte	0xb8
 1034 078e 0A       		.byte	0xa
 1035 078f 0C       		.uleb128 0xc
 1036 0790 65706300 		.ascii	"epc\000"
 1037 0794 0E       		.byte	0xe
 1038 0795 8B01     		.2byte	0x18b
 1039 0797 D4110000 		.4byte	0x11d4
 1040 079b 0C       		.byte	0xc
 1041 079c 17       		.uleb128 0x17
 1042 079d 5A080000 		.4byte	.LASF91
 1043 07a1 0E       		.byte	0xe
 1044 07a2 9201     		.2byte	0x192
 1045 07a4 EF110000 		.4byte	0x11ef
 1046 07a8 1C       		.byte	0x1c
 1047 07a9 17       		.uleb128 0x17
 1048 07aa C10A0000 		.4byte	.LASF92
 1049 07ae 0E       		.byte	0xe
 1050 07af 9901     		.2byte	0x199
 1051 07b1 EF110000 		.4byte	0x11ef
 1052 07b5 28       		.byte	0x28
 1053 07b6 17       		.uleb128 0x17
 1054 07b7 66020000 		.4byte	.LASF93
 1055 07bb 0E       		.byte	0xe
 1056 07bc 9D01     		.2byte	0x19d
 1057 07be EB080000 		.4byte	0x8eb
 1058 07c2 34       		.byte	0x34
 1059 07c3 17       		.uleb128 0x17
 1060 07c4 98050000 		.4byte	.LASF94
 1061 07c8 0E       		.byte	0xe
 1062 07c9 A101     		.2byte	0x1a1
 1063 07cb C5050000 		.4byte	0x5c5
 1064 07cf 38       		.byte	0x38
 1065 07d0 17       		.uleb128 0x17
 1066 07d1 B3020000 		.4byte	.LASF95
 1067 07d5 0E       		.byte	0xe
 1068 07d6 A501     		.2byte	0x1a5
 1069 07d8 2C000000 		.4byte	0x2c
 1070 07dc 3C       		.byte	0x3c
 1071 07dd 17       		.uleb128 0x17
 1072 07de 8E040000 		.4byte	.LASF96
 1073 07e2 0E       		.byte	0xe
 1074 07e3 A901     		.2byte	0x1a9
 1075 07e5 61090000 		.4byte	0x961
 1076 07e9 40       		.byte	0x40
 1077 07ea 17       		.uleb128 0x17
 1078 07eb C6030000 		.4byte	.LASF97
 1079 07ef 0E       		.byte	0xe
 1080 07f0 AD01     		.2byte	0x1ad
 1081 07f2 FF110000 		.4byte	0x11ff
 1082 07f6 44       		.byte	0x44
 1083 07f7 17       		.uleb128 0x17
ARM GAS  /tmp/ccFW05b2.s 			page 20


 1084 07f8 7F040000 		.4byte	.LASF98
 1085 07fc 0E       		.byte	0xe
 1086 07fd B101     		.2byte	0x1b1
 1087 07ff B8000000 		.4byte	0xb8
 1088 0803 4C       		.byte	0x4c
 1089 0804 17       		.uleb128 0x17
 1090 0805 86040000 		.4byte	.LASF99
 1091 0809 0E       		.byte	0xe
 1092 080a B501     		.2byte	0x1b5
 1093 080c AD000000 		.4byte	0xad
 1094 0810 4E       		.byte	0x4e
 1095 0811 17       		.uleb128 0x17
 1096 0812 0F040000 		.4byte	.LASF100
 1097 0816 0E       		.byte	0xe
 1098 0817 B901     		.2byte	0x1b9
 1099 0819 AD000000 		.4byte	0xad
 1100 081d 4F       		.byte	0x4f
 1101 081e 0C       		.uleb128 0xc
 1102 081f 6F746700 		.ascii	"otg\000"
 1103 0823 0E       		.byte	0xe
 1104 0824 C101     		.2byte	0x1c1
 1105 0826 0F120000 		.4byte	0x120f
 1106 082a 50       		.byte	0x50
 1107 082b 17       		.uleb128 0x17
 1108 082c DD060000 		.4byte	.LASF101
 1109 0830 0E       		.byte	0xe
 1110 0831 C501     		.2byte	0x1c5
 1111 0833 15120000 		.4byte	0x1215
 1112 0837 54       		.byte	0x54
 1113 0838 17       		.uleb128 0x17
 1114 0839 4E0B0000 		.4byte	.LASF102
 1115 083d 0E       		.byte	0xe
 1116 083e C901     		.2byte	0x1c9
 1117 0840 CE000000 		.4byte	0xce
 1118 0844 58       		.byte	0x58
 1119 0845 17       		.uleb128 0x17
 1120 0846 3D060000 		.4byte	.LASF103
 1121 084a 0E       		.byte	0xe
 1122 084b CD01     		.2byte	0x1cd
 1123 084d CE000000 		.4byte	0xce
 1124 0851 5C       		.byte	0x5c
 1125 0852 17       		.uleb128 0x17
 1126 0853 E9040000 		.4byte	.LASF104
 1127 0857 0E       		.byte	0xe
 1128 0858 D101     		.2byte	0x1d1
 1129 085a 53020000 		.4byte	0x253
 1130 085e 60       		.byte	0x60
 1131 085f 17       		.uleb128 0x17
 1132 0860 7D010000 		.4byte	.LASF105
 1133 0864 0E       		.byte	0xe
 1134 0865 D501     		.2byte	0x1d5
 1135 0867 53020000 		.4byte	0x253
 1136 086b 64       		.byte	0x64
 1137 086c 17       		.uleb128 0x17
 1138 086d 52080000 		.4byte	.LASF106
 1139 0871 0E       		.byte	0xe
 1140 0872 D901     		.2byte	0x1d9
ARM GAS  /tmp/ccFW05b2.s 			page 21


 1141 0874 20120000 		.4byte	0x1220
 1142 0878 68       		.byte	0x68
 1143 0879 00       		.byte	0
 1144 087a 03       		.uleb128 0x3
 1145 087b 590A0000 		.4byte	.LASF107
 1146 087f 0D       		.byte	0xd
 1147 0880 EE       		.byte	0xee
 1148 0881 AD000000 		.4byte	0xad
 1149 0885 18       		.uleb128 0x18
 1150 0886 01       		.byte	0x1
 1151 0887 0D       		.byte	0xd
 1152 0888 F3       		.byte	0xf3
 1153 0889 AC080000 		.4byte	0x8ac
 1154 088d 19       		.uleb128 0x19
 1155 088e E7060000 		.4byte	.LASF108
 1156 0892 00       		.sleb128 0
 1157 0893 19       		.uleb128 0x19
 1158 0894 E0040000 		.4byte	.LASF109
 1159 0898 01       		.sleb128 1
 1160 0899 19       		.uleb128 0x19
 1161 089a 7D050000 		.4byte	.LASF110
 1162 089e 02       		.sleb128 2
 1163 089f 19       		.uleb128 0x19
 1164 08a0 02040000 		.4byte	.LASF111
 1165 08a4 03       		.sleb128 3
 1166 08a5 19       		.uleb128 0x19
 1167 08a6 B2000000 		.4byte	.LASF112
 1168 08aa 04       		.sleb128 4
 1169 08ab 00       		.byte	0
 1170 08ac 03       		.uleb128 0x3
 1171 08ad F7040000 		.4byte	.LASF113
 1172 08b1 0D       		.byte	0xd
 1173 08b2 F9       		.byte	0xf9
 1174 08b3 85080000 		.4byte	0x885
 1175 08b7 1A       		.uleb128 0x1a
 1176 08b8 01       		.byte	0x1
 1177 08b9 0D       		.byte	0xd
 1178 08ba 0701     		.2byte	0x107
 1179 08bc EB080000 		.4byte	0x8eb
 1180 08c0 19       		.uleb128 0x19
 1181 08c1 AC010000 		.4byte	.LASF114
 1182 08c5 00       		.sleb128 0
 1183 08c6 19       		.uleb128 0x19
 1184 08c7 4F070000 		.4byte	.LASF115
 1185 08cb 01       		.sleb128 1
 1186 08cc 19       		.uleb128 0x19
 1187 08cd C9060000 		.4byte	.LASF116
 1188 08d1 02       		.sleb128 2
 1189 08d2 19       		.uleb128 0x19
 1190 08d3 2C0B0000 		.4byte	.LASF117
 1191 08d7 03       		.sleb128 3
 1192 08d8 19       		.uleb128 0x19
 1193 08d9 660B0000 		.4byte	.LASF118
 1194 08dd 04       		.sleb128 4
 1195 08de 19       		.uleb128 0x19
 1196 08df 130B0000 		.4byte	.LASF119
 1197 08e3 05       		.sleb128 5
ARM GAS  /tmp/ccFW05b2.s 			page 22


 1198 08e4 19       		.uleb128 0x19
 1199 08e5 46020000 		.4byte	.LASF120
 1200 08e9 06       		.sleb128 6
 1201 08ea 00       		.byte	0
 1202 08eb 1B       		.uleb128 0x1b
 1203 08ec CE000000 		.4byte	.LASF121
 1204 08f0 0D       		.byte	0xd
 1205 08f1 0F01     		.2byte	0x10f
 1206 08f3 B7080000 		.4byte	0x8b7
 1207 08f7 1A       		.uleb128 0x1a
 1208 08f8 01       		.byte	0x1
 1209 08f9 0D       		.byte	0xd
 1210 08fa 1401     		.2byte	0x114
 1211 08fc 25090000 		.4byte	0x925
 1212 0900 19       		.uleb128 0x19
 1213 0901 8B080000 		.4byte	.LASF122
 1214 0905 00       		.sleb128 0
 1215 0906 19       		.uleb128 0x19
 1216 0907 02010000 		.4byte	.LASF123
 1217 090b 01       		.sleb128 1
 1218 090c 19       		.uleb128 0x19
 1219 090d F0070000 		.4byte	.LASF124
 1220 0911 02       		.sleb128 2
 1221 0912 19       		.uleb128 0x19
 1222 0913 730A0000 		.4byte	.LASF125
 1223 0917 03       		.sleb128 3
 1224 0918 19       		.uleb128 0x19
 1225 0919 3C050000 		.4byte	.LASF126
 1226 091d 04       		.sleb128 4
 1227 091e 19       		.uleb128 0x19
 1228 091f 03020000 		.4byte	.LASF127
 1229 0923 05       		.sleb128 5
 1230 0924 00       		.byte	0
 1231 0925 1B       		.uleb128 0x1b
 1232 0926 E6030000 		.4byte	.LASF128
 1233 092a 0D       		.byte	0xd
 1234 092b 1B01     		.2byte	0x11b
 1235 092d F7080000 		.4byte	0x8f7
 1236 0931 1C       		.uleb128 0x1c
 1237 0932 08       		.byte	0x8
 1238 0933 0D       		.byte	0xd
 1239 0934 2001     		.2byte	0x120
 1240 0936 55090000 		.4byte	0x955
 1241 093a 17       		.uleb128 0x17
 1242 093b FA030000 		.4byte	.LASF129
 1243 093f 0D       		.byte	0xd
 1244 0940 2401     		.2byte	0x124
 1245 0942 2C000000 		.4byte	0x2c
 1246 0946 00       		.byte	0
 1247 0947 17       		.uleb128 0x17
 1248 0948 13050000 		.4byte	.LASF130
 1249 094c 0D       		.byte	0xd
 1250 094d 2801     		.2byte	0x128
 1251 094f 37060000 		.4byte	0x637
 1252 0953 04       		.byte	0x4
 1253 0954 00       		.byte	0
 1254 0955 1B       		.uleb128 0x1b
ARM GAS  /tmp/ccFW05b2.s 			page 23


 1255 0956 A5030000 		.4byte	.LASF131
 1256 095a 0D       		.byte	0xd
 1257 095b 2901     		.2byte	0x129
 1258 095d 31090000 		.4byte	0x931
 1259 0961 1B       		.uleb128 0x1b
 1260 0962 FB080000 		.4byte	.LASF132
 1261 0966 0D       		.byte	0xd
 1262 0967 3101     		.2byte	0x131
 1263 0969 6D090000 		.4byte	0x96d
 1264 096d 09       		.uleb128 0x9
 1265 096e 04       		.byte	0x4
 1266 096f 73090000 		.4byte	0x973
 1267 0973 13       		.uleb128 0x13
 1268 0974 7E090000 		.4byte	0x97e
 1269 0978 12       		.uleb128 0x12
 1270 0979 7E090000 		.4byte	0x97e
 1271 097d 00       		.byte	0
 1272 097e 09       		.uleb128 0x9
 1273 097f 04       		.byte	0x4
 1274 0980 42070000 		.4byte	0x742
 1275 0984 1B       		.uleb128 0x1b
 1276 0985 B0050000 		.4byte	.LASF133
 1277 0989 0D       		.byte	0xd
 1278 098a 3A01     		.2byte	0x13a
 1279 098c 90090000 		.4byte	0x990
 1280 0990 09       		.uleb128 0x9
 1281 0991 04       		.byte	0x4
 1282 0992 96090000 		.4byte	0x996
 1283 0996 13       		.uleb128 0x13
 1284 0997 A6090000 		.4byte	0x9a6
 1285 099b 12       		.uleb128 0x12
 1286 099c 7E090000 		.4byte	0x97e
 1287 09a0 12       		.uleb128 0x12
 1288 09a1 7A080000 		.4byte	0x87a
 1289 09a5 00       		.byte	0
 1290 09a6 1B       		.uleb128 0x1b
 1291 09a7 30030000 		.4byte	.LASF134
 1292 09ab 0D       		.byte	0xd
 1293 09ac 4301     		.2byte	0x143
 1294 09ae B2090000 		.4byte	0x9b2
 1295 09b2 09       		.uleb128 0x9
 1296 09b3 04       		.byte	0x4
 1297 09b4 B8090000 		.4byte	0x9b8
 1298 09b8 13       		.uleb128 0x13
 1299 09b9 C8090000 		.4byte	0x9c8
 1300 09bd 12       		.uleb128 0x12
 1301 09be 7E090000 		.4byte	0x97e
 1302 09c2 12       		.uleb128 0x12
 1303 09c3 25090000 		.4byte	0x925
 1304 09c7 00       		.byte	0
 1305 09c8 1B       		.uleb128 0x1b
 1306 09c9 E3080000 		.4byte	.LASF135
 1307 09cd 0D       		.byte	0xd
 1308 09ce 4F01     		.2byte	0x14f
 1309 09d0 D4090000 		.4byte	0x9d4
 1310 09d4 09       		.uleb128 0x9
 1311 09d5 04       		.byte	0x4
ARM GAS  /tmp/ccFW05b2.s 			page 24


 1312 09d6 DA090000 		.4byte	0x9da
 1313 09da 11       		.uleb128 0x11
 1314 09db E4000000 		.4byte	0xe4
 1315 09df E9090000 		.4byte	0x9e9
 1316 09e3 12       		.uleb128 0x12
 1317 09e4 7E090000 		.4byte	0x97e
 1318 09e8 00       		.byte	0
 1319 09e9 1B       		.uleb128 0x1b
 1320 09ea 34080000 		.4byte	.LASF136
 1321 09ee 0D       		.byte	0xd
 1322 09ef 5401     		.2byte	0x154
 1323 09f1 F5090000 		.4byte	0x9f5
 1324 09f5 09       		.uleb128 0x9
 1325 09f6 04       		.byte	0x4
 1326 09f7 FB090000 		.4byte	0x9fb
 1327 09fb 11       		.uleb128 0x11
 1328 09fc 190A0000 		.4byte	0xa19
 1329 0a00 190A0000 		.4byte	0xa19
 1330 0a04 12       		.uleb128 0x12
 1331 0a05 7E090000 		.4byte	0x97e
 1332 0a09 12       		.uleb128 0x12
 1333 0a0a AD000000 		.4byte	0xad
 1334 0a0e 12       		.uleb128 0x12
 1335 0a0f AD000000 		.4byte	0xad
 1336 0a13 12       		.uleb128 0x12
 1337 0a14 B8000000 		.4byte	0xb8
 1338 0a18 00       		.byte	0
 1339 0a19 09       		.uleb128 0x9
 1340 0a1a 04       		.byte	0x4
 1341 0a1b 1F0A0000 		.4byte	0xa1f
 1342 0a1f 10       		.uleb128 0x10
 1343 0a20 55090000 		.4byte	0x955
 1344 0a24 08       		.uleb128 0x8
 1345 0a25 20       		.byte	0x20
 1346 0a26 0F       		.byte	0xf
 1347 0a27 35       		.byte	0x35
 1348 0a28 8D0A0000 		.4byte	0xa8d
 1349 0a2c 06       		.uleb128 0x6
 1350 0a2d 94020000 		.4byte	.LASF137
 1351 0a31 0F       		.byte	0xf
 1352 0a32 36       		.byte	0x36
 1353 0a33 09040000 		.4byte	0x409
 1354 0a37 00       		.byte	0
 1355 0a38 06       		.uleb128 0x6
 1356 0a39 56000000 		.4byte	.LASF138
 1357 0a3d 0F       		.byte	0xf
 1358 0a3e 38       		.byte	0x38
 1359 0a3f 09040000 		.4byte	0x409
 1360 0a43 04       		.byte	0x4
 1361 0a44 06       		.uleb128 0x6
 1362 0a45 63070000 		.4byte	.LASF139
 1363 0a49 0F       		.byte	0xf
 1364 0a4a 39       		.byte	0x39
 1365 0a4b 09040000 		.4byte	0x409
 1366 0a4f 08       		.byte	0x8
 1367 0a50 06       		.uleb128 0x6
 1368 0a51 8D070000 		.4byte	.LASF140
ARM GAS  /tmp/ccFW05b2.s 			page 25


 1369 0a55 0F       		.byte	0xf
 1370 0a56 3A       		.byte	0x3a
 1371 0a57 09040000 		.4byte	0x409
 1372 0a5b 0C       		.byte	0xc
 1373 0a5c 06       		.uleb128 0x6
 1374 0a5d 6A000000 		.4byte	.LASF141
 1375 0a61 0F       		.byte	0xf
 1376 0a62 3C       		.byte	0x3c
 1377 0a63 09040000 		.4byte	0x409
 1378 0a67 10       		.byte	0x10
 1379 0a68 06       		.uleb128 0x6
 1380 0a69 9B080000 		.4byte	.LASF142
 1381 0a6d 0F       		.byte	0xf
 1382 0a6e 3E       		.byte	0x3e
 1383 0a6f 09040000 		.4byte	0x409
 1384 0a73 14       		.byte	0x14
 1385 0a74 06       		.uleb128 0x6
 1386 0a75 A3080000 		.4byte	.LASF143
 1387 0a79 0F       		.byte	0xf
 1388 0a7a 3F       		.byte	0x3f
 1389 0a7b 09040000 		.4byte	0x409
 1390 0a7f 18       		.byte	0x18
 1391 0a80 06       		.uleb128 0x6
 1392 0a81 DB080000 		.4byte	.LASF144
 1393 0a85 0F       		.byte	0xf
 1394 0a86 40       		.byte	0x40
 1395 0a87 09040000 		.4byte	0x409
 1396 0a8b 1C       		.byte	0x1c
 1397 0a8c 00       		.byte	0
 1398 0a8d 03       		.uleb128 0x3
 1399 0a8e 3D030000 		.4byte	.LASF145
 1400 0a92 0F       		.byte	0xf
 1401 0a93 41       		.byte	0x41
 1402 0a94 240A0000 		.4byte	0xa24
 1403 0a98 08       		.uleb128 0x8
 1404 0a99 20       		.byte	0x20
 1405 0a9a 0F       		.byte	0xf
 1406 0a9b 46       		.byte	0x46
 1407 0a9c 010B0000 		.4byte	0xb01
 1408 0aa0 06       		.uleb128 0x6
 1409 0aa1 F3080000 		.4byte	.LASF146
 1410 0aa5 0F       		.byte	0xf
 1411 0aa6 47       		.byte	0x47
 1412 0aa7 09040000 		.4byte	0x409
 1413 0aab 00       		.byte	0
 1414 0aac 06       		.uleb128 0x6
 1415 0aad 4F000000 		.4byte	.LASF147
 1416 0ab1 0F       		.byte	0xf
 1417 0ab2 49       		.byte	0x49
 1418 0ab3 09040000 		.4byte	0x409
 1419 0ab7 04       		.byte	0x4
 1420 0ab8 06       		.uleb128 0x6
 1421 0ab9 18090000 		.4byte	.LASF148
 1422 0abd 0F       		.byte	0xf
 1423 0abe 4A       		.byte	0x4a
 1424 0abf 09040000 		.4byte	0x409
 1425 0ac3 08       		.byte	0x8
ARM GAS  /tmp/ccFW05b2.s 			page 26


 1426 0ac4 06       		.uleb128 0x6
 1427 0ac5 5D000000 		.4byte	.LASF149
 1428 0ac9 0F       		.byte	0xf
 1429 0aca 4C       		.byte	0x4c
 1430 0acb 09040000 		.4byte	0x409
 1431 0acf 0C       		.byte	0xc
 1432 0ad0 06       		.uleb128 0x6
 1433 0ad1 6F020000 		.4byte	.LASF150
 1434 0ad5 0F       		.byte	0xf
 1435 0ad6 4D       		.byte	0x4d
 1436 0ad7 09040000 		.4byte	0x409
 1437 0adb 10       		.byte	0x10
 1438 0adc 06       		.uleb128 0x6
 1439 0add 9B080000 		.4byte	.LASF142
 1440 0ae1 0F       		.byte	0xf
 1441 0ae2 4F       		.byte	0x4f
 1442 0ae3 09040000 		.4byte	0x409
 1443 0ae7 14       		.byte	0x14
 1444 0ae8 06       		.uleb128 0x6
 1445 0ae9 AB080000 		.4byte	.LASF151
 1446 0aed 0F       		.byte	0xf
 1447 0aee 50       		.byte	0x50
 1448 0aef 09040000 		.4byte	0x409
 1449 0af3 18       		.byte	0x18
 1450 0af4 06       		.uleb128 0x6
 1451 0af5 BB080000 		.4byte	.LASF152
 1452 0af9 0F       		.byte	0xf
 1453 0afa 52       		.byte	0x52
 1454 0afb 09040000 		.4byte	0x409
 1455 0aff 1C       		.byte	0x1c
 1456 0b00 00       		.byte	0
 1457 0b01 03       		.uleb128 0x3
 1458 0b02 D1070000 		.4byte	.LASF153
 1459 0b06 0F       		.byte	0xf
 1460 0b07 53       		.byte	0x53
 1461 0b08 980A0000 		.4byte	0xa98
 1462 0b0c 08       		.uleb128 0x8
 1463 0b0d 20       		.byte	0x20
 1464 0b0e 0F       		.byte	0xf
 1465 0b0f 58       		.byte	0x58
 1466 0b10 750B0000 		.4byte	0xb75
 1467 0b14 06       		.uleb128 0x6
 1468 0b15 CA010000 		.4byte	.LASF154
 1469 0b19 0F       		.byte	0xf
 1470 0b1a 59       		.byte	0x59
 1471 0b1b 09040000 		.4byte	0x409
 1472 0b1f 00       		.byte	0
 1473 0b20 06       		.uleb128 0x6
 1474 0b21 4F000000 		.4byte	.LASF147
 1475 0b25 0F       		.byte	0xf
 1476 0b26 5B       		.byte	0x5b
 1477 0b27 09040000 		.4byte	0x409
 1478 0b2b 04       		.byte	0x4
 1479 0b2c 06       		.uleb128 0x6
 1480 0b2d 15020000 		.4byte	.LASF155
 1481 0b31 0F       		.byte	0xf
 1482 0b32 5C       		.byte	0x5c
ARM GAS  /tmp/ccFW05b2.s 			page 27


 1483 0b33 09040000 		.4byte	0x409
 1484 0b37 08       		.byte	0x8
 1485 0b38 06       		.uleb128 0x6
 1486 0b39 5D000000 		.4byte	.LASF149
 1487 0b3d 0F       		.byte	0xf
 1488 0b3e 5E       		.byte	0x5e
 1489 0b3f 09040000 		.4byte	0x409
 1490 0b43 0C       		.byte	0xc
 1491 0b44 06       		.uleb128 0x6
 1492 0b45 0A060000 		.4byte	.LASF156
 1493 0b49 0F       		.byte	0xf
 1494 0b4a 5F       		.byte	0x5f
 1495 0b4b 09040000 		.4byte	0x409
 1496 0b4f 10       		.byte	0x10
 1497 0b50 06       		.uleb128 0x6
 1498 0b51 9B080000 		.4byte	.LASF142
 1499 0b55 0F       		.byte	0xf
 1500 0b56 61       		.byte	0x61
 1501 0b57 09040000 		.4byte	0x409
 1502 0b5b 14       		.byte	0x14
 1503 0b5c 06       		.uleb128 0x6
 1504 0b5d A3080000 		.4byte	.LASF143
 1505 0b61 0F       		.byte	0xf
 1506 0b62 62       		.byte	0x62
 1507 0b63 09040000 		.4byte	0x409
 1508 0b67 18       		.byte	0x18
 1509 0b68 06       		.uleb128 0x6
 1510 0b69 BB080000 		.4byte	.LASF152
 1511 0b6d 0F       		.byte	0xf
 1512 0b6e 63       		.byte	0x63
 1513 0b6f 09040000 		.4byte	0x409
 1514 0b73 1C       		.byte	0x1c
 1515 0b74 00       		.byte	0
 1516 0b75 03       		.uleb128 0x3
 1517 0b76 9B020000 		.4byte	.LASF157
 1518 0b7a 0F       		.byte	0xf
 1519 0b7b 64       		.byte	0x64
 1520 0b7c 0C0B0000 		.4byte	0xb0c
 1521 0b80 1D       		.uleb128 0x1d
 1522 0b81 00100100 		.4byte	0x11000
 1523 0b85 0F       		.byte	0xf
 1524 0b86 69       		.byte	0x69
 1525 0b87 5D0E0000 		.4byte	0xe5d
 1526 0b8b 06       		.uleb128 0x6
 1527 0b8c 0B050000 		.4byte	.LASF158
 1528 0b90 0F       		.byte	0xf
 1529 0b91 6A       		.byte	0x6a
 1530 0b92 09040000 		.4byte	0x409
 1531 0b96 00       		.byte	0
 1532 0b97 06       		.uleb128 0x6
 1533 0b98 A9070000 		.4byte	.LASF159
 1534 0b9c 0F       		.byte	0xf
 1535 0b9d 6B       		.byte	0x6b
 1536 0b9e 09040000 		.4byte	0x409
 1537 0ba2 04       		.byte	0x4
 1538 0ba3 06       		.uleb128 0x6
 1539 0ba4 97040000 		.4byte	.LASF160
ARM GAS  /tmp/ccFW05b2.s 			page 28


 1540 0ba8 0F       		.byte	0xf
 1541 0ba9 6C       		.byte	0x6c
 1542 0baa 09040000 		.4byte	0x409
 1543 0bae 08       		.byte	0x8
 1544 0baf 06       		.uleb128 0x6
 1545 0bb0 5E0B0000 		.4byte	.LASF161
 1546 0bb4 0F       		.byte	0xf
 1547 0bb5 6D       		.byte	0x6d
 1548 0bb6 09040000 		.4byte	0x409
 1549 0bba 0C       		.byte	0xc
 1550 0bbb 06       		.uleb128 0x6
 1551 0bbc DE030000 		.4byte	.LASF162
 1552 0bc0 0F       		.byte	0xf
 1553 0bc1 6E       		.byte	0x6e
 1554 0bc2 09040000 		.4byte	0x409
 1555 0bc6 10       		.byte	0x10
 1556 0bc7 06       		.uleb128 0x6
 1557 0bc8 10090000 		.4byte	.LASF163
 1558 0bcc 0F       		.byte	0xf
 1559 0bcd 6F       		.byte	0x6f
 1560 0bce 09040000 		.4byte	0x409
 1561 0bd2 14       		.byte	0x14
 1562 0bd3 06       		.uleb128 0x6
 1563 0bd4 AC060000 		.4byte	.LASF164
 1564 0bd8 0F       		.byte	0xf
 1565 0bd9 70       		.byte	0x70
 1566 0bda 09040000 		.4byte	0x409
 1567 0bde 18       		.byte	0x18
 1568 0bdf 06       		.uleb128 0x6
 1569 0be0 34050000 		.4byte	.LASF165
 1570 0be4 0F       		.byte	0xf
 1571 0be5 71       		.byte	0x71
 1572 0be6 09040000 		.4byte	0x409
 1573 0bea 1C       		.byte	0x1c
 1574 0beb 06       		.uleb128 0x6
 1575 0bec 23050000 		.4byte	.LASF166
 1576 0bf0 0F       		.byte	0xf
 1577 0bf1 73       		.byte	0x73
 1578 0bf2 09040000 		.4byte	0x409
 1579 0bf6 20       		.byte	0x20
 1580 0bf7 06       		.uleb128 0x6
 1581 0bf8 1D040000 		.4byte	.LASF167
 1582 0bfc 0F       		.byte	0xf
 1583 0bfd 75       		.byte	0x75
 1584 0bfe 09040000 		.4byte	0x409
 1585 0c02 24       		.byte	0x24
 1586 0c03 06       		.uleb128 0x6
 1587 0c04 14010000 		.4byte	.LASF168
 1588 0c08 0F       		.byte	0xf
 1589 0c09 76       		.byte	0x76
 1590 0c0a 09040000 		.4byte	0x409
 1591 0c0e 28       		.byte	0x28
 1592 0c0f 06       		.uleb128 0x6
 1593 0c10 190A0000 		.4byte	.LASF169
 1594 0c14 0F       		.byte	0xf
 1595 0c15 78       		.byte	0x78
 1596 0c16 09040000 		.4byte	0x409
ARM GAS  /tmp/ccFW05b2.s 			page 29


 1597 0c1a 2C       		.byte	0x2c
 1598 0c1b 06       		.uleb128 0x6
 1599 0c1c 370A0000 		.4byte	.LASF170
 1600 0c20 0F       		.byte	0xf
 1601 0c21 7A       		.byte	0x7a
 1602 0c22 09040000 		.4byte	0x409
 1603 0c26 30       		.byte	0x30
 1604 0c27 06       		.uleb128 0x6
 1605 0c28 480A0000 		.4byte	.LASF171
 1606 0c2c 0F       		.byte	0xf
 1607 0c2d 7B       		.byte	0x7b
 1608 0c2e 09040000 		.4byte	0x409
 1609 0c32 34       		.byte	0x34
 1610 0c33 06       		.uleb128 0x6
 1611 0c34 60020000 		.4byte	.LASF172
 1612 0c38 0F       		.byte	0xf
 1613 0c39 7C       		.byte	0x7c
 1614 0c3a 09040000 		.4byte	0x409
 1615 0c3e 38       		.byte	0x38
 1616 0c3f 07       		.uleb128 0x7
 1617 0c40 43494400 		.ascii	"CID\000"
 1618 0c44 0F       		.byte	0xf
 1619 0c45 7D       		.byte	0x7d
 1620 0c46 09040000 		.4byte	0x409
 1621 0c4a 3C       		.byte	0x3c
 1622 0c4b 06       		.uleb128 0x6
 1623 0c4c 0B0B0000 		.4byte	.LASF173
 1624 0c50 0F       		.byte	0xf
 1625 0c51 7E       		.byte	0x7e
 1626 0c52 6D0E0000 		.4byte	0xe6d
 1627 0c56 40       		.byte	0x40
 1628 0c57 1E       		.uleb128 0x1e
 1629 0c58 34070000 		.4byte	.LASF174
 1630 0c5c 0F       		.byte	0xf
 1631 0c5d 7F       		.byte	0x7f
 1632 0c5e 09040000 		.4byte	0x409
 1633 0c62 0001     		.2byte	0x100
 1634 0c64 1E       		.uleb128 0x1e
 1635 0c65 65040000 		.4byte	.LASF175
 1636 0c69 0F       		.byte	0xf
 1637 0c6a 81       		.byte	0x81
 1638 0c6b 720E0000 		.4byte	0xe72
 1639 0c6f 0401     		.2byte	0x104
 1640 0c71 1E       		.uleb128 0x1e
 1641 0c72 710B0000 		.4byte	.LASF176
 1642 0c76 0F       		.byte	0xf
 1643 0c77 83       		.byte	0x83
 1644 0c78 870E0000 		.4byte	0xe87
 1645 0c7c 4001     		.2byte	0x140
 1646 0c7e 1E       		.uleb128 0x1e
 1647 0c7f 8F020000 		.4byte	.LASF177
 1648 0c83 0F       		.byte	0xf
 1649 0c84 84       		.byte	0x84
 1650 0c85 09040000 		.4byte	0x409
 1651 0c89 0004     		.2byte	0x400
 1652 0c8b 1E       		.uleb128 0x1e
 1653 0c8c 270B0000 		.4byte	.LASF178
ARM GAS  /tmp/ccFW05b2.s 			page 30


 1654 0c90 0F       		.byte	0xf
 1655 0c91 85       		.byte	0x85
 1656 0c92 09040000 		.4byte	0x409
 1657 0c96 0404     		.2byte	0x404
 1658 0c98 1E       		.uleb128 0x1e
 1659 0c99 2A030000 		.4byte	.LASF179
 1660 0c9d 0F       		.byte	0xf
 1661 0c9e 86       		.byte	0x86
 1662 0c9f 09040000 		.4byte	0x409
 1663 0ca3 0804     		.2byte	0x408
 1664 0ca5 1E       		.uleb128 0x1e
 1665 0ca6 02050000 		.4byte	.LASF180
 1666 0caa 0F       		.byte	0xf
 1667 0cab 88       		.byte	0x88
 1668 0cac 09040000 		.4byte	0x409
 1669 0cb0 0C04     		.2byte	0x40c
 1670 0cb2 1E       		.uleb128 0x1e
 1671 0cb3 FB0A0000 		.4byte	.LASF181
 1672 0cb7 0F       		.byte	0xf
 1673 0cb8 89       		.byte	0x89
 1674 0cb9 09040000 		.4byte	0x409
 1675 0cbd 1004     		.2byte	0x410
 1676 0cbf 1E       		.uleb128 0x1e
 1677 0cc0 18060000 		.4byte	.LASF182
 1678 0cc4 0F       		.byte	0xf
 1679 0cc5 8B       		.byte	0x8b
 1680 0cc6 09040000 		.4byte	0x409
 1681 0cca 1404     		.2byte	0x414
 1682 0ccc 1E       		.uleb128 0x1e
 1683 0ccd 8C060000 		.4byte	.LASF183
 1684 0cd1 0F       		.byte	0xf
 1685 0cd2 8D       		.byte	0x8d
 1686 0cd3 09040000 		.4byte	0x409
 1687 0cd7 1804     		.2byte	0x418
 1688 0cd9 1E       		.uleb128 0x1e
 1689 0cda 8F050000 		.4byte	.LASF184
 1690 0cde 0F       		.byte	0xf
 1691 0cdf 8F       		.byte	0x8f
 1692 0ce0 9C0E0000 		.4byte	0xe9c
 1693 0ce4 1C04     		.2byte	0x41c
 1694 0ce6 1E       		.uleb128 0x1e
 1695 0ce7 D3020000 		.4byte	.LASF185
 1696 0ceb 0F       		.byte	0xf
 1697 0cec 90       		.byte	0x90
 1698 0ced 09040000 		.4byte	0x409
 1699 0cf1 4004     		.2byte	0x440
 1700 0cf3 1E       		.uleb128 0x1e
 1701 0cf4 72060000 		.4byte	.LASF186
 1702 0cf8 0F       		.byte	0xf
 1703 0cf9 92       		.byte	0x92
 1704 0cfa B10E0000 		.4byte	0xeb1
 1705 0cfe 4404     		.2byte	0x444
 1706 0d00 1F       		.uleb128 0x1f
 1707 0d01 686300   		.ascii	"hc\000"
 1708 0d04 0F       		.byte	0xf
 1709 0d05 93       		.byte	0x93
 1710 0d06 B60E0000 		.4byte	0xeb6
ARM GAS  /tmp/ccFW05b2.s 			page 31


 1711 0d0a 0005     		.2byte	0x500
 1712 0d0c 1E       		.uleb128 0x1e
 1713 0d0d 86000000 		.4byte	.LASF187
 1714 0d11 0F       		.byte	0xf
 1715 0d12 94       		.byte	0x94
 1716 0d13 D60E0000 		.4byte	0xed6
 1717 0d17 0007     		.2byte	0x700
 1718 0d19 1E       		.uleb128 0x1e
 1719 0d1a 5B020000 		.4byte	.LASF188
 1720 0d1e 0F       		.byte	0xf
 1721 0d1f 95       		.byte	0x95
 1722 0d20 09040000 		.4byte	0x409
 1723 0d24 0008     		.2byte	0x800
 1724 0d26 1E       		.uleb128 0x1e
 1725 0d27 76070000 		.4byte	.LASF189
 1726 0d2b 0F       		.byte	0xf
 1727 0d2c 96       		.byte	0x96
 1728 0d2d 09040000 		.4byte	0x409
 1729 0d31 0408     		.2byte	0x804
 1730 0d33 1E       		.uleb128 0x1e
 1731 0d34 9F0A0000 		.4byte	.LASF190
 1732 0d38 0F       		.byte	0xf
 1733 0d39 97       		.byte	0x97
 1734 0d3a 09040000 		.4byte	0x409
 1735 0d3e 0808     		.2byte	0x808
 1736 0d40 1E       		.uleb128 0x1e
 1737 0d41 B8020000 		.4byte	.LASF191
 1738 0d45 0F       		.byte	0xf
 1739 0d46 98       		.byte	0x98
 1740 0d47 09040000 		.4byte	0x409
 1741 0d4b 0C08     		.2byte	0x80c
 1742 0d4d 1E       		.uleb128 0x1e
 1743 0d4e C3080000 		.4byte	.LASF192
 1744 0d52 0F       		.byte	0xf
 1745 0d53 99       		.byte	0x99
 1746 0d54 09040000 		.4byte	0x409
 1747 0d58 1008     		.2byte	0x810
 1748 0d5a 1E       		.uleb128 0x1e
 1749 0d5b C2010000 		.4byte	.LASF193
 1750 0d5f 0F       		.byte	0xf
 1751 0d60 9B       		.byte	0x9b
 1752 0d61 09040000 		.4byte	0x409
 1753 0d65 1408     		.2byte	0x814
 1754 0d67 1E       		.uleb128 0x1e
 1755 0d68 A6010000 		.4byte	.LASF194
 1756 0d6c 0F       		.byte	0xf
 1757 0d6d 9D       		.byte	0x9d
 1758 0d6e 09040000 		.4byte	0x409
 1759 0d72 1808     		.2byte	0x818
 1760 0d74 1E       		.uleb128 0x1e
 1761 0d75 BF070000 		.4byte	.LASF195
 1762 0d79 0F       		.byte	0xf
 1763 0d7a 9F       		.byte	0x9f
 1764 0d7b 09040000 		.4byte	0x409
 1765 0d7f 1C08     		.2byte	0x81c
 1766 0d81 1E       		.uleb128 0x1e
 1767 0d82 72030000 		.4byte	.LASF196
ARM GAS  /tmp/ccFW05b2.s 			page 32


 1768 0d86 0F       		.byte	0xf
 1769 0d87 A1       		.byte	0xa1
 1770 0d88 09040000 		.4byte	0x409
 1771 0d8c 2008     		.2byte	0x820
 1772 0d8e 1E       		.uleb128 0x1e
 1773 0d8f 7B030000 		.4byte	.LASF197
 1774 0d93 0F       		.byte	0xf
 1775 0d94 A2       		.byte	0xa2
 1776 0d95 09040000 		.4byte	0x409
 1777 0d99 2408     		.2byte	0x824
 1778 0d9b 1E       		.uleb128 0x1e
 1779 0d9c C8070000 		.4byte	.LASF198
 1780 0da0 0F       		.byte	0xf
 1781 0da1 A3       		.byte	0xa3
 1782 0da2 09040000 		.4byte	0x409
 1783 0da6 2808     		.2byte	0x828
 1784 0da8 1E       		.uleb128 0x1e
 1785 0da9 84030000 		.4byte	.LASF199
 1786 0dad 0F       		.byte	0xf
 1787 0dae A5       		.byte	0xa5
 1788 0daf 09040000 		.4byte	0x409
 1789 0db3 2C08     		.2byte	0x82c
 1790 0db5 1E       		.uleb128 0x1e
 1791 0db6 A7050000 		.4byte	.LASF200
 1792 0dba 0F       		.byte	0xf
 1793 0dbb A7       		.byte	0xa7
 1794 0dbc 09040000 		.4byte	0x409
 1795 0dc0 3008     		.2byte	0x830
 1796 0dc2 1E       		.uleb128 0x1e
 1797 0dc3 9A030000 		.4byte	.LASF201
 1798 0dc7 0F       		.byte	0xf
 1799 0dc8 A8       		.byte	0xa8
 1800 0dc9 09040000 		.4byte	0x409
 1801 0dcd 3408     		.2byte	0x834
 1802 0dcf 1E       		.uleb128 0x1e
 1803 0dd0 F1030000 		.4byte	.LASF202
 1804 0dd4 0F       		.byte	0xf
 1805 0dd5 AA       		.byte	0xaa
 1806 0dd6 09040000 		.4byte	0x409
 1807 0dda 3808     		.2byte	0x838
 1808 0ddc 1E       		.uleb128 0x1e
 1809 0ddd DF050000 		.4byte	.LASF203
 1810 0de1 0F       		.byte	0xf
 1811 0de2 AB       		.byte	0xab
 1812 0de3 09040000 		.4byte	0x409
 1813 0de7 3C08     		.2byte	0x83c
 1814 0de9 1E       		.uleb128 0x1e
 1815 0dea 37040000 		.4byte	.LASF204
 1816 0dee 0F       		.byte	0xf
 1817 0def AC       		.byte	0xac
 1818 0df0 EB0E0000 		.4byte	0xeeb
 1819 0df4 4008     		.2byte	0x840
 1820 0df6 1E       		.uleb128 0x1e
 1821 0df7 C9050000 		.4byte	.LASF205
 1822 0dfb 0F       		.byte	0xf
 1823 0dfc AD       		.byte	0xad
 1824 0dfd F00E0000 		.4byte	0xef0
ARM GAS  /tmp/ccFW05b2.s 			page 33


 1825 0e01 8008     		.2byte	0x880
 1826 0e03 1E       		.uleb128 0x1e
 1827 0e04 3F0A0000 		.4byte	.LASF206
 1828 0e08 0F       		.byte	0xf
 1829 0e09 AE       		.byte	0xae
 1830 0e0a F50E0000 		.4byte	0xef5
 1831 0e0e C008     		.2byte	0x8c0
 1832 0e10 1F       		.uleb128 0x1f
 1833 0e11 696500   		.ascii	"ie\000"
 1834 0e14 0F       		.byte	0xf
 1835 0e15 AF       		.byte	0xaf
 1836 0e16 FA0E0000 		.4byte	0xefa
 1837 0e1a 0009     		.2byte	0x900
 1838 0e1c 1F       		.uleb128 0x1f
 1839 0e1d 6F6500   		.ascii	"oe\000"
 1840 0e20 0F       		.byte	0xf
 1841 0e21 B0       		.byte	0xb0
 1842 0e22 0A0F0000 		.4byte	0xf0a
 1843 0e26 000B     		.2byte	0xb00
 1844 0e28 1E       		.uleb128 0x1e
 1845 0e29 14070000 		.4byte	.LASF207
 1846 0e2d 0F       		.byte	0xf
 1847 0e2e B1       		.byte	0xb1
 1848 0e2f 1A0F0000 		.4byte	0xf1a
 1849 0e33 000D     		.2byte	0xd00
 1850 0e35 1E       		.uleb128 0x1e
 1851 0e36 4D050000 		.4byte	.LASF208
 1852 0e3a 0F       		.byte	0xf
 1853 0e3b B2       		.byte	0xb2
 1854 0e3c 09040000 		.4byte	0x409
 1855 0e40 000E     		.2byte	0xe00
 1856 0e42 1E       		.uleb128 0x1e
 1857 0e43 5D060000 		.4byte	.LASF209
 1858 0e47 0F       		.byte	0xf
 1859 0e48 B4       		.byte	0xb4
 1860 0e49 2F0F0000 		.4byte	0xf2f
 1861 0e4d 040E     		.2byte	0xe04
 1862 0e4f 1E       		.uleb128 0x1e
 1863 0e50 05080000 		.4byte	.LASF210
 1864 0e54 0F       		.byte	0xf
 1865 0e55 B5       		.byte	0xb5
 1866 0e56 4B0F0000 		.4byte	0xf4b
 1867 0e5a 0010     		.2byte	0x1000
 1868 0e5c 00       		.byte	0
 1869 0e5d 14       		.uleb128 0x14
 1870 0e5e CE000000 		.4byte	0xce
 1871 0e62 6D0E0000 		.4byte	0xe6d
 1872 0e66 15       		.uleb128 0x15
 1873 0e67 0E040000 		.4byte	0x40e
 1874 0e6b 2F       		.byte	0x2f
 1875 0e6c 00       		.byte	0
 1876 0e6d 0D       		.uleb128 0xd
 1877 0e6e 5D0E0000 		.4byte	0xe5d
 1878 0e72 0D       		.uleb128 0xd
 1879 0e73 AC060000 		.4byte	0x6ac
 1880 0e77 14       		.uleb128 0x14
 1881 0e78 CE000000 		.4byte	0xce
ARM GAS  /tmp/ccFW05b2.s 			page 34


 1882 0e7c 870E0000 		.4byte	0xe87
 1883 0e80 15       		.uleb128 0x15
 1884 0e81 0E040000 		.4byte	0x40e
 1885 0e85 AF       		.byte	0xaf
 1886 0e86 00       		.byte	0
 1887 0e87 0D       		.uleb128 0xd
 1888 0e88 770E0000 		.4byte	0xe77
 1889 0e8c 14       		.uleb128 0x14
 1890 0e8d CE000000 		.4byte	0xce
 1891 0e91 9C0E0000 		.4byte	0xe9c
 1892 0e95 15       		.uleb128 0x15
 1893 0e96 0E040000 		.4byte	0x40e
 1894 0e9a 08       		.byte	0x8
 1895 0e9b 00       		.byte	0
 1896 0e9c 0D       		.uleb128 0xd
 1897 0e9d 8C0E0000 		.4byte	0xe8c
 1898 0ea1 14       		.uleb128 0x14
 1899 0ea2 CE000000 		.4byte	0xce
 1900 0ea6 B10E0000 		.4byte	0xeb1
 1901 0eaa 15       		.uleb128 0x15
 1902 0eab 0E040000 		.4byte	0x40e
 1903 0eaf 2E       		.byte	0x2e
 1904 0eb0 00       		.byte	0
 1905 0eb1 0D       		.uleb128 0xd
 1906 0eb2 A10E0000 		.4byte	0xea1
 1907 0eb6 14       		.uleb128 0x14
 1908 0eb7 8D0A0000 		.4byte	0xa8d
 1909 0ebb C60E0000 		.4byte	0xec6
 1910 0ebf 15       		.uleb128 0x15
 1911 0ec0 0E040000 		.4byte	0x40e
 1912 0ec4 0F       		.byte	0xf
 1913 0ec5 00       		.byte	0
 1914 0ec6 14       		.uleb128 0x14
 1915 0ec7 CE000000 		.4byte	0xce
 1916 0ecb D60E0000 		.4byte	0xed6
 1917 0ecf 15       		.uleb128 0x15
 1918 0ed0 0E040000 		.4byte	0x40e
 1919 0ed4 3F       		.byte	0x3f
 1920 0ed5 00       		.byte	0
 1921 0ed6 0D       		.uleb128 0xd
 1922 0ed7 C60E0000 		.4byte	0xec6
 1923 0edb 14       		.uleb128 0x14
 1924 0edc CE000000 		.4byte	0xce
 1925 0ee0 EB0E0000 		.4byte	0xeeb
 1926 0ee4 15       		.uleb128 0x15
 1927 0ee5 0E040000 		.4byte	0x40e
 1928 0ee9 0F       		.byte	0xf
 1929 0eea 00       		.byte	0
 1930 0eeb 0D       		.uleb128 0xd
 1931 0eec DB0E0000 		.4byte	0xedb
 1932 0ef0 0D       		.uleb128 0xd
 1933 0ef1 DB0E0000 		.4byte	0xedb
 1934 0ef5 0D       		.uleb128 0xd
 1935 0ef6 DB0E0000 		.4byte	0xedb
 1936 0efa 14       		.uleb128 0x14
 1937 0efb 010B0000 		.4byte	0xb01
 1938 0eff 0A0F0000 		.4byte	0xf0a
ARM GAS  /tmp/ccFW05b2.s 			page 35


 1939 0f03 15       		.uleb128 0x15
 1940 0f04 0E040000 		.4byte	0x40e
 1941 0f08 0F       		.byte	0xf
 1942 0f09 00       		.byte	0
 1943 0f0a 14       		.uleb128 0x14
 1944 0f0b 750B0000 		.4byte	0xb75
 1945 0f0f 1A0F0000 		.4byte	0xf1a
 1946 0f13 15       		.uleb128 0x15
 1947 0f14 0E040000 		.4byte	0x40e
 1948 0f18 0F       		.byte	0xf
 1949 0f19 00       		.byte	0
 1950 0f1a 0D       		.uleb128 0xd
 1951 0f1b C60E0000 		.4byte	0xec6
 1952 0f1f 14       		.uleb128 0x14
 1953 0f20 CE000000 		.4byte	0xce
 1954 0f24 2F0F0000 		.4byte	0xf2f
 1955 0f28 15       		.uleb128 0x15
 1956 0f29 0E040000 		.4byte	0x40e
 1957 0f2d 7E       		.byte	0x7e
 1958 0f2e 00       		.byte	0
 1959 0f2f 0D       		.uleb128 0xd
 1960 0f30 1F0F0000 		.4byte	0xf1f
 1961 0f34 14       		.uleb128 0x14
 1962 0f35 CE000000 		.4byte	0xce
 1963 0f39 4B0F0000 		.4byte	0xf4b
 1964 0f3d 15       		.uleb128 0x15
 1965 0f3e 0E040000 		.4byte	0x40e
 1966 0f42 0F       		.byte	0xf
 1967 0f43 20       		.uleb128 0x20
 1968 0f44 0E040000 		.4byte	0x40e
 1969 0f48 FF03     		.2byte	0x3ff
 1970 0f4a 00       		.byte	0
 1971 0f4b 0D       		.uleb128 0xd
 1972 0f4c 340F0000 		.4byte	0xf34
 1973 0f50 03       		.uleb128 0x3
 1974 0f51 47060000 		.4byte	.LASF211
 1975 0f55 0F       		.byte	0xf
 1976 0f56 B6       		.byte	0xb6
 1977 0f57 800B0000 		.4byte	0xb80
 1978 0f5b 08       		.uleb128 0x8
 1979 0f5c 0C       		.byte	0xc
 1980 0f5d 0E       		.byte	0xe
 1981 0f5e C6       		.byte	0xc6
 1982 0f5f 880F0000 		.4byte	0xf88
 1983 0f63 06       		.uleb128 0x6
 1984 0f64 33000000 		.4byte	.LASF212
 1985 0f68 0E       		.byte	0xe
 1986 0f69 C7       		.byte	0xc7
 1987 0f6a CE000000 		.4byte	0xce
 1988 0f6e 00       		.byte	0
 1989 0f6f 06       		.uleb128 0x6
 1990 0f70 E3070000 		.4byte	.LASF213
 1991 0f74 0E       		.byte	0xe
 1992 0f75 C8       		.byte	0xc8
 1993 0f76 CE000000 		.4byte	0xce
 1994 0f7a 04       		.byte	0x4
 1995 0f7b 06       		.uleb128 0x6
ARM GAS  /tmp/ccFW05b2.s 			page 36


 1996 0f7c C3040000 		.4byte	.LASF214
 1997 0f80 0E       		.byte	0xe
 1998 0f81 C9       		.byte	0xc9
 1999 0f82 CE000000 		.4byte	0xce
 2000 0f86 08       		.byte	0x8
 2001 0f87 00       		.byte	0
 2002 0f88 03       		.uleb128 0x3
 2003 0f89 B3030000 		.4byte	.LASF215
 2004 0f8d 0E       		.byte	0xe
 2005 0f8e CA       		.byte	0xca
 2006 0f8f 5B0F0000 		.4byte	0xf5b
 2007 0f93 08       		.uleb128 0x8
 2008 0f94 04       		.byte	0x4
 2009 0f95 0E       		.byte	0xe
 2010 0f96 DD       		.byte	0xdd
 2011 0f97 A80F0000 		.4byte	0xfa8
 2012 0f9b 06       		.uleb128 0x6
 2013 0f9c 86010000 		.4byte	.LASF216
 2014 0fa0 0E       		.byte	0xe
 2015 0fa1 E1       		.byte	0xe1
 2016 0fa2 37060000 		.4byte	0x637
 2017 0fa6 00       		.byte	0
 2018 0fa7 00       		.byte	0
 2019 0fa8 08       		.uleb128 0x8
 2020 0fa9 04       		.byte	0x4
 2021 0faa 0E       		.byte	0xe
 2022 0fab E3       		.byte	0xe3
 2023 0fac BD0F0000 		.4byte	0xfbd
 2024 0fb0 06       		.uleb128 0x6
 2025 0fb1 B3080000 		.4byte	.LASF217
 2026 0fb5 0E       		.byte	0xe
 2027 0fb6 E7       		.byte	0xe7
 2028 0fb7 BD0F0000 		.4byte	0xfbd
 2029 0fbb 00       		.byte	0
 2030 0fbc 00       		.byte	0
 2031 0fbd 09       		.uleb128 0x9
 2032 0fbe 04       		.byte	0x4
 2033 0fbf D6050000 		.4byte	0x5d6
 2034 0fc3 0E       		.uleb128 0xe
 2035 0fc4 04       		.byte	0x4
 2036 0fc5 0E       		.byte	0xe
 2037 0fc6 DC       		.byte	0xdc
 2038 0fc7 E20F0000 		.4byte	0xfe2
 2039 0fcb 0F       		.uleb128 0xf
 2040 0fcc 69070000 		.4byte	.LASF218
 2041 0fd0 0E       		.byte	0xe
 2042 0fd1 E2       		.byte	0xe2
 2043 0fd2 930F0000 		.4byte	0xf93
 2044 0fd6 0F       		.uleb128 0xf
 2045 0fd7 B1070000 		.4byte	.LASF219
 2046 0fdb 0E       		.byte	0xe
 2047 0fdc E8       		.byte	0xe8
 2048 0fdd A80F0000 		.4byte	0xfa8
 2049 0fe1 00       		.byte	0
 2050 0fe2 08       		.uleb128 0x8
 2051 0fe3 14       		.byte	0x14
 2052 0fe4 0E       		.byte	0xe
ARM GAS  /tmp/ccFW05b2.s 			page 37


 2053 0fe5 CF       		.byte	0xcf
 2054 0fe6 27100000 		.4byte	0x1027
 2055 0fea 06       		.uleb128 0x6
 2056 0feb 550B0000 		.4byte	.LASF220
 2057 0fef 0E       		.byte	0xe
 2058 0ff0 D3       		.byte	0xd3
 2059 0ff1 E4000000 		.4byte	0xe4
 2060 0ff5 00       		.byte	0
 2061 0ff6 06       		.uleb128 0x6
 2062 0ff7 D9040000 		.4byte	.LASF221
 2063 0ffb 0E       		.byte	0xe
 2064 0ffc D7       		.byte	0xd7
 2065 0ffd 2C000000 		.4byte	0x2c
 2066 1001 04       		.byte	0x4
 2067 1002 06       		.uleb128 0x6
 2068 1003 46010000 		.4byte	.LASF222
 2069 1007 0E       		.byte	0xe
 2070 1008 DB       		.byte	0xdb
 2071 1009 2C000000 		.4byte	0x2c
 2072 100d 08       		.byte	0x8
 2073 100e 06       		.uleb128 0x6
 2074 100f 86080000 		.4byte	.LASF223
 2075 1013 0E       		.byte	0xe
 2076 1014 E9       		.byte	0xe9
 2077 1015 C30F0000 		.4byte	0xfc3
 2078 1019 0C       		.byte	0xc
 2079 101a 06       		.uleb128 0x6
 2080 101b 75080000 		.4byte	.LASF224
 2081 101f 0E       		.byte	0xe
 2082 1020 ED       		.byte	0xed
 2083 1021 2C000000 		.4byte	0x2c
 2084 1025 10       		.byte	0x10
 2085 1026 00       		.byte	0
 2086 1027 03       		.uleb128 0x3
 2087 1028 5F030000 		.4byte	.LASF225
 2088 102c 0E       		.byte	0xe
 2089 102d EE       		.byte	0xee
 2090 102e E20F0000 		.4byte	0xfe2
 2091 1032 1C       		.uleb128 0x1c
 2092 1033 04       		.byte	0x4
 2093 1034 0E       		.byte	0xe
 2094 1035 0101     		.2byte	0x101
 2095 1037 49100000 		.4byte	0x1049
 2096 103b 17       		.uleb128 0x17
 2097 103c 1D050000 		.4byte	.LASF226
 2098 1040 0E       		.byte	0xe
 2099 1041 0501     		.2byte	0x105
 2100 1043 C5050000 		.4byte	0x5c5
 2101 1047 00       		.byte	0
 2102 1048 00       		.byte	0
 2103 1049 1C       		.uleb128 0x1c
 2104 104a 04       		.byte	0x4
 2105 104b 0E       		.byte	0xe
 2106 104c 0701     		.2byte	0x107
 2107 104e 60100000 		.4byte	0x1060
 2108 1052 17       		.uleb128 0x17
 2109 1053 B7070000 		.4byte	.LASF227
ARM GAS  /tmp/ccFW05b2.s 			page 38


 2110 1057 0E       		.byte	0xe
 2111 1058 0B01     		.2byte	0x10b
 2112 105a 60100000 		.4byte	0x1060
 2113 105e 00       		.byte	0
 2114 105f 00       		.byte	0
 2115 1060 09       		.uleb128 0x9
 2116 1061 04       		.byte	0x4
 2117 1062 CB050000 		.4byte	0x5cb
 2118 1066 21       		.uleb128 0x21
 2119 1067 04       		.byte	0x4
 2120 1068 0E       		.byte	0xe
 2121 1069 0001     		.2byte	0x100
 2122 106b 88100000 		.4byte	0x1088
 2123 106f 22       		.uleb128 0x22
 2124 1070 69070000 		.4byte	.LASF218
 2125 1074 0E       		.byte	0xe
 2126 1075 0601     		.2byte	0x106
 2127 1077 32100000 		.4byte	0x1032
 2128 107b 22       		.uleb128 0x22
 2129 107c B1070000 		.4byte	.LASF219
 2130 1080 0E       		.byte	0xe
 2131 1081 0C01     		.2byte	0x10c
 2132 1083 49100000 		.4byte	0x1049
 2133 1087 00       		.byte	0
 2134 1088 08       		.uleb128 0x8
 2135 1089 14       		.byte	0x14
 2136 108a 0E       		.byte	0xe
 2137 108b F3       		.byte	0xf3
 2138 108c CF100000 		.4byte	0x10cf
 2139 1090 06       		.uleb128 0x6
 2140 1091 96070000 		.4byte	.LASF228
 2141 1095 0E       		.byte	0xe
 2142 1096 F7       		.byte	0xf7
 2143 1097 E4000000 		.4byte	0xe4
 2144 109b 00       		.byte	0
 2145 109c 06       		.uleb128 0x6
 2146 109d 31020000 		.4byte	.LASF229
 2147 10a1 0E       		.byte	0xe
 2148 10a2 FB       		.byte	0xfb
 2149 10a3 2C000000 		.4byte	0x2c
 2150 10a7 04       		.byte	0x4
 2151 10a8 06       		.uleb128 0x6
 2152 10a9 F1040000 		.4byte	.LASF230
 2153 10ad 0E       		.byte	0xe
 2154 10ae FF       		.byte	0xff
 2155 10af 2C000000 		.4byte	0x2c
 2156 10b3 08       		.byte	0x8
 2157 10b4 17       		.uleb128 0x17
 2158 10b5 86080000 		.4byte	.LASF223
 2159 10b9 0E       		.byte	0xe
 2160 10ba 0D01     		.2byte	0x10d
 2161 10bc 66100000 		.4byte	0x1066
 2162 10c0 0C       		.byte	0xc
 2163 10c1 17       		.uleb128 0x17
 2164 10c2 75080000 		.4byte	.LASF224
 2165 10c6 0E       		.byte	0xe
 2166 10c7 1101     		.2byte	0x111
ARM GAS  /tmp/ccFW05b2.s 			page 39


 2167 10c9 2C000000 		.4byte	0x2c
 2168 10cd 10       		.byte	0x10
 2169 10ce 00       		.byte	0
 2170 10cf 1B       		.uleb128 0x1b
 2171 10d0 F2060000 		.4byte	.LASF231
 2172 10d4 0E       		.byte	0xe
 2173 10d5 1201     		.2byte	0x112
 2174 10d7 88100000 		.4byte	0x1088
 2175 10db 1C       		.uleb128 0x1c
 2176 10dc 24       		.byte	0x24
 2177 10dd 0E       		.byte	0xe
 2178 10de 1801     		.2byte	0x118
 2179 10e0 67110000 		.4byte	0x1167
 2180 10e4 17       		.uleb128 0x17
 2181 10e5 A5000000 		.4byte	.LASF232
 2182 10e9 0E       		.byte	0xe
 2183 10ea 1C01     		.2byte	0x11c
 2184 10ec CE000000 		.4byte	0xce
 2185 10f0 00       		.byte	0
 2186 10f1 17       		.uleb128 0x17
 2187 10f2 C0050000 		.4byte	.LASF233
 2188 10f6 0E       		.byte	0xe
 2189 10f7 2701     		.2byte	0x127
 2190 10f9 84090000 		.4byte	0x984
 2191 10fd 04       		.byte	0x4
 2192 10fe 17       		.uleb128 0x17
 2193 10ff 08030000 		.4byte	.LASF234
 2194 1103 0E       		.byte	0xe
 2195 1104 2D01     		.2byte	0x12d
 2196 1106 84090000 		.4byte	0x984
 2197 110a 08       		.byte	0x8
 2198 110b 17       		.uleb128 0x17
 2199 110c 7B060000 		.4byte	.LASF235
 2200 1110 0E       		.byte	0xe
 2201 1111 3301     		.2byte	0x133
 2202 1113 84090000 		.4byte	0x984
 2203 1117 0C       		.byte	0xc
 2204 1118 17       		.uleb128 0x17
 2205 1119 A1060000 		.4byte	.LASF236
 2206 111d 0E       		.byte	0xe
 2207 111e 3901     		.2byte	0x139
 2208 1120 B8000000 		.4byte	0xb8
 2209 1124 10       		.byte	0x10
 2210 1125 17       		.uleb128 0x17
 2211 1126 67010000 		.4byte	.LASF237
 2212 112a 0E       		.byte	0xe
 2213 112b 3F01     		.2byte	0x13f
 2214 112d B8000000 		.4byte	0xb8
 2215 1131 12       		.byte	0x12
 2216 1132 17       		.uleb128 0x17
 2217 1133 2B050000 		.4byte	.LASF238
 2218 1137 0E       		.byte	0xe
 2219 1138 4401     		.2byte	0x144
 2220 113a 67110000 		.4byte	0x1167
 2221 113e 14       		.byte	0x14
 2222 113f 17       		.uleb128 0x17
 2223 1140 B4060000 		.4byte	.LASF239
ARM GAS  /tmp/ccFW05b2.s 			page 40


 2224 1144 0E       		.byte	0xe
 2225 1145 4901     		.2byte	0x149
 2226 1147 6D110000 		.4byte	0x116d
 2227 114b 18       		.byte	0x18
 2228 114c 17       		.uleb128 0x17
 2229 114d 9F040000 		.4byte	.LASF240
 2230 1151 0E       		.byte	0xe
 2231 1152 5001     		.2byte	0x150
 2232 1154 B8000000 		.4byte	0xb8
 2233 1158 1C       		.byte	0x1c
 2234 1159 17       		.uleb128 0x17
 2235 115a 53060000 		.4byte	.LASF241
 2236 115e 0E       		.byte	0xe
 2237 115f 5601     		.2byte	0x156
 2238 1161 C5050000 		.4byte	0x5c5
 2239 1165 20       		.byte	0x20
 2240 1166 00       		.byte	0
 2241 1167 09       		.uleb128 0x9
 2242 1168 04       		.byte	0x4
 2243 1169 27100000 		.4byte	0x1027
 2244 116d 09       		.uleb128 0x9
 2245 116e 04       		.byte	0x4
 2246 116f CF100000 		.4byte	0x10cf
 2247 1173 1B       		.uleb128 0x1b
 2248 1174 7B070000 		.4byte	.LASF242
 2249 1178 0E       		.byte	0xe
 2250 1179 5701     		.2byte	0x157
 2251 117b DB100000 		.4byte	0x10db
 2252 117f 1C       		.uleb128 0x1c
 2253 1180 10       		.byte	0x10
 2254 1181 0E       		.byte	0xe
 2255 1182 5C01     		.2byte	0x15c
 2256 1184 BD110000 		.4byte	0x11bd
 2257 1188 17       		.uleb128 0x17
 2258 1189 60050000 		.4byte	.LASF243
 2259 118d 0E       		.byte	0xe
 2260 118e 6101     		.2byte	0x161
 2261 1190 A6090000 		.4byte	0x9a6
 2262 1194 00       		.byte	0
 2263 1195 17       		.uleb128 0x17
 2264 1196 A40A0000 		.4byte	.LASF244
 2265 119a 0E       		.byte	0xe
 2266 119b 6601     		.2byte	0x166
 2267 119d E9090000 		.4byte	0x9e9
 2268 11a1 04       		.byte	0x4
 2269 11a2 17       		.uleb128 0x17
 2270 11a3 78020000 		.4byte	.LASF245
 2271 11a7 0E       		.byte	0xe
 2272 11a8 6C01     		.2byte	0x16c
 2273 11aa C8090000 		.4byte	0x9c8
 2274 11ae 08       		.byte	0x8
 2275 11af 17       		.uleb128 0x17
 2276 11b0 220A0000 		.4byte	.LASF246
 2277 11b4 0E       		.byte	0xe
 2278 11b5 7001     		.2byte	0x170
 2279 11b7 61090000 		.4byte	0x961
 2280 11bb 0C       		.byte	0xc
ARM GAS  /tmp/ccFW05b2.s 			page 41


 2281 11bc 00       		.byte	0
 2282 11bd 1B       		.uleb128 0x1b
 2283 11be 2B060000 		.4byte	.LASF247
 2284 11c2 0E       		.byte	0xe
 2285 11c3 7201     		.2byte	0x172
 2286 11c5 7F110000 		.4byte	0x117f
 2287 11c9 09       		.uleb128 0x9
 2288 11ca 04       		.byte	0x4
 2289 11cb CF110000 		.4byte	0x11cf
 2290 11cf 10       		.uleb128 0x10
 2291 11d0 BD110000 		.4byte	0x11bd
 2292 11d4 14       		.uleb128 0x14
 2293 11d5 E4110000 		.4byte	0x11e4
 2294 11d9 E4110000 		.4byte	0x11e4
 2295 11dd 15       		.uleb128 0x15
 2296 11de 0E040000 		.4byte	0x40e
 2297 11e2 03       		.byte	0x3
 2298 11e3 00       		.byte	0
 2299 11e4 09       		.uleb128 0x9
 2300 11e5 04       		.byte	0x4
 2301 11e6 EA110000 		.4byte	0x11ea
 2302 11ea 10       		.uleb128 0x10
 2303 11eb 73110000 		.4byte	0x1173
 2304 11ef 14       		.uleb128 0x14
 2305 11f0 8F020000 		.4byte	0x28f
 2306 11f4 FF110000 		.4byte	0x11ff
 2307 11f8 15       		.uleb128 0x15
 2308 11f9 0E040000 		.4byte	0x40e
 2309 11fd 02       		.byte	0x2
 2310 11fe 00       		.byte	0
 2311 11ff 14       		.uleb128 0x14
 2312 1200 AD000000 		.4byte	0xad
 2313 1204 0F120000 		.4byte	0x120f
 2314 1208 15       		.uleb128 0x15
 2315 1209 0E040000 		.4byte	0x40e
 2316 120d 07       		.byte	0x7
 2317 120e 00       		.byte	0
 2318 120f 09       		.uleb128 0x9
 2319 1210 04       		.byte	0x4
 2320 1211 500F0000 		.4byte	0xf50
 2321 1215 09       		.uleb128 0x9
 2322 1216 04       		.byte	0x4
 2323 1217 1B120000 		.4byte	0x121b
 2324 121b 10       		.uleb128 0x10
 2325 121c 880F0000 		.4byte	0xf88
 2326 1220 14       		.uleb128 0x14
 2327 1221 91020000 		.4byte	0x291
 2328 1225 30120000 		.4byte	0x1230
 2329 1229 15       		.uleb128 0x15
 2330 122a 0E040000 		.4byte	0x40e
 2331 122e 39       		.byte	0x39
 2332 122f 00       		.byte	0
 2333 1230 18       		.uleb128 0x18
 2334 1231 01       		.byte	0x1
 2335 1232 10       		.byte	0x10
 2336 1233 4B       		.byte	0x4b
 2337 1234 4B120000 		.4byte	0x124b
ARM GAS  /tmp/ccFW05b2.s 			page 42


 2338 1238 19       		.uleb128 0x19
 2339 1239 53010000 		.4byte	.LASF248
 2340 123d 00       		.sleb128 0
 2341 123e 19       		.uleb128 0x19
 2342 123f B5040000 		.4byte	.LASF249
 2343 1243 01       		.sleb128 1
 2344 1244 19       		.uleb128 0x19
 2345 1245 45070000 		.4byte	.LASF250
 2346 1249 02       		.sleb128 2
 2347 124a 00       		.byte	0
 2348 124b 03       		.uleb128 0x3
 2349 124c D60A0000 		.4byte	.LASF251
 2350 1250 10       		.byte	0x10
 2351 1251 4F       		.byte	0x4f
 2352 1252 30120000 		.4byte	0x1230
 2353 1256 03       		.uleb128 0x3
 2354 1257 40040000 		.4byte	.LASF252
 2355 125b 10       		.byte	0x10
 2356 125c 54       		.byte	0x54
 2357 125d 61120000 		.4byte	0x1261
 2358 1261 23       		.uleb128 0x23
 2359 1262 40040000 		.4byte	.LASF252
 2360 1266 5802     		.2byte	0x258
 2361 1268 10       		.byte	0x10
 2362 1269 93       		.byte	0x93
 2363 126a CF120000 		.4byte	0x12cf
 2364 126e 07       		.uleb128 0x7
 2365 126f 766D7400 		.ascii	"vmt\000"
 2366 1273 10       		.byte	0x10
 2367 1274 95       		.byte	0x95
 2368 1275 74130000 		.4byte	0x1374
 2369 1279 00       		.byte	0
 2370 127a 06       		.uleb128 0x6
 2371 127b FC050000 		.4byte	.LASF253
 2372 127f 10       		.byte	0x10
 2373 1280 96       		.byte	0x96
 2374 1281 BE040000 		.4byte	0x4be
 2375 1285 04       		.byte	0x4
 2376 1286 06       		.uleb128 0x6
 2377 1287 9F000000 		.4byte	.LASF87
 2378 128b 10       		.byte	0x10
 2379 128c 96       		.byte	0x96
 2380 128d 4B120000 		.4byte	0x124b
 2381 1291 08       		.byte	0x8
 2382 1292 06       		.uleb128 0x6
 2383 1293 A0050000 		.4byte	.LASF254
 2384 1297 10       		.byte	0x10
 2385 1298 96       		.byte	0x96
 2386 1299 CB050000 		.4byte	0x5cb
 2387 129d 0C       		.byte	0xc
 2388 129e 06       		.uleb128 0x6
 2389 129f 64080000 		.4byte	.LASF255
 2390 12a3 10       		.byte	0x10
 2391 12a4 96       		.byte	0x96
 2392 12a5 D6050000 		.4byte	0x5d6
 2393 12a9 30       		.byte	0x30
 2394 12aa 07       		.uleb128 0x7
ARM GAS  /tmp/ccFW05b2.s 			page 43


 2395 12ab 696200   		.ascii	"ib\000"
 2396 12ae 10       		.byte	0x10
 2397 12af 96       		.byte	0x96
 2398 12b0 7F130000 		.4byte	0x137f
 2399 12b4 54       		.byte	0x54
 2400 12b5 1F       		.uleb128 0x1f
 2401 12b6 6F6200   		.ascii	"ob\000"
 2402 12b9 10       		.byte	0x10
 2403 12ba 96       		.byte	0x96
 2404 12bb 7F130000 		.4byte	0x137f
 2405 12bf 5401     		.2byte	0x154
 2406 12c1 1E       		.uleb128 0x1e
 2407 12c2 98000000 		.4byte	.LASF88
 2408 12c6 10       		.byte	0x10
 2409 12c7 96       		.byte	0x96
 2410 12c8 8F130000 		.4byte	0x138f
 2411 12cc 5402     		.2byte	0x254
 2412 12ce 00       		.byte	0
 2413 12cf 08       		.uleb128 0x8
 2414 12d0 08       		.byte	0x8
 2415 12d1 10       		.byte	0x10
 2416 12d2 5B       		.byte	0x5b
 2417 12d3 FC120000 		.4byte	0x12fc
 2418 12d7 06       		.uleb128 0x6
 2419 12d8 BE040000 		.4byte	.LASF256
 2420 12dc 10       		.byte	0x10
 2421 12dd 5F       		.byte	0x5f
 2422 12de 7E090000 		.4byte	0x97e
 2423 12e2 00       		.byte	0
 2424 12e3 06       		.uleb128 0x6
 2425 12e4 35060000 		.4byte	.LASF257
 2426 12e8 10       		.byte	0x10
 2427 12e9 63       		.byte	0x63
 2428 12ea 7A080000 		.4byte	0x87a
 2429 12ee 04       		.byte	0x4
 2430 12ef 06       		.uleb128 0x6
 2431 12f0 D2080000 		.4byte	.LASF258
 2432 12f4 10       		.byte	0x10
 2433 12f5 67       		.byte	0x67
 2434 12f6 7A080000 		.4byte	0x87a
 2435 12fa 05       		.byte	0x5
 2436 12fb 00       		.byte	0
 2437 12fc 03       		.uleb128 0x3
 2438 12fd 06070000 		.4byte	.LASF259
 2439 1301 10       		.byte	0x10
 2440 1302 68       		.byte	0x68
 2441 1303 CF120000 		.4byte	0x12cf
 2442 1307 05       		.uleb128 0x5
 2443 1308 8C010000 		.4byte	.LASF260
 2444 130c 20       		.byte	0x20
 2445 130d 10       		.byte	0x10
 2446 130e 88       		.byte	0x88
 2447 130f 74130000 		.4byte	0x1374
 2448 1313 06       		.uleb128 0x6
 2449 1314 64000000 		.4byte	.LASF83
 2450 1318 10       		.byte	0x10
 2451 1319 89       		.byte	0x89
ARM GAS  /tmp/ccFW05b2.s 			page 44


 2452 131a 42060000 		.4byte	0x642
 2453 131e 00       		.byte	0
 2454 131f 06       		.uleb128 0x6
 2455 1320 13060000 		.4byte	.LASF84
 2456 1324 10       		.byte	0x10
 2457 1325 89       		.byte	0x89
 2458 1326 61060000 		.4byte	0x661
 2459 132a 04       		.byte	0x4
 2460 132b 07       		.uleb128 0x7
 2461 132c 70757400 		.ascii	"put\000"
 2462 1330 10       		.byte	0x10
 2463 1331 89       		.byte	0x89
 2464 1332 7B060000 		.4byte	0x67b
 2465 1336 08       		.byte	0x8
 2466 1337 07       		.uleb128 0x7
 2467 1338 67657400 		.ascii	"get\000"
 2468 133c 10       		.byte	0x10
 2469 133d 89       		.byte	0x89
 2470 133e 16050000 		.4byte	0x516
 2471 1342 0C       		.byte	0xc
 2472 1343 06       		.uleb128 0x6
 2473 1344 AD000000 		.4byte	.LASF261
 2474 1348 10       		.byte	0x10
 2475 1349 89       		.byte	0x89
 2476 134a DA060000 		.4byte	0x6da
 2477 134e 10       		.byte	0x10
 2478 134f 06       		.uleb128 0x6
 2479 1350 0E030000 		.4byte	.LASF262
 2480 1354 10       		.byte	0x10
 2481 1355 89       		.byte	0x89
 2482 1356 F4060000 		.4byte	0x6f4
 2483 135a 14       		.byte	0x14
 2484 135b 06       		.uleb128 0x6
 2485 135c 48000000 		.4byte	.LASF263
 2486 1360 10       		.byte	0x10
 2487 1361 89       		.byte	0x89
 2488 1362 18070000 		.4byte	0x718
 2489 1366 18       		.byte	0x18
 2490 1367 06       		.uleb128 0x6
 2491 1368 F3000000 		.4byte	.LASF264
 2492 136c 10       		.byte	0x10
 2493 136d 89       		.byte	0x89
 2494 136e 3C070000 		.4byte	0x73c
 2495 1372 1C       		.byte	0x1c
 2496 1373 00       		.byte	0
 2497 1374 09       		.uleb128 0x9
 2498 1375 04       		.byte	0x4
 2499 1376 7A130000 		.4byte	0x137a
 2500 137a 10       		.uleb128 0x10
 2501 137b 07130000 		.4byte	0x1307
 2502 137f 14       		.uleb128 0x14
 2503 1380 AD000000 		.4byte	0xad
 2504 1384 8F130000 		.4byte	0x138f
 2505 1388 15       		.uleb128 0x15
 2506 1389 0E040000 		.4byte	0x40e
 2507 138d FF       		.byte	0xff
 2508 138e 00       		.byte	0
ARM GAS  /tmp/ccFW05b2.s 			page 45


 2509 138f 09       		.uleb128 0x9
 2510 1390 04       		.byte	0x4
 2511 1391 95130000 		.4byte	0x1395
 2512 1395 10       		.uleb128 0x10
 2513 1396 FC120000 		.4byte	0x12fc
 2514 139a 24       		.uleb128 0x24
 2515 139b D2010000 		.4byte	.LASF272
 2516 139f 01       		.byte	0x1
 2517 13a0 17       		.byte	0x17
 2518 13a1 00000000 		.4byte	.LFB130
 2519 13a5 48000000 		.4byte	.LFE130-.LFB130
 2520 13a9 01       		.uleb128 0x1
 2521 13aa 9C       		.byte	0x9c
 2522 13ab DB130000 		.4byte	0x13db
 2523 13af 25       		.uleb128 0x25
 2524 13b0 7200     		.ascii	"r\000"
 2525 13b2 01       		.byte	0x1
 2526 13b3 19       		.byte	0x19
 2527 13b4 25000000 		.4byte	0x25
 2528 13b8 05       		.uleb128 0x5
 2529 13b9 03       		.byte	0x3
 2530 13ba 00000000 		.4byte	r.7654
 2531 13be 26       		.uleb128 0x26
 2532 13bf 1C000000 		.4byte	.LVL0
 2533 13c3 CE130000 		.4byte	0x13ce
 2534 13c7 27       		.uleb128 0x27
 2535 13c8 01       		.uleb128 0x1
 2536 13c9 52       		.byte	0x52
 2537 13ca 02       		.uleb128 0x2
 2538 13cb 08       		.byte	0x8
 2539 13cc 84       		.byte	0x84
 2540 13cd 00       		.byte	0
 2541 13ce 28       		.uleb128 0x28
 2542 13cf 2E000000 		.4byte	.LVL1
 2543 13d3 27       		.uleb128 0x27
 2544 13d4 01       		.uleb128 0x1
 2545 13d5 52       		.byte	0x52
 2546 13d6 02       		.uleb128 0x2
 2547 13d7 08       		.byte	0x8
 2548 13d8 84       		.byte	0x84
 2549 13d9 00       		.byte	0
 2550 13da 00       		.byte	0
 2551 13db 29       		.uleb128 0x29
 2552 13dc D2050000 		.4byte	.LASF265
 2553 13e0 11       		.byte	0x11
 2554 13e1 DF07     		.2byte	0x7df
 2555 13e3 BC060000 		.4byte	0x6bc
 2556 13e7 14       		.uleb128 0x14
 2557 13e8 AD000000 		.4byte	0xad
 2558 13ec F8130000 		.4byte	0x13f8
 2559 13f0 20       		.uleb128 0x20
 2560 13f1 0E040000 		.4byte	0x40e
 2561 13f5 1F04     		.2byte	0x41f
 2562 13f7 00       		.byte	0
 2563 13f8 2A       		.uleb128 0x2a
 2564 13f9 8F030000 		.4byte	.LASF266
 2565 13fd 12       		.byte	0x12
ARM GAS  /tmp/ccFW05b2.s 			page 46


 2566 13fe 1A       		.byte	0x1a
 2567 13ff E7130000 		.4byte	0x13e7
 2568 1403 14       		.uleb128 0x14
 2569 1404 AD000000 		.4byte	0xad
 2570 1408 13140000 		.4byte	0x1413
 2571 140c 15       		.uleb128 0x15
 2572 140d 0E040000 		.4byte	0x40e
 2573 1411 83       		.byte	0x83
 2574 1412 00       		.byte	0
 2575 1413 2A       		.uleb128 0x2a
 2576 1414 47080000 		.4byte	.LASF267
 2577 1418 12       		.byte	0x12
 2578 1419 1B       		.byte	0x1b
 2579 141a 03140000 		.4byte	0x1403
 2580 141e 2A       		.uleb128 0x2a
 2581 141f 6E0A0000 		.4byte	.LASF268
 2582 1423 13       		.byte	0x13
 2583 1424 22       		.byte	0x22
 2584 1425 56120000 		.4byte	0x1256
 2585 1429 00       		.byte	0
 2586              		.section	.debug_abbrev,"",%progbits
 2587              	.Ldebug_abbrev0:
 2588 0000 01       		.uleb128 0x1
 2589 0001 11       		.uleb128 0x11
 2590 0002 01       		.byte	0x1
 2591 0003 25       		.uleb128 0x25
 2592 0004 0E       		.uleb128 0xe
 2593 0005 13       		.uleb128 0x13
 2594 0006 0B       		.uleb128 0xb
 2595 0007 03       		.uleb128 0x3
 2596 0008 0E       		.uleb128 0xe
 2597 0009 1B       		.uleb128 0x1b
 2598 000a 0E       		.uleb128 0xe
 2599 000b 11       		.uleb128 0x11
 2600 000c 01       		.uleb128 0x1
 2601 000d 12       		.uleb128 0x12
 2602 000e 06       		.uleb128 0x6
 2603 000f 10       		.uleb128 0x10
 2604 0010 17       		.uleb128 0x17
 2605 0011 00       		.byte	0
 2606 0012 00       		.byte	0
 2607 0013 02       		.uleb128 0x2
 2608 0014 24       		.uleb128 0x24
 2609 0015 00       		.byte	0
 2610 0016 0B       		.uleb128 0xb
 2611 0017 0B       		.uleb128 0xb
 2612 0018 3E       		.uleb128 0x3e
 2613 0019 0B       		.uleb128 0xb
 2614 001a 03       		.uleb128 0x3
 2615 001b 08       		.uleb128 0x8
 2616 001c 00       		.byte	0
 2617 001d 00       		.byte	0
 2618 001e 03       		.uleb128 0x3
 2619 001f 16       		.uleb128 0x16
 2620 0020 00       		.byte	0
 2621 0021 03       		.uleb128 0x3
 2622 0022 0E       		.uleb128 0xe
ARM GAS  /tmp/ccFW05b2.s 			page 47


 2623 0023 3A       		.uleb128 0x3a
 2624 0024 0B       		.uleb128 0xb
 2625 0025 3B       		.uleb128 0x3b
 2626 0026 0B       		.uleb128 0xb
 2627 0027 49       		.uleb128 0x49
 2628 0028 13       		.uleb128 0x13
 2629 0029 00       		.byte	0
 2630 002a 00       		.byte	0
 2631 002b 04       		.uleb128 0x4
 2632 002c 24       		.uleb128 0x24
 2633 002d 00       		.byte	0
 2634 002e 0B       		.uleb128 0xb
 2635 002f 0B       		.uleb128 0xb
 2636 0030 3E       		.uleb128 0x3e
 2637 0031 0B       		.uleb128 0xb
 2638 0032 03       		.uleb128 0x3
 2639 0033 0E       		.uleb128 0xe
 2640 0034 00       		.byte	0
 2641 0035 00       		.byte	0
 2642 0036 05       		.uleb128 0x5
 2643 0037 13       		.uleb128 0x13
 2644 0038 01       		.byte	0x1
 2645 0039 03       		.uleb128 0x3
 2646 003a 0E       		.uleb128 0xe
 2647 003b 0B       		.uleb128 0xb
 2648 003c 0B       		.uleb128 0xb
 2649 003d 3A       		.uleb128 0x3a
 2650 003e 0B       		.uleb128 0xb
 2651 003f 3B       		.uleb128 0x3b
 2652 0040 0B       		.uleb128 0xb
 2653 0041 01       		.uleb128 0x1
 2654 0042 13       		.uleb128 0x13
 2655 0043 00       		.byte	0
 2656 0044 00       		.byte	0
 2657 0045 06       		.uleb128 0x6
 2658 0046 0D       		.uleb128 0xd
 2659 0047 00       		.byte	0
 2660 0048 03       		.uleb128 0x3
 2661 0049 0E       		.uleb128 0xe
 2662 004a 3A       		.uleb128 0x3a
 2663 004b 0B       		.uleb128 0xb
 2664 004c 3B       		.uleb128 0x3b
 2665 004d 0B       		.uleb128 0xb
 2666 004e 49       		.uleb128 0x49
 2667 004f 13       		.uleb128 0x13
 2668 0050 38       		.uleb128 0x38
 2669 0051 0B       		.uleb128 0xb
 2670 0052 00       		.byte	0
 2671 0053 00       		.byte	0
 2672 0054 07       		.uleb128 0x7
 2673 0055 0D       		.uleb128 0xd
 2674 0056 00       		.byte	0
 2675 0057 03       		.uleb128 0x3
 2676 0058 08       		.uleb128 0x8
 2677 0059 3A       		.uleb128 0x3a
 2678 005a 0B       		.uleb128 0xb
 2679 005b 3B       		.uleb128 0x3b
ARM GAS  /tmp/ccFW05b2.s 			page 48


 2680 005c 0B       		.uleb128 0xb
 2681 005d 49       		.uleb128 0x49
 2682 005e 13       		.uleb128 0x13
 2683 005f 38       		.uleb128 0x38
 2684 0060 0B       		.uleb128 0xb
 2685 0061 00       		.byte	0
 2686 0062 00       		.byte	0
 2687 0063 08       		.uleb128 0x8
 2688 0064 13       		.uleb128 0x13
 2689 0065 01       		.byte	0x1
 2690 0066 0B       		.uleb128 0xb
 2691 0067 0B       		.uleb128 0xb
 2692 0068 3A       		.uleb128 0x3a
 2693 0069 0B       		.uleb128 0xb
 2694 006a 3B       		.uleb128 0x3b
 2695 006b 0B       		.uleb128 0xb
 2696 006c 01       		.uleb128 0x1
 2697 006d 13       		.uleb128 0x13
 2698 006e 00       		.byte	0
 2699 006f 00       		.byte	0
 2700 0070 09       		.uleb128 0x9
 2701 0071 0F       		.uleb128 0xf
 2702 0072 00       		.byte	0
 2703 0073 0B       		.uleb128 0xb
 2704 0074 0B       		.uleb128 0xb
 2705 0075 49       		.uleb128 0x49
 2706 0076 13       		.uleb128 0x13
 2707 0077 00       		.byte	0
 2708 0078 00       		.byte	0
 2709 0079 0A       		.uleb128 0xa
 2710 007a 0F       		.uleb128 0xf
 2711 007b 00       		.byte	0
 2712 007c 0B       		.uleb128 0xb
 2713 007d 0B       		.uleb128 0xb
 2714 007e 00       		.byte	0
 2715 007f 00       		.byte	0
 2716 0080 0B       		.uleb128 0xb
 2717 0081 13       		.uleb128 0x13
 2718 0082 01       		.byte	0x1
 2719 0083 03       		.uleb128 0x3
 2720 0084 0E       		.uleb128 0xe
 2721 0085 0B       		.uleb128 0xb
 2722 0086 0B       		.uleb128 0xb
 2723 0087 3A       		.uleb128 0x3a
 2724 0088 0B       		.uleb128 0xb
 2725 0089 3B       		.uleb128 0x3b
 2726 008a 05       		.uleb128 0x5
 2727 008b 01       		.uleb128 0x1
 2728 008c 13       		.uleb128 0x13
 2729 008d 00       		.byte	0
 2730 008e 00       		.byte	0
 2731 008f 0C       		.uleb128 0xc
 2732 0090 0D       		.uleb128 0xd
 2733 0091 00       		.byte	0
 2734 0092 03       		.uleb128 0x3
 2735 0093 08       		.uleb128 0x8
 2736 0094 3A       		.uleb128 0x3a
ARM GAS  /tmp/ccFW05b2.s 			page 49


 2737 0095 0B       		.uleb128 0xb
 2738 0096 3B       		.uleb128 0x3b
 2739 0097 05       		.uleb128 0x5
 2740 0098 49       		.uleb128 0x49
 2741 0099 13       		.uleb128 0x13
 2742 009a 38       		.uleb128 0x38
 2743 009b 0B       		.uleb128 0xb
 2744 009c 00       		.byte	0
 2745 009d 00       		.byte	0
 2746 009e 0D       		.uleb128 0xd
 2747 009f 35       		.uleb128 0x35
 2748 00a0 00       		.byte	0
 2749 00a1 49       		.uleb128 0x49
 2750 00a2 13       		.uleb128 0x13
 2751 00a3 00       		.byte	0
 2752 00a4 00       		.byte	0
 2753 00a5 0E       		.uleb128 0xe
 2754 00a6 17       		.uleb128 0x17
 2755 00a7 01       		.byte	0x1
 2756 00a8 0B       		.uleb128 0xb
 2757 00a9 0B       		.uleb128 0xb
 2758 00aa 3A       		.uleb128 0x3a
 2759 00ab 0B       		.uleb128 0xb
 2760 00ac 3B       		.uleb128 0x3b
 2761 00ad 0B       		.uleb128 0xb
 2762 00ae 01       		.uleb128 0x1
 2763 00af 13       		.uleb128 0x13
 2764 00b0 00       		.byte	0
 2765 00b1 00       		.byte	0
 2766 00b2 0F       		.uleb128 0xf
 2767 00b3 0D       		.uleb128 0xd
 2768 00b4 00       		.byte	0
 2769 00b5 03       		.uleb128 0x3
 2770 00b6 0E       		.uleb128 0xe
 2771 00b7 3A       		.uleb128 0x3a
 2772 00b8 0B       		.uleb128 0xb
 2773 00b9 3B       		.uleb128 0x3b
 2774 00ba 0B       		.uleb128 0xb
 2775 00bb 49       		.uleb128 0x49
 2776 00bc 13       		.uleb128 0x13
 2777 00bd 00       		.byte	0
 2778 00be 00       		.byte	0
 2779 00bf 10       		.uleb128 0x10
 2780 00c0 26       		.uleb128 0x26
 2781 00c1 00       		.byte	0
 2782 00c2 49       		.uleb128 0x49
 2783 00c3 13       		.uleb128 0x13
 2784 00c4 00       		.byte	0
 2785 00c5 00       		.byte	0
 2786 00c6 11       		.uleb128 0x11
 2787 00c7 15       		.uleb128 0x15
 2788 00c8 01       		.byte	0x1
 2789 00c9 27       		.uleb128 0x27
 2790 00ca 19       		.uleb128 0x19
 2791 00cb 49       		.uleb128 0x49
 2792 00cc 13       		.uleb128 0x13
 2793 00cd 01       		.uleb128 0x1
ARM GAS  /tmp/ccFW05b2.s 			page 50


 2794 00ce 13       		.uleb128 0x13
 2795 00cf 00       		.byte	0
 2796 00d0 00       		.byte	0
 2797 00d1 12       		.uleb128 0x12
 2798 00d2 05       		.uleb128 0x5
 2799 00d3 00       		.byte	0
 2800 00d4 49       		.uleb128 0x49
 2801 00d5 13       		.uleb128 0x13
 2802 00d6 00       		.byte	0
 2803 00d7 00       		.byte	0
 2804 00d8 13       		.uleb128 0x13
 2805 00d9 15       		.uleb128 0x15
 2806 00da 01       		.byte	0x1
 2807 00db 27       		.uleb128 0x27
 2808 00dc 19       		.uleb128 0x19
 2809 00dd 01       		.uleb128 0x1
 2810 00de 13       		.uleb128 0x13
 2811 00df 00       		.byte	0
 2812 00e0 00       		.byte	0
 2813 00e1 14       		.uleb128 0x14
 2814 00e2 01       		.uleb128 0x1
 2815 00e3 01       		.byte	0x1
 2816 00e4 49       		.uleb128 0x49
 2817 00e5 13       		.uleb128 0x13
 2818 00e6 01       		.uleb128 0x1
 2819 00e7 13       		.uleb128 0x13
 2820 00e8 00       		.byte	0
 2821 00e9 00       		.byte	0
 2822 00ea 15       		.uleb128 0x15
 2823 00eb 21       		.uleb128 0x21
 2824 00ec 00       		.byte	0
 2825 00ed 49       		.uleb128 0x49
 2826 00ee 13       		.uleb128 0x13
 2827 00ef 2F       		.uleb128 0x2f
 2828 00f0 0B       		.uleb128 0xb
 2829 00f1 00       		.byte	0
 2830 00f2 00       		.byte	0
 2831 00f3 16       		.uleb128 0x16
 2832 00f4 13       		.uleb128 0x13
 2833 00f5 01       		.byte	0x1
 2834 00f6 03       		.uleb128 0x3
 2835 00f7 0E       		.uleb128 0xe
 2836 00f8 0B       		.uleb128 0xb
 2837 00f9 05       		.uleb128 0x5
 2838 00fa 3A       		.uleb128 0x3a
 2839 00fb 0B       		.uleb128 0xb
 2840 00fc 3B       		.uleb128 0x3b
 2841 00fd 05       		.uleb128 0x5
 2842 00fe 01       		.uleb128 0x1
 2843 00ff 13       		.uleb128 0x13
 2844 0100 00       		.byte	0
 2845 0101 00       		.byte	0
 2846 0102 17       		.uleb128 0x17
 2847 0103 0D       		.uleb128 0xd
 2848 0104 00       		.byte	0
 2849 0105 03       		.uleb128 0x3
 2850 0106 0E       		.uleb128 0xe
ARM GAS  /tmp/ccFW05b2.s 			page 51


 2851 0107 3A       		.uleb128 0x3a
 2852 0108 0B       		.uleb128 0xb
 2853 0109 3B       		.uleb128 0x3b
 2854 010a 05       		.uleb128 0x5
 2855 010b 49       		.uleb128 0x49
 2856 010c 13       		.uleb128 0x13
 2857 010d 38       		.uleb128 0x38
 2858 010e 0B       		.uleb128 0xb
 2859 010f 00       		.byte	0
 2860 0110 00       		.byte	0
 2861 0111 18       		.uleb128 0x18
 2862 0112 04       		.uleb128 0x4
 2863 0113 01       		.byte	0x1
 2864 0114 0B       		.uleb128 0xb
 2865 0115 0B       		.uleb128 0xb
 2866 0116 3A       		.uleb128 0x3a
 2867 0117 0B       		.uleb128 0xb
 2868 0118 3B       		.uleb128 0x3b
 2869 0119 0B       		.uleb128 0xb
 2870 011a 01       		.uleb128 0x1
 2871 011b 13       		.uleb128 0x13
 2872 011c 00       		.byte	0
 2873 011d 00       		.byte	0
 2874 011e 19       		.uleb128 0x19
 2875 011f 28       		.uleb128 0x28
 2876 0120 00       		.byte	0
 2877 0121 03       		.uleb128 0x3
 2878 0122 0E       		.uleb128 0xe
 2879 0123 1C       		.uleb128 0x1c
 2880 0124 0D       		.uleb128 0xd
 2881 0125 00       		.byte	0
 2882 0126 00       		.byte	0
 2883 0127 1A       		.uleb128 0x1a
 2884 0128 04       		.uleb128 0x4
 2885 0129 01       		.byte	0x1
 2886 012a 0B       		.uleb128 0xb
 2887 012b 0B       		.uleb128 0xb
 2888 012c 3A       		.uleb128 0x3a
 2889 012d 0B       		.uleb128 0xb
 2890 012e 3B       		.uleb128 0x3b
 2891 012f 05       		.uleb128 0x5
 2892 0130 01       		.uleb128 0x1
 2893 0131 13       		.uleb128 0x13
 2894 0132 00       		.byte	0
 2895 0133 00       		.byte	0
 2896 0134 1B       		.uleb128 0x1b
 2897 0135 16       		.uleb128 0x16
 2898 0136 00       		.byte	0
 2899 0137 03       		.uleb128 0x3
 2900 0138 0E       		.uleb128 0xe
 2901 0139 3A       		.uleb128 0x3a
 2902 013a 0B       		.uleb128 0xb
 2903 013b 3B       		.uleb128 0x3b
 2904 013c 05       		.uleb128 0x5
 2905 013d 49       		.uleb128 0x49
 2906 013e 13       		.uleb128 0x13
 2907 013f 00       		.byte	0
ARM GAS  /tmp/ccFW05b2.s 			page 52


 2908 0140 00       		.byte	0
 2909 0141 1C       		.uleb128 0x1c
 2910 0142 13       		.uleb128 0x13
 2911 0143 01       		.byte	0x1
 2912 0144 0B       		.uleb128 0xb
 2913 0145 0B       		.uleb128 0xb
 2914 0146 3A       		.uleb128 0x3a
 2915 0147 0B       		.uleb128 0xb
 2916 0148 3B       		.uleb128 0x3b
 2917 0149 05       		.uleb128 0x5
 2918 014a 01       		.uleb128 0x1
 2919 014b 13       		.uleb128 0x13
 2920 014c 00       		.byte	0
 2921 014d 00       		.byte	0
 2922 014e 1D       		.uleb128 0x1d
 2923 014f 13       		.uleb128 0x13
 2924 0150 01       		.byte	0x1
 2925 0151 0B       		.uleb128 0xb
 2926 0152 06       		.uleb128 0x6
 2927 0153 3A       		.uleb128 0x3a
 2928 0154 0B       		.uleb128 0xb
 2929 0155 3B       		.uleb128 0x3b
 2930 0156 0B       		.uleb128 0xb
 2931 0157 01       		.uleb128 0x1
 2932 0158 13       		.uleb128 0x13
 2933 0159 00       		.byte	0
 2934 015a 00       		.byte	0
 2935 015b 1E       		.uleb128 0x1e
 2936 015c 0D       		.uleb128 0xd
 2937 015d 00       		.byte	0
 2938 015e 03       		.uleb128 0x3
 2939 015f 0E       		.uleb128 0xe
 2940 0160 3A       		.uleb128 0x3a
 2941 0161 0B       		.uleb128 0xb
 2942 0162 3B       		.uleb128 0x3b
 2943 0163 0B       		.uleb128 0xb
 2944 0164 49       		.uleb128 0x49
 2945 0165 13       		.uleb128 0x13
 2946 0166 38       		.uleb128 0x38
 2947 0167 05       		.uleb128 0x5
 2948 0168 00       		.byte	0
 2949 0169 00       		.byte	0
 2950 016a 1F       		.uleb128 0x1f
 2951 016b 0D       		.uleb128 0xd
 2952 016c 00       		.byte	0
 2953 016d 03       		.uleb128 0x3
 2954 016e 08       		.uleb128 0x8
 2955 016f 3A       		.uleb128 0x3a
 2956 0170 0B       		.uleb128 0xb
 2957 0171 3B       		.uleb128 0x3b
 2958 0172 0B       		.uleb128 0xb
 2959 0173 49       		.uleb128 0x49
 2960 0174 13       		.uleb128 0x13
 2961 0175 38       		.uleb128 0x38
 2962 0176 05       		.uleb128 0x5
 2963 0177 00       		.byte	0
 2964 0178 00       		.byte	0
ARM GAS  /tmp/ccFW05b2.s 			page 53


 2965 0179 20       		.uleb128 0x20
 2966 017a 21       		.uleb128 0x21
 2967 017b 00       		.byte	0
 2968 017c 49       		.uleb128 0x49
 2969 017d 13       		.uleb128 0x13
 2970 017e 2F       		.uleb128 0x2f
 2971 017f 05       		.uleb128 0x5
 2972 0180 00       		.byte	0
 2973 0181 00       		.byte	0
 2974 0182 21       		.uleb128 0x21
 2975 0183 17       		.uleb128 0x17
 2976 0184 01       		.byte	0x1
 2977 0185 0B       		.uleb128 0xb
 2978 0186 0B       		.uleb128 0xb
 2979 0187 3A       		.uleb128 0x3a
 2980 0188 0B       		.uleb128 0xb
 2981 0189 3B       		.uleb128 0x3b
 2982 018a 05       		.uleb128 0x5
 2983 018b 01       		.uleb128 0x1
 2984 018c 13       		.uleb128 0x13
 2985 018d 00       		.byte	0
 2986 018e 00       		.byte	0
 2987 018f 22       		.uleb128 0x22
 2988 0190 0D       		.uleb128 0xd
 2989 0191 00       		.byte	0
 2990 0192 03       		.uleb128 0x3
 2991 0193 0E       		.uleb128 0xe
 2992 0194 3A       		.uleb128 0x3a
 2993 0195 0B       		.uleb128 0xb
 2994 0196 3B       		.uleb128 0x3b
 2995 0197 05       		.uleb128 0x5
 2996 0198 49       		.uleb128 0x49
 2997 0199 13       		.uleb128 0x13
 2998 019a 00       		.byte	0
 2999 019b 00       		.byte	0
 3000 019c 23       		.uleb128 0x23
 3001 019d 13       		.uleb128 0x13
 3002 019e 01       		.byte	0x1
 3003 019f 03       		.uleb128 0x3
 3004 01a0 0E       		.uleb128 0xe
 3005 01a1 0B       		.uleb128 0xb
 3006 01a2 05       		.uleb128 0x5
 3007 01a3 3A       		.uleb128 0x3a
 3008 01a4 0B       		.uleb128 0xb
 3009 01a5 3B       		.uleb128 0x3b
 3010 01a6 0B       		.uleb128 0xb
 3011 01a7 01       		.uleb128 0x1
 3012 01a8 13       		.uleb128 0x13
 3013 01a9 00       		.byte	0
 3014 01aa 00       		.byte	0
 3015 01ab 24       		.uleb128 0x24
 3016 01ac 2E       		.uleb128 0x2e
 3017 01ad 01       		.byte	0x1
 3018 01ae 3F       		.uleb128 0x3f
 3019 01af 19       		.uleb128 0x19
 3020 01b0 03       		.uleb128 0x3
 3021 01b1 0E       		.uleb128 0xe
ARM GAS  /tmp/ccFW05b2.s 			page 54


 3022 01b2 3A       		.uleb128 0x3a
 3023 01b3 0B       		.uleb128 0xb
 3024 01b4 3B       		.uleb128 0x3b
 3025 01b5 0B       		.uleb128 0xb
 3026 01b6 27       		.uleb128 0x27
 3027 01b7 19       		.uleb128 0x19
 3028 01b8 11       		.uleb128 0x11
 3029 01b9 01       		.uleb128 0x1
 3030 01ba 12       		.uleb128 0x12
 3031 01bb 06       		.uleb128 0x6
 3032 01bc 40       		.uleb128 0x40
 3033 01bd 18       		.uleb128 0x18
 3034 01be 9742     		.uleb128 0x2117
 3035 01c0 19       		.uleb128 0x19
 3036 01c1 01       		.uleb128 0x1
 3037 01c2 13       		.uleb128 0x13
 3038 01c3 00       		.byte	0
 3039 01c4 00       		.byte	0
 3040 01c5 25       		.uleb128 0x25
 3041 01c6 34       		.uleb128 0x34
 3042 01c7 00       		.byte	0
 3043 01c8 03       		.uleb128 0x3
 3044 01c9 08       		.uleb128 0x8
 3045 01ca 3A       		.uleb128 0x3a
 3046 01cb 0B       		.uleb128 0xb
 3047 01cc 3B       		.uleb128 0x3b
 3048 01cd 0B       		.uleb128 0xb
 3049 01ce 49       		.uleb128 0x49
 3050 01cf 13       		.uleb128 0x13
 3051 01d0 02       		.uleb128 0x2
 3052 01d1 18       		.uleb128 0x18
 3053 01d2 00       		.byte	0
 3054 01d3 00       		.byte	0
 3055 01d4 26       		.uleb128 0x26
 3056 01d5 898201   		.uleb128 0x4109
 3057 01d8 01       		.byte	0x1
 3058 01d9 11       		.uleb128 0x11
 3059 01da 01       		.uleb128 0x1
 3060 01db 9542     		.uleb128 0x2115
 3061 01dd 19       		.uleb128 0x19
 3062 01de 01       		.uleb128 0x1
 3063 01df 13       		.uleb128 0x13
 3064 01e0 00       		.byte	0
 3065 01e1 00       		.byte	0
 3066 01e2 27       		.uleb128 0x27
 3067 01e3 8A8201   		.uleb128 0x410a
 3068 01e6 00       		.byte	0
 3069 01e7 02       		.uleb128 0x2
 3070 01e8 18       		.uleb128 0x18
 3071 01e9 9142     		.uleb128 0x2111
 3072 01eb 18       		.uleb128 0x18
 3073 01ec 00       		.byte	0
 3074 01ed 00       		.byte	0
 3075 01ee 28       		.uleb128 0x28
 3076 01ef 898201   		.uleb128 0x4109
 3077 01f2 01       		.byte	0x1
 3078 01f3 11       		.uleb128 0x11
ARM GAS  /tmp/ccFW05b2.s 			page 55


 3079 01f4 01       		.uleb128 0x1
 3080 01f5 9542     		.uleb128 0x2115
 3081 01f7 19       		.uleb128 0x19
 3082 01f8 00       		.byte	0
 3083 01f9 00       		.byte	0
 3084 01fa 29       		.uleb128 0x29
 3085 01fb 34       		.uleb128 0x34
 3086 01fc 00       		.byte	0
 3087 01fd 03       		.uleb128 0x3
 3088 01fe 0E       		.uleb128 0xe
 3089 01ff 3A       		.uleb128 0x3a
 3090 0200 0B       		.uleb128 0xb
 3091 0201 3B       		.uleb128 0x3b
 3092 0202 05       		.uleb128 0x5
 3093 0203 49       		.uleb128 0x49
 3094 0204 13       		.uleb128 0x13
 3095 0205 3F       		.uleb128 0x3f
 3096 0206 19       		.uleb128 0x19
 3097 0207 3C       		.uleb128 0x3c
 3098 0208 19       		.uleb128 0x19
 3099 0209 00       		.byte	0
 3100 020a 00       		.byte	0
 3101 020b 2A       		.uleb128 0x2a
 3102 020c 34       		.uleb128 0x34
 3103 020d 00       		.byte	0
 3104 020e 03       		.uleb128 0x3
 3105 020f 0E       		.uleb128 0xe
 3106 0210 3A       		.uleb128 0x3a
 3107 0211 0B       		.uleb128 0xb
 3108 0212 3B       		.uleb128 0x3b
 3109 0213 0B       		.uleb128 0xb
 3110 0214 49       		.uleb128 0x49
 3111 0215 13       		.uleb128 0x13
 3112 0216 3F       		.uleb128 0x3f
 3113 0217 19       		.uleb128 0x19
 3114 0218 3C       		.uleb128 0x3c
 3115 0219 19       		.uleb128 0x19
 3116 021a 00       		.byte	0
 3117 021b 00       		.byte	0
 3118 021c 00       		.byte	0
 3119              		.section	.debug_aranges,"",%progbits
 3120 0000 1C000000 		.4byte	0x1c
 3121 0004 0200     		.2byte	0x2
 3122 0006 00000000 		.4byte	.Ldebug_info0
 3123 000a 04       		.byte	0x4
 3124 000b 00       		.byte	0
 3125 000c 0000     		.2byte	0
 3126 000e 0000     		.2byte	0
 3127 0010 00000000 		.4byte	.Ltext0
 3128 0014 48000000 		.4byte	.Letext0-.Ltext0
 3129 0018 00000000 		.4byte	0
 3130 001c 00000000 		.4byte	0
 3131              		.section	.debug_line,"",%progbits
 3132              	.Ldebug_line0:
 3133 0000 31030000 		.section	.debug_str,"MS",%progbits,1
 3133      02001203 
 3133      00000201 
ARM GAS  /tmp/ccFW05b2.s 			page 56


 3133      FB0E0D00 
 3133      01010101 
 3134              	.LASF2:
 3135 0000 73697A65 		.ascii	"size_t\000"
 3135      5F7400
 3136              	.LASF53:
 3137 0007 73697A65 		.ascii	"sizetype\000"
 3137      74797065 
 3137      00
 3138              	.LASF29:
 3139 0010 73797374 		.ascii	"systime_t\000"
 3139      696D655F 
 3139      7400
 3140              	.LASF34:
 3141 001a 705F6374 		.ascii	"p_ctx\000"
 3141      7800
 3142              	.LASF25:
 3143 0020 74707269 		.ascii	"tprio_t\000"
 3143      6F5F7400 
 3144              	.LASF42:
 3145 0028 705F6D73 		.ascii	"p_msgqueue\000"
 3145      67717565 
 3145      756500
 3146              	.LASF212:
 3147 0033 72785F66 		.ascii	"rx_fifo_size\000"
 3147      69666F5F 
 3147      73697A65 
 3147      00
 3148              	.LASF17:
 3149 0040 696E7433 		.ascii	"int32_t\000"
 3149      325F7400 
 3150              	.LASF263:
 3151 0048 77726974 		.ascii	"writet\000"
 3151      657400
 3152              	.LASF147:
 3153 004f 72657376 		.ascii	"resvd4\000"
 3153      643400
 3154              	.LASF138:
 3155 0056 72657376 		.ascii	"resvd8\000"
 3155      643800
 3156              	.LASF149:
 3157 005d 72657376 		.ascii	"resvdC\000"
 3157      644300
 3158              	.LASF83:
 3159 0064 77726974 		.ascii	"write\000"
 3159      6500
 3160              	.LASF141:
 3161 006a 48435453 		.ascii	"HCTSIZ\000"
 3161      495A00
 3162              	.LASF85:
 3163 0071 42617365 		.ascii	"BaseSequentialStream\000"
 3163      53657175 
 3163      656E7469 
 3163      616C5374 
 3163      7265616D 
 3164              	.LASF187:
 3165 0086 72657376 		.ascii	"resvd700\000"
ARM GAS  /tmp/ccFW05b2.s 			page 57


 3165      64373030 
 3165      00
 3166              	.LASF62:
 3167 008f 656C5F66 		.ascii	"el_flags\000"
 3167      6C616773 
 3167      00
 3168              	.LASF88:
 3169 0098 636F6E66 		.ascii	"config\000"
 3169      696700
 3170              	.LASF87:
 3171 009f 73746174 		.ascii	"state\000"
 3171      6500
 3172              	.LASF232:
 3173 00a5 65705F6D 		.ascii	"ep_mode\000"
 3173      6F646500 
 3174              	.LASF261:
 3175 00ad 70757474 		.ascii	"putt\000"
 3175      00
 3176              	.LASF112:
 3177 00b2 5553425F 		.ascii	"USB_ACTIVE\000"
 3177      41435449 
 3177      564500
 3178              	.LASF56:
 3179 00bd 6D5F6F77 		.ascii	"m_owner\000"
 3179      6E657200 
 3180              	.LASF66:
 3181 00c5 65786974 		.ascii	"exitcode\000"
 3181      636F6465 
 3181      00
 3182              	.LASF121:
 3183 00ce 75736265 		.ascii	"usbep0state_t\000"
 3183      70307374 
 3183      6174655F 
 3183      7400
 3184              	.LASF3:
 3185 00dc 5F5F7569 		.ascii	"__uint8_t\000"
 3185      6E74385F 
 3185      7400
 3186              	.LASF74:
 3187 00e6 715F746F 		.ascii	"q_top\000"
 3187      7000
 3188              	.LASF68:
 3189 00ec 65776D61 		.ascii	"ewmask\000"
 3189      736B00
 3190              	.LASF264:
 3191 00f3 72656164 		.ascii	"readt\000"
 3191      7400
 3192              	.LASF73:
 3193 00f9 715F6275 		.ascii	"q_buffer\000"
 3193      66666572 
 3193      00
 3194              	.LASF123:
 3195 0102 5553425F 		.ascii	"USB_EVENT_ADDRESS\000"
 3195      4556454E 
 3195      545F4144 
 3195      44524553 
 3195      5300
ARM GAS  /tmp/ccFW05b2.s 			page 58


 3196              	.LASF168:
 3197 0114 44494550 		.ascii	"DIEPTXF0\000"
 3197      54584630 
 3197      00
 3198              	.LASF77:
 3199 011d 715F6E6F 		.ascii	"q_notify\000"
 3199      74696679 
 3199      00
 3200              	.LASF35:
 3201 0126 705F6E65 		.ascii	"p_newer\000"
 3201      77657200 
 3202              	.LASF9:
 3203 012e 6C6F6E67 		.ascii	"long int\000"
 3203      20696E74 
 3203      00
 3204              	.LASF31:
 3205 0137 705F6E65 		.ascii	"p_next\000"
 3205      787400
 3206              	.LASF76:
 3207 013e 715F7264 		.ascii	"q_rdptr\000"
 3207      70747200 
 3208              	.LASF222:
 3209 0146 7478636E 		.ascii	"txcnt\000"
 3209      7400
 3210              	.LASF32:
 3211 014c 705F7072 		.ascii	"p_prev\000"
 3211      657600
 3212              	.LASF248:
 3213 0153 4244555F 		.ascii	"BDU_UNINIT\000"
 3213      554E494E 
 3213      495400
 3214              	.LASF23:
 3215 015e 74737461 		.ascii	"tstate_t\000"
 3215      74655F74 
 3215      00
 3216              	.LASF237:
 3217 0167 6F75745F 		.ascii	"out_maxsize\000"
 3217      6D617873 
 3217      697A6500 
 3218              	.LASF45:
 3219 0173 705F6D74 		.ascii	"p_mtxlist\000"
 3219      786C6973 
 3219      7400
 3220              	.LASF105:
 3221 017d 7468645F 		.ascii	"thd_wait\000"
 3221      77616974 
 3221      00
 3222              	.LASF216:
 3223 0186 74786275 		.ascii	"txbuf\000"
 3223      6600
 3224              	.LASF260:
 3225 018c 42756C6B 		.ascii	"BulkUSBDriverVMT\000"
 3225      55534244 
 3225      72697665 
 3225      72564D54 
 3225      00
 3226              	.LASF49:
ARM GAS  /tmp/ccFW05b2.s 			page 59


 3227 019d 72656761 		.ascii	"regarm_t\000"
 3227      726D5F74 
 3227      00
 3228              	.LASF194:
 3229 01a6 4441494E 		.ascii	"DAINT\000"
 3229      5400
 3230              	.LASF114:
 3231 01ac 5553425F 		.ascii	"USB_EP0_WAITING_SETUP\000"
 3231      4550305F 
 3231      57414954 
 3231      494E475F 
 3231      53455455 
 3232              	.LASF193:
 3233 01c2 444F4550 		.ascii	"DOEPMSK\000"
 3233      4D534B00 
 3234              	.LASF154:
 3235 01ca 444F4550 		.ascii	"DOEPCTL\000"
 3235      43544C00 
 3236              	.LASF272:
 3237 01d2 5472616E 		.ascii	"TransmitLCDoverUSB\000"
 3237      736D6974 
 3237      4C43446F 
 3237      76657255 
 3237      534200
 3238              	.LASF1:
 3239 01e5 7369676E 		.ascii	"signed char\000"
 3239      65642063 
 3239      68617200 
 3240              	.LASF40:
 3241 01f1 705F7072 		.ascii	"p_preempt\000"
 3241      65656D70 
 3241      7400
 3242              	.LASF15:
 3243 01fb 75696E74 		.ascii	"uint8_t\000"
 3243      385F7400 
 3244              	.LASF127:
 3245 0203 5553425F 		.ascii	"USB_EVENT_STALLED\000"
 3245      4556454E 
 3245      545F5354 
 3245      414C4C45 
 3245      4400
 3246              	.LASF155:
 3247 0215 444F4550 		.ascii	"DOEPINT\000"
 3247      494E5400 
 3248              	.LASF27:
 3249 021d 6576656E 		.ascii	"eventmask_t\000"
 3249      746D6173 
 3249      6B5F7400 
 3250              	.LASF52:
 3251 0229 636F6E74 		.ascii	"context\000"
 3251      65787400 
 3252              	.LASF229:
 3253 0231 72787369 		.ascii	"rxsize\000"
 3253      7A6500
 3254              	.LASF4:
 3255 0238 756E7369 		.ascii	"unsigned char\000"
 3255      676E6564 
ARM GAS  /tmp/ccFW05b2.s 			page 60


 3255      20636861 
 3255      7200
 3256              	.LASF120:
 3257 0246 5553425F 		.ascii	"USB_EP0_ERROR\000"
 3257      4550305F 
 3257      4552524F 
 3257      5200
 3258              	.LASF78:
 3259 0254 715F6C69 		.ascii	"q_link\000"
 3259      6E6B00
 3260              	.LASF188:
 3261 025b 44434647 		.ascii	"DCFG\000"
 3261      00
 3262              	.LASF172:
 3263 0260 47434346 		.ascii	"GCCFG\000"
 3263      4700
 3264              	.LASF93:
 3265 0266 65703073 		.ascii	"ep0state\000"
 3265      74617465 
 3265      00
 3266              	.LASF150:
 3267 026f 44494550 		.ascii	"DIEPTSIZ\000"
 3267      5453495A 
 3267      00
 3268              	.LASF245:
 3269 0278 72657175 		.ascii	"requests_hook_cb\000"
 3269      65737473 
 3269      5F686F6F 
 3269      6B5F6362 
 3269      00
 3270              	.LASF21:
 3271 0289 5F426F6F 		.ascii	"_Bool\000"
 3271      6C00
 3272              	.LASF177:
 3273 028f 48434647 		.ascii	"HCFG\000"
 3273      00
 3274              	.LASF137:
 3275 0294 48434348 		.ascii	"HCCHAR\000"
 3275      415200
 3276              	.LASF157:
 3277 029b 73746D33 		.ascii	"stm32_otg_out_ep_t\000"
 3277      325F6F74 
 3277      675F6F75 
 3277      745F6570 
 3277      5F7400
 3278              	.LASF69:
 3279 02ae 63686172 		.ascii	"char\000"
 3279      00
 3280              	.LASF95:
 3281 02b3 6570306E 		.ascii	"ep0n\000"
 3281      00
 3282              	.LASF191:
 3283 02b8 72657376 		.ascii	"resvd80C\000"
 3283      64383043 
 3283      00
 3284              	.LASF270:
 3285 02c1 76697274 		.ascii	"virtual_control.c\000"
ARM GAS  /tmp/ccFW05b2.s 			page 61


 3285      75616C5F 
 3285      636F6E74 
 3285      726F6C2E 
 3285      6300
 3286              	.LASF185:
 3287 02d3 48505254 		.ascii	"HPRT\000"
 3287      00
 3288              	.LASF33:
 3289 02d8 705F7072 		.ascii	"p_prio\000"
 3289      696F00
 3290              	.LASF90:
 3291 02df 72656365 		.ascii	"receiving\000"
 3291      6976696E 
 3291      6700
 3292              	.LASF6:
 3293 02e9 5F5F7569 		.ascii	"__uint16_t\000"
 3293      6E743136 
 3293      5F7400
 3294              	.LASF70:
 3295 02f4 47656E65 		.ascii	"GenericQueue\000"
 3295      72696351 
 3295      75657565 
 3295      00
 3296              	.LASF67:
 3297 0301 77746F62 		.ascii	"wtobjp\000"
 3297      6A7000
 3298              	.LASF234:
 3299 0308 696E5F63 		.ascii	"in_cb\000"
 3299      6200
 3300              	.LASF262:
 3301 030e 67657474 		.ascii	"gett\000"
 3301      00
 3302              	.LASF50:
 3303 0313 73746B61 		.ascii	"stkalign_t\000"
 3303      6C69676E 
 3303      5F7400
 3304              	.LASF81:
 3305 031e 4F757470 		.ascii	"OutputQueue\000"
 3305      75745175 
 3305      65756500 
 3306              	.LASF179:
 3307 032a 48464E55 		.ascii	"HFNUM\000"
 3307      4D00
 3308              	.LASF134:
 3309 0330 75736265 		.ascii	"usbeventcb_t\000"
 3309      76656E74 
 3309      63625F74 
 3309      00
 3310              	.LASF145:
 3311 033d 73746D33 		.ascii	"stm32_otg_host_chn_t\000"
 3311      325F6F74 
 3311      675F686F 
 3311      73745F63 
 3311      686E5F74 
 3312              	.LASF89:
 3313 0352 7472616E 		.ascii	"transmitting\000"
 3313      736D6974 
ARM GAS  /tmp/ccFW05b2.s 			page 62


 3313      74696E67 
 3313      00
 3314              	.LASF225:
 3315 035f 55534249 		.ascii	"USBInEndpointState\000"
 3315      6E456E64 
 3315      706F696E 
 3315      74537461 
 3315      746500
 3316              	.LASF196:
 3317 0372 72657376 		.ascii	"resvd820\000"
 3317      64383230 
 3317      00
 3318              	.LASF197:
 3319 037b 72657376 		.ascii	"resvd824\000"
 3319      64383234 
 3319      00
 3320              	.LASF199:
 3321 0384 44564255 		.ascii	"DVBUSPULSE\000"
 3321      5350554C 
 3321      534500
 3322              	.LASF266:
 3323 038f 6C63645F 		.ascii	"lcd_buffer\000"
 3323      62756666 
 3323      657200
 3324              	.LASF201:
 3325 039a 44494550 		.ascii	"DIEPEMPMSK\000"
 3325      454D504D 
 3325      534B00
 3326              	.LASF131:
 3327 03a5 55534244 		.ascii	"USBDescriptor\000"
 3327      65736372 
 3327      6970746F 
 3327      7200
 3328              	.LASF215:
 3329 03b3 73746D33 		.ascii	"stm32_otg_params_t\000"
 3329      325F6F74 
 3329      675F7061 
 3329      72616D73 
 3329      5F7400
 3330              	.LASF97:
 3331 03c6 73657475 		.ascii	"setup\000"
 3331      7000
 3332              	.LASF51:
 3333 03cc 696E7463 		.ascii	"intctx\000"
 3333      747800
 3334              	.LASF44:
 3335 03d3 705F6570 		.ascii	"p_epending\000"
 3335      656E6469 
 3335      6E6700
 3336              	.LASF162:
 3337 03de 47525354 		.ascii	"GRSTCTL\000"
 3337      43544C00 
 3338              	.LASF128:
 3339 03e6 75736265 		.ascii	"usbevent_t\000"
 3339      76656E74 
 3339      5F7400
 3340              	.LASF202:
ARM GAS  /tmp/ccFW05b2.s 			page 63


 3341 03f1 72657376 		.ascii	"resvd838\000"
 3341      64383338 
 3341      00
 3342              	.LASF129:
 3343 03fa 75645F73 		.ascii	"ud_size\000"
 3343      697A6500 
 3344              	.LASF111:
 3345 0402 5553425F 		.ascii	"USB_SELECTED\000"
 3345      53454C45 
 3345      43544544 
 3345      00
 3346              	.LASF100:
 3347 040f 636F6E66 		.ascii	"configuration\000"
 3347      69677572 
 3347      6174696F 
 3347      6E00
 3348              	.LASF167:
 3349 041d 47525846 		.ascii	"GRXFSIZ\000"
 3349      53495A00 
 3350              	.LASF64:
 3351 0425 65735F6E 		.ascii	"es_next\000"
 3351      65787400 
 3352              	.LASF72:
 3353 042d 715F636F 		.ascii	"q_counter\000"
 3353      756E7465 
 3353      7200
 3354              	.LASF204:
 3355 0437 72657376 		.ascii	"resvd840\000"
 3355      64383430 
 3355      00
 3356              	.LASF252:
 3357 0440 42756C6B 		.ascii	"BulkUSBDriver\000"
 3357      55534244 
 3357      72697665 
 3357      7200
 3358              	.LASF63:
 3359 044e 4576656E 		.ascii	"EventSource\000"
 3359      74536F75 
 3359      72636500 
 3360              	.LASF13:
 3361 045a 5F5F7569 		.ascii	"__uint64_t\000"
 3361      6E743634 
 3361      5F7400
 3362              	.LASF175:
 3363 0465 44494550 		.ascii	"DIEPTXF\000"
 3363      54584600 
 3364              	.LASF11:
 3365 046d 6C6F6E67 		.ascii	"long unsigned int\000"
 3365      20756E73 
 3365      69676E65 
 3365      6420696E 
 3365      7400
 3366              	.LASF98:
 3367 047f 73746174 		.ascii	"status\000"
 3367      757300
 3368              	.LASF99:
 3369 0486 61646472 		.ascii	"address\000"
ARM GAS  /tmp/ccFW05b2.s 			page 64


 3369      65737300 
 3370              	.LASF96:
 3371 048e 65703065 		.ascii	"ep0endcb\000"
 3371      6E646362 
 3371      00
 3372              	.LASF160:
 3373 0497 47414842 		.ascii	"GAHBCFG\000"
 3373      43464700 
 3374              	.LASF240:
 3375 049f 696E5F6D 		.ascii	"in_multiplier\000"
 3375      756C7469 
 3375      706C6965 
 3375      7200
 3376              	.LASF59:
 3377 04ad 656C5F6E 		.ascii	"el_next\000"
 3377      65787400 
 3378              	.LASF249:
 3379 04b5 4244555F 		.ascii	"BDU_STOP\000"
 3379      53544F50 
 3379      00
 3380              	.LASF256:
 3381 04be 75736270 		.ascii	"usbp\000"
 3381      00
 3382              	.LASF214:
 3383 04c3 6E756D5F 		.ascii	"num_endpoints\000"
 3383      656E6470 
 3383      6F696E74 
 3383      7300
 3384              	.LASF75:
 3385 04d1 715F7772 		.ascii	"q_wrptr\000"
 3385      70747200 
 3386              	.LASF221:
 3387 04d9 74787369 		.ascii	"txsize\000"
 3387      7A6500
 3388              	.LASF109:
 3389 04e0 5553425F 		.ascii	"USB_STOP\000"
 3389      53544F50 
 3389      00
 3390              	.LASF104:
 3391 04e9 7468645F 		.ascii	"thd_ptr\000"
 3391      70747200 
 3392              	.LASF230:
 3393 04f1 7278636E 		.ascii	"rxcnt\000"
 3393      7400
 3394              	.LASF113:
 3395 04f7 75736273 		.ascii	"usbstate_t\000"
 3395      74617465 
 3395      5F7400
 3396              	.LASF180:
 3397 0502 72657376 		.ascii	"resvd40C\000"
 3397      64343043 
 3397      00
 3398              	.LASF158:
 3399 050b 474F5447 		.ascii	"GOTGCTL\000"
 3399      43544C00 
 3400              	.LASF130:
 3401 0513 75645F73 		.ascii	"ud_string\000"
ARM GAS  /tmp/ccFW05b2.s 			page 65


 3401      7472696E 
 3401      6700
 3402              	.LASF226:
 3403 051d 72786275 		.ascii	"rxbuf\000"
 3403      6600
 3404              	.LASF166:
 3405 0523 47525853 		.ascii	"GRXSTSP\000"
 3405      54535000 
 3406              	.LASF238:
 3407 052b 696E5F73 		.ascii	"in_state\000"
 3407      74617465 
 3407      00
 3408              	.LASF165:
 3409 0534 47525853 		.ascii	"GRXSTSR\000"
 3409      54535200 
 3410              	.LASF126:
 3411 053c 5553425F 		.ascii	"USB_EVENT_WAKEUP\000"
 3411      4556454E 
 3411      545F5741 
 3411      4B455550 
 3411      00
 3412              	.LASF208:
 3413 054d 50434743 		.ascii	"PCGCCTL\000"
 3413      43544C00 
 3414              	.LASF10:
 3415 0555 5F5F7569 		.ascii	"__uint32_t\000"
 3415      6E743332 
 3415      5F7400
 3416              	.LASF243:
 3417 0560 6576656E 		.ascii	"event_cb\000"
 3417      745F6362 
 3417      00
 3418              	.LASF54:
 3419 0569 4D757465 		.ascii	"Mutex\000"
 3419      7800
 3420              	.LASF12:
 3421 056f 6C6F6E67 		.ascii	"long long int\000"
 3421      206C6F6E 
 3421      6720696E 
 3421      7400
 3422              	.LASF110:
 3423 057d 5553425F 		.ascii	"USB_READY\000"
 3423      52454144 
 3423      5900
 3424              	.LASF55:
 3425 0587 6D5F7175 		.ascii	"m_queue\000"
 3425      65756500 
 3426              	.LASF184:
 3427 058f 72657376 		.ascii	"resvd41C\000"
 3427      64343143 
 3427      00
 3428              	.LASF94:
 3429 0598 6570306E 		.ascii	"ep0next\000"
 3429      65787400 
 3430              	.LASF254:
 3431 05a0 69717565 		.ascii	"iqueue\000"
 3431      756500
ARM GAS  /tmp/ccFW05b2.s 			page 66


 3432              	.LASF200:
 3433 05a7 72657376 		.ascii	"resvd830\000"
 3433      64383330 
 3433      00
 3434              	.LASF133:
 3435 05b0 75736265 		.ascii	"usbepcallback_t\000"
 3435      7063616C 
 3435      6C626163 
 3435      6B5F7400 
 3436              	.LASF233:
 3437 05c0 73657475 		.ascii	"setup_cb\000"
 3437      705F6362 
 3437      00
 3438              	.LASF205:
 3439 05c9 72657376 		.ascii	"resvd880\000"
 3439      64383830 
 3439      00
 3440              	.LASF265:
 3441 05d2 49544D5F 		.ascii	"ITM_RxBuffer\000"
 3441      52784275 
 3441      66666572 
 3441      00
 3442              	.LASF203:
 3443 05df 72657376 		.ascii	"resvd83C\000"
 3443      64383343 
 3443      00
 3444              	.LASF79:
 3445 05e8 716E6F74 		.ascii	"qnotify_t\000"
 3445      6966795F 
 3445      7400
 3446              	.LASF41:
 3447 05f2 705F7761 		.ascii	"p_waiting\000"
 3447      6974696E 
 3447      6700
 3448              	.LASF253:
 3449 05fc 6576656E 		.ascii	"event\000"
 3449      7400
 3450              	.LASF39:
 3451 0602 705F666C 		.ascii	"p_flags\000"
 3451      61677300 
 3452              	.LASF156:
 3453 060a 444F4550 		.ascii	"DOEPTSIZ\000"
 3453      5453495A 
 3453      00
 3454              	.LASF84:
 3455 0613 72656164 		.ascii	"read\000"
 3455      00
 3456              	.LASF182:
 3457 0618 4841494E 		.ascii	"HAINT\000"
 3457      5400
 3458              	.LASF0:
 3459 061e 756E7369 		.ascii	"unsigned int\000"
 3459      676E6564 
 3459      20696E74 
 3459      00
 3460              	.LASF247:
 3461 062b 55534243 		.ascii	"USBConfig\000"
ARM GAS  /tmp/ccFW05b2.s 			page 67


 3461      6F6E6669 
 3461      6700
 3462              	.LASF257:
 3463 0635 62756C6B 		.ascii	"bulk_in\000"
 3463      5F696E00 
 3464              	.LASF103:
 3465 063d 74787065 		.ascii	"txpending\000"
 3465      6E64696E 
 3465      6700
 3466              	.LASF211:
 3467 0647 73746D33 		.ascii	"stm32_otg_t\000"
 3467      325F6F74 
 3467      675F7400 
 3468              	.LASF241:
 3469 0653 73657475 		.ascii	"setup_buf\000"
 3469      705F6275 
 3469      6600
 3470              	.LASF209:
 3471 065d 72657376 		.ascii	"resvdE04\000"
 3471      64453034 
 3471      00
 3472              	.LASF48:
 3473 0666 54687265 		.ascii	"ThreadsList\000"
 3473      6164734C 
 3473      69737400 
 3474              	.LASF186:
 3475 0672 72657376 		.ascii	"resvd444\000"
 3475      64343434 
 3475      00
 3476              	.LASF235:
 3477 067b 6F75745F 		.ascii	"out_cb\000"
 3477      636200
 3478              	.LASF86:
 3479 0682 55534244 		.ascii	"USBDriver\000"
 3479      72697665 
 3479      7200
 3480              	.LASF183:
 3481 068c 4841494E 		.ascii	"HAINTMSK\000"
 3481      544D534B 
 3481      00
 3482              	.LASF28:
 3483 0695 666C6167 		.ascii	"flagsmask_t\000"
 3483      736D6173 
 3483      6B5F7400 
 3484              	.LASF236:
 3485 06a1 696E5F6D 		.ascii	"in_maxsize\000"
 3485      61787369 
 3485      7A6500
 3486              	.LASF164:
 3487 06ac 47494E54 		.ascii	"GINTMSK\000"
 3487      4D534B00 
 3488              	.LASF239:
 3489 06b4 6F75745F 		.ascii	"out_state\000"
 3489      73746174 
 3489      6500
 3490              	.LASF46:
 3491 06be 705F7265 		.ascii	"p_realprio\000"
ARM GAS  /tmp/ccFW05b2.s 			page 68


 3491      616C7072 
 3491      696F00
 3492              	.LASF116:
 3493 06c9 5553425F 		.ascii	"USB_EP0_WAITING_TX0\000"
 3493      4550305F 
 3493      57414954 
 3493      494E475F 
 3493      54583000 
 3494              	.LASF101:
 3495 06dd 6F746770 		.ascii	"otgparams\000"
 3495      6172616D 
 3495      7300
 3496              	.LASF108:
 3497 06e7 5553425F 		.ascii	"USB_UNINIT\000"
 3497      554E494E 
 3497      495400
 3498              	.LASF231:
 3499 06f2 5553424F 		.ascii	"USBOutEndpointState\000"
 3499      7574456E 
 3499      64706F69 
 3499      6E745374 
 3499      61746500 
 3500              	.LASF259:
 3501 0706 42756C6B 		.ascii	"BulkUSBConfig\000"
 3501      55534243 
 3501      6F6E6669 
 3501      6700
 3502              	.LASF207:
 3503 0714 72657376 		.ascii	"resvdD00\000"
 3503      64443030 
 3503      00
 3504              	.LASF14:
 3505 071d 6C6F6E67 		.ascii	"long long unsigned int\000"
 3505      206C6F6E 
 3505      6720756E 
 3505      7369676E 
 3505      65642069 
 3506              	.LASF174:
 3507 0734 48505458 		.ascii	"HPTXFSIZ\000"
 3507      4653495A 
 3507      00
 3508              	.LASF36:
 3509 073d 705F6F6C 		.ascii	"p_older\000"
 3509      64657200 
 3510              	.LASF250:
 3511 0745 4244555F 		.ascii	"BDU_READY\000"
 3511      52454144 
 3511      5900
 3512              	.LASF115:
 3513 074f 5553425F 		.ascii	"USB_EP0_TX\000"
 3513      4550305F 
 3513      545800
 3514              	.LASF16:
 3515 075a 75696E74 		.ascii	"uint16_t\000"
 3515      31365F74 
 3515      00
 3516              	.LASF139:
ARM GAS  /tmp/ccFW05b2.s 			page 69


 3517 0763 4843494E 		.ascii	"HCINT\000"
 3517      5400
 3518              	.LASF218:
 3519 0769 6C696E65 		.ascii	"linear\000"
 3519      617200
 3520              	.LASF26:
 3521 0770 6D73675F 		.ascii	"msg_t\000"
 3521      7400
 3522              	.LASF189:
 3523 0776 4443544C 		.ascii	"DCTL\000"
 3523      00
 3524              	.LASF242:
 3525 077b 55534245 		.ascii	"USBEndpointConfig\000"
 3525      6E64706F 
 3525      696E7443 
 3525      6F6E6669 
 3525      6700
 3526              	.LASF140:
 3527 078d 4843494E 		.ascii	"HCINTMSK\000"
 3527      544D534B 
 3527      00
 3528              	.LASF228:
 3529 0796 72787175 		.ascii	"rxqueued\000"
 3529      65756564 
 3529      00
 3530              	.LASF24:
 3531 079f 74736C69 		.ascii	"tslices_t\000"
 3531      6365735F 
 3531      7400
 3532              	.LASF159:
 3533 07a9 474F5447 		.ascii	"GOTGINT\000"
 3533      494E5400 
 3534              	.LASF219:
 3535 07b1 71756575 		.ascii	"queue\000"
 3535      6500
 3536              	.LASF227:
 3537 07b7 72787175 		.ascii	"rxqueue\000"
 3537      65756500 
 3538              	.LASF195:
 3539 07bf 4441494E 		.ascii	"DAINTMSK\000"
 3539      544D534B 
 3539      00
 3540              	.LASF198:
 3541 07c8 44564255 		.ascii	"DVBUSDIS\000"
 3541      53444953 
 3541      00
 3542              	.LASF153:
 3543 07d1 73746D33 		.ascii	"stm32_otg_in_ep_t\000"
 3543      325F6F74 
 3543      675F696E 
 3543      5F65705F 
 3543      7400
 3544              	.LASF213:
 3545 07e3 6F74675F 		.ascii	"otg_ram_size\000"
 3545      72616D5F 
 3545      73697A65 
 3545      00
ARM GAS  /tmp/ccFW05b2.s 			page 70


 3546              	.LASF124:
 3547 07f0 5553425F 		.ascii	"USB_EVENT_CONFIGURED\000"
 3547      4556454E 
 3547      545F434F 
 3547      4E464947 
 3547      55524544 
 3548              	.LASF210:
 3549 0805 4649464F 		.ascii	"FIFO\000"
 3549      00
 3550              	.LASF71:
 3551 080a 715F7761 		.ascii	"q_waiting\000"
 3551      6974696E 
 3551      6700
 3552              	.LASF82:
 3553 0814 42617365 		.ascii	"BaseSequentialStreamVMT\000"
 3553      53657175 
 3553      656E7469 
 3553      616C5374 
 3553      7265616D 
 3554              	.LASF22:
 3555 082c 746D6F64 		.ascii	"tmode_t\000"
 3555      655F7400 
 3556              	.LASF136:
 3557 0834 75736267 		.ascii	"usbgetdescriptor_t\000"
 3557      65746465 
 3557      73637269 
 3557      70746F72 
 3557      5F7400
 3558              	.LASF267:
 3559 0847 6C65645F 		.ascii	"led_buffer\000"
 3559      62756666 
 3559      657200
 3560              	.LASF106:
 3561 0852 77615F70 		.ascii	"wa_pump\000"
 3561      756D7000 
 3562              	.LASF91:
 3563 085a 696E5F70 		.ascii	"in_params\000"
 3563      6172616D 
 3563      7300
 3564              	.LASF255:
 3565 0864 6F717565 		.ascii	"oqueue\000"
 3565      756500
 3566              	.LASF5:
 3567 086b 73686F72 		.ascii	"short int\000"
 3567      7420696E 
 3567      7400
 3568              	.LASF224:
 3569 0875 746F7473 		.ascii	"totsize\000"
 3569      697A6500 
 3570              	.LASF19:
 3571 087d 75696E74 		.ascii	"uint64_t\000"
 3571      36345F74 
 3571      00
 3572              	.LASF223:
 3573 0886 6D6F6465 		.ascii	"mode\000"
 3573      00
 3574              	.LASF122:
ARM GAS  /tmp/ccFW05b2.s 			page 71


 3575 088b 5553425F 		.ascii	"USB_EVENT_RESET\000"
 3575      4556454E 
 3575      545F5245 
 3575      53455400 
 3576              	.LASF142:
 3577 089b 72657376 		.ascii	"resvd14\000"
 3577      64313400 
 3578              	.LASF143:
 3579 08a3 72657376 		.ascii	"resvd18\000"
 3579      64313800 
 3580              	.LASF151:
 3581 08ab 44545846 		.ascii	"DTXFSTS\000"
 3581      53545300 
 3582              	.LASF217:
 3583 08b3 74787175 		.ascii	"txqueue\000"
 3583      65756500 
 3584              	.LASF152:
 3585 08bb 72657376 		.ascii	"resvd1C\000"
 3585      64314300 
 3586              	.LASF192:
 3587 08c3 44494550 		.ascii	"DIEPMSK\000"
 3587      4D534B00 
 3588              	.LASF20:
 3589 08cb 626F6F6C 		.ascii	"bool_t\000"
 3589      5F7400
 3590              	.LASF258:
 3591 08d2 62756C6B 		.ascii	"bulk_out\000"
 3591      5F6F7574 
 3591      00
 3592              	.LASF144:
 3593 08db 72657376 		.ascii	"resvd1c\000"
 3593      64316300 
 3594              	.LASF135:
 3595 08e3 75736272 		.ascii	"usbreqhandler_t\000"
 3595      65716861 
 3595      6E646C65 
 3595      725F7400 
 3596              	.LASF146:
 3597 08f3 44494550 		.ascii	"DIEPCTL\000"
 3597      43544C00 
 3598              	.LASF132:
 3599 08fb 75736263 		.ascii	"usbcallback_t\000"
 3599      616C6C62 
 3599      61636B5F 
 3599      7400
 3600              	.LASF30:
 3601 0909 54687265 		.ascii	"Thread\000"
 3601      616400
 3602              	.LASF163:
 3603 0910 47494E54 		.ascii	"GINTSTS\000"
 3603      53545300 
 3604              	.LASF148:
 3605 0918 44494550 		.ascii	"DIEPINT\000"
 3605      494E5400 
 3606              	.LASF269:
 3607 0920 474E5520 		.ascii	"GNU C 4.9.3 20150529 (release) [ARM/embedded-4_9-br"
 3607      4320342E 
ARM GAS  /tmp/ccFW05b2.s 			page 72


 3607      392E3320 
 3607      32303135 
 3607      30353239 
 3608 0953 616E6368 		.ascii	"anch revision 224288] -mcpu=cortex-m4 -mfloat-abi=h"
 3608      20726576 
 3608      6973696F 
 3608      6E203232 
 3608      34323838 
 3609 0986 61726420 		.ascii	"ard -mfpu=fpv4-sp-d16 -mno-thumb-interwork -mthumb "
 3609      2D6D6670 
 3609      753D6670 
 3609      76342D73 
 3609      702D6431 
 3610 09b9 2D676764 		.ascii	"-ggdb -O2 -fomit-frame-pointer -falign-functions=16"
 3610      62202D4F 
 3610      32202D66 
 3610      6F6D6974 
 3610      2D667261 
 3611 09ec 202D666E 		.ascii	" -fno-math-errno -fsingle-precision-constant\000"
 3611      6F2D6D61 
 3611      74682D65 
 3611      72726E6F 
 3611      202D6673 
 3612              	.LASF169:
 3613 0a19 484E5054 		.ascii	"HNPTXSTS\000"
 3613      58535453 
 3613      00
 3614              	.LASF246:
 3615 0a22 736F665F 		.ascii	"sof_cb\000"
 3615      636200
 3616              	.LASF58:
 3617 0a29 4576656E 		.ascii	"EventListener\000"
 3617      744C6973 
 3617      74656E65 
 3617      7200
 3618              	.LASF170:
 3619 0a37 72657376 		.ascii	"resvd30\000"
 3619      64333000 
 3620              	.LASF206:
 3621 0a3f 72657376 		.ascii	"resvd8C0\000"
 3621      64384330 
 3621      00
 3622              	.LASF171:
 3623 0a48 72657376 		.ascii	"resvd34\000"
 3623      64333400 
 3624              	.LASF18:
 3625 0a50 75696E74 		.ascii	"uint32_t\000"
 3625      33325F74 
 3625      00
 3626              	.LASF107:
 3627 0a59 75736265 		.ascii	"usbep_t\000"
 3627      705F7400 
 3628              	.LASF47:
 3629 0a61 54687265 		.ascii	"ThreadsQueue\000"
 3629      61647351 
 3629      75657565 
 3629      00
ARM GAS  /tmp/ccFW05b2.s 			page 73


 3630              	.LASF268:
 3631 0a6e 42445531 		.ascii	"BDU1\000"
 3631      00
 3632              	.LASF125:
 3633 0a73 5553425F 		.ascii	"USB_EVENT_SUSPEND\000"
 3633      4556454E 
 3633      545F5355 
 3633      5350454E 
 3633      4400
 3634              	.LASF65:
 3635 0a85 7264796D 		.ascii	"rdymsg\000"
 3635      736700
 3636              	.LASF7:
 3637 0a8c 73686F72 		.ascii	"short unsigned int\000"
 3637      7420756E 
 3637      7369676E 
 3637      65642069 
 3637      6E7400
 3638              	.LASF190:
 3639 0a9f 44535453 		.ascii	"DSTS\000"
 3639      00
 3640              	.LASF244:
 3641 0aa4 6765745F 		.ascii	"get_descriptor_cb\000"
 3641      64657363 
 3641      72697074 
 3641      6F725F63 
 3641      6200
 3642              	.LASF80:
 3643 0ab6 496E7075 		.ascii	"InputQueue\000"
 3643      74517565 
 3643      756500
 3644              	.LASF92:
 3645 0ac1 6F75745F 		.ascii	"out_params\000"
 3645      70617261 
 3645      6D7300
 3646              	.LASF8:
 3647 0acc 5F5F696E 		.ascii	"__int32_t\000"
 3647      7433325F 
 3647      7400
 3648              	.LASF251:
 3649 0ad6 62647573 		.ascii	"bdustate_t\000"
 3649      74617465 
 3649      5F7400
 3650              	.LASF271:
 3651 0ae1 2F645F64 		.ascii	"/d_drive/axoloti/firmware\000"
 3651      72697665 
 3651      2F61786F 
 3651      6C6F7469 
 3651      2F666972 
 3652              	.LASF181:
 3653 0afb 48505458 		.ascii	"HPTXSTS\000"
 3653      53545300 
 3654              	.LASF61:
 3655 0b03 656C5F6D 		.ascii	"el_mask\000"
 3655      61736B00 
 3656              	.LASF173:
 3657 0b0b 72657376 		.ascii	"resvd58\000"
ARM GAS  /tmp/ccFW05b2.s 			page 74


 3657      64353800 
 3658              	.LASF119:
 3659 0b13 5553425F 		.ascii	"USB_EP0_SENDING_STS\000"
 3659      4550305F 
 3659      53454E44 
 3659      494E475F 
 3659      53545300 
 3660              	.LASF178:
 3661 0b27 48464952 		.ascii	"HFIR\000"
 3661      00
 3662              	.LASF117:
 3663 0b2c 5553425F 		.ascii	"USB_EP0_WAITING_STS\000"
 3663      4550305F 
 3663      57414954 
 3663      494E475F 
 3663      53545300 
 3664              	.LASF37:
 3665 0b40 705F6E61 		.ascii	"p_name\000"
 3665      6D6500
 3666              	.LASF57:
 3667 0b47 6D5F6E65 		.ascii	"m_next\000"
 3667      787400
 3668              	.LASF102:
 3669 0b4e 706D6E65 		.ascii	"pmnext\000"
 3669      787400
 3670              	.LASF220:
 3671 0b55 74787175 		.ascii	"txqueued\000"
 3671      65756564 
 3671      00
 3672              	.LASF161:
 3673 0b5e 47555342 		.ascii	"GUSBCFG\000"
 3673      43464700 
 3674              	.LASF118:
 3675 0b66 5553425F 		.ascii	"USB_EP0_RX\000"
 3675      4550305F 
 3675      525800
 3676              	.LASF176:
 3677 0b71 72657376 		.ascii	"resvd140\000"
 3677      64313430 
 3677      00
 3678              	.LASF43:
 3679 0b7a 705F6D73 		.ascii	"p_msg\000"
 3679      6700
 3680              	.LASF60:
 3681 0b80 656C5F6C 		.ascii	"el_listener\000"
 3681      69737465 
 3681      6E657200 
 3682              	.LASF38:
 3683 0b8c 705F7374 		.ascii	"p_state\000"
 3683      61746500 
 3684              		.ident	"GCC: (GNU Tools for ARM Embedded Processors) 4.9.3 20150529 (release) [ARM/embedded-4_9-br
ARM GAS  /tmp/ccFW05b2.s 			page 75


DEFINED SYMBOLS
                            *ABS*:00000000 virtual_control.c
     /tmp/ccFW05b2.s:20     .text:00000000 $t
     /tmp/ccFW05b2.s:26     .text:00000000 TransmitLCDoverUSB
     /tmp/ccFW05b2.s:76     .text:00000038 $d
     /tmp/ccFW05b2.s:84     .bss:00000000 $d
     /tmp/ccFW05b2.s:88     .bss:00000000 r.7654
                     .debug_frame:00000010 $d

UNDEFINED SYMBOLS
BDU1
led_buffer
lcd_buffer
