ARM GAS  /tmp/ccLCZedz.s 			page 1


   1              		.syntax unified
   2              		.cpu cortex-m4
   3              		.eabi_attribute 27, 1
   4              		.eabi_attribute 28, 1
   5              		.fpu fpv4-sp-d16
   6              		.eabi_attribute 20, 1
   7              		.eabi_attribute 21, 1
   8              		.eabi_attribute 23, 3
   9              		.eabi_attribute 24, 1
  10              		.eabi_attribute 25, 1
  11              		.eabi_attribute 26, 1
  12              		.eabi_attribute 30, 2
  13              		.eabi_attribute 34, 1
  14              		.eabi_attribute 18, 4
  15              		.thumb
  16              		.file	"voice.cpp"
  17              		.text
  18              	.Ltext0:
  19              		.cfi_sections	.debug_frame
  20              		.align	2
  21              		.p2align 4,,15
  22              		.global	_ZN8elements5Voice14ResetResonatorEv
  23              		.thumb
  24              		.thumb_func
  25              		.type	_ZN8elements5Voice14ResetResonatorEv, %function
  26              	_ZN8elements5Voice14ResetResonatorEv:
  27              		.fnstart
  28              	.LFB768:
  29              		.file 1 "./mutable_instruments/elements/dsp/voice.cpp"
  30              		.loc 1 67 0
  31              		.cfi_startproc
  32              		@ args = 0, pretend = 0, frame = 0
  33              		@ frame_needed = 0, uses_anonymous_args = 0
  34              	.LVL0:
  35 0000 70B5     		push	{r4, r5, r6, lr}
  36              		.save {r4, r5, r6, lr}
  37              		.cfi_def_cfa_offset 16
  38              		.cfi_offset 4, -16
  39              		.cfi_offset 5, -12
  40              		.cfi_offset 6, -8
  41              		.cfi_offset 14, -4
  42              		.loc 1 67 0
  43 0002 0646     		mov	r6, r0
  44              	.LBB263:
  45              		.loc 1 68 0
  46 0004 00F50550 		add	r0, r0, #8512
  47              	.LVL1:
  48 0008 0430     		adds	r0, r0, #4
  49 000a FFF7FEFF 		bl	_ZN8elements9Resonator4InitEv
  50              	.LVL2:
  51 000e 06F51D54 		add	r4, r6, #10048
  52 0012 06F52955 		add	r5, r6, #10816
  53 0016 3434     		adds	r4, r4, #52
  54 0018 1835     		adds	r5, r5, #24
  55              	.LVL3:
  56              	.L2:
  57              	.LBB264:
ARM GAS  /tmp/ccLCZedz.s 			page 2


  58              		.loc 1 70 0 discriminator 3
  59 001a 2046     		mov	r0, r4
  60 001c 0121     		movs	r1, #1
  61 001e 9434     		adds	r4, r4, #148
  62 0020 FFF7FEFF 		bl	_ZN8elements6String4InitEb
  63              	.LVL4:
  64              		.loc 1 69 0 discriminator 3
  65 0024 AC42     		cmp	r4, r5
  66 0026 F8D1     		bne	.L2
  67              	.LVL5:
  68              	.LBE264:
  69              	.LBB265:
  70              	.LBB266:
  71              		.file 2 "./mutable_instruments/elements/dsp/resonator.h"
  72              		.loc 2 81 0
  73 0028 42F26C12 		movw	r2, #8556
  74              	.LBE266:
  75              	.LBE265:
  76              	.LBB269:
  77              	.LBB270:
  78              		.file 3 "./mutable_instruments/stmlib/dsp/filter.h"
  79              		.loc 3 72 0
  80 002c 0023     		movs	r3, #0
  81              		.loc 3 74 0
  82 002e 0348     		ldr	r0, .L6
  83              		.loc 3 72 0
  84 0030 6360     		str	r3, [r4, #4]	@ float
  85              	.LBE270:
  86              	.LBE269:
  87              	.LBB272:
  88              	.LBB267:
  89              		.loc 2 81 0
  90 0032 3421     		movs	r1, #52
  91              	.LBE267:
  92              	.LBE272:
  93              	.LBB273:
  94              	.LBB271:
  95              		.loc 3 73 0
  96 0034 A360     		str	r3, [r4, #8]	@ float
  97              		.loc 3 74 0
  98 0036 2060     		str	r0, [r4]	@ float
  99              	.LVL6:
 100              	.LBE271:
 101              	.LBE273:
 102              	.LBB274:
 103              	.LBB268:
 104              		.loc 2 81 0
 105 0038 B150     		str	r1, [r6, r2]
 106 003a 70BD     		pop	{r4, r5, r6, pc}
 107              	.LVL7:
 108              	.L7:
 109              		.align	2
 110              	.L6:
 111 003c 85EB7F3F 		.word	1065347973
 112              	.LBE268:
 113              	.LBE274:
 114              	.LBE263:
ARM GAS  /tmp/ccLCZedz.s 			page 3


 115              		.cfi_endproc
 116              	.LFE768:
 117              		.fnend
 118              		.size	_ZN8elements5Voice14ResetResonatorEv, .-_ZN8elements5Voice14ResetResonatorEv
 119              		.align	2
 120              		.p2align 4,,15
 121              		.global	_ZN8elements5Voice4InitEv
 122              		.thumb
 123              		.thumb_func
 124              		.type	_ZN8elements5Voice4InitEv, %function
 125              	_ZN8elements5Voice4InitEv:
 126              		.fnstart
 127              	.LFB767:
 128              		.loc 1 41 0
 129              		.cfi_startproc
 130              		@ args = 0, pretend = 0, frame = 0
 131              		@ frame_needed = 0, uses_anonymous_args = 0
 132              	.LVL8:
 133 0040 2DE9F84F 		push	{r3, r4, r5, r6, r7, r8, r9, r10, fp, lr}
 134              		.save {r3, r4, r5, r6, r7, r8, r9, r10, fp, lr}
 135              		.cfi_def_cfa_offset 40
 136              		.cfi_offset 3, -40
 137              		.cfi_offset 4, -36
 138              		.cfi_offset 5, -32
 139              		.cfi_offset 6, -28
 140              		.cfi_offset 7, -24
 141              		.cfi_offset 8, -20
 142              		.cfi_offset 9, -16
 143              		.cfi_offset 10, -12
 144              		.cfi_offset 11, -8
 145              		.cfi_offset 14, -4
 146              		.loc 1 41 0
 147 0044 0446     		mov	r4, r0
 148              		.loc 1 42 0
 149 0046 FFF7FEFF 		bl	_ZN8elements18MultistageEnvelope4InitEv
 150              	.LVL9:
 151              		.loc 1 43 0
 152 004a 04F50150 		add	r0, r4, #8256
 153 004e 1C30     		adds	r0, r0, #28
 154 0050 FFF7FEFF 		bl	_ZN8elements7Exciter4InitEv
 155              	.LVL10:
 156              		.loc 1 44 0
 157 0054 04F50250 		add	r0, r4, #8320
 158 0058 1C30     		adds	r0, r0, #28
 159 005a FFF7FEFF 		bl	_ZN8elements7Exciter4InitEv
 160              	.LVL11:
 161              		.loc 1 45 0
 162 005e 04F50350 		add	r0, r4, #8384
 163 0062 1C30     		adds	r0, r0, #28
 164 0064 FFF7FEFF 		bl	_ZN8elements7Exciter4InitEv
 165              	.LVL12:
 166              		.loc 1 46 0
 167 0068 04F52E53 		add	r3, r4, #11136
 168              	.LBB275:
 169              	.LBB276:
 170              	.LBB277:
 171              		.file 4 "./mutable_instruments/elements/dsp/fx/fx_engine.h"
ARM GAS  /tmp/ccLCZedz.s 			page 4


 172              		.loc 4 109 0
 173 006c 04F56E52 		add	r2, r4, #15232
 174              		.loc 4 108 0
 175 0070 42F22011 		movw	r1, #8480
 176              	.LBE277:
 177              	.LBE276:
 178              	.LBE275:
 179              		.loc 1 46 0
 180 0074 3033     		adds	r3, r3, #48
 181              	.LVL13:
 182              	.LBB286:
 183              	.LBB285:
 184              	.LBB284:
 185              		.loc 4 109 0
 186 0076 3032     		adds	r2, r2, #48
 187              	.LVL14:
 188              	.LBB278:
 189              	.LBB279:
 190              	.LBB280:
 191              		.file 5 "/home/sbcu/Dropbox/pcb-layouts/axo-on-discovery-board/axoloti/platform_linux/arm-none-eab
 192              		.loc 5 703 0
 193 0078 9342     		cmp	r3, r2
 194              	.LBE280:
 195              	.LBE279:
 196              	.LBE278:
 197              		.loc 4 108 0
 198 007a 6350     		str	r3, [r4, r1]
 199              	.LBB283:
 200              	.LBB282:
 201              	.LBB281:
 202              		.loc 5 704 0
 203 007c 18BF     		it	ne
 204 007e 0021     		movne	r1, #0
 205              		.loc 5 703 0
 206 0080 03D0     		beq	.L11
 207              	.LVL15:
 208              	.L10:
 209              		.loc 5 704 0
 210 0082 43F8041B 		str	r1, [r3], #4	@ float
 211              	.LVL16:
 212              		.loc 5 703 0
 213 0086 9A42     		cmp	r2, r3
 214 0088 FBD1     		bne	.L10
 215              	.L11:
 216              	.LBE281:
 217              	.LBE282:
 218              	.LBE283:
 219              		.loc 4 110 0
 220 008a 42F21C13 		movw	r3, #8476
 221              	.LVL17:
 222 008e 0025     		movs	r5, #0
 223 0090 E550     		str	r5, [r4, r3]
 224              	.LBE284:
 225              	.LBE285:
 226              	.LBE286:
 227              		.loc 1 48 0
 228 0092 2046     		mov	r0, r4
ARM GAS  /tmp/ccLCZedz.s 			page 5


 229 0094 FFF7FEFF 		bl	_ZN8elements5Voice14ResetResonatorEv
 230              	.LVL18:
 231              	.LBB287:
 232              	.LBB288:
 233              		.file 6 "./mutable_instruments/elements/dsp/exciter.h"
 234              		.loc 6 73 0
 235 0098 04F5015C 		add	ip, r4, #8256
 236              	.LBE288:
 237              	.LBE287:
 238              	.LBB290:
 239              	.LBB291:
 240              		.loc 6 69 0
 241 009c 42F25C02 		movw	r2, #8284
 242              	.LBE291:
 243              	.LBE290:
 244              	.LBB293:
 245              	.LBB294:
 246              		.loc 6 77 0
 247 00a0 E646     		mov	lr, ip
 248              	.LBE294:
 249              	.LBE293:
 250              		.loc 1 59 0
 251 00a2 04F52957 		add	r7, r4, #10816
 252              	.LBB297:
 253              	.LBB292:
 254              		.loc 6 69 0
 255 00a6 4FF00508 		mov	r8, #5
 256 00aa 04F80280 		strb	r8, [r4, r2]
 257              	.LVL19:
 258              	.LBE292:
 259              	.LBE297:
 260              	.LBB298:
 261              	.LBB289:
 262              		.loc 6 73 0
 263 00ae DFF878B0 		ldr	fp, .L15
 264 00b2 CCF820B0 		str	fp, [ip, #32]	@ float
 265              	.LVL20:
 266              	.LBE289:
 267              	.LBE298:
 268              	.LBB299:
 269              	.LBB295:
 270              		.loc 6 77 0
 271 00b6 4FF07C52 		mov	r2, #1056964608
 272              	.LBE295:
 273              	.LBE299:
 274              	.LBB300:
 275              	.LBB301:
 276              		.loc 6 69 0
 277 00ba 42F29C0A 		movw	r10, #8348
 278              	.LBE301:
 279              	.LBE300:
 280              		.loc 1 58 0
 281 00be 43F6B039 		movw	r9, #15280
 282              		.loc 1 60 0
 283 00c2 3E46     		mov	r6, r7
 284              		.loc 1 61 0
 285 00c4 3846     		mov	r0, r7
ARM GAS  /tmp/ccLCZedz.s 			page 6


 286              		.loc 1 62 0
 287 00c6 04F56E51 		add	r1, r4, #15232
 288              		.loc 1 64 0
 289 00ca 43F6B138 		movw	r8, #15281
 290              	.LBB303:
 291              	.LBB296:
 292              		.loc 6 77 0
 293 00ce CEF82420 		str	r2, [lr, #36]	@ float
 294              	.LVL21:
 295              	.LBE296:
 296              	.LBE303:
 297              	.LBB304:
 298              	.LBB305:
 299              		.file 7 "./mutable_instruments/elements/dsp/multistage_envelope.h"
 300              		.loc 7 124 0
 301 00d2 0023     		movs	r3, #0
 302              		.loc 7 126 0
 303 00d4 A260     		str	r2, [r4, #8]	@ float
 304              		.loc 7 129 0
 305 00d6 A261     		str	r2, [r4, #24]	@ float
 306              		.loc 7 130 0
 307 00d8 E261     		str	r2, [r4, #28]	@ float
 308              		.loc 7 131 0
 309 00da 2262     		str	r2, [r4, #32]	@ float
 310              		.loc 7 122 0
 311 00dc 4FF0020C 		mov	ip, #2
 312              		.loc 7 134 0
 313 00e0 0122     		movs	r2, #1
 314              		.loc 7 121 0
 315 00e2 4FF0030B 		mov	fp, #3
 316              		.loc 7 125 0
 317 00e6 4FF07E5E 		mov	lr, #1065353216
 318              		.loc 7 137 0
 319 00ea A4F84A50 		strh	r5, [r4, #74]	@ movhi
 320 00ee A4F84850 		strh	r5, [r4, #72]	@ movhi
 321              	.LBE305:
 322              	.LBE304:
 323              	.LBB307:
 324              	.LBB302:
 325              		.loc 6 69 0
 326 00f2 04F80A50 		strb	r5, [r4, r10]
 327              	.LVL22:
 328              	.LBE302:
 329              	.LBE307:
 330              		.loc 1 58 0
 331 00f6 04F80950 		strb	r5, [r4, r9]
 332              	.LBB308:
 333              	.LBB306:
 334              		.loc 7 124 0
 335 00fa 2360     		str	r3, [r4]	@ float
 336              		.loc 7 127 0
 337 00fc E360     		str	r3, [r4, #12]	@ float
 338              		.loc 7 121 0
 339 00fe A4F844B0 		strh	fp, [r4, #68]	@ movhi
 340              		.loc 7 122 0
 341 0102 A4F846C0 		strh	ip, [r4, #70]	@ movhi
 342              		.loc 7 133 0
ARM GAS  /tmp/ccLCZedz.s 			page 7


 343 0106 84F830C0 		strb	ip, [r4, #48]
 344              		.loc 7 125 0
 345 010a C4F804E0 		str	lr, [r4, #4]	@ float
 346              		.loc 7 134 0
 347 010e 84F83120 		strb	r2, [r4, #49]
 348              		.loc 7 135 0
 349 0112 84F83220 		strb	r2, [r4, #50]
 350              	.LBE306:
 351              	.LBE308:
 352              		.loc 1 59 0
 353 0116 7B62     		str	r3, [r7, #36]	@ float
 354              		.loc 1 60 0
 355 0118 F362     		str	r3, [r6, #44]	@ float
 356              		.loc 1 61 0
 357 011a 8362     		str	r3, [r0, #40]	@ float
 358              		.loc 1 62 0
 359 011c 4B63     		str	r3, [r1, #52]	@ float
 360              		.loc 1 64 0
 361 011e 04F80850 		strb	r5, [r4, r8]
 362 0122 BDE8F88F 		pop	{r3, r4, r5, r6, r7, r8, r9, r10, fp, pc}
 363              	.LVL23:
 364              	.L16:
 365 0126 00BF     		.align	2
 366              	.L15:
 367 0128 3333333F 		.word	1060320051
 368              		.cfi_endproc
 369              	.LFE767:
 370              		.fnend
 371              		.size	_ZN8elements5Voice4InitEv, .-_ZN8elements5Voice4InitEv
 372              		.align	2
 373 012c AFF30080 		.p2align 4,,15
 374              		.global	_ZN8elements5Voice7ProcessERKNS_5PatchEffbPKfS5_PfS6_S6_j
 375              		.thumb
 376              		.thumb_func
 377              		.type	_ZN8elements5Voice7ProcessERKNS_5PatchEffbPKfS5_PfS6_S6_j, %function
 378              	_ZN8elements5Voice7ProcessERKNS_5PatchEffbPKfS5_PfS6_S6_j:
 379              		.fnstart
 380              	.LFB769:
 381              		.loc 1 100 0
 382              		.cfi_startproc
 383              		@ args = 20, pretend = 0, frame = 32
 384              		@ frame_needed = 0, uses_anonymous_args = 0
 385              	.LVL24:
 386 0130 2DE9F04F 		push	{r4, r5, r6, r7, r8, r9, r10, fp, lr}
 387              		.save {r4, r5, r6, r7, r8, r9, r10, fp, lr}
 388              		.cfi_def_cfa_offset 36
 389              		.cfi_offset 4, -36
 390              		.cfi_offset 5, -32
 391              		.cfi_offset 6, -28
 392              		.cfi_offset 7, -24
 393              		.cfi_offset 8, -20
 394              		.cfi_offset 9, -16
 395              		.cfi_offset 10, -12
 396              		.cfi_offset 11, -8
 397              		.cfi_offset 14, -4
 398 0134 2DED088B 		fstmfdd	sp!, {d8, d9, d10, d11}
 399              		.vsave {d8, d9, d10, d11}
ARM GAS  /tmp/ccLCZedz.s 			page 8


 400              		.cfi_def_cfa_offset 68
 401              		.cfi_offset 80, -68
 402              		.cfi_offset 81, -64
 403              		.cfi_offset 82, -60
 404              		.cfi_offset 83, -56
 405              		.cfi_offset 84, -52
 406              		.cfi_offset 85, -48
 407              		.cfi_offset 86, -44
 408              		.cfi_offset 87, -40
 409 0138 1E46     		mov	r6, r3
 410              		.pad #44
 411 013a 8BB0     		sub	sp, sp, #44
 412              		.cfi_def_cfa_offset 112
 413              		.loc 1 100 0
 414 013c 0446     		mov	r4, r0
 415 013e 0D46     		mov	r5, r1
 416 0140 B0EE409A 		fcpys	s18, s0
 417 0144 B0EE60AA 		fcpys	s20, s1
 418              	.LBB457:
 419              	.LBB458:
 420              	.LBB459:
 421              		.file 8 "./mutable_instruments/elements/dsp/voice.h"
 422              		.loc 8 87 0
 423 0148 43F6B033 		movw	r3, #15280
 424              	.LVL25:
 425              		.loc 8 86 0
 426 014c 002A     		cmp	r2, #0
 427 014e 00F06784 		beq	.L18
 428              		.loc 8 87 0
 429 0152 C35C     		ldrb	r3, [r0, r3]	@ zero_extendqisi2
 430 0154 83F00103 		eor	r3, r3, #1
 431              	.LVL26:
 432              		.loc 8 90 0
 433 0158 43F00401 		orr	r1, r3, #4
 434              	.LVL27:
 435 015c 0491     		str	r1, [sp, #16]
 436              	.LVL28:
 437 015e 03F00103 		and	r3, r3, #1
 438              	.LVL29:
 439              	.L19:
 440              	.LBE459:
 441              	.LBE458:
 442              	.LBB463:
 443              		.loc 1 105 0
 444 0162 D5ED007A 		flds	s15, [r5]
 445 0166 9FED2C7A 		flds	s14, .L166
 446              	.LBE463:
 447              	.LBB493:
 448              	.LBB460:
 449              		.loc 8 94 0
 450 016a 43F6B031 		movw	r1, #15280
 451              	.LBE460:
 452              	.LBE493:
 453              	.LBB494:
 454              		.loc 1 105 0
 455 016e F4EEC77A 		fcmpes	s15, s14
 456 0172 F1EE10FA 		fmstat
ARM GAS  /tmp/ccLCZedz.s 			page 9


 457              	.LBE494:
 458              	.LBB495:
 459              	.LBB461:
 460              		.loc 8 94 0
 461 0176 6254     		strb	r2, [r4, r1]
 462              	.LVL30:
 463              	.LBE461:
 464              	.LBE495:
 465              	.LBB496:
 466              		.loc 1 105 0
 467 0178 58D5     		bpl	.L133
 468              	.LBB464:
 469              		.loc 1 106 0
 470 017a DFED286A 		flds	s13, .L166+4
 471              		.loc 1 107 0
 472 017e 9FED287A 		flds	s14, .L166+8
 473              		.loc 1 106 0
 474 0182 B6EE086A 		fconsts	s12, #104
 475 0186 E7EE866A 		vfma.f32	s13, s15, s12
 476              	.LVL31:
 477              	.LBB465:
 478              	.LBB466:
 479              		.loc 7 124 0
 480 018a 0022     		movs	r2, #0
 481              	.LVL32:
 482              		.loc 7 122 0
 483 018c 0220     		movs	r0, #2
 484              	.LVL33:
 485              	.LBE466:
 486              	.LBE465:
 487              		.loc 1 109 0
 488 018e B1EE04BA 		fconsts	s22, #20
 489 0192 B2EE046A 		fconsts	s12, #36
 490 0196 F0EE4B3A 		fcpys	s7, s22
 491 019a E7EEC63A 		vfms.f32	s7, s15, s12
 492              	.LBB469:
 493              	.LBB467:
 494              		.loc 7 134 0
 495 019e 0121     		movs	r1, #1
 496              	.LVL34:
 497              		.loc 7 121 0
 498 01a0 0327     		movs	r7, #3
 499              	.LBE467:
 500              	.LBE469:
 501              		.loc 1 107 0
 502 01a2 26EE877A 		fmuls	s14, s13, s14
 503              	.LVL35:
 504              	.LBB470:
 505              	.LBB468:
 506              		.loc 7 125 0
 507 01a6 4FF07E5E 		mov	lr, #1065353216
 508              		.loc 7 124 0
 509 01aa 2260     		str	r2, [r4]	@ float
 510              		.loc 7 126 0
 511 01ac A260     		str	r2, [r4, #8]	@ float
 512              		.loc 7 127 0
 513 01ae E260     		str	r2, [r4, #12]	@ float
ARM GAS  /tmp/ccLCZedz.s 			page 10


 514              		.loc 7 137 0
 515 01b0 0022     		movs	r2, #0
 516              		.loc 7 129 0
 517 01b2 C4ED066A 		fsts	s13, [r4, #24]
 518              		.loc 7 130 0
 519 01b6 84ED077A 		fsts	s14, [r4, #28]
 520              		.loc 7 131 0
 521 01ba 84ED087A 		fsts	s14, [r4, #32]
 522              		.loc 7 121 0
 523 01be A4F84470 		strh	r7, [r4, #68]	@ movhi
 524              		.loc 7 122 0
 525 01c2 A4F84600 		strh	r0, [r4, #70]	@ movhi
 526              		.loc 7 133 0
 527 01c6 84F83000 		strb	r0, [r4, #48]
 528              		.loc 7 125 0
 529 01ca C4F804E0 		str	lr, [r4, #4]	@ float
 530              		.loc 7 134 0
 531 01ce 84F83110 		strb	r1, [r4, #49]
 532              		.loc 7 135 0
 533 01d2 84F83210 		strb	r1, [r4, #50]
 534              		.loc 7 137 0
 535 01d6 A4F84A20 		strh	r2, [r4, #74]	@ movhi
 536 01da A4F84820 		strh	r2, [r4, #72]	@ movhi
 537              	.LVL36:
 538              	.L22:
 539              	.LBE468:
 540              	.LBE470:
 541              	.LBE464:
 542              	.LBE496:
 543              	.LBB497:
 544              	.LBB498:
 545              		.loc 7 59 0
 546 01de 002B     		cmp	r3, #0
 547 01e0 59D0     		beq	.L25
 548              	.L153:
 549              		.loc 7 62 0
 550 01e2 B4F93630 		ldrsh	r3, [r4, #54]
 551 01e6 032B     		cmp	r3, #3
 552 01e8 04D0     		beq	.L26
 553              		.loc 7 60 0
 554 01ea 94F84C30 		ldrb	r3, [r4, #76]	@ zero_extendqisi2
 555 01ee 002B     		cmp	r3, #0
 556 01f0 00F00A85 		beq	.L27
 557              	.L26:
 558              		.loc 7 62 0
 559 01f4 94ED00BA 		flds	s22, [r4]
 560              	.L28:
 561              		.loc 7 64 0
 562 01f8 DFED0A7A 		flds	s15, .L166+12
 563              		.loc 7 62 0
 564 01fc 84ED0EBA 		fsts	s22, [r4, #56]
 565              		.loc 7 63 0
 566 0200 0022     		movs	r2, #0
 567              		.loc 7 64 0
 568 0202 B0EE677A 		fcpys	s14, s15
 569 0206 1346     		mov	r3, r2
 570 0208 C4ED107A 		fsts	s15, [r4, #64]
ARM GAS  /tmp/ccLCZedz.s 			page 11


 571              	.LVL37:
 572 020c B0EE674A 		fcpys	s8, s15
 573              		.loc 7 63 0
 574 0210 E286     		strh	r2, [r4, #54]	@ movhi
 575              		.loc 7 64 0
 576 0212 0121     		movs	r1, #1
 577 0214 0427     		movs	r7, #4
 578 0216 6EE0     		b	.L29
 579              	.L167:
 580              		.align	2
 581              	.L166:
 582 0218 CDCCCC3E 		.word	1053609165
 583 021c 9A99193E 		.word	1041865114
 584 0220 6666E63F 		.word	1072064102
 585 0224 00000000 		.word	0
 586 0228 9A99193F 		.word	1058642330
 587              	.LVL38:
 588              	.L133:
 589              	.LBE498:
 590              	.LBE497:
 591              	.LBB512:
 592              	.LBB471:
 593              		.loc 1 110 0
 594 022c 5FED026A 		flds	s13, .L166+16
 595 0230 F4EEE67A 		fcmpes	s15, s13
 596 0234 F1EE10FA 		fmstat
 597 0238 40F13E84 		bpl	.L134
 598              	.LVL39:
 599              	.LBB472:
 600              		.loc 1 111 0
 601 023c 77EEC77A 		fsubs	s15, s15, s14
 602              	.LVL40:
 603 0240 B1EE047A 		fconsts	s14, #20
 604              	.LBB473:
 605              	.LBB474:
 606              		.loc 7 124 0
 607 0244 0022     		movs	r2, #0
 608              	.LVL41:
 609              	.LBE474:
 610              	.LBE473:
 611              		.loc 1 111 0
 612 0246 67EE877A 		fmuls	s15, s15, s14
 613              	.LBB477:
 614              	.LBB475:
 615              		.loc 7 130 0
 616 024a DD4F     		ldr	r7, .L168
 617              		.loc 7 129 0
 618 024c DFF884C3 		ldr	ip, .L168+20
 619              		.loc 7 124 0
 620 0250 2260     		str	r2, [r4]	@ float
 621              		.loc 7 125 0
 622 0252 B7EE00BA 		fconsts	s22, #112
 623              		.loc 7 122 0
 624 0256 0220     		movs	r0, #2
 625              	.LVL42:
 626              		.loc 7 134 0
 627 0258 0121     		movs	r1, #1
ARM GAS  /tmp/ccLCZedz.s 			page 12


 628              	.LVL43:
 629              		.loc 7 121 0
 630 025a 4FF0030E 		mov	lr, #3
 631              		.loc 7 127 0
 632 025e E260     		str	r2, [r4, #12]	@ float
 633              		.loc 7 137 0
 634 0260 0022     		movs	r2, #0
 635              		.loc 7 126 0
 636 0262 C4ED027A 		fsts	s15, [r4, #8]
 637              		.loc 7 129 0
 638 0266 C4F818C0 		str	ip, [r4, #24]	@ float
 639              		.loc 7 130 0
 640 026a E761     		str	r7, [r4, #28]	@ float
 641              		.loc 7 131 0
 642 026c 2762     		str	r7, [r4, #32]	@ float
 643              		.loc 7 121 0
 644 026e A4F844E0 		strh	lr, [r4, #68]	@ movhi
 645              		.loc 7 122 0
 646 0272 A4F84600 		strh	r0, [r4, #70]	@ movhi
 647              		.loc 7 133 0
 648 0276 84F83000 		strb	r0, [r4, #48]
 649              		.loc 7 125 0
 650 027a 84ED01BA 		fsts	s22, [r4, #4]
 651              	.LBE475:
 652              	.LBE477:
 653              	.LBE472:
 654              	.LBE471:
 655              	.LBE512:
 656              		.loc 1 104 0
 657 027e F0EE4B3A 		fcpys	s7, s22
 658              	.LBB513:
 659              	.LBB490:
 660              	.LBB479:
 661              	.LBB478:
 662              	.LBB476:
 663              		.loc 7 134 0
 664 0282 84F83110 		strb	r1, [r4, #49]
 665              		.loc 7 135 0
 666 0286 84F83210 		strb	r1, [r4, #50]
 667              		.loc 7 137 0
 668 028a A4F84A20 		strh	r2, [r4, #74]	@ movhi
 669 028e A4F84820 		strh	r2, [r4, #72]	@ movhi
 670              	.LVL44:
 671              	.LBE476:
 672              	.LBE478:
 673              	.LBE479:
 674              	.LBE490:
 675              	.LBE513:
 676              	.LBB514:
 677              	.LBB505:
 678              		.loc 7 59 0
 679 0292 002B     		cmp	r3, #0
 680 0294 A5D1     		bne	.L153
 681              	.LVL45:
 682              	.L25:
 683              		.loc 7 65 0
 684 0296 049A     		ldr	r2, [sp, #16]
ARM GAS  /tmp/ccLCZedz.s 			page 13


 685 0298 9107     		lsls	r1, r2, #30
 686 029a 00F1F783 		bmi	.L154
 687              		.loc 7 69 0
 688 029e 94ED104A 		flds	s8, [r4, #64]
 689 02a2 F7EE007A 		fconsts	s15, #112
 690 02a6 B4EEE74A 		fcmpes	s8, s15
 691 02aa F1EE10FA 		fmstat
 692 02ae C0F2B684 		blt	.L155
 693              		.loc 7 70 0
 694 02b2 E28E     		ldrh	r2, [r4, #54]
 695              		.loc 7 73 0
 696 02b4 B4F84A10 		ldrh	r1, [r4, #74]
 697              		.loc 7 72 0
 698 02b8 9FEDC27A 		flds	s14, .L168+4
 699              		.loc 7 70 0
 700 02bc 10B2     		sxth	r0, r2
 701              		.loc 7 71 0
 702 02be 0132     		adds	r2, r2, #1
 703 02c0 92B2     		uxth	r2, r2
 704              		.loc 7 70 0
 705 02c2 04EB8000 		add	r0, r4, r0, lsl #2
 706 02c6 90ED01BA 		flds	s22, [r0, #4]
 707              		.loc 7 71 0
 708 02ca E286     		strh	r2, [r4, #54]	@ movhi
 709              		.loc 7 73 0
 710 02cc 12B2     		sxth	r2, r2
 711 02ce 8A42     		cmp	r2, r1
 712              		.loc 7 74 0
 713 02d0 02BF     		ittt	eq
 714 02d2 B4F84820 		ldrheq	r2, [r4, #72]
 715 02d6 E286     		strheq	r2, [r4, #54]	@ movhi
 716 02d8 12B2     		sxtheq	r2, r2
 717              		.loc 7 70 0
 718 02da 84ED0EBA 		fsts	s22, [r4, #56]
 719              		.loc 7 72 0
 720 02de 84ED107A 		fsts	s14, [r4, #64]
 721              		.loc 7 74 0
 722 02e2 B0EE474A 		fcpys	s8, s14
 723 02e6 511C     		adds	r1, r2, #1
 724 02e8 0427     		movs	r7, #4
 725              	.L33:
 726              	.LVL46:
 727              		.loc 7 79 0
 728 02ea 022A     		cmp	r2, #2
 729 02ec 00F0DC83 		beq	.L31
 730              	.LVL47:
 731              		.loc 7 83 0
 732 02f0 032A     		cmp	r2, #3
 733 02f2 00F09084 		beq	.L156
 734              	.LVL48:
 735              	.L29:
 736              		.loc 7 84 0
 737 02f6 04EB8200 		add	r0, r4, r2, lsl #2
 738              	.LBB499:
 739              	.LBB500:
 740              		.loc 7 329 0
 741 02fa D0ED066A 		flds	s13, [r0, #24]
ARM GAS  /tmp/ccLCZedz.s 			page 14


 742 02fe DFEDB77A 		flds	s15, .L168+28
 743              		.loc 7 332 0
 744 0302 DFF8D4E2 		ldr	lr, .L168+24
 745              		.loc 7 329 0
 746 0306 66EEA76A 		fmuls	s13, s13, s15
 747              	.LVL49:
 748              		.loc 7 330 0
 749 030a FCEEE67A 		ftouizs	s15, s13
 750              	.LVL50:
 751              		.loc 7 332 0
 752 030e 17EE900A 		fmrs	r0, s15	@ int
 753 0312 8000     		lsls	r0, r0, #2
 754 0314 00EB0E0C 		add	ip, r0, lr
 755              		.loc 7 331 0
 756 0318 B8EE676A 		fuitos	s12, s15
 757              		.loc 7 334 0
 758 031c DCED015A 		flds	s11, [ip, #4]
 759              		.loc 7 332 0
 760 0320 DCED007A 		flds	s15, [ip]
 761              	.LVL51:
 762              		.loc 7 331 0
 763 0324 76EEC66A 		fsubs	s13, s13, s12
 764              	.LVL52:
 765              		.loc 7 334 0
 766 0328 35EEE76A 		fsubs	s12, s11, s15
 767 032c E6EE867A 		vfma.f32	s15, s13, s12
 768              	.LVL53:
 769              	.L36:
 770              	.LBE500:
 771              	.LBE499:
 772              		.loc 7 87 0
 773 0330 2244     		add	r2, r2, r4
 774              		.loc 7 88 0
 775 0332 A548     		ldr	r0, .L168+8
 776              		.loc 7 87 0
 777 0334 92F83020 		ldrb	r2, [r2, #48]	@ zero_extendqisi2
 778              	.LBE505:
 779              	.LBE514:
 780              		.loc 1 122 0
 781 0338 DFEDA44A 		flds	s9, .L168+12
 782 033c D5ED0B2A 		flds	s5, [r5, #44]
 783 0340 9FEDA33A 		flds	s6, .L168+16
 784              		.loc 1 123 0
 785 0344 95ED026A 		flds	s12, [r5, #8]
 786              	.LBB515:
 787              	.LBB506:
 788              		.loc 7 88 0
 789 0348 0A32     		adds	r2, r2, #10
 790              		.loc 7 90 0
 791 034a 04EB8101 		add	r1, r4, r1, lsl #2
 792              		.loc 7 88 0
 793 034e 50F82220 		ldr	r2, [r0, r2, lsl #2]
 794              	.LVL54:
 795              		.loc 7 90 0
 796 0352 D1ED005A 		flds	s11, [r1]
 797              	.LBB501:
 798              	.LBB502:
ARM GAS  /tmp/ccLCZedz.s 			page 15


 799              		.loc 7 332 0
 800 0356 1344     		add	r3, r3, r2
 801              		.loc 7 333 0
 802 0358 1744     		add	r7, r7, r2
 803              		.loc 7 334 0
 804 035a 97ED005A 		flds	s10, [r7]
 805              		.loc 7 332 0
 806 035e D3ED006A 		flds	s13, [r3]
 807              	.LVL55:
 808              		.loc 7 334 0
 809 0362 35EE665A 		fsubs	s10, s10, s13
 810              	.LBE502:
 811              	.LBE501:
 812              		.loc 7 90 0
 813 0366 75EECB5A 		fsubs	s11, s11, s22
 814              	.LBB504:
 815              	.LBB503:
 816              		.loc 7 334 0
 817 036a E5EE076A 		vfma.f32	s13, s10, s14
 818              	.LVL56:
 819              	.LBE503:
 820              	.LBE504:
 821              	.LBE506:
 822              	.LBE515:
 823              		.loc 1 119 0
 824 036e 04F52953 		add	r3, r4, #10816
 825              	.LVL57:
 826 0372 2833     		adds	r3, r3, #40
 827              		.loc 1 122 0
 828 0374 B0EE647A 		fcpys	s14, s9
 829              	.LVL58:
 830 0378 A2EE837A 		vfma.f32	s14, s5, s6
 831              	.LBB516:
 832              	.LBB517:
 833              		.loc 6 77 0
 834 037c 04F50152 		add	r2, r4, #8256
 835              	.LVL59:
 836              	.LBE517:
 837              	.LBE516:
 838              		.loc 1 119 0
 839 0380 1946     		mov	r1, r3
 840              	.LBB519:
 841              	.LBB507:
 842              		.loc 7 90 0
 843 0382 A6EEA5BA 		vfma.f32	s22, s13, s11
 844              	.LBE507:
 845              	.LBE519:
 846              		.loc 1 119 0
 847 0386 0793     		str	r3, [sp, #28]
 848              	.LBB520:
 849              	.LBB521:
 850              		.loc 6 73 0
 851 0388 04F50253 		add	r3, r4, #8320
 852              	.LBE521:
 853              	.LBE520:
 854              	.LBB523:
 855              	.LBB508:
ARM GAS  /tmp/ccLCZedz.s 			page 16


 856              		.loc 7 89 0
 857 038c 77EE847A 		fadds	s15, s15, s8
 858              	.LVL60:
 859              	.LBE508:
 860              	.LBE523:
 861              		.loc 1 123 0
 862 0390 26EE077A 		fmuls	s14, s12, s14
 863              	.LBB524:
 864              	.LBB509:
 865              		.loc 7 89 0
 866 0394 C4ED107A 		fsts	s15, [r4, #64]
 867              		.loc 7 90 0
 868 0398 84ED0FBA 		fsts	s22, [r4, #60]
 869              	.LBE509:
 870              	.LBE524:
 871              		.loc 1 119 0
 872 039c D1ED008A 		flds	s17, [r1]
 873              	.LBB525:
 874              	.LBB518:
 875              		.loc 6 77 0
 876 03a0 82ED097A 		fsts	s14, [r2, #36]
 877              	.LBE518:
 878              	.LBE525:
 879              		.loc 1 125 0
 880 03a4 2A69     		ldr	r2, [r5, #16]	@ float
 881              	.LBB526:
 882              	.LBB522:
 883              		.loc 6 73 0
 884 03a6 1A62     		str	r2, [r3, #32]	@ float
 885              	.LBE522:
 886              	.LBE526:
 887              	.LBB527:
 888              	.LBB528:
 889              		.loc 6 77 0
 890 03a8 04F50253 		add	r3, r4, #8320
 891              	.LBE528:
 892              	.LBE527:
 893              		.loc 1 126 0
 894 03ac 6A69     		ldr	r2, [r5, #20]	@ float
 895              	.LBB530:
 896              	.LBB529:
 897              		.loc 6 77 0
 898 03ae 5A62     		str	r2, [r3, #36]	@ float
 899              	.LBE529:
 900              	.LBE530:
 901              	.LBB531:
 902              	.LBB532:
 903              		.loc 6 65 0
 904 03b0 04F50353 		add	r3, r4, #8384
 905              	.LBE532:
 906              	.LBE531:
 907              		.loc 1 127 0
 908 03b4 6A6A     		ldr	r2, [r5, #36]	@ float
 909              	.LBB534:
 910              	.LBB533:
 911              		.loc 6 65 0
 912 03b6 DA60     		str	r2, [r3, #12]	@ float
ARM GAS  /tmp/ccLCZedz.s 			page 17


 913              	.LBE533:
 914              	.LBE534:
 915              		.loc 1 118 0
 916 03b8 23EE8BBA 		fmuls	s22, s7, s22
 917              	.LVL61:
 918              		.loc 1 119 0
 919 03bc DDED207A 		flds	s15, [sp, #128]	@ int
 920              		.loc 1 129 0
 921 03c0 D5ED076A 		flds	s13, [r5, #28]
 922              		.loc 1 119 0
 923 03c4 7BEE688A 		fsubs	s17, s22, s17
 924 03c8 F8EE679A 		fuitos	s19, s15
 925              		.loc 1 133 0
 926 03cc F4EEE46A 		fcmpes	s13, s9
 927 03d0 F1EE10FA 		fmstat
 928              		.loc 1 119 0
 929 03d4 C8EEA98A 		fdivs	s17, s17, s19
 930              	.LVL62:
 931              		.loc 1 133 0
 932 03d8 00F2DD83 		bhi	.L135
 933              		.loc 1 133 0 is_stmt 0 discriminator 1
 934 03dc F6EE047A 		fconsts	s15, #100
 935 03e0 26EEA77A 		fmuls	s14, s13, s15
 936              	.L39:
 937              	.LVL63:
 938              	.LBB535:
 939              	.LBB536:
 940              		.loc 6 81 0 is_stmt 1 discriminator 4
 941 03e4 F1EE007A 		fconsts	s15, #16
 942 03e8 27EE277A 		fmuls	s14, s14, s15
 943              	.LVL64:
 944              		.loc 6 84 0 discriminator 4
 945 03ec 04F50350 		add	r0, r4, #8384
 946              		.loc 6 82 0 discriminator 4
 947 03f0 FDEEC77A 		ftosizs	s15, s14
 948              	.LVL65:
 949              	.LBE536:
 950              	.LBE535:
 951              	.LBB538:
 952              	.LBB539:
 953              		.loc 6 77 0 discriminator 4
 954 03f4 0246     		mov	r2, r0
 955              	.LVL66:
 956              	.LBE539:
 957              	.LBE538:
 958              	.LBB541:
 959              	.LBB537:
 960              		.loc 6 82 0 discriminator 4
 961 03f6 F8EEE76A 		fsitos	s13, s15
 962              	.LVL67:
 963              		.loc 6 83 0 discriminator 4
 964 03fa 17EE903A 		fmrs	r3, s15	@ int
 965              	.LVL68:
 966              		.loc 6 82 0 discriminator 4
 967 03fe 37EE667A 		fsubs	s14, s14, s13
 968              	.LVL69:
 969              		.loc 6 83 0 discriminator 4
ARM GAS  /tmp/ccLCZedz.s 			page 18


 970 0402 0133     		adds	r3, r3, #1
 971 0404 DBB2     		uxtb	r3, r3
 972              		.loc 6 84 0 discriminator 4
 973 0406 80ED087A 		fsts	s14, [r0, #32]
 974              	.LVL70:
 975 040a 062B     		cmp	r3, #6
 976 040c 42F2DC01 		movw	r1, #8412
 977              	.LBE537:
 978              	.LBE541:
 979              		.loc 1 134 0 discriminator 4
 980 0410 286A     		ldr	r0, [r5, #32]	@ float
 981 0412 28BF     		it	cs
 982 0414 0623     		movcs	r3, #6
 983 0416 6354     		strb	r3, [r4, r1]
 984              	.LVL71:
 985              	.LBB542:
 986              	.LBB540:
 987              		.loc 6 77 0 discriminator 4
 988 0418 5062     		str	r0, [r2, #36]	@ float
 989              	.LBE540:
 990              	.LBE542:
 991              	.LBB543:
 992              	.LBB544:
 993              		.loc 6 65 0 discriminator 4
 994 041a 04F50453 		add	r3, r4, #8448
 995              	.LBE544:
 996              	.LBE543:
 997              		.loc 1 137 0 discriminator 4
 998 041e 04F52951 		add	r1, r4, #10816
 999              	.LVL72:
 1000              		.loc 1 135 0 discriminator 4
 1001 0422 6A6A     		ldr	r2, [r5, #36]	@ float
 1002              	.LVL73:
 1003              	.LBB546:
 1004              	.LBB545:
 1005              		.loc 6 65 0 discriminator 4
 1006 0424 DA60     		str	r2, [r3, #12]	@ float
 1007              	.LBE545:
 1008              	.LBE546:
 1009              		.loc 1 137 0 discriminator 4
 1010 0426 3031     		adds	r1, r1, #48
 1011 0428 04F50150 		add	r0, r4, #8256
 1012              	.LVL74:
 1013 042c 0A46     		mov	r2, r1
 1014              	.LVL75:
 1015 042e 0891     		str	r1, [sp, #32]
 1016 0430 1C30     		adds	r0, r0, #28
 1017 0432 0499     		ldr	r1, [sp, #16]
 1018 0434 209B     		ldr	r3, [sp, #128]
 1019              	.LVL76:
 1020 0436 FFF7FEFF 		bl	_ZN8elements7Exciter7ProcessEhPfj
 1021              	.LVL77:
 1022              		.loc 1 140 0 discriminator 4
 1023 043a D5ED037A 		flds	s15, [r5, #12]
 1024              		.loc 1 143 0 discriminator 4
 1025 043e 0499     		ldr	r1, [sp, #16]
 1026              		.loc 1 140 0 discriminator 4
ARM GAS  /tmp/ccLCZedz.s 			page 19


 1027 0440 B7EE088A 		fconsts	s16, #120
 1028 0444 67EE887A 		fmuls	s15, s15, s16
 1029              	.LVL78:
 1030              		.loc 1 141 0 discriminator 4
 1031 0448 F7EE00AA 		fconsts	s21, #112
 1032 044c F4EEEA7A 		fcmpes	s15, s21
 1033 0450 F1EE10FA 		fmstat
 1034 0454 C8BF     		it	gt
 1035 0456 77EEEAAA 		fsubsgt	s21, s15, s21
 1036              		.loc 1 142 0 discriminator 4
 1037 045a B7EE007A 		fconsts	s14, #112
 1038              		.loc 1 143 0 discriminator 4
 1039 045e 04F52B53 		add	r3, r4, #10944
 1040 0462 03F13003 		add	r3, r3, #48
 1041              		.loc 1 142 0 discriminator 4
 1042 0466 F4EEC77A 		fcmpes	s15, s14
 1043 046a 9FED588A 		flds	s16, .L168+12
 1044              		.loc 1 141 0 discriminator 4
 1045 046e D8BF     		it	le
 1046 0470 DFED54AA 		fldsle	s21, .L168+4
 1047              		.loc 1 143 0 discriminator 4
 1048 0474 0593     		str	r3, [sp, #20]
 1049 0476 04F50250 		add	r0, r4, #8320
 1050              		.loc 1 141 0 discriminator 4
 1051 047a C8BF     		it	gt
 1052 047c 7AEEAAAA 		faddsgt	s21, s21, s21
 1053              	.LVL79:
 1054              		.loc 1 143 0 discriminator 4
 1055 0480 1A46     		mov	r2, r3
 1056              		.loc 1 142 0 discriminator 4
 1057 0482 F1EE10FA 		fmstat
 1058              		.loc 1 143 0 discriminator 4
 1059 0486 9846     		mov	r8, r3
 1060 0488 00F11C00 		add	r0, r0, #28
 1061 048c 209B     		ldr	r3, [sp, #128]
 1062              		.loc 1 142 0 discriminator 4
 1063 048e 48BF     		it	mi
 1064 0490 27EE888A 		fmulsmi	s16, s15, s16
 1065              	.LVL80:
 1066              		.loc 1 143 0 discriminator 4
 1067 0494 FFF7FEFF 		bl	_ZN8elements7Exciter7ProcessEhPfj
 1068              	.LVL81:
 1069              		.loc 1 151 0 discriminator 4
 1070 0498 B6EE002A 		fconsts	s4, #96
 1071 049c F0EE4B0A 		fcpys	s1, s22
 1072 04a0 4146     		mov	r1, r8
 1073 04a2 2AEE822A 		fmuls	s4, s21, s4
 1074 04a6 F0EE6A1A 		fcpys	s3, s21
 1075 04aa 04F15000 		add	r0, r4, #80
 1076 04ae B0EE490A 		fcpys	s0, s18
 1077 04b2 95ED0C1A 		flds	s2, [r5, #48]
 1078 04b6 209A     		ldr	r2, [sp, #128]
 1079 04b8 FFF7FEFF 		bl	_ZN8elements4Tube7ProcessEffffPffj
 1080              	.LVL82:
 1081              	.LBB547:
 1082              		.loc 1 153 0 discriminator 4
 1083 04bc 209B     		ldr	r3, [sp, #128]
ARM GAS  /tmp/ccLCZedz.s 			page 20


 1084 04be 002B     		cmp	r3, #0
 1085 04c0 00F0BA80 		beq	.L53
 1086 04c4 209B     		ldr	r3, [sp, #128]
 1087 04c6 03F6BC22 		addw	r2, r3, #2748
 1088 04ca 059B     		ldr	r3, [sp, #20]
 1089 04cc 04EB8202 		add	r2, r4, r2, lsl #2
 1090              	.LVL83:
 1091              	.L47:
 1092              		.loc 1 154 0 discriminator 3
 1093 04d0 F6EC017A 		fldmias	r6!, {s15}
 1094 04d4 93ED007A 		flds	s14, [r3]
 1095 04d8 E8EE077A 		vfma.f32	s15, s16, s14
 1096 04dc E3EC017A 		fstmias	r3!, {s15}
 1097              		.loc 1 153 0 discriminator 3
 1098 04e0 9342     		cmp	r3, r2
 1099 04e2 F5D1     		bne	.L47
 1100              	.LVL84:
 1101 04e4 04F50453 		add	r3, r4, #8448
 1102 04e8 1C33     		adds	r3, r3, #28
 1103 04ea 1A46     		mov	r2, r3
 1104              	.LBE547:
 1105              	.LBB548:
 1106              	.LBB549:
 1107              	.LBB550:
 1108              	.LBB551:
 1109              	.LBB552:
 1110              	.LBB553:
 1111              	.LBB554:
 1112              		.file 9 "./mutable_instruments/stmlib/dsp/cosine_oscillator.h"
 1113              		.loc 9 86 0
 1114 04ec 04F50451 		add	r1, r4, #8448
 1115 04f0 0393     		str	r3, [sp, #12]
 1116 04f2 42F21C13 		movw	r3, #8476
 1117              	.LBE554:
 1118              	.LBE553:
 1119              	.LBB557:
 1120              	.LBB558:
 1121 04f6 0846     		mov	r0, r1
 1122              	.LBE558:
 1123              	.LBE557:
 1124              	.LBE552:
 1125              	.LBE551:
 1126              	.LBE550:
 1127              		.file 10 "./mutable_instruments/elements/dsp/fx/diffuser.h"
 1128              		.loc 10 58 0
 1129 04f8 209E     		ldr	r6, [sp, #128]
 1130 04fa 5268     		ldr	r2, [r2, #4]
 1131 04fc E358     		ldr	r3, [r4, r3]
 1132              	.LBB571:
 1133              	.LBB572:
 1134              		.loc 4 154 0
 1135 04fe DFED315A 		flds	s11, .L168+4
 1136 0502 0694     		str	r4, [sp, #24]
 1137              	.LBE572:
 1138              	.LBE571:
 1139              	.LBB575:
 1140              	.LBB567:
ARM GAS  /tmp/ccLCZedz.s 			page 21


 1141              	.LBB565:
 1142              	.LBB561:
 1143              	.LBB555:
 1144              		.loc 9 86 0
 1145 0504 2431     		adds	r1, r1, #36
 1146              	.LBE555:
 1147              	.LBE561:
 1148              	.LBB562:
 1149              	.LBB559:
 1150 0506 3430     		adds	r0, r0, #52
 1151              	.LBE559:
 1152              	.LBE562:
 1153              	.LBE565:
 1154              	.LBE567:
 1155              	.LBE575:
 1156              		.loc 10 58 0
 1157 0508 06F1FF3B 		add	fp, r6, #-1
 1158              	.LVL85:
 1159              	.LBB576:
 1160              	.LBB577:
 1161              		.loc 4 205 0
 1162 050c B6EE046A 		fconsts	s12, #100
 1163              	.LBE577:
 1164              	.LBE576:
 1165              	.LBB583:
 1166              	.LBB584:
 1167              	.LBB585:
 1168              		.loc 4 186 0
 1169 0510 FEEE046A 		fconsts	s13, #228
 1170 0514 0995     		str	r5, [sp, #36]
 1171 0516 8946     		mov	r9, r1
 1172 0518 8246     		mov	r10, r0
 1173              	.LVL86:
 1174              	.L52:
 1175              	.LBE585:
 1176              	.LBE584:
 1177              	.LBE583:
 1178              	.LBB598:
 1179              	.LBB568:
 1180              		.loc 4 267 0
 1181 051a 013B     		subs	r3, r3, #1
 1182              		.loc 4 268 0
 1183 051c 0399     		ldr	r1, [sp, #12]
 1184 051e 48BF     		it	mi
 1185 0520 03F58063 		addmi	r3, r3, #1024
 1186              	.LVL87:
 1187 0524 0B60     		str	r3, [r1]
 1188              	.LVL88:
 1189              	.LBE568:
 1190              	.LBE598:
 1191              	.LBB599:
 1192              	.LBB578:
 1193              		.loc 4 199 0
 1194 0526 03F17D0C 		add	ip, r3, #125
 1195              	.LBE578:
 1196              	.LBE599:
 1197              	.LBB600:
ARM GAS  /tmp/ccLCZedz.s 			page 22


 1198              	.LBB601:
 1199 052a 03F59974 		add	r4, r3, #306
 1200              	.LBE601:
 1201              	.LBE600:
 1202              	.LBB605:
 1203              	.LBB606:
 1204              	.LBB607:
 1205              	.LBB608:
 1206              	.LBB609:
 1207              		.loc 4 173 0
 1208 052e 03F17F07 		add	r7, r3, #127
 1209              	.LBE609:
 1210              	.LBE608:
 1211              	.LBE607:
 1212              	.LBE606:
 1213              	.LBE605:
 1214              	.LBB622:
 1215              	.LBB623:
 1216              		.loc 4 199 0
 1217 0532 03F51070 		add	r0, r3, #576
 1218              	.LBE623:
 1219              	.LBE622:
 1220              	.LBB627:
 1221              	.LBB628:
 1222              	.LBB629:
 1223              	.LBB630:
 1224              	.LBB631:
 1225              		.loc 4 173 0
 1226 0536 03F59A76 		add	r6, r3, #308
 1227              	.LBE631:
 1228              	.LBE630:
 1229              	.LBE629:
 1230              	.LBE628:
 1231              	.LBE627:
 1232              	.LBB644:
 1233              	.LBB645:
 1234              		.loc 4 199 0
 1235 053a 03F2FD31 		addw	r1, r3, #1021
 1236              	.LBE645:
 1237              	.LBE644:
 1238              	.LBB649:
 1239              	.LBB650:
 1240              	.LBB651:
 1241              	.LBB652:
 1242              	.LBB653:
 1243              		.loc 4 173 0
 1244 053e 03F24225 		addw	r5, r3, #578
 1245              	.LBE653:
 1246              	.LBE652:
 1247              	.LBE651:
 1248              	.LBE650:
 1249              	.LBE649:
 1250              	.LBB666:
 1251              	.LBB579:
 1252              		.loc 4 199 0
 1253 0542 CCF3090C 		ubfx	ip, ip, #0, #10
 1254              	.LBE579:
ARM GAS  /tmp/ccLCZedz.s 			page 23


 1255              	.LBE666:
 1256              	.LBB667:
 1257              	.LBB595:
 1258              	.LBB592:
 1259              	.LBB586:
 1260              	.LBB587:
 1261              		.loc 4 173 0
 1262 0546 C3F3090E 		ubfx	lr, r3, #0, #10
 1263              	.LBE587:
 1264              	.LBE586:
 1265              	.LBE592:
 1266              	.LBE595:
 1267              	.LBE667:
 1268              	.LBB668:
 1269              	.LBB602:
 1270              		.loc 4 199 0
 1271 054a C4F30904 		ubfx	r4, r4, #0, #10
 1272              	.LBE602:
 1273              	.LBE668:
 1274              	.LBB669:
 1275              	.LBB619:
 1276              	.LBB616:
 1277              	.LBB613:
 1278              	.LBB610:
 1279              		.loc 4 173 0
 1280 054e C7F30907 		ubfx	r7, r7, #0, #10
 1281              	.LBE610:
 1282              	.LBE613:
 1283              	.LBE616:
 1284              	.LBE619:
 1285              	.LBE669:
 1286              	.LBB670:
 1287              	.LBB624:
 1288              		.loc 4 199 0
 1289 0552 C0F30900 		ubfx	r0, r0, #0, #10
 1290              	.LBE624:
 1291              	.LBE670:
 1292              	.LBB671:
 1293              	.LBB641:
 1294              	.LBB638:
 1295              	.LBB635:
 1296              	.LBB632:
 1297              		.loc 4 173 0
 1298 0556 C6F30906 		ubfx	r6, r6, #0, #10
 1299              	.LBE632:
 1300              	.LBE635:
 1301              	.LBE638:
 1302              	.LBE641:
 1303              	.LBE671:
 1304              	.LBB672:
 1305              	.LBB646:
 1306              		.loc 4 199 0
 1307 055a C1F30901 		ubfx	r1, r1, #0, #10
 1308              	.LBE646:
 1309              	.LBE672:
 1310              	.LBB673:
 1311              	.LBB663:
ARM GAS  /tmp/ccLCZedz.s 			page 24


 1312              	.LBB660:
 1313              	.LBB657:
 1314              	.LBB654:
 1315              		.loc 4 173 0
 1316 055e C5F30905 		ubfx	r5, r5, #0, #10
 1317              	.LBE654:
 1318              	.LBE657:
 1319              	.LBE660:
 1320              	.LBE663:
 1321              	.LBE673:
 1322              	.LBB674:
 1323              	.LBB569:
 1324              		.loc 4 274 0
 1325 0562 13F01F0F 		tst	r3, #31
 1326              	.LBE569:
 1327              	.LBE674:
 1328              	.LBB675:
 1329              	.LBB580:
 1330              		.loc 4 199 0
 1331 0566 02EB8C0C 		add	ip, r2, ip, lsl #2
 1332              	.LBE580:
 1333              	.LBE675:
 1334              	.LBB676:
 1335              	.LBB596:
 1336              	.LBB593:
 1337              	.LBB590:
 1338              	.LBB588:
 1339              		.loc 4 173 0
 1340 056a 02EB8E0E 		add	lr, r2, lr, lsl #2
 1341              	.LBE588:
 1342              	.LBE590:
 1343              	.LBE593:
 1344              	.LBE596:
 1345              	.LBE676:
 1346              	.LBB677:
 1347              	.LBB603:
 1348              		.loc 4 199 0
 1349 056e 02EB8404 		add	r4, r2, r4, lsl #2
 1350              	.LBE603:
 1351              	.LBE677:
 1352              	.LBB678:
 1353              	.LBB620:
 1354              	.LBB617:
 1355              	.LBB614:
 1356              	.LBB611:
 1357              		.loc 4 173 0
 1358 0572 02EB8707 		add	r7, r2, r7, lsl #2
 1359              	.LBE611:
 1360              	.LBE614:
 1361              	.LBE617:
 1362              	.LBE620:
 1363              	.LBE678:
 1364              	.LBB679:
 1365              	.LBB625:
 1366              		.loc 4 199 0
 1367 0576 02EB8000 		add	r0, r2, r0, lsl #2
 1368              	.LBE625:
ARM GAS  /tmp/ccLCZedz.s 			page 25


 1369              	.LBE679:
 1370              	.LBB680:
 1371              	.LBB642:
 1372              	.LBB639:
 1373              	.LBB636:
 1374              	.LBB633:
 1375              		.loc 4 173 0
 1376 057a 02EB8606 		add	r6, r2, r6, lsl #2
 1377              	.LBE633:
 1378              	.LBE636:
 1379              	.LBE639:
 1380              	.LBE642:
 1381              	.LBE680:
 1382              	.LBB681:
 1383              	.LBB647:
 1384              		.loc 4 199 0
 1385 057e 02EB8101 		add	r1, r2, r1, lsl #2
 1386              	.LBE647:
 1387              	.LBE681:
 1388              	.LBB682:
 1389              	.LBB664:
 1390              	.LBB661:
 1391              	.LBB658:
 1392              	.LBB655:
 1393              		.loc 4 173 0
 1394 0582 02EB8505 		add	r5, r2, r5, lsl #2
 1395              	.LBE655:
 1396              	.LBE658:
 1397              	.LBE661:
 1398              	.LBE664:
 1399              	.LBE682:
 1400              		.loc 10 58 0
 1401 0586 0BF1FF3B 		add	fp, fp, #-1
 1402              	.LVL89:
 1403              	.LBB683:
 1404              	.LBB570:
 1405              		.loc 4 274 0
 1406 058a 29D1     		bne	.L51
 1407              	.LVL90:
 1408              	.LBB566:
 1409              	.LBB563:
 1410              	.LBB556:
 1411              		.loc 9 86 0
 1412 058c D9ED017A 		flds	s15, [r9, #4]
 1413              	.LVL91:
 1414 0590 99ED007A 		flds	s14, [r9]
 1415              		.loc 9 87 0
 1416 0594 99ED025A 		flds	s10, [r9, #8]
 1417              		.loc 9 88 0
 1418 0598 C9ED007A 		fsts	s15, [r9]
 1419              	.LVL92:
 1420              		.loc 9 87 0
 1421 059c 97EE857A 		vfnms.f32	s14, s15, s10
 1422 05a0 DAED007A 		flds	s15, [r10]
 1423              	.LVL93:
 1424 05a4 89ED017A 		fsts	s14, [r9, #4]
 1425              	.LBE556:
ARM GAS  /tmp/ccLCZedz.s 			page 26


 1426              	.LBE563:
 1427              	.LBB564:
 1428              	.LBB560:
 1429              		.loc 9 86 0
 1430 05a8 9AED017A 		flds	s14, [r10, #4]
 1431              	.LVL94:
 1432              		.loc 9 87 0
 1433 05ac 9AED025A 		flds	s10, [r10, #8]
 1434              		.loc 9 88 0
 1435 05b0 8AED007A 		fsts	s14, [r10]
 1436              		.loc 9 87 0
 1437 05b4 D7EE057A 		vfnms.f32	s15, s14, s10
 1438 05b8 CAED017A 		fsts	s15, [r10, #4]
 1439 05bc 10E0     		b	.L169
 1440              	.L170:
 1441 05be 00BF     		.align	2
 1442              	.L168:
 1443 05c0 295C4F3F 		.word	1062165545
 1444 05c4 00000000 		.word	0
 1445 05c8 00000000 		.word	_ZN8elements18lookup_table_tableE
 1446 05cc CDCCCC3E 		.word	1053609165
 1447 05d0 9A99193F 		.word	1058642330
 1448 05d4 6666E63E 		.word	1055286886
 1449 05d8 00000000 		.word	_ZN8elements18lut_env_incrementsE
 1450 05dc 00008043 		.word	1132462080
 1451              	.L169:
 1452              	.LVL95:
 1453              	.L51:
 1454              	.LBE560:
 1455              	.LBE564:
 1456              	.LBE566:
 1457              	.LBE570:
 1458              	.LBE683:
 1459              	.LBB684:
 1460              	.LBB573:
 1461              		.loc 4 154 0
 1462 05e0 98ED007A 		flds	s14, [r8]
 1463              	.LBE573:
 1464              	.LBE684:
 1465              	.LBB685:
 1466              	.LBB581:
 1467              		.loc 4 199 0
 1468 05e4 DCED007A 		flds	s15, [ip]
 1469              	.LVL96:
 1470              	.LBE581:
 1471              	.LBE685:
 1472              	.LBB686:
 1473              	.LBB574:
 1474              		.loc 4 154 0
 1475 05e8 37EE257A 		fadds	s14, s14, s11
 1476              	.LBE574:
 1477              	.LBE686:
 1478              		.loc 10 58 0
 1479 05ec BBF1FF3F 		cmp	fp, #-1
 1480              	.LBB687:
 1481              	.LBB582:
 1482              		.loc 4 205 0
ARM GAS  /tmp/ccLCZedz.s 			page 27


 1483 05f0 A7EE867A 		vfma.f32	s14, s15, s12
 1484              	.LVL97:
 1485              	.LBE582:
 1486              	.LBE687:
 1487              	.LBB688:
 1488              	.LBB597:
 1489              	.LBB594:
 1490              		.loc 4 186 0
 1491 05f4 E7EE267A 		vfma.f32	s15, s14, s13
 1492              	.LVL98:
 1493              	.LBB591:
 1494              	.LBB589:
 1495              		.loc 4 173 0
 1496 05f8 8EED007A 		fsts	s14, [lr]
 1497              	.LVL99:
 1498              	.LBE589:
 1499              	.LBE591:
 1500              	.LBE594:
 1501              	.LBE597:
 1502              	.LBE688:
 1503              	.LBB689:
 1504              	.LBB604:
 1505              		.loc 4 199 0
 1506 05fc 94ED007A 		flds	s14, [r4]
 1507              	.LVL100:
 1508              		.loc 4 205 0
 1509 0600 E7EE067A 		vfma.f32	s15, s14, s12
 1510              	.LVL101:
 1511              	.LBE604:
 1512              	.LBE689:
 1513              	.LBB690:
 1514              	.LBB621:
 1515              	.LBB618:
 1516              		.loc 4 186 0
 1517 0604 A7EEA67A 		vfma.f32	s14, s15, s13
 1518              	.LVL102:
 1519              	.LBB615:
 1520              	.LBB612:
 1521              		.loc 4 173 0
 1522 0608 C7ED007A 		fsts	s15, [r7]
 1523              	.LVL103:
 1524              	.LBE612:
 1525              	.LBE615:
 1526              	.LBE618:
 1527              	.LBE621:
 1528              	.LBE690:
 1529              	.LBB691:
 1530              	.LBB626:
 1531              		.loc 4 199 0
 1532 060c D0ED007A 		flds	s15, [r0]
 1533              	.LVL104:
 1534              		.loc 4 205 0
 1535 0610 A7EE867A 		vfma.f32	s14, s15, s12
 1536              	.LVL105:
 1537              	.LBE626:
 1538              	.LBE691:
 1539              	.LBB692:
ARM GAS  /tmp/ccLCZedz.s 			page 28


 1540              	.LBB643:
 1541              	.LBB640:
 1542              		.loc 4 186 0
 1543 0614 E7EE267A 		vfma.f32	s15, s14, s13
 1544              	.LVL106:
 1545              	.LBB637:
 1546              	.LBB634:
 1547              		.loc 4 173 0
 1548 0618 86ED007A 		fsts	s14, [r6]
 1549              	.LVL107:
 1550              	.LBE634:
 1551              	.LBE637:
 1552              	.LBE640:
 1553              	.LBE643:
 1554              	.LBE692:
 1555              	.LBB693:
 1556              	.LBB648:
 1557              		.loc 4 199 0
 1558 061c 91ED007A 		flds	s14, [r1]
 1559              	.LVL108:
 1560              		.loc 4 205 0
 1561 0620 E7EE067A 		vfma.f32	s15, s14, s12
 1562              	.LVL109:
 1563              	.LBE648:
 1564              	.LBE693:
 1565              	.LBB694:
 1566              	.LBB665:
 1567              	.LBB662:
 1568              		.loc 4 186 0
 1569 0624 A7EEA67A 		vfma.f32	s14, s15, s13
 1570              	.LVL110:
 1571              	.LBB659:
 1572              	.LBB656:
 1573              		.loc 4 173 0
 1574 0628 C5ED007A 		fsts	s15, [r5]
 1575              	.LVL111:
 1576              	.LBE656:
 1577              	.LBE659:
 1578              	.LBE662:
 1579              	.LBE665:
 1580              	.LBE694:
 1581              	.LBB695:
 1582              	.LBB696:
 1583              		.loc 4 162 0
 1584 062c A8EC017A 		fstmias	r8!, {s14}
 1585              	.LVL112:
 1586              	.LBE696:
 1587              	.LBE695:
 1588              		.loc 10 58 0
 1589 0630 7FF473AF 		bne	.L52
 1590 0634 069C     		ldr	r4, [sp, #24]
 1591 0636 099D     		ldr	r5, [sp, #36]
 1592              	.LVL113:
 1593              	.L53:
 1594              	.LBE549:
 1595              	.LBE548:
 1596              		.loc 1 157 0
ARM GAS  /tmp/ccLCZedz.s 			page 29


 1597 0638 0499     		ldr	r1, [sp, #16]
 1598 063a 04F52C53 		add	r3, r4, #11008
 1599 063e 3033     		adds	r3, r3, #48
 1600 0640 04F50350 		add	r0, r4, #8384
 1601 0644 0693     		str	r3, [sp, #24]
 1602 0646 1A46     		mov	r2, r3
 1603 0648 1C30     		adds	r0, r0, #28
 1604 064a 209B     		ldr	r3, [sp, #128]
 1605 064c FFF7FEFF 		bl	_ZN8elements7Exciter7ProcessEhPfj
 1606              	.LVL114:
 1607              		.loc 1 163 0
 1608 0650 D5ED067A 		flds	s15, [r5, #24]
 1609 0654 B7EE045A 		fconsts	s10, #116
 1610 0658 67EE857A 		fmuls	s15, s15, s10
 1611              	.LVL115:
 1612              		.loc 1 164 0
 1613 065c B7EE008A 		fconsts	s16, #112
 1614              	.LVL116:
 1615 0660 F4EEC87A 		fcmpes	s15, s16
 1616 0664 F1EE10FA 		fmstat
 1617 0668 40F3CB82 		ble	.L157
 1618              		.loc 1 164 0 is_stmt 0 discriminator 1
 1619 066c 37EEC88A 		fsubs	s16, s15, s16
 1620 0670 38EE088A 		fadds	s16, s16, s16
 1621              	.L46:
 1622              	.LVL117:
 1623              		.loc 1 165 0 is_stmt 1 discriminator 4
 1624 0674 B7EE007A 		fconsts	s14, #112
 1625 0678 F4EEC77A 		fcmpes	s15, s14
 1626              		.loc 1 170 0 discriminator 4
 1627 067c 04F52956 		add	r6, r4, #10816
 1628              		.loc 1 165 0 discriminator 4
 1629 0680 F1EE10FA 		fmstat
 1630 0684 B7EE085A 		fconsts	s10, #120
 1631              		.loc 1 170 0 discriminator 4
 1632 0688 06F12406 		add	r6, r6, #36
 1633 068c 48BF     		it	mi
 1634 068e 27EE855A 		fmulsmi	s10, s15, s10
 1635              	.LVL118:
 1636 0692 D6ED007A 		flds	s15, [r6]
 1637 0696 5FED2F4A 		flds	s9, .L168+28
 1638              	.LBB697:
 1639              		.loc 1 173 0 discriminator 4
 1640 069a 209B     		ldr	r3, [sp, #128]
 1641              	.LBE697:
 1642              		.loc 1 170 0 discriminator 4
 1643 069c B0EE674A 		fcpys	s8, s15
 1644 06a0 9AEE244A 		vfnms.f32	s8, s20, s9
 1645 06a4 84EE294A 		fdivs	s8, s8, s19
 1646              	.LVL119:
 1647              	.LBB703:
 1648              		.loc 1 173 0 discriminator 4
 1649 06a8 002B     		cmp	r3, #0
 1650 06aa 00F0F682 		beq	.L158
 1651 06ae DDF874A0 		ldr	r10, [sp, #116]
 1652 06b2 1C9F     		ldr	r7, [sp, #112]
 1653 06b4 DDF82090 		ldr	r9, [sp, #32]
ARM GAS  /tmp/ccLCZedz.s 			page 30


 1654 06b8 DDF81480 		ldr	r8, [sp, #20]
 1655              	.LBB698:
 1656              		.loc 1 192 0
 1657 06bc 0894     		str	r4, [sp, #32]
 1658 06be 04F52A53 		add	r3, r4, #10880
 1659 06c2 3033     		adds	r3, r3, #48
 1660              	.LBE698:
 1661              		.loc 1 173 0
 1662 06c4 D646     		mov	lr, r10
 1663              	.LBB699:
 1664              		.loc 1 192 0
 1665 06c6 CDF814A0 		str	r10, [sp, #20]
 1666              	.LVL120:
 1667 06ca 0493     		str	r3, [sp, #16]
 1668              	.LVL121:
 1669 06cc DFF894B3 		ldr	fp, .L171+48
 1670              		.loc 1 188 0
 1671 06d0 DFEDD82A 		flds	s5, .L171
 1672 06d4 0698     		ldr	r0, [sp, #24]
 1673              		.loc 1 192 0
 1674 06d6 0397     		str	r7, [sp, #12]
 1675 06d8 9C46     		mov	ip, r3
 1676              	.LBE699:
 1677              		.loc 1 173 0
 1678 06da 0021     		movs	r1, #0
 1679              	.LBB700:
 1680              		.loc 1 188 0
 1681 06dc B4EE003A 		fconsts	s6, #64
 1682              		.loc 1 192 0
 1683 06e0 F6EE003A 		fconsts	s7, #96
 1684 06e4 DDF880A0 		ldr	r10, [sp, #128]
 1685 06e8 079C     		ldr	r4, [sp, #28]
 1686 06ea 01E0     		b	.L60
 1687              	.LVL122:
 1688              	.L159:
 1689 06ec D6ED007A 		flds	s15, [r6]
 1690              	.LVL123:
 1691              	.L60:
 1692              		.loc 1 175 0 discriminator 3
 1693 06f0 94ED006A 		flds	s12, [r4]
 1694              		.loc 1 183 0 discriminator 3
 1695 06f4 D5ED016A 		flds	s13, [r5, #4]
 1696              		.loc 1 182 0 discriminator 3
 1697 06f8 CF4F     		ldr	r7, .L171+4
 1698              		.loc 1 174 0 discriminator 3
 1699 06fa 74EE277A 		fadds	s15, s8, s15
 1700              		.loc 1 175 0 discriminator 3
 1701 06fe 38EE866A 		fadds	s12, s17, s12
 1702              		.loc 1 179 0 discriminator 3
 1703 0702 FDEEE75A 		ftosizs	s11, s15
 1704              		.loc 1 174 0 discriminator 3
 1705 0706 C6ED007A 		fsts	s15, [r6]
 1706              		.loc 1 179 0 discriminator 3
 1707 070a B8EEE57A 		fsitos	s14, s11
 1708              		.loc 1 180 0 discriminator 3
 1709 070e 15EE902A 		fmrs	r2, s11	@ int
 1710              		.loc 1 179 0 discriminator 3
ARM GAS  /tmp/ccLCZedz.s 			page 31


 1711 0712 77EEC77A 		fsubs	s15, s15, s14
 1712              		.loc 1 175 0 discriminator 3
 1713 0716 84ED006A 		fsts	s12, [r4]
 1714              	.LVL124:
 1715              		.loc 1 182 0 discriminator 3
 1716 071a 67EEA47A 		fmuls	s15, s15, s9
 1717              		.loc 1 183 0 discriminator 3
 1718 071e 66EE266A 		fmuls	s13, s12, s13
 1719              		.loc 1 180 0 discriminator 3
 1720 0722 FDEEE77A 		ftosizs	s15, s15
 1721 0726 0BEB8202 		add	r2, fp, r2, lsl #2
 1722              	.LVL125:
 1723 072a 17EE903A 		fmrs	r3, s15	@ int
 1724              		.loc 1 182 0 discriminator 3
 1725 072e 07EB8303 		add	r3, r7, r3, lsl #2
 1726 0732 D3ED007A 		flds	s15, [r3]
 1727 0736 D2ED005A 		flds	s11, [r2]
 1728              	.LVL126:
 1729              		.loc 1 183 0 discriminator 3
 1730 073a ECEC016A 		fstmias	ip!, {s13}
 1731              	.LVL127:
 1732              		.loc 1 182 0 discriminator 3
 1733 073e 65EEA75A 		fmuls	s11, s11, s15
 1734              	.LVL128:
 1735              		.loc 1 185 0 discriminator 3
 1736 0742 90ED002A 		flds	s4, [r0]
 1737              		.loc 1 191 0 discriminator 3
 1738 0746 039B     		ldr	r3, [sp, #12]
 1739              		.loc 1 185 0 discriminator 3
 1740 0748 25EE822A 		fmuls	s4, s11, s4
 1741              		.loc 1 186 0 discriminator 3
 1742 074c 26EE256A 		fmuls	s12, s12, s11
 1743              	.LVL129:
 1744              		.loc 1 185 0 discriminator 3
 1745 0750 A0EC012A 		fstmias	r0!, {s4}
 1746              		.loc 1 188 0 discriminator 3
 1747 0754 F9EC017A 		fldmias	r9!, {s15}
 1748              		.loc 1 189 0 discriminator 3
 1749 0758 F8EC011A 		fldmias	r8!, {s3}
 1750              		.loc 1 191 0 discriminator 3
 1751 075c B3EC017A 		fldmias	r3!, {s14}
 1752              		.loc 1 188 0 discriminator 3
 1753 0760 66EEA76A 		fmuls	s13, s13, s15
 1754 0764 F0EE627A 		fcpys	s15, s5
 1755 0768 66EE836A 		fmuls	s13, s13, s6
 1756              	.LBE700:
 1757              		.loc 1 173 0 discriminator 3
 1758 076c 0131     		adds	r1, r1, #1
 1759              	.LVL130:
 1760              	.LBB701:
 1761              		.loc 1 188 0 discriminator 3
 1762 076e E6EEA57A 		vfma.f32	s15, s13, s11
 1763              	.LVL131:
 1764              	.LBE701:
 1765              		.loc 1 173 0 discriminator 3
 1766 0772 5145     		cmp	r1, r10
 1767              	.LBB702:
ARM GAS  /tmp/ccLCZedz.s 			page 32


 1768              		.loc 1 191 0 discriminator 3
 1769 0774 0393     		str	r3, [sp, #12]
 1770              		.loc 1 189 0 discriminator 3
 1771 0776 E1EE867A 		vfma.f32	s15, s3, s12
 1772              	.LVL132:
 1773              		.loc 1 190 0 discriminator 3
 1774 077a E2EE057A 		vfma.f32	s15, s4, s10
 1775              	.LVL133:
 1776              		.loc 1 191 0 discriminator 3
 1777 077e 77EE277A 		fadds	s15, s14, s15
 1778              	.LVL134:
 1779              		.loc 1 192 0 discriminator 3
 1780 0782 67EEA37A 		fmuls	s15, s15, s7
 1781              	.LVL135:
 1782 0786 EEEC017A 		fstmias	lr!, {s15}
 1783              	.LBE702:
 1784              		.loc 1 173 0 discriminator 3
 1785 078a AFD1     		bne	.L159
 1786              	.LVL136:
 1787 078c 089C     		ldr	r4, [sp, #32]
 1788 078e 1D9A     		ldr	r2, [sp, #116]
 1789 0790 2099     		ldr	r1, [sp, #128]
 1790              	.LVL137:
 1791 0792 DDF814A0 		ldr	r10, [sp, #20]
 1792              	.LBE703:
 1793              	.LBB704:
 1794              	.LBB705:
 1795              		.loc 1 198 0
 1796 0796 DFEDA95A 		flds	s11, .L171+8
 1797              	.LVL138:
 1798 079a 04F52953 		add	r3, r4, #10816
 1799 079e 2C33     		adds	r3, r3, #44
 1800 07a0 D3ED007A 		flds	s15, [r3]
 1801 07a4 02EB8102 		add	r2, r2, r1, lsl #2
 1802 07a8 B6EE006A 		fconsts	s12, #96
 1803              	.LVL139:
 1804              	.L62:
 1805              		.loc 1 197 0
 1806 07ac BAEC017A 		fldmias	r10!, {s14}
 1807 07b0 F0EE676A 		fcpys	s13, s15
 1808 07b4 D7EE076A 		vfnms.f32	s13, s14, s14
 1809              		.loc 1 198 0
 1810 07b8 F5EEC06A 		fcmpezs	s13
 1811 07bc F1EE10FA 		fmstat
 1812              		.loc 1 197 0
 1813 07c0 B0EE667A 		fcpys	s14, s13
 1814              	.LVL140:
 1815              		.loc 1 198 0
 1816 07c4 D4BF     		ite	le
 1817 07c6 F0EE656A 		fcpysle	s13, s11
 1818 07ca F0EE466A 		fcpysgt	s13, s12
 1819              	.LVL141:
 1820 07ce E6EE877A 		vfma.f32	s15, s13, s14
 1821              	.LBE705:
 1822              		.loc 1 196 0
 1823 07d2 9245     		cmp	r10, r2
 1824              	.LBB706:
ARM GAS  /tmp/ccLCZedz.s 			page 33


 1825              		.loc 1 198 0
 1826 07d4 C3ED007A 		fsts	s15, [r3]
 1827              	.LBE706:
 1828              		.loc 1 196 0
 1829 07d8 E8D1     		bne	.L62
 1830              	.LVL142:
 1831              	.L63:
 1832 07da 04F50453 		add	r3, r4, #8448
 1833              	.LBE704:
 1834              		.loc 1 203 0
 1835 07de D3ED027A 		flds	s15, [r3, #8]
 1836              		.loc 1 204 0
 1837 07e2 049B     		ldr	r3, [sp, #16]
 1838              		.loc 1 202 0
 1839 07e4 D5ED0C8A 		flds	s17, [r5, #48]
 1840              	.LVL143:
 1841              		.loc 1 204 0
 1842 07e8 93ED007A 		flds	s14, [r3]
 1843 07ec D5ED016A 		flds	s13, [r5, #4]
 1844              		.loc 1 205 0
 1845 07f0 DFED935A 		flds	s11, .L171+12
 1846              		.loc 1 208 0
 1847 07f4 9FED8F6A 		flds	s12, .L171
 1848 07f8 27EEC55A 		fnmuls	s10, s15, s10
 1849              	.LVL144:
 1850              		.loc 1 203 0
 1851 07fc F4EE004A 		fconsts	s9, #64
 1852              		.loc 1 204 0
 1853 0800 F7EE007A 		fconsts	s15, #112
 1854              		.loc 1 203 0
 1855 0804 E5EE248A 		vfma.f32	s17, s10, s9
 1856              	.LVL145:
 1857              	.LBB707:
 1858              		.loc 1 212 0
 1859 0808 43F6B133 		movw	r3, #15281
 1860              	.LBE707:
 1861              		.loc 1 204 0
 1862 080c 37EEC77A 		fsubs	s14, s15, s14
 1863              	.LBB795:
 1864              		.loc 1 212 0
 1865 0810 E35C     		ldrb	r3, [r4, r3]	@ zero_extendqisi2
 1866 0812 26EEC77A 		fnmuls	s14, s13, s14
 1867              	.LBE795:
 1868              		.loc 1 205 0
 1869 0816 E7EE258A 		vfma.f32	s17, s14, s11
 1870              	.LVL146:
 1871              		.loc 1 208 0
 1872 081a F4EE468A 		fcmps	s17, s12
 1873 081e F1EE10FA 		fmstat
 1874 0822 98BF     		it	ls
 1875 0824 F0EE468A 		fcpysls	s17, s12
 1876              	.LVL147:
 1877              	.LBB796:
 1878              		.loc 1 212 0
 1879 0828 002B     		cmp	r3, #0
 1880 082a 00F0C281 		beq	.L160
 1881              	.LBB708:
ARM GAS  /tmp/ccLCZedz.s 			page 34


 1882              	.LBB709:
 1883              	.LBB710:
 1884              		.loc 3 78 0
 1885 082e 04F52950 		add	r0, r4, #10816
 1886              	.LBE710:
 1887              	.LBE709:
 1888              		.loc 1 226 0
 1889 0832 012B     		cmp	r3, #1
 1890 0834 9FED836A 		flds	s12, .L171+16
 1891              	.LBB716:
 1892              	.LBB713:
 1893              		.loc 3 81 0
 1894 0838 209B     		ldr	r3, [sp, #128]
 1895 083a 209A     		ldr	r2, [sp, #128]
 1896              		.loc 3 78 0
 1897 083c D0ED076A 		flds	s13, [r0, #28]
 1898              		.loc 3 80 0
 1899 0840 D0ED065A 		flds	s11, [r0, #24]
 1900              		.loc 3 78 0
 1901 0844 00F11800 		add	r0, r0, #24
 1902              	.LBE713:
 1903              	.LBE716:
 1904              		.loc 1 226 0
 1905 0848 08BF     		it	eq
 1906 084a B0EE676A 		fcpyseq	s12, s15
 1907 084e 08BF     		it	eq
 1908 0850 4FF00108 		moveq	r8, #1
 1909              	.LBB717:
 1910              	.LBB714:
 1911              		.loc 3 79 0
 1912 0854 D0ED027A 		flds	s15, [r0, #8]
 1913              	.LBE714:
 1914              	.LBE717:
 1915              		.loc 1 226 0
 1916 0858 18BF     		it	ne
 1917 085a 4FF00508 		movne	r8, #5
 1918              	.LVL148:
 1919              	.LBB718:
 1920              	.LBB715:
 1921              		.loc 3 81 0
 1922 085e 013B     		subs	r3, r3, #1
 1923              	.LVL149:
 1924 0860 002A     		cmp	r2, #0
 1925 0862 00F0F181 		beq	.L68
 1926 0866 1D9A     		ldr	r2, [sp, #116]
 1927              	.LVL150:
 1928              	.L69:
 1929              	.LBB711:
 1930              		.loc 3 83 0
 1931 0868 92ED007A 		flds	s14, [r2]
 1932              	.LVL151:
 1933              		.loc 3 84 0
 1934 086c B0EE475A 		fcpys	s10, s14
 1935 0870 A7EEA55A 		vfma.f32	s10, s15, s11
 1936              	.LBE711:
 1937              		.loc 3 81 0
 1938 0874 013B     		subs	r3, r3, #1
ARM GAS  /tmp/ccLCZedz.s 			page 35


 1939              	.LVL152:
 1940 0876 591C     		adds	r1, r3, #1
 1941              	.LBB712:
 1942              		.loc 3 84 0
 1943 0878 75EE667A 		fsubs	s15, s10, s13
 1944              	.LVL153:
 1945              		.loc 3 83 0
 1946 087c F0EE476A 		fcpys	s13, s14
 1947              	.LVL154:
 1948              		.loc 3 84 0
 1949 0880 E2EC017A 		fstmias	r2!, {s15}
 1950              	.LVL155:
 1951              	.LBE712:
 1952              		.loc 3 81 0
 1953 0884 F0D1     		bne	.L69
 1954 0886 209B     		ldr	r3, [sp, #128]
 1955              	.LVL156:
 1956              		.loc 3 86 0
 1957 0888 80ED017A 		fsts	s14, [r0, #4]
 1958 088c 9900     		lsls	r1, r3, #2
 1959              	.LVL157:
 1960 088e 1D9B     		ldr	r3, [sp, #116]
 1961              		.loc 3 87 0
 1962 0890 C0ED027A 		fsts	s15, [r0, #8]
 1963              	.LVL158:
 1964 0894 5A18     		adds	r2, r3, r1
 1965              	.LVL159:
 1966              	.L71:
 1967              	.LBE715:
 1968              	.LBE718:
 1969              	.LBB719:
 1970              		.loc 1 231 0 discriminator 3
 1971 0896 D3ED007A 		flds	s15, [r3]
 1972 089a 67EE867A 		fmuls	s15, s15, s12
 1973 089e E3EC017A 		fstmias	r3!, {s15}
 1974              		.loc 1 230 0 discriminator 3
 1975 08a2 9342     		cmp	r3, r2
 1976 08a4 F7D1     		bne	.L71
 1977              	.LBE719:
 1978              		.loc 1 234 0
 1979 08a6 D5ED0A6A 		flds	s13, [r5, #40]
 1980              	.LVL160:
 1981              		.loc 1 235 0
 1982 08aa 9FED677A 		flds	s14, .L171+20
 1983              	.LVL161:
 1984 08ae 9FED766A 		flds	s12, .L171+84
 1985              	.LVL162:
 1986 08b2 04F56E53 		add	r3, r4, #15232
 1987              		.loc 1 234 0
 1988 08b6 F2EE047A 		fconsts	s15, #36
 1989              		.loc 1 235 0
 1990 08ba D3ED0D5A 		flds	s11, [r3, #52]
 1991              	.LVL163:
 1992              		.loc 1 234 0
 1993 08be 66EEA76A 		fmuls	s13, s13, s15
 1994              	.LVL164:
 1995              		.loc 1 235 0
ARM GAS  /tmp/ccLCZedz.s 			page 36


 1996 08c2 3433     		adds	r3, r3, #52
 1997 08c4 F4EEE56A 		fcmpes	s13, s11
 1998 08c8 F1EE10FA 		fmstat
 1999 08cc D4BF     		ite	le
 2000 08ce F0EE467A 		fcpysle	s15, s12
 2001 08d2 F0EE477A 		fcpysgt	s15, s14
 2002              	.L72:
 2003              	.LVL165:
 2004              		.loc 1 236 0 discriminator 4
 2005 08d6 77EEA67A 		fadds	s15, s15, s13
 2006              	.LVL166:
 2007 08da B6EE007A 		fconsts	s14, #96
 2008 08de 77EE877A 		fadds	s15, s15, s14
 2009              		.loc 1 240 0 discriminator 4
 2010 08e2 1E9A     		ldr	r2, [sp, #120]
 2011              		.loc 1 236 0 discriminator 4
 2012 08e4 FDEEE77A 		ftosizs	s15, s15
 2013              		.loc 1 240 0 discriminator 4
 2014 08e8 5618     		adds	r6, r2, r1
 2015              		.loc 1 236 0 discriminator 4
 2016 08ea 17EE902A 		fmrs	r2, s15	@ int
 2017              	.LVL167:
 2018 08ee 0A2A     		cmp	r2, #10
 2019 08f0 A8BF     		it	ge
 2020 08f2 0A22     		movge	r2, #10
 2021              	.LVL168:
 2022 08f4 22EAE272 		bic	r2, r2, r2, asr #31
 2023              	.LVL169:
 2024              		.loc 1 238 0 discriminator 4
 2025 08f8 07EE902A 		fmsr	s15, r2	@ int
 2026 08fc F8EEE77A 		fsitos	s15, s15
 2027 0900 C3ED007A 		fsts	s15, [r3]
 2028              	.LBB720:
 2029              	.LBB721:
 2030              	.LBB722:
 2031              		.loc 5 703 0 discriminator 4
 2032 0904 1E9B     		ldr	r3, [sp, #120]
 2033 0906 B342     		cmp	r3, r6
 2034 0908 05D0     		beq	.L77
 2035              		.loc 5 703 0 is_stmt 0
 2036 090a 1E9B     		ldr	r3, [sp, #120]
 2037              		.loc 5 704 0 is_stmt 1
 2038 090c 0020     		movs	r0, #0
 2039              	.LVL170:
 2040              	.L76:
 2041 090e 43F8040B 		str	r0, [r3], #4	@ float
 2042              	.LVL171:
 2043              		.loc 5 703 0
 2044 0912 9E42     		cmp	r6, r3
 2045 0914 FBD1     		bne	.L76
 2046              	.L77:
 2047              	.LBE722:
 2048              	.LBE721:
 2049              	.LBE720:
 2050              		.loc 1 241 0
 2051 0916 1F9B     		ldr	r3, [sp, #124]
 2052              	.LVL172:
ARM GAS  /tmp/ccLCZedz.s 			page 37


 2053 0918 1944     		add	r1, r1, r3
 2054              	.LVL173:
 2055              	.LBB723:
 2056              	.LBB724:
 2057              	.LBB725:
 2058              		.loc 5 703 0
 2059 091a 8B42     		cmp	r3, r1
 2060 091c 05D0     		beq	.L75
 2061 091e 1F9B     		ldr	r3, [sp, #124]
 2062              		.loc 5 704 0
 2063 0920 0020     		movs	r0, #0
 2064              	.LVL174:
 2065              	.L78:
 2066 0922 43F8040B 		str	r0, [r3], #4	@ float
 2067              	.LVL175:
 2068              		.loc 5 703 0
 2069 0926 9942     		cmp	r1, r3
 2070 0928 FBD1     		bne	.L78
 2071              	.LVL176:
 2072              	.L75:
 2073 092a 9427     		movs	r7, #148
 2074 092c 474B     		ldr	r3, .L171+24
 2075 092e 0396     		str	r6, [sp, #12]
 2076 0930 07FB0847 		mla	r7, r7, r8, r4
 2077 0934 02EB8202 		add	r2, r2, r2, lsl #2
 2078              	.LVL177:
 2079 0938 03EB820B 		add	fp, r3, r2, lsl #2
 2080 093c 07F51D57 		add	r7, r7, #10048
 2081 0940 04F51D54 		add	r4, r4, #10048
 2082              	.LVL178:
 2083 0944 5E46     		mov	r6, fp
 2084              	.LVL179:
 2085 0946 DFF820A1 		ldr	r10, .L171+52
 2086              	.LBE725:
 2087              	.LBE724:
 2088              	.LBE723:
 2089              	.LBB726:
 2090              	.LBB727:
 2091              	.LBB728:
 2092              	.LBB729:
 2093              		.file 11 "./mutable_instruments/stmlib/dsp/units.h"
 2094              		.loc 11 41 0
 2095 094a 9FED41AA 		flds	s20, .L171+28
 2096              	.LVL180:
 2097              		.loc 11 45 0
 2098 094e DFED4D9A 		flds	s19, .L171+80
 2099              	.LBE729:
 2100              	.LBE728:
 2101              	.LBB732:
 2102              	.LBB733:
 2103              		.loc 1 252 0
 2104 0952 DFED40BA 		flds	s23, .L171+32
 2105              	.LBB734:
 2106              	.LBB735:
 2107              		.file 12 "./mutable_instruments/elements/dsp/string.h"
 2108              		.loc 12 113 0
 2109 0956 DFED40AA 		flds	s21, .L171+36
ARM GAS  /tmp/ccLCZedz.s 			page 38


 2110              	.LVL181:
 2111 095a 9FED40BA 		flds	s22, .L171+40
 2112              	.LVL182:
 2113 095e DFF80C91 		ldr	r9, .L171+56
 2114 0962 DDF874B0 		ldr	fp, [sp, #116]
 2115 0966 3437     		adds	r7, r7, #52
 2116 0968 3434     		adds	r4, r4, #52
 2117              	.LVL183:
 2118 096a 23E0     		b	.L90
 2119              	.LVL184:
 2120              	.L163:
 2121              	.LBE735:
 2122              	.LBE734:
 2123              		.loc 1 252 0 discriminator 2
 2124 096c 77EE677A 		fsubs	s15, s14, s15
 2125 0970 67EEAB7A 		fmuls	s15, s15, s23
 2126              	.LVL185:
 2127              	.LBB740:
 2128              	.LBB736:
 2129              		.loc 12 113 0 discriminator 2
 2130 0974 F4EEEA7A 		fcmpes	s15, s21
 2131 0978 F1EE10FA 		fmstat
 2132 097c 00F11281 		bmi	.L149
 2133              		.loc 12 113 0 is_stmt 0
 2134 0980 F4EECB7A 		fcmpes	s15, s22
 2135 0984 F1EE10FA 		fmstat
 2136 0988 40F3DB80 		ble	.L145
 2137 098c 77EECB7A 		fsubs	s15, s15, s22
 2138              	.LVL186:
 2139 0990 DFED396A 		flds	s13, .L171+68
 2140              	.LVL187:
 2141 0994 67EEA67A 		fmuls	s15, s15, s13
 2142              	.LVL188:
 2143              	.L88:
 2144              	.LBE736:
 2145              	.LBE740:
 2146              	.LBE733:
 2147              	.LBE732:
 2148              		.loc 1 254 0 is_stmt 1
 2149 0998 209B     		ldr	r3, [sp, #128]
 2150              	.LVL189:
 2151              	.LBB750:
 2152              	.LBB744:
 2153              	.LBB741:
 2154              	.LBB737:
 2155              		.loc 12 114 0
 2156 099a C4ED017A 		fsts	s15, [r4, #4]
 2157              	.LBE737:
 2158              	.LBE741:
 2159              	.LBE744:
 2160              	.LBE750:
 2161              		.loc 1 254 0
 2162 099e 2046     		mov	r0, r4
 2163 09a0 0093     		str	r3, [sp]
 2164              	.LVL190:
 2165 09a2 5946     		mov	r1, fp
 2166 09a4 9434     		adds	r4, r4, #148
ARM GAS  /tmp/ccLCZedz.s 			page 39


 2167              	.LVL191:
 2168 09a6 1E9A     		ldr	r2, [sp, #120]
 2169 09a8 1F9B     		ldr	r3, [sp, #124]
 2170 09aa FFF7FEFF 		bl	_ZN8elements6String7ProcessEPKfPfS3_j
 2171              	.LVL192:
 2172              	.LBE727:
 2173              		.loc 1 242 0
 2174 09ae BC42     		cmp	r4, r7
 2175 09b0 00F0CA80 		beq	.L161
 2176              	.LVL193:
 2177              	.L90:
 2178              	.LBB765:
 2179              		.loc 1 243 0
 2180 09b4 F6EC017A 		fldmias	r6!, {s15}
 2181              	.LVL194:
 2182              	.LBB751:
 2183              	.LBB730:
 2184              		.loc 11 41 0
 2185 09b8 77EE8A7A 		fadds	s15, s15, s20
 2186              	.LVL195:
 2187              	.LBE730:
 2188              	.LBE751:
 2189              	.LBB752:
 2190              		.loc 1 248 0
 2191 09bc B8F1010F 		cmp	r8, #1
 2192              	.LBE752:
 2193              	.LBB753:
 2194              	.LBB731:
 2195              		.loc 11 42 0
 2196 09c0 FDEEE76A 		ftosizs	s13, s15
 2197              	.LVL196:
 2198 09c4 B8EEE67A 		fsitos	s14, s13
 2199              	.LVL197:
 2200              		.loc 11 44 0
 2201 09c8 16EE903A 		fmrs	r3, s13	@ int
 2202              		.loc 11 42 0
 2203 09cc 77EEC77A 		fsubs	s15, s15, s14
 2204              	.LVL198:
 2205              		.loc 11 44 0
 2206 09d0 0AEB8303 		add	r3, r10, r3, lsl #2
 2207              		.loc 11 45 0
 2208 09d4 67EEA97A 		fmuls	s15, s15, s19
 2209              	.LVL199:
 2210 09d8 93ED007A 		flds	s14, [r3]
 2211              	.LVL200:
 2212              		.loc 11 44 0
 2213 09dc FDEEE77A 		ftosizs	s15, s15
 2214 09e0 17EE903A 		fmrs	r3, s15	@ int
 2215              		.loc 11 45 0
 2216 09e4 09EB8303 		add	r3, r9, r3, lsl #2
 2217 09e8 D3ED007A 		flds	s15, [r3]
 2218 09ec 67EE277A 		fmuls	s15, s14, s15
 2219              	.LBE731:
 2220              	.LBE753:
 2221              		.loc 1 244 0
 2222 09f0 69EE277A 		fmuls	s15, s18, s15
 2223              	.LBB754:
ARM GAS  /tmp/ccLCZedz.s 			page 40


 2224              	.LBB755:
 2225              		.loc 12 103 0
 2226 09f4 C4ED007A 		fsts	s15, [r4]
 2227              	.LVL201:
 2228              	.LBE755:
 2229              	.LBE754:
 2230              		.loc 1 245 0
 2231 09f8 EB6A     		ldr	r3, [r5, #44]	@ float
 2232              	.LVL202:
 2233              	.LBB756:
 2234              	.LBB757:
 2235              		.loc 12 118 0
 2236 09fa A360     		str	r3, [r4, #8]	@ float
 2237              	.LBE757:
 2238              	.LBE756:
 2239              		.loc 1 246 0
 2240 09fc 6B6B     		ldr	r3, [r5, #52]	@ float
 2241              	.LVL203:
 2242              	.LBB758:
 2243              	.LBB759:
 2244              		.loc 12 126 0
 2245 09fe 2361     		str	r3, [r4, #16]	@ float
 2246              	.LVL204:
 2247              	.LBE759:
 2248              	.LBE758:
 2249              	.LBB760:
 2250              	.LBB761:
 2251              		.loc 12 122 0
 2252 0a00 C4ED038A 		fsts	s17, [r4, #12]
 2253              	.LBE761:
 2254              	.LBE760:
 2255              	.LBB762:
 2256              		.loc 1 248 0
 2257 0a04 00F08A80 		beq	.L162
 2258              	.LBB745:
 2259              		.loc 1 251 0
 2260 0a08 95ED0B7A 		flds	s14, [r5, #44]
 2261              	.LVL205:
 2262              		.loc 1 252 0
 2263 0a0c F6EE007A 		fconsts	s15, #96
 2264 0a10 B4EEE77A 		fcmpes	s14, s15
 2265 0a14 F1EE10FA 		fmstat
 2266 0a18 A8D5     		bpl	.L163
 2267 0a1a DFED117A 		flds	s15, .L171+44
 2268              	.LVL206:
 2269 0a1e BBE7     		b	.L88
 2270              	.LVL207:
 2271              	.L18:
 2272              	.LBE745:
 2273              	.LBE762:
 2274              	.LBE765:
 2275              	.LBE726:
 2276              	.LBE708:
 2277              	.LBE796:
 2278              	.LBB797:
 2279              	.LBB462:
 2280              		.loc 8 91 0
ARM GAS  /tmp/ccLCZedz.s 			page 41


 2281 0a20 C15C     		ldrb	r1, [r0, r3]	@ zero_extendqisi2
 2282              	.LVL208:
 2283 0a22 0029     		cmp	r1, #0
 2284 0a24 0BBF     		itete	eq
 2285 0a26 1146     		moveq	r1, r2
 2286 0a28 0221     		movne	r1, #2
 2287 0a2a 1346     		moveq	r3, r2
 2288 0a2c 1346     		movne	r3, r2
 2289 0a2e 0491     		str	r1, [sp, #16]
 2290 0a30 FFF797BB 		b	.L19
 2291              	.L172:
 2292              		.align	2
 2293              	.L171:
 2294 0a34 00000000 		.word	0
 2295 0a38 00000000 		.word	_ZN8elements20lut_accent_gain_fineE
 2296 0a3c 6F12833A 		.word	981668463
 2297 0a40 0000803D 		.word	1031798784
 2298 0a44 CDCC4C3E 		.word	1045220557
 2299 0a48 CDCCCCBD 		.word	-1110651699
 2300 0a4c 00000000 		.word	.LANCHOR0
 2301 0a50 00000043 		.word	1124073472
 2302 0a54 CDCCCCBE 		.word	-1093874483
 2303 0a58 8FC2753E 		.word	1047904911
 2304 0a5c B81E853E 		.word	1048911544
 2305 0a60 83F57FBF 		.word	-1082133117
 2306 0a64 00000000 		.word	_ZN8elements22lut_accent_gain_coarseE
 2307 0a68 00000000 		.word	_ZN6stmlib20lut_pitch_ratio_highE
 2308 0a6c 00000000 		.word	_ZN6stmlib19lut_pitch_ratio_lowE
 2309 0a70 9A99193E 		.word	1041865114
 2310 0a74 6666E63F 		.word	1072064102
 2311 0a78 09F9AC3F 		.word	1068300553
 2312 0a7c DF4F8540 		.word	1082478559
 2313 0a80 00000000 		.word	0
 2314 0a84 00008043 		.word	1132462080
 2315 0a88 CDCCCC3D 		.word	1036831949
 2316              	.LVL209:
 2317              	.L154:
 2318              	.LBE462:
 2319              	.LBE797:
 2320              	.LBB798:
 2321              	.LBB510:
 2322              		.loc 7 68 0
 2323 0a8c 1FED047A 		flds	s14, .L171+76
 2324              		.loc 7 66 0
 2325 0a90 94ED0FBA 		flds	s22, [r4, #60]
 2326              		.loc 7 68 0
 2327 0a94 84ED107A 		fsts	s14, [r4, #64]
 2328              	.LVL210:
 2329              		.loc 7 67 0
 2330 0a98 0222     		movs	r2, #2
 2331              		.loc 7 68 0
 2332 0a9a B0EE474A 		fcpys	s8, s14
 2333              		.loc 7 66 0
 2334 0a9e 84ED0EBA 		fsts	s22, [r4, #56]
 2335              		.loc 7 67 0
 2336 0aa2 E286     		strh	r2, [r4, #54]	@ movhi
 2337              		.loc 7 68 0
ARM GAS  /tmp/ccLCZedz.s 			page 42


 2338 0aa4 0321     		movs	r1, #3
 2339 0aa6 0427     		movs	r7, #4
 2340              	.LVL211:
 2341              	.L31:
 2342              		.loc 7 79 0
 2343 0aa8 049A     		ldr	r2, [sp, #16]
 2344 0aaa 5207     		lsls	r2, r2, #29
 2345 0aac 40F1B080 		bpl	.L164
 2346              		.loc 7 82 0
 2347 0ab0 5FED0D7A 		flds	s15, .L171+76
 2348              		.loc 7 79 0
 2349 0ab4 0222     		movs	r2, #2
 2350 0ab6 3BE4     		b	.L36
 2351              	.LVL212:
 2352              	.L134:
 2353              	.LBE510:
 2354              	.LBE798:
 2355              	.LBB799:
 2356              	.LBB491:
 2357              	.LBB480:
 2358              		.loc 1 114 0
 2359 0ab8 B7EE006A 		fconsts	s12, #112
 2360 0abc 76EE677A 		fsubs	s15, s12, s15
 2361 0ac0 5FED156A 		flds	s13, .L171+60
 2362              		.loc 1 115 0
 2363 0ac4 1FED157A 		flds	s14, .L171+64
 2364              	.LBB481:
 2365              	.LBB482:
 2366              		.loc 7 125 0
 2367 0ac8 84ED016A 		fsts	s12, [r4, #4]
 2368              	.LBE482:
 2369              	.LBE481:
 2370              		.loc 1 114 0
 2371 0acc F6EE085A 		fconsts	s11, #104
 2372 0ad0 E7EEA56A 		vfma.f32	s13, s15, s11
 2373              	.LVL213:
 2374              	.LBB486:
 2375              	.LBB483:
 2376              		.loc 7 124 0
 2377 0ad4 0027     		movs	r7, #0
 2378              		.loc 7 122 0
 2379 0ad6 0220     		movs	r0, #2
 2380              	.LVL214:
 2381              		.loc 7 134 0
 2382 0ad8 0121     		movs	r1, #1
 2383              	.LBE483:
 2384              	.LBE486:
 2385              		.loc 1 115 0
 2386 0ada 66EE877A 		fmuls	s15, s13, s14
 2387              	.LVL215:
 2388              	.LBB487:
 2389              	.LBB484:
 2390              		.loc 7 137 0
 2391 0ade 0022     		movs	r2, #0
 2392              	.LVL216:
 2393              		.loc 7 121 0
 2394 0ae0 4FF0030E 		mov	lr, #3
ARM GAS  /tmp/ccLCZedz.s 			page 43


 2395              	.LBE484:
 2396              	.LBE487:
 2397              	.LBE480:
 2398              	.LBE491:
 2399              	.LBE799:
 2400              		.loc 1 104 0
 2401 0ae4 F0EE463A 		fcpys	s7, s12
 2402              	.LBB800:
 2403              	.LBB492:
 2404              	.LBB489:
 2405              	.LBB488:
 2406              	.LBB485:
 2407              		.loc 7 126 0
 2408 0ae8 84ED026A 		fsts	s12, [r4, #8]
 2409              		.loc 7 129 0
 2410 0aec C4ED066A 		fsts	s13, [r4, #24]
 2411              		.loc 7 130 0
 2412 0af0 C4ED077A 		fsts	s15, [r4, #28]
 2413              		.loc 7 131 0
 2414 0af4 C4ED087A 		fsts	s15, [r4, #32]
 2415              		.loc 7 124 0
 2416 0af8 2760     		str	r7, [r4]	@ float
 2417              		.loc 7 127 0
 2418 0afa E760     		str	r7, [r4, #12]	@ float
 2419              		.loc 7 121 0
 2420 0afc A4F844E0 		strh	lr, [r4, #68]	@ movhi
 2421              		.loc 7 122 0
 2422 0b00 A4F84600 		strh	r0, [r4, #70]	@ movhi
 2423              		.loc 7 133 0
 2424 0b04 84F83000 		strb	r0, [r4, #48]
 2425              		.loc 7 134 0
 2426 0b08 84F83110 		strb	r1, [r4, #49]
 2427              		.loc 7 135 0
 2428 0b0c 84F83210 		strb	r1, [r4, #50]
 2429              		.loc 7 137 0
 2430 0b10 A4F84A20 		strh	r2, [r4, #74]	@ movhi
 2431 0b14 A4F84820 		strh	r2, [r4, #72]	@ movhi
 2432 0b18 FFF761BB 		b	.L22
 2433              	.LVL217:
 2434              	.L162:
 2435              	.LBE485:
 2436              	.LBE488:
 2437              	.LBE489:
 2438              	.LBE492:
 2439              	.LBE800:
 2440              	.LBB801:
 2441              	.LBB773:
 2442              	.LBB768:
 2443              	.LBB766:
 2444              	.LBB763:
 2445              		.loc 1 249 0
 2446 0b1c D5ED0A7A 		flds	s15, [r5, #40]
 2447              	.LVL218:
 2448              	.LBB746:
 2449              	.LBB747:
 2450              		.loc 12 113 0
 2451 0b20 F4EEEA7A 		fcmpes	s15, s21
ARM GAS  /tmp/ccLCZedz.s 			page 44


 2452 0b24 F1EE10FA 		fmstat
 2453 0b28 3CD4     		bmi	.L149
 2454 0b2a F4EECB7A 		fcmpes	s15, s22
 2455 0b2e F1EE10FA 		fmstat
 2456 0b32 06DD     		ble	.L145
 2457 0b34 77EECB7A 		fsubs	s15, s15, s22
 2458              	.LVL219:
 2459 0b38 1FED317A 		flds	s14, .L171+68
 2460 0b3c 67EE877A 		fmuls	s15, s15, s14
 2461 0b40 2AE7     		b	.L88
 2462              	.LVL220:
 2463              	.L145:
 2464              	.LBE747:
 2465              	.LBE746:
 2466              	.LBB748:
 2467              	.LBB742:
 2468              	.LBB738:
 2469 0b42 5FED317A 		flds	s15, .L171+76
 2470 0b46 27E7     		b	.L88
 2471              	.LVL221:
 2472              	.L161:
 2473              	.LBE738:
 2474              	.LBE742:
 2475              	.LBE748:
 2476              	.LBE763:
 2477              	.LBE766:
 2478              	.LBE768:
 2479              	.LBB769:
 2480              		.loc 1 256 0 discriminator 1
 2481 0b48 209B     		ldr	r3, [sp, #128]
 2482 0b4a 039E     		ldr	r6, [sp, #12]
 2483 0b4c F3B1     		cbz	r3, .L17
 2484 0b4e 1F9A     		ldr	r2, [sp, #124]
 2485 0b50 1E9B     		ldr	r3, [sp, #120]
 2486              	.LVL222:
 2487              	.L92:
 2488              	.LBB770:
 2489              		.loc 1 257 0 discriminator 3
 2490 0b52 93ED007A 		flds	s14, [r3]
 2491              	.LVL223:
 2492              		.loc 1 258 0 discriminator 3
 2493 0b56 D2ED007A 		flds	s15, [r2]
 2494              	.LVL224:
 2495              		.loc 1 259 0 discriminator 3
 2496 0b5a 77EE676A 		fsubs	s13, s14, s15
 2497              		.loc 1 260 0 discriminator 3
 2498 0b5e 77EE277A 		fadds	s15, s14, s15
 2499              	.LVL225:
 2500              		.loc 1 259 0 discriminator 3
 2501 0b62 E3EC016A 		fstmias	r3!, {s13}
 2502              	.LVL226:
 2503              	.LBE770:
 2504              		.loc 1 256 0 discriminator 3
 2505 0b66 B342     		cmp	r3, r6
 2506              	.LBB771:
 2507              		.loc 1 260 0 discriminator 3
 2508 0b68 E2EC017A 		fstmias	r2!, {s15}
ARM GAS  /tmp/ccLCZedz.s 			page 45


 2509              	.LBE771:
 2510              		.loc 1 256 0 discriminator 3
 2511 0b6c F1D1     		bne	.L92
 2512              	.LVL227:
 2513              	.L65:
 2514 0b6e 0699     		ldr	r1, [sp, #24]
 2515 0b70 1E9A     		ldr	r2, [sp, #120]
 2516 0b72 2098     		ldr	r0, [sp, #128]
 2517              	.LBE769:
 2518              	.LBB772:
 2519              	.LBB767:
 2520              	.LBB764:
 2521              	.LBB749:
 2522              	.LBB743:
 2523              	.LBB739:
 2524              		.loc 12 113 0
 2525 0b74 0023     		movs	r3, #0
 2526              	.LVL228:
 2527              	.L66:
 2528              	.LBE739:
 2529              	.LBE743:
 2530              	.LBE749:
 2531              	.LBE764:
 2532              	.LBE767:
 2533              	.LBE772:
 2534              	.LBE773:
 2535              	.LBE801:
 2536              	.LBB802:
 2537              		.loc 1 266 0 discriminator 3
 2538 0b76 B1EC017A 		fldmias	r1!, {s14}
 2539 0b7a D2ED007A 		flds	s15, [r2]
 2540 0b7e E8EE077A 		vfma.f32	s15, s16, s14
 2541              		.loc 1 265 0 discriminator 3
 2542 0b82 0133     		adds	r3, r3, #1
 2543              	.LVL229:
 2544 0b84 9842     		cmp	r0, r3
 2545              		.loc 1 266 0 discriminator 3
 2546 0b86 E2EC017A 		fstmias	r2!, {s15}
 2547              		.loc 1 265 0 discriminator 3
 2548 0b8a F4D8     		bhi	.L66
 2549              	.LVL230:
 2550              	.L17:
 2551              	.LBE802:
 2552              	.LBE457:
 2553              		.loc 1 268 0
 2554 0b8c 0BB0     		add	sp, sp, #44
 2555              		.cfi_remember_state
 2556              		.cfi_def_cfa_offset 68
 2557              		@ sp needed
 2558 0b8e BDEC088B 		fldmfdd	sp!, {d8-d11}
 2559              		.cfi_restore 86
 2560              		.cfi_restore 87
 2561              		.cfi_restore 84
 2562              		.cfi_restore 85
 2563              		.cfi_restore 82
 2564              		.cfi_restore 83
 2565              		.cfi_restore 80
ARM GAS  /tmp/ccLCZedz.s 			page 46


 2566              		.cfi_restore 81
 2567              		.cfi_def_cfa_offset 36
 2568              	.LVL231:
 2569 0b92 BDE8F08F 		pop	{r4, r5, r6, r7, r8, r9, r10, fp, pc}
 2570              	.LVL232:
 2571              	.L135:
 2572              		.cfi_restore_state
 2573              	.LBB807:
 2574              		.loc 1 133 0 discriminator 2
 2575 0b96 F7EE047A 		fconsts	s15, #116
 2576 0b9a BDEE007A 		fconsts	s14, #208
 2577 0b9e A6EEA77A 		vfma.f32	s14, s13, s15
 2578 0ba2 1FE4     		b	.L39
 2579              	.LVL233:
 2580              	.L149:
 2581 0ba4 77EEEA7A 		fsubs	s15, s15, s21
 2582 0ba8 1FED4C7A 		flds	s14, .L171+72
 2583 0bac 67EE877A 		fmuls	s15, s15, s14
 2584 0bb0 F2E6     		b	.L88
 2585              	.LVL234:
 2586              	.L160:
 2587              	.LBB803:
 2588              	.LBB774:
 2589              	.LBB775:
 2590              		.loc 2 61 0
 2591 0bb2 04F50550 		add	r0, r4, #8512
 2592 0bb6 0430     		adds	r0, r0, #4
 2593 0bb8 80ED009A 		fsts	s18, [r0]
 2594              	.LBE775:
 2595              	.LBE774:
 2596              		.loc 1 222 0
 2597 0bbc 1F9B     		ldr	r3, [sp, #124]
 2598              		.loc 1 214 0
 2599 0bbe AA6A     		ldr	r2, [r5, #40]	@ float
 2600              	.LVL235:
 2601              		.loc 1 222 0
 2602 0bc0 0093     		str	r3, [sp]
 2603              	.LBB776:
 2604              	.LBB777:
 2605              		.loc 2 65 0
 2606 0bc2 04F50553 		add	r3, r4, #8512
 2607 0bc6 9A60     		str	r2, [r3, #8]	@ float
 2608              	.LBE777:
 2609              	.LBE776:
 2610              		.loc 1 222 0
 2611 0bc8 209B     		ldr	r3, [sp, #128]
 2612              		.loc 1 215 0
 2613 0bca EA6A     		ldr	r2, [r5, #44]	@ float
 2614              	.LVL236:
 2615              		.loc 1 222 0
 2616 0bcc 0193     		str	r3, [sp, #4]
 2617              	.LVL237:
 2618              	.LBB778:
 2619              	.LBB779:
 2620              		.loc 2 69 0
 2621 0bce 04F50553 		add	r3, r4, #8512
 2622 0bd2 DA60     		str	r2, [r3, #12]	@ float
ARM GAS  /tmp/ccLCZedz.s 			page 47


 2623              	.LBE779:
 2624              	.LBE778:
 2625              	.LBB780:
 2626              	.LBB781:
 2627              		.loc 2 77 0
 2628 0bd4 04F50552 		add	r2, r4, #8512
 2629              	.LVL238:
 2630              	.LBE781:
 2631              	.LBE780:
 2632              		.loc 1 216 0
 2633 0bd8 696B     		ldr	r1, [r5, #52]	@ float
 2634              	.LVL239:
 2635              	.LBB783:
 2636              	.LBB782:
 2637              		.loc 2 77 0
 2638 0bda 1161     		str	r1, [r2, #16]	@ float
 2639              	.LVL240:
 2640              	.LBE782:
 2641              	.LBE783:
 2642              	.LBB784:
 2643              	.LBB785:
 2644              		.loc 2 73 0
 2645 0bdc C2ED068A 		fsts	s17, [r2, #24]
 2646              	.LBE785:
 2647              	.LBE784:
 2648              	.LBB786:
 2649              	.LBB787:
 2650              		.loc 2 85 0
 2651 0be0 04F50553 		add	r3, r4, #8512
 2652              	.LBE787:
 2653              	.LBE786:
 2654              		.loc 1 218 0
 2655 0be4 AA6B     		ldr	r2, [r5, #56]	@ float
 2656              	.LVL241:
 2657              	.LBB789:
 2658              	.LBB788:
 2659              		.loc 2 85 0
 2660 0be6 DA61     		str	r2, [r3, #28]	@ float
 2661              	.LBE788:
 2662              	.LBE789:
 2663              	.LBB790:
 2664              	.LBB791:
 2665              		.loc 2 89 0
 2666 0be8 04F50554 		add	r4, r4, #8512
 2667              	.LVL242:
 2668              	.LBE791:
 2669              	.LBE790:
 2670              		.loc 1 219 0
 2671 0bec EB6B     		ldr	r3, [r5, #60]	@ float
 2672              	.LVL243:
 2673              	.LBB793:
 2674              	.LBB792:
 2675              		.loc 2 89 0
 2676 0bee 2362     		str	r3, [r4, #32]	@ float
 2677              	.LBE792:
 2678              	.LBE793:
 2679              		.loc 1 222 0
ARM GAS  /tmp/ccLCZedz.s 			page 48


 2680 0bf0 0499     		ldr	r1, [sp, #16]
 2681              	.LVL244:
 2682 0bf2 1E9B     		ldr	r3, [sp, #120]
 2683              	.LVL245:
 2684 0bf4 1D9A     		ldr	r2, [sp, #116]
 2685              	.LVL246:
 2686 0bf6 FFF7FEFF 		bl	_ZN8elements9Resonator7ProcessEPKfS2_PfS3_j
 2687              	.LVL247:
 2688              	.LBE803:
 2689              	.LBB804:
 2690              		.loc 1 265 0
 2691 0bfa 209B     		ldr	r3, [sp, #128]
 2692 0bfc 002B     		cmp	r3, #0
 2693 0bfe B6D1     		bne	.L65
 2694 0c00 C4E7     		b	.L17
 2695              	.LVL248:
 2696              	.L157:
 2697              	.LBE804:
 2698              		.loc 1 164 0
 2699 0c02 1FED618A 		flds	s16, .L171+76
 2700 0c06 35E5     		b	.L46
 2701              	.LVL249:
 2702              	.L27:
 2703              	.LBB805:
 2704              	.LBB511:
 2705              		.loc 7 62 0
 2706 0c08 94ED0FBA 		flds	s22, [r4, #60]
 2707 0c0c FFF7F4BA 		b	.L28
 2708              	.LVL250:
 2709              	.L164:
 2710              		.loc 7 79 0
 2711 0c10 0222     		movs	r2, #2
 2712 0c12 FFF770BB 		b	.L29
 2713              	.LVL251:
 2714              	.L156:
 2715              		.loc 7 82 0
 2716 0c16 5FED667A 		flds	s15, .L171+76
 2717 0c1a FFF789BB 		b	.L36
 2718              	.LVL252:
 2719              	.L155:
 2720 0c1e 1FED677A 		flds	s14, .L171+80
 2721 0c22 B4F93620 		ldrsh	r2, [r4, #54]
 2722 0c26 94ED0EBA 		flds	s22, [r4, #56]
 2723 0c2a 24EE077A 		fmuls	s14, s8, s14
 2724 0c2e 511C     		adds	r1, r2, #1
 2725 0c30 FCEEC77A 		ftouizs	s15, s14
 2726 0c34 17EE903A 		fmrs	r3, s15	@ int
 2727 0c38 F8EE676A 		fuitos	s13, s15
 2728 0c3c 9B00     		lsls	r3, r3, #2
 2729 0c3e 37EE667A 		fsubs	s14, s14, s13
 2730 0c42 1F1D     		adds	r7, r3, #4
 2731 0c44 FFF751BB 		b	.L33
 2732              	.LVL253:
 2733              	.L68:
 2734              	.LBE511:
 2735              	.LBE805:
 2736              	.LBB806:
ARM GAS  /tmp/ccLCZedz.s 			page 49


 2737              	.LBB794:
 2738              		.loc 1 235 0
 2739 0c48 04F56E53 		add	r3, r4, #15232
 2740              	.LVL254:
 2741              		.loc 1 234 0
 2742 0c4c D5ED0A7A 		flds	s15, [r5, #40]
 2743              	.LVL255:
 2744              		.loc 1 235 0
 2745 0c50 93ED0D7A 		flds	s14, [r3, #52]
 2746 0c54 3433     		adds	r3, r3, #52
 2747              		.loc 1 234 0
 2748 0c56 F2EE046A 		fconsts	s13, #36
 2749              	.LVL256:
 2750 0c5a 67EEA66A 		fmuls	s13, s15, s13
 2751              	.LVL257:
 2752              		.loc 1 236 0
 2753 0c5e 5FED767A 		flds	s15, .L171+84
 2754              		.loc 1 235 0
 2755 0c62 F4EEC76A 		fcmpes	s13, s14
 2756 0c66 F1EE10FA 		fmstat
 2757 0c6a 1BDD     		ble	.L165
 2758              	.LVL258:
 2759              		.loc 1 236 0
 2760 0c6c 76EEE77A 		fsubs	s15, s13, s15
 2761 0c70 B6EE007A 		fconsts	s14, #96
 2762 0c74 77EE877A 		fadds	s15, s15, s14
 2763              		.loc 1 240 0
 2764 0c78 1E9E     		ldr	r6, [sp, #120]
 2765              		.loc 1 236 0
 2766 0c7a FDEEE77A 		ftosizs	s15, s15
 2767 0c7e 17EE902A 		fmrs	r2, s15	@ int
 2768              	.LVL259:
 2769 0c82 0A2A     		cmp	r2, #10
 2770 0c84 A8BF     		it	ge
 2771 0c86 0A22     		movge	r2, #10
 2772              	.LVL260:
 2773 0c88 22EAE272 		bic	r2, r2, r2, asr #31
 2774              	.LVL261:
 2775              		.loc 1 238 0
 2776 0c8c 07EE902A 		fmsr	s15, r2	@ int
 2777 0c90 F8EEE77A 		fsitos	s15, s15
 2778 0c94 C3ED007A 		fsts	s15, [r3]
 2779              	.LVL262:
 2780 0c98 47E6     		b	.L75
 2781              	.LVL263:
 2782              	.L158:
 2783 0c9a 04F52A53 		add	r3, r4, #10880
 2784 0c9e 3033     		adds	r3, r3, #48
 2785 0ca0 0493     		str	r3, [sp, #16]
 2786              	.LVL264:
 2787 0ca2 9AE5     		b	.L63
 2788              	.LVL265:
 2789              	.L165:
 2790 0ca4 2099     		ldr	r1, [sp, #128]
 2791 0ca6 16E6     		b	.L72
 2792              	.LBE794:
 2793              	.LBE806:
ARM GAS  /tmp/ccLCZedz.s 			page 50


 2794              	.LBE807:
 2795              		.cfi_endproc
 2796              	.LFE769:
 2797              		.fnend
 2798              		.size	_ZN8elements5Voice7ProcessERKNS_5PatchEffbPKfS5_PfS6_S6_j, .-_ZN8elements5Voice7ProcessERKNS
 2799              		.global	_ZN8elements6chordsE
 2800              		.data
 2801              		.align	2
 2802              		.set	.LANCHOR0,. + 0
 2803              		.type	_ZN8elements6chordsE, %object
 2804              		.size	_ZN8elements6chordsE, 220
 2805              	_ZN8elements6chordsE:
 2806 0000 00000000 		.word	0
 2807 0004 000040C1 		.word	-1052770304
 2808 0008 00000000 		.word	0
 2809 000c 0AD7233C 		.word	1008981770
 2810 0010 00004041 		.word	1094713344
 2811 0014 00000000 		.word	0
 2812 0018 000040C1 		.word	-1052770304
 2813 001c 00004040 		.word	1077936128
 2814 0020 0000E040 		.word	1088421888
 2815 0024 00002041 		.word	1092616192
 2816 0028 00000000 		.word	0
 2817 002c 000040C1 		.word	-1052770304
 2818 0030 00004040 		.word	1077936128
 2819 0034 0000E040 		.word	1088421888
 2820 0038 00004041 		.word	1094713344
 2821 003c 00000000 		.word	0
 2822 0040 000040C1 		.word	-1052770304
 2823 0044 00004040 		.word	1077936128
 2824 0048 0000E040 		.word	1088421888
 2825 004c 00006041 		.word	1096810496
 2826 0050 00000000 		.word	0
 2827 0054 000040C1 		.word	-1052770304
 2828 0058 00004040 		.word	1077936128
 2829 005c 0000E040 		.word	1088421888
 2830 0060 00008841 		.word	1099431936
 2831 0064 00000000 		.word	0
 2832 0068 000040C1 		.word	-1052770304
 2833 006c 0000E040 		.word	1088421888
 2834 0070 00004041 		.word	1094713344
 2835 0074 00009841 		.word	1100480512
 2836 0078 00000000 		.word	0
 2837 007c 000040C1 		.word	-1052770304
 2838 0080 00008040 		.word	1082130432
 2839 0084 0000E040 		.word	1088421888
 2840 0088 00008841 		.word	1099431936
 2841 008c 00000000 		.word	0
 2842 0090 000040C1 		.word	-1052770304
 2843 0094 00008040 		.word	1082130432
 2844 0098 0000E040 		.word	1088421888
 2845 009c 00006041 		.word	1096810496
 2846 00a0 00000000 		.word	0
 2847 00a4 000040C1 		.word	-1052770304
 2848 00a8 00008040 		.word	1082130432
 2849 00ac 0000E040 		.word	1088421888
 2850 00b0 00004041 		.word	1094713344
ARM GAS  /tmp/ccLCZedz.s 			page 51


 2851 00b4 00000000 		.word	0
 2852 00b8 000040C1 		.word	-1052770304
 2853 00bc 00008040 		.word	1082130432
 2854 00c0 0000E040 		.word	1088421888
 2855 00c4 00003041 		.word	1093664768
 2856 00c8 00000000 		.word	0
 2857 00cc 000040C1 		.word	-1052770304
 2858 00d0 0000A040 		.word	1084227584
 2859 00d4 0000E040 		.word	1088421888
 2860 00d8 00004041 		.word	1094713344
 2861              		.text
 2862              	.Letext0:
 2863              		.file 13 "/home/sbcu/Dropbox/pcb-layouts/axo-on-discovery-board/axoloti/platform_linux/arm-none-ea
 2864              		.file 14 "/home/sbcu/Dropbox/pcb-layouts/axo-on-discovery-board/axoloti/platform_linux/arm-none-ea
 2865              		.file 15 "/home/sbcu/Dropbox/pcb-layouts/axo-on-discovery-board/axoloti/platform_linux/lib/gcc/arm
 2866              		.file 16 "./mutable_instruments/stmlib/dsp/delay_line.h"
 2867              		.file 17 "/home/sbcu/Dropbox/pcb-layouts/axo-on-discovery-board/axoloti/platform_linux/arm-none-ea
 2868              		.file 18 "./mutable_instruments/stmlib/stmlib.h"
 2869              		.file 19 "/home/sbcu/Dropbox/pcb-layouts/axo-on-discovery-board/axoloti/platform_linux/arm-none-ea
 2870              		.file 20 "/home/sbcu/Dropbox/pcb-layouts/axo-on-discovery-board/axoloti/platform_linux/arm-none-ea
 2871              		.file 21 "/home/sbcu/Dropbox/pcb-layouts/axo-on-discovery-board/axoloti/platform_linux/arm-none-ea
 2872              		.file 22 "/home/sbcu/Dropbox/pcb-layouts/axo-on-discovery-board/axoloti/platform_linux/arm-none-ea
 2873              		.file 23 "/home/sbcu/Dropbox/pcb-layouts/axo-on-discovery-board/axoloti/platform_linux/arm-none-ea
 2874              		.file 24 "/home/sbcu/Dropbox/pcb-layouts/axo-on-discovery-board/axoloti/platform_linux/arm-none-ea
 2875              		.file 25 "/home/sbcu/Dropbox/pcb-layouts/axo-on-discovery-board/axoloti/platform_linux/arm-none-ea
 2876              		.file 26 "/home/sbcu/Dropbox/pcb-layouts/axo-on-discovery-board/axoloti/platform_linux/arm-none-ea
 2877              		.file 27 "/home/sbcu/Dropbox/pcb-layouts/axo-on-discovery-board/axoloti/platform_linux/arm-none-ea
 2878              		.file 28 "/home/sbcu/Dropbox/pcb-layouts/axo-on-discovery-board/axoloti/platform_linux/arm-none-ea
 2879              		.file 29 "/home/sbcu/Dropbox/pcb-layouts/axo-on-discovery-board/axoloti/platform_linux/arm-none-ea
 2880              		.file 30 "/home/sbcu/Dropbox/pcb-layouts/axo-on-discovery-board/axoloti/platform_linux/arm-none-ea
 2881              		.file 31 "/home/sbcu/Dropbox/pcb-layouts/axo-on-discovery-board/axoloti/platform_linux/arm-none-ea
 2882              		.file 32 "./mutable_instruments/elements/dsp/dsp.h"
 2883              		.file 33 "./mutable_instruments/elements/dsp/patch.h"
 2884              		.file 34 "./mutable_instruments/elements/dsp/tube.h"
 2885              		.file 35 "./mutable_instruments/elements/resources.h"
 2886              		.file 36 "<built-in>"
 2887              		.file 37 "./mutable_instruments/elements/../mutable_resources.h"
 2888              		.file 38 "/home/sbcu/Dropbox/pcb-layouts/axo-on-discovery-board/axoloti/platform_linux/arm-none-ea