ARM GAS  /tmp/ccLjFTYZ.s 			page 1


   1              		.syntax unified
   2              		.cpu cortex-m4
   3              		.eabi_attribute 27, 1
   4              		.eabi_attribute 28, 1
   5              		.fpu fpv4-sp-d16
   6              		.eabi_attribute 20, 1
   7              		.eabi_attribute 21, 1
   8              		.eabi_attribute 23, 3
   9              		.eabi_attribute 24, 1
  10              		.eabi_attribute 25, 1
  11              		.eabi_attribute 26, 1
  12              		.eabi_attribute 30, 2
  13              		.eabi_attribute 34, 1
  14              		.eabi_attribute 18, 4
  15              		.thumb
  16              		.file	"adc.c"
  17              		.text
  18              	.Ltext0:
  19              		.cfi_sections	.debug_frame
  20              		.section	.text.adcInit,"ax",%progbits
  21              		.align	2
  22              		.p2align 4,,15
  23              		.global	adcInit
  24              		.thumb
  25              		.thumb_func
  26              		.type	adcInit, %function
  27              	adcInit:
  28              	.LFB118:
  29              		.file 1 "/home/sbcu/Dropbox/pcb-layouts/axo-on-discovery-board/axoloti/platform_linux/../chibios/o
  30              		.loc 1 68 0
  31              		.cfi_startproc
  32              		@ args = 0, pretend = 0, frame = 0
  33              		@ frame_needed = 0, uses_anonymous_args = 0
  34              		@ link register save eliminated.
  35              		.loc 1 70 0
  36 0000 FFF7FEBF 		b	adc_lld_init
  37              	.LVL0:
  38              		.cfi_endproc
  39              	.LFE118:
  40              		.size	adcInit, .-adcInit
  41              		.section	.text.adcObjectInit,"ax",%progbits
  42              		.align	2
  43              		.p2align 4,,15
  44              		.global	adcObjectInit
  45              		.thumb
  46              		.thumb_func
  47              		.type	adcObjectInit, %function
  48              	adcObjectInit:
  49              	.LFB119:
  50              		.loc 1 80 0
  51              		.cfi_startproc
  52              		@ args = 0, pretend = 0, frame = 0
  53              		@ frame_needed = 0, uses_anonymous_args = 0
  54              		@ link register save eliminated.
  55              	.LVL1:
  56              		.loc 1 83 0
  57 0000 0023     		movs	r3, #0
ARM GAS  /tmp/ccLjFTYZ.s 			page 2


  58              		.loc 1 82 0
  59 0002 0122     		movs	r2, #1
  60 0004 0270     		strb	r2, [r0]
  61              		.loc 1 83 0
  62 0006 4360     		str	r3, [r0, #4]
  63              		.loc 1 84 0
  64 0008 8360     		str	r3, [r0, #8]
  65              		.loc 1 85 0
  66 000a C360     		str	r3, [r0, #12]
  67              		.loc 1 86 0
  68 000c 0361     		str	r3, [r0, #16]
  69              		.loc 1 88 0
  70 000e 4361     		str	r3, [r0, #20]
  71              		.loc 1 92 0
  72 0010 1830     		adds	r0, r0, #24
  73              	.LVL2:
  74 0012 FFF7FEBF 		b	chMtxInit
  75              	.LVL3:
  76              		.cfi_endproc
  77              	.LFE119:
  78              		.size	adcObjectInit, .-adcObjectInit
  79 0016 00BF     		.section	.text.adcStart,"ax",%progbits
  80              		.align	2
  81              		.p2align 4,,15
  82              		.global	adcStart
  83              		.thumb
  84              		.thumb_func
  85              		.type	adcStart, %function
  86              	adcStart:
  87              	.LFB120:
  88              		.loc 1 111 0
  89              		.cfi_startproc
  90              		@ args = 0, pretend = 0, frame = 0
  91              		@ frame_needed = 0, uses_anonymous_args = 0
  92              	.LVL4:
  93 0000 10B5     		push	{r4, lr}
  94              		.cfi_def_cfa_offset 8
  95              		.cfi_offset 4, -8
  96              		.cfi_offset 14, -4
  97              	.LBB10:
  98              		.loc 1 115 0
  99 0002 2023     		movs	r3, #32
 100              	.LBE10:
 101              		.loc 1 111 0
 102 0004 0446     		mov	r4, r0
 103              	.LBB11:
 104              		.loc 1 115 0
 105              	@ 115 "/home/sbcu/Dropbox/pcb-layouts/axo-on-discovery-board/axoloti/platform_linux/../chibios/os/h
 106 0006 83F31188 		msr     BASEPRI, r3
 107              	@ 0 "" 2
 108              		.thumb
 109              	.LBE11:
 110              		.loc 1 118 0
 111 000a 4160     		str	r1, [r0, #4]
 112              		.loc 1 119 0
 113 000c FFF7FEFF 		bl	adc_lld_start
 114              	.LVL5:
ARM GAS  /tmp/ccLjFTYZ.s 			page 3


 115              		.loc 1 120 0
 116 0010 0223     		movs	r3, #2
 117 0012 2370     		strb	r3, [r4]
 118              	.LBB12:
 119              		.loc 1 121 0
 120 0014 0023     		movs	r3, #0
 121              	@ 121 "/home/sbcu/Dropbox/pcb-layouts/axo-on-discovery-board/axoloti/platform_linux/../chibios/os/h
 122 0016 83F31188 		msr     BASEPRI, r3
 123              	@ 0 "" 2
 124              		.thumb
 125 001a 10BD     		pop	{r4, pc}
 126              	.LBE12:
 127              		.cfi_endproc
 128              	.LFE120:
 129              		.size	adcStart, .-adcStart
 130              		.section	.text.adcStop,"ax",%progbits
 131              		.align	2
 132              		.p2align 4,,15
 133              		.global	adcStop
 134              		.thumb
 135              		.thumb_func
 136              		.type	adcStop, %function
 137              	adcStop:
 138              	.LFB121:
 139              		.loc 1 131 0
 140              		.cfi_startproc
 141              		@ args = 0, pretend = 0, frame = 0
 142              		@ frame_needed = 0, uses_anonymous_args = 0
 143              	.LVL6:
 144 0000 10B5     		push	{r4, lr}
 145              		.cfi_def_cfa_offset 8
 146              		.cfi_offset 4, -8
 147              		.cfi_offset 14, -4
 148              	.LBB13:
 149              		.loc 1 135 0
 150 0002 2023     		movs	r3, #32
 151              	.LBE13:
 152              		.loc 1 131 0
 153 0004 0446     		mov	r4, r0
 154              	.LBB14:
 155              		.loc 1 135 0
 156              	@ 135 "/home/sbcu/Dropbox/pcb-layouts/axo-on-discovery-board/axoloti/platform_linux/../chibios/os/h
 157 0006 83F31188 		msr     BASEPRI, r3
 158              	@ 0 "" 2
 159              		.thumb
 160              	.LBE14:
 161              		.loc 1 138 0
 162 000a FFF7FEFF 		bl	adc_lld_stop
 163              	.LVL7:
 164              		.loc 1 139 0
 165 000e 0123     		movs	r3, #1
 166 0010 2370     		strb	r3, [r4]
 167              	.LBB15:
 168              		.loc 1 140 0
 169 0012 0023     		movs	r3, #0
 170              	@ 140 "/home/sbcu/Dropbox/pcb-layouts/axo-on-discovery-board/axoloti/platform_linux/../chibios/os/h
 171 0014 83F31188 		msr     BASEPRI, r3
ARM GAS  /tmp/ccLjFTYZ.s 			page 4


 172              	@ 0 "" 2
 173              		.thumb
 174 0018 10BD     		pop	{r4, pc}
 175              	.LBE15:
 176              		.cfi_endproc
 177              	.LFE121:
 178              		.size	adcStop, .-adcStop
 179 001a 00BF     		.section	.text.adcStartConversion,"ax",%progbits
 180              		.align	2
 181              		.p2align 4,,15
 182              		.global	adcStartConversion
 183              		.thumb
 184              		.thumb_func
 185              		.type	adcStartConversion, %function
 186              	adcStartConversion:
 187              	.LFB122:
 188              		.loc 1 162 0
 189              		.cfi_startproc
 190              		@ args = 0, pretend = 0, frame = 0
 191              		@ frame_needed = 0, uses_anonymous_args = 0
 192              	.LVL8:
 193 0000 38B5     		push	{r3, r4, r5, lr}
 194              		.cfi_def_cfa_offset 16
 195              		.cfi_offset 3, -16
 196              		.cfi_offset 4, -12
 197              		.cfi_offset 5, -8
 198              		.cfi_offset 14, -4
 199              		.loc 1 162 0
 200 0002 1D46     		mov	r5, r3
 201              	.LBB16:
 202              		.loc 1 164 0
 203 0004 2023     		movs	r3, #32
 204              	.LVL9:
 205              	@ 164 "/home/sbcu/Dropbox/pcb-layouts/axo-on-discovery-board/axoloti/platform_linux/../chibios/os/h
 206 0006 83F31188 		msr     BASEPRI, r3
 207              	@ 0 "" 2
 208              	.LVL10:
 209              		.thumb
 210              	.LBE16:
 211              	.LBB17:
 212              	.LBB18:
 213              		.loc 1 204 0
 214 000a 0323     		movs	r3, #3
 215 000c 0370     		strb	r3, [r0]
 216              		.loc 1 201 0
 217 000e 8260     		str	r2, [r0, #8]
 218              		.loc 1 202 0
 219 0010 C560     		str	r5, [r0, #12]
 220              		.loc 1 203 0
 221 0012 0161     		str	r1, [r0, #16]
 222              		.loc 1 205 0
 223 0014 FFF7FEFF 		bl	adc_lld_start_conversion
 224              	.LVL11:
 225              	.LBE18:
 226              	.LBE17:
 227              	.LBB19:
 228              		.loc 1 166 0
ARM GAS  /tmp/ccLjFTYZ.s 			page 5


 229 0018 0023     		movs	r3, #0
 230              	@ 166 "/home/sbcu/Dropbox/pcb-layouts/axo-on-discovery-board/axoloti/platform_linux/../chibios/os/h
 231 001a 83F31188 		msr     BASEPRI, r3
 232              	@ 0 "" 2
 233              		.thumb
 234 001e 38BD     		pop	{r3, r4, r5, pc}
 235              	.LBE19:
 236              		.cfi_endproc
 237              	.LFE122:
 238              		.size	adcStartConversion, .-adcStartConversion
 239              		.section	.text.adcStartConversionI,"ax",%progbits
 240              		.align	2
 241              		.p2align 4,,15
 242              		.global	adcStartConversionI
 243              		.thumb
 244              		.thumb_func
 245              		.type	adcStartConversionI, %function
 246              	adcStartConversionI:
 247              	.LFB123:
 248              		.loc 1 190 0
 249              		.cfi_startproc
 250              		@ args = 0, pretend = 0, frame = 0
 251              		@ frame_needed = 0, uses_anonymous_args = 0
 252              		@ link register save eliminated.
 253              	.LVL12:
 254 0000 30B4     		push	{r4, r5}
 255              		.cfi_def_cfa_offset 8
 256              		.cfi_offset 4, -8
 257              		.cfi_offset 5, -4
 258              		.loc 1 204 0
 259 0002 0325     		movs	r5, #3
 260 0004 0570     		strb	r5, [r0]
 261              		.loc 1 201 0
 262 0006 8260     		str	r2, [r0, #8]
 263              		.loc 1 202 0
 264 0008 C360     		str	r3, [r0, #12]
 265              		.loc 1 203 0
 266 000a 0161     		str	r1, [r0, #16]
 267              		.loc 1 206 0
 268 000c 30BC     		pop	{r4, r5}
 269              		.cfi_restore 5
 270              		.cfi_restore 4
 271              		.cfi_def_cfa_offset 0
 272              		.loc 1 205 0
 273 000e FFF7FEBF 		b	adc_lld_start_conversion
 274              	.LVL13:
 275              		.cfi_endproc
 276              	.LFE123:
 277              		.size	adcStartConversionI, .-adcStartConversionI
 278 0012 00BF     		.section	.text.adcStopConversion,"ax",%progbits
 279              		.align	2
 280              		.p2align 4,,15
 281              		.global	adcStopConversion
 282              		.thumb
 283              		.thumb_func
 284              		.type	adcStopConversion, %function
 285              	adcStopConversion:
ARM GAS  /tmp/ccLjFTYZ.s 			page 6


 286              	.LFB124:
 287              		.loc 1 218 0
 288              		.cfi_startproc
 289              		@ args = 0, pretend = 0, frame = 0
 290              		@ frame_needed = 0, uses_anonymous_args = 0
 291              	.LVL14:
 292 0000 10B5     		push	{r4, lr}
 293              		.cfi_def_cfa_offset 8
 294              		.cfi_offset 4, -8
 295              		.cfi_offset 14, -4
 296              	.LBB20:
 297              		.loc 1 222 0
 298 0002 2023     		movs	r3, #32
 299              	.LBE20:
 300              		.loc 1 218 0
 301 0004 0446     		mov	r4, r0
 302              	.LBB21:
 303              		.loc 1 222 0
 304              	@ 222 "/home/sbcu/Dropbox/pcb-layouts/axo-on-discovery-board/axoloti/platform_linux/../chibios/os/h
 305 0006 83F31188 		msr     BASEPRI, r3
 306              	@ 0 "" 2
 307              		.thumb
 308              	.LBE21:
 309              		.loc 1 226 0
 310 000a 0378     		ldrb	r3, [r0]	@ zero_extendqisi2
 311 000c 022B     		cmp	r3, #2
 312 000e 0CD0     		beq	.L13
 313              		.loc 1 227 0
 314 0010 FFF7FEFF 		bl	adc_lld_stop_conversion
 315              	.LVL15:
 316              		.loc 1 230 0
 317 0014 6069     		ldr	r0, [r4, #20]
 318              		.loc 1 228 0
 319 0016 0023     		movs	r3, #0
 320              		.loc 1 229 0
 321 0018 0222     		movs	r2, #2
 322              		.loc 1 228 0
 323 001a 2361     		str	r3, [r4, #16]
 324              		.loc 1 229 0
 325 001c 2270     		strb	r2, [r4]
 326              		.loc 1 230 0
 327 001e 20B1     		cbz	r0, .L13
 328              	.LVL16:
 329              	.LBB22:
 330              		.loc 1 230 0 is_stmt 0 discriminator 1
 331 0020 6361     		str	r3, [r4, #20]
 332 0022 6FF00101 		mvn	r1, #1
 333 0026 FFF7FEFF 		bl	chSchWakeupS
 334              	.LVL17:
 335              	.L13:
 336              	.LBE22:
 337              	.LBB23:
 338              		.loc 1 232 0 is_stmt 1
 339 002a 0023     		movs	r3, #0
 340              	@ 232 "/home/sbcu/Dropbox/pcb-layouts/axo-on-discovery-board/axoloti/platform_linux/../chibios/os/h
 341 002c 83F31188 		msr     BASEPRI, r3
 342              	@ 0 "" 2
ARM GAS  /tmp/ccLjFTYZ.s 			page 7


 343              		.thumb
 344 0030 10BD     		pop	{r4, pc}
 345              	.LBE23:
 346              		.cfi_endproc
 347              	.LFE124:
 348              		.size	adcStopConversion, .-adcStopConversion
 349 0032 00BF     		.section	.text.adcStopConversionI,"ax",%progbits
 350              		.align	2
 351              		.p2align 4,,15
 352              		.global	adcStopConversionI
 353              		.thumb
 354              		.thumb_func
 355              		.type	adcStopConversionI, %function
 356              	adcStopConversionI:
 357              	.LFB125:
 358              		.loc 1 245 0
 359              		.cfi_startproc
 360              		@ args = 0, pretend = 0, frame = 0
 361              		@ frame_needed = 0, uses_anonymous_args = 0
 362              	.LVL18:
 363              		.loc 1 254 0
 364 0000 0378     		ldrb	r3, [r0]	@ zero_extendqisi2
 365 0002 022B     		cmp	r3, #2
 366              		.loc 1 245 0
 367 0004 10B5     		push	{r4, lr}
 368              		.cfi_def_cfa_offset 8
 369              		.cfi_offset 4, -8
 370              		.cfi_offset 14, -4
 371              		.loc 1 245 0
 372 0006 0446     		mov	r4, r0
 373              		.loc 1 254 0
 374 0008 10D0     		beq	.L20
 375              		.loc 1 255 0
 376 000a FFF7FEFF 		bl	adc_lld_stop_conversion
 377              	.LVL19:
 378              		.loc 1 258 0
 379 000e 6369     		ldr	r3, [r4, #20]
 380              		.loc 1 256 0
 381 0010 0022     		movs	r2, #0
 382              		.loc 1 257 0
 383 0012 0221     		movs	r1, #2
 384              		.loc 1 256 0
 385 0014 2261     		str	r2, [r4, #16]
 386              		.loc 1 257 0
 387 0016 2170     		strb	r1, [r4]
 388              		.loc 1 258 0
 389 0018 43B1     		cbz	r3, .L20
 390              	.LVL20:
 391              	.LBB24:
 392              		.loc 1 258 0 is_stmt 0 discriminator 1
 393 001a 6FF00101 		mvn	r1, #1
 394 001e 6261     		str	r2, [r4, #20]
 395 0020 5962     		str	r1, [r3, #36]
 396 0022 1846     		mov	r0, r3
 397              	.LBE24:
 398              		.loc 1 260 0 is_stmt 1 discriminator 1
 399 0024 BDE81040 		pop	{r4, lr}
ARM GAS  /tmp/ccLjFTYZ.s 			page 8


 400              		.cfi_remember_state
 401              		.cfi_restore 14
 402              		.cfi_restore 4
 403              		.cfi_def_cfa_offset 0
 404              	.LVL21:
 405              	.LBB25:
 406              		.loc 1 258 0 discriminator 1
 407 0028 FFF7FEBF 		b	chSchReadyI
 408              	.LVL22:
 409              	.L20:
 410              		.cfi_restore_state
 411 002c 10BD     		pop	{r4, pc}
 412              	.LBE25:
 413              		.cfi_endproc
 414              	.LFE125:
 415              		.size	adcStopConversionI, .-adcStopConversionI
 416 002e 00BF     		.section	.text.adcConvert,"ax",%progbits
 417              		.align	2
 418              		.p2align 4,,15
 419              		.global	adcConvert
 420              		.thumb
 421              		.thumb_func
 422              		.type	adcConvert, %function
 423              	adcConvert:
 424              	.LFB126:
 425              		.loc 1 289 0
 426              		.cfi_startproc
 427              		@ args = 0, pretend = 0, frame = 0
 428              		@ frame_needed = 0, uses_anonymous_args = 0
 429              	.LVL23:
 430 0000 70B5     		push	{r4, r5, r6, lr}
 431              		.cfi_def_cfa_offset 16
 432              		.cfi_offset 4, -16
 433              		.cfi_offset 5, -12
 434              		.cfi_offset 6, -8
 435              		.cfi_offset 14, -4
 436              		.loc 1 289 0
 437 0002 1E46     		mov	r6, r3
 438 0004 0446     		mov	r4, r0
 439              	.LBB26:
 440              		.loc 1 292 0
 441 0006 2023     		movs	r3, #32
 442              	.LVL24:
 443              	@ 292 "/home/sbcu/Dropbox/pcb-layouts/axo-on-discovery-board/axoloti/platform_linux/../chibios/os/h
 444 0008 83F31188 		msr     BASEPRI, r3
 445              	@ 0 "" 2
 446              	.LVL25:
 447              		.thumb
 448              	.LBE26:
 449              	.LBB27:
 450              	.LBB28:
 451              		.loc 1 204 0
 452 000c 0323     		movs	r3, #3
 453              	.LBE28:
 454              	.LBE27:
 455              		.loc 1 295 0
 456 000e 094D     		ldr	r5, .L30
ARM GAS  /tmp/ccLjFTYZ.s 			page 9


 457              	.LBB30:
 458              	.LBB29:
 459              		.loc 1 201 0
 460 0010 8260     		str	r2, [r0, #8]
 461              		.loc 1 203 0
 462 0012 0161     		str	r1, [r0, #16]
 463              		.loc 1 202 0
 464 0014 C660     		str	r6, [r0, #12]
 465              		.loc 1 204 0
 466 0016 0370     		strb	r3, [r0]
 467              		.loc 1 205 0
 468 0018 FFF7FEFF 		bl	adc_lld_start_conversion
 469              	.LVL26:
 470              	.LBE29:
 471              	.LBE30:
 472              		.loc 1 295 0
 473 001c AB69     		ldr	r3, [r5, #24]
 474 001e 6361     		str	r3, [r4, #20]
 475              		.loc 1 296 0
 476 0020 0220     		movs	r0, #2
 477 0022 FFF7FEFF 		bl	chSchGoSleepS
 478              	.LVL27:
 479              		.loc 1 297 0
 480 0026 AA69     		ldr	r2, [r5, #24]
 481              	.LBB31:
 482              		.loc 1 298 0
 483 0028 0023     		movs	r3, #0
 484              	.LBE31:
 485              		.loc 1 297 0
 486 002a 506A     		ldr	r0, [r2, #36]
 487              	.LVL28:
 488              	.LBB32:
 489              		.loc 1 298 0
 490              	@ 298 "/home/sbcu/Dropbox/pcb-layouts/axo-on-discovery-board/axoloti/platform_linux/../chibios/os/h
 491 002c 83F31188 		msr     BASEPRI, r3
 492              	@ 0 "" 2
 493              		.thumb
 494              	.LBE32:
 495              		.loc 1 300 0
 496 0030 70BD     		pop	{r4, r5, r6, pc}
 497              	.LVL29:
 498              	.L31:
 499 0032 00BF     		.align	2
 500              	.L30:
 501 0034 00000000 		.word	rlist
 502              		.cfi_endproc
 503              	.LFE126:
 504              		.size	adcConvert, .-adcConvert
 505              		.section	.text.adcAcquireBus,"ax",%progbits
 506              		.align	2
 507              		.p2align 4,,15
 508              		.global	adcAcquireBus
 509              		.thumb
 510              		.thumb_func
 511              		.type	adcAcquireBus, %function
 512              	adcAcquireBus:
 513              	.LFB127:
ARM GAS  /tmp/ccLjFTYZ.s 			page 10


 514              		.loc 1 315 0
 515              		.cfi_startproc
 516              		@ args = 0, pretend = 0, frame = 0
 517              		@ frame_needed = 0, uses_anonymous_args = 0
 518              		@ link register save eliminated.
 519              	.LVL30:
 520              		.loc 1 320 0
 521 0000 1830     		adds	r0, r0, #24
 522              	.LVL31:
 523 0002 FFF7FEBF 		b	chMtxLock
 524              	.LVL32:
 525              		.cfi_endproc
 526              	.LFE127:
 527              		.size	adcAcquireBus, .-adcAcquireBus
 528 0006 00BF     		.section	.text.adcReleaseBus,"ax",%progbits
 529              		.align	2
 530              		.p2align 4,,15
 531              		.global	adcReleaseBus
 532              		.thumb
 533              		.thumb_func
 534              		.type	adcReleaseBus, %function
 535              	adcReleaseBus:
 536              	.LFB128:
 537              		.loc 1 335 0
 538              		.cfi_startproc
 539              		@ args = 0, pretend = 0, frame = 0
 540              		@ frame_needed = 0, uses_anonymous_args = 0
 541              		@ link register save eliminated.
 542              	.LVL33:
 543              		.loc 1 341 0
 544 0000 FFF7FEBF 		b	chMtxUnlock
 545              	.LVL34:
 546              		.cfi_endproc
 547              	.LFE128:
 548              		.size	adcReleaseBus, .-adcReleaseBus
 549              		.text
 550              	.Letext0:
 551              		.file 2 "/home/sbcu/Dropbox/pcb-layouts/axo-on-discovery-board/axoloti/platform_linux/lib/gcc/arm-
 552              		.file 3 "/home/sbcu/Dropbox/pcb-layouts/axo-on-discovery-board/axoloti/platform_linux/arm-none-eab
 553              		.file 4 "/home/sbcu/Dropbox/pcb-layouts/axo-on-discovery-board/axoloti/platform_linux/arm-none-eab
 554              		.file 5 "/home/sbcu/Dropbox/pcb-layouts/axo-on-discovery-board/axoloti/platform_linux/../chibios/o
 555              		.file 6 "/home/sbcu/Dropbox/pcb-layouts/axo-on-discovery-board/axoloti/platform_linux/../chibios/o
 556              		.file 7 "/home/sbcu/Dropbox/pcb-layouts/axo-on-discovery-board/axoloti/platform_linux/../chibios/o
 557              		.file 8 "/home/sbcu/Dropbox/pcb-layouts/axo-on-discovery-board/axoloti/platform_linux/../chibios/o
 558              		.file 9 "/home/sbcu/Dropbox/pcb-layouts/axo-on-discovery-board/axoloti/platform_linux/../chibios/o
 559              		.file 10 "/home/sbcu/Dropbox/pcb-layouts/axo-on-discovery-board/axoloti/platform_linux/../chibios/
 560              		.file 11 "/home/sbcu/Dropbox/pcb-layouts/axo-on-discovery-board/axoloti/platform_linux/../chibios/
 561              		.file 12 "/home/sbcu/Dropbox/pcb-layouts/axo-on-discovery-board/axoloti/platform_linux/../chibios/
 562              		.file 13 "/home/sbcu/Dropbox/pcb-layouts/axo-on-discovery-board/axoloti/platform_linux/../chibios/
 563              		.file 14 "/home/sbcu/Dropbox/pcb-layouts/axo-on-discovery-board/axoloti/platform_linux/../chibios/
 564              		.file 15 "/home/sbcu/Dropbox/pcb-layouts/axo-on-discovery-board/axoloti/platform_linux/../chibios/