ARM GAS  /tmp/ccIBcRc0.s 			page 1


   1              		.syntax unified
   2              		.cpu cortex-m4
   3              		.eabi_attribute 27, 1
   4              		.eabi_attribute 28, 1
   5              		.fpu fpv4-sp-d16
   6              		.eabi_attribute 20, 1
   7              		.eabi_attribute 21, 1
   8              		.eabi_attribute 23, 3
   9              		.eabi_attribute 24, 1
  10              		.eabi_attribute 25, 1
  11              		.eabi_attribute 26, 1
  12              		.eabi_attribute 30, 2
  13              		.eabi_attribute 34, 1
  14              		.eabi_attribute 18, 4
  15              		.thumb
  16              		.file	"axoloti_board.c"
  17              		.text
  18              	.Ltext0:
  19              		.cfi_sections	.debug_frame
  20              		.section	.text.axoloti_board_init,"ax",%progbits
  21              		.align	2
  22              		.p2align 4,,15
  23              		.global	axoloti_board_init
  24              		.thumb
  25              		.thumb_func
  26              		.type	axoloti_board_init, %function
  27              	axoloti_board_init:
  28              	.LFB118:
  29              		.file 1 "../axoloti_board.c"
  30              		.loc 1 27 0
  31              		.cfi_startproc
  32              		@ args = 0, pretend = 0, frame = 0
  33              		@ frame_needed = 0, uses_anonymous_args = 0
  34              		@ link register save eliminated.
  35              		.loc 1 28 0
  36 0000 0148     		ldr	r0, .L2
  37 0002 FFF7FEBF 		b	chMtxInit
  38              	.LVL0:
  39              	.L3:
  40 0006 00BF     		.align	2
  41              	.L2:
  42 0008 00000000 		.word	.LANCHOR0
  43              		.cfi_endproc
  44              	.LFE118:
  45              		.size	axoloti_board_init, .-axoloti_board_init
  46              		.section	.text.adc_configpads,"ax",%progbits
  47              		.align	2
  48              		.p2align 4,,15
  49              		.global	adc_configpads
  50              		.thumb
  51              		.thumb_func
  52              		.type	adc_configpads, %function
  53              	adc_configpads:
  54              	.LFB120:
  55              		.loc 1 44 0
  56              		.cfi_startproc
  57              		@ args = 0, pretend = 0, frame = 0
ARM GAS  /tmp/ccIBcRc0.s 			page 2


  58              		@ frame_needed = 0, uses_anonymous_args = 0
  59 0000 70B5     		push	{r4, r5, r6, lr}
  60              		.cfi_def_cfa_offset 16
  61              		.cfi_offset 4, -16
  62              		.cfi_offset 5, -12
  63              		.cfi_offset 6, -8
  64              		.cfi_offset 14, -4
  65              		.loc 1 45 0
  66 0002 274C     		ldr	r4, .L6
  67              		.loc 1 56 0
  68 0004 274E     		ldr	r6, .L6+4
  69              		.loc 1 59 0
  70 0006 284D     		ldr	r5, .L6+8
  71              		.loc 1 45 0
  72 0008 2046     		mov	r0, r4
  73 000a 0121     		movs	r1, #1
  74 000c 0322     		movs	r2, #3
  75 000e FFF7FEFF 		bl	_pal_lld_setgroupmode
  76              	.LVL1:
  77              		.loc 1 46 0
  78 0012 2046     		mov	r0, r4
  79 0014 0221     		movs	r1, #2
  80 0016 0322     		movs	r2, #3
  81 0018 FFF7FEFF 		bl	_pal_lld_setgroupmode
  82              	.LVL2:
  83              		.loc 1 48 0
  84 001c 2046     		mov	r0, r4
  85 001e 0421     		movs	r1, #4
  86 0020 0322     		movs	r2, #3
  87 0022 FFF7FEFF 		bl	_pal_lld_setgroupmode
  88              	.LVL3:
  89              		.loc 1 49 0
  90 0026 2046     		mov	r0, r4
  91 0028 0821     		movs	r1, #8
  92 002a 0322     		movs	r2, #3
  93 002c FFF7FEFF 		bl	_pal_lld_setgroupmode
  94              	.LVL4:
  95              		.loc 1 53 0
  96 0030 2046     		mov	r0, r4
  97 0032 2021     		movs	r1, #32
  98 0034 0322     		movs	r2, #3
  99 0036 FFF7FEFF 		bl	_pal_lld_setgroupmode
 100              	.LVL5:
 101              		.loc 1 54 0
 102 003a 2046     		mov	r0, r4
 103 003c 4021     		movs	r1, #64
 104 003e 0322     		movs	r2, #3
 105 0040 FFF7FEFF 		bl	_pal_lld_setgroupmode
 106              	.LVL6:
 107              		.loc 1 55 0
 108 0044 2046     		mov	r0, r4
 109 0046 8021     		movs	r1, #128
 110 0048 0322     		movs	r2, #3
 111 004a FFF7FEFF 		bl	_pal_lld_setgroupmode
 112              	.LVL7:
 113              		.loc 1 56 0
 114 004e 3046     		mov	r0, r6
ARM GAS  /tmp/ccIBcRc0.s 			page 3


 115 0050 0121     		movs	r1, #1
 116 0052 0322     		movs	r2, #3
 117 0054 FFF7FEFF 		bl	_pal_lld_setgroupmode
 118              	.LVL8:
 119              		.loc 1 57 0
 120 0058 3046     		mov	r0, r6
 121 005a 0221     		movs	r1, #2
 122 005c 0322     		movs	r2, #3
 123 005e FFF7FEFF 		bl	_pal_lld_setgroupmode
 124              	.LVL9:
 125              		.loc 1 59 0
 126 0062 2846     		mov	r0, r5
 127 0064 0221     		movs	r1, #2
 128 0066 0322     		movs	r2, #3
 129 0068 FFF7FEFF 		bl	_pal_lld_setgroupmode
 130              	.LVL10:
 131              		.loc 1 60 0
 132 006c 2846     		mov	r0, r5
 133 006e 0421     		movs	r1, #4
 134 0070 0322     		movs	r2, #3
 135 0072 FFF7FEFF 		bl	_pal_lld_setgroupmode
 136              	.LVL11:
 137              		.loc 1 61 0
 138 0076 2846     		mov	r0, r5
 139 0078 0821     		movs	r1, #8
 140 007a 0322     		movs	r2, #3
 141 007c FFF7FEFF 		bl	_pal_lld_setgroupmode
 142              	.LVL12:
 143              		.loc 1 62 0
 144 0080 2846     		mov	r0, r5
 145 0082 1021     		movs	r1, #16
 146 0084 0322     		movs	r2, #3
 147 0086 FFF7FEFF 		bl	_pal_lld_setgroupmode
 148              	.LVL13:
 149              		.loc 1 63 0
 150 008a 2846     		mov	r0, r5
 151 008c 2021     		movs	r1, #32
 152 008e 0322     		movs	r2, #3
 153 0090 FFF7FEFF 		bl	_pal_lld_setgroupmode
 154              	.LVL14:
 155              		.loc 1 64 0
 156 0094 0548     		ldr	r0, .L6+12
 157 0096 0021     		movs	r1, #0
 158              		.loc 1 65 0
 159 0098 BDE87040 		pop	{r4, r5, r6, lr}
 160              		.cfi_restore 14
 161              		.cfi_restore 6
 162              		.cfi_restore 5
 163              		.cfi_restore 4
 164              		.cfi_def_cfa_offset 0
 165              		.loc 1 64 0
 166 009c FFF7FEBF 		b	adcStart
 167              	.LVL15:
 168              	.L7:
 169              		.align	2
 170              	.L6:
 171 00a0 00000240 		.word	1073872896
ARM GAS  /tmp/ccIBcRc0.s 			page 4


 172 00a4 00040240 		.word	1073873920
 173 00a8 00080240 		.word	1073874944
 174 00ac 00000000 		.word	ADCD1
 175              		.cfi_endproc
 176              	.LFE120:
 177              		.size	adc_configpads, .-adc_configpads
 178              		.section	.text.adc_init,"ax",%progbits
 179              		.align	2
 180              		.p2align 4,,15
 181              		.global	adc_init
 182              		.thumb
 183              		.thumb_func
 184              		.type	adc_init, %function
 185              	adc_init:
 186              	.LFB119:
 187              		.loc 1 38 0
 188              		.cfi_startproc
 189              		@ args = 0, pretend = 0, frame = 0
 190              		@ frame_needed = 0, uses_anonymous_args = 0
 191 0000 08B5     		push	{r3, lr}
 192              		.cfi_def_cfa_offset 8
 193              		.cfi_offset 3, -8
 194              		.cfi_offset 14, -4
 195              		.loc 1 39 0
 196 0002 FFF7FEFF 		bl	adc_configpads
 197              	.LVL16:
 198              		.loc 1 40 0
 199 0006 0448     		ldr	r0, .L10
 200 0008 0021     		movs	r1, #0
 201 000a FFF7FEFF 		bl	adcStart
 202              	.LVL17:
 203              		.loc 1 42 0
 204 000e BDE80840 		pop	{r3, lr}
 205              		.cfi_restore 14
 206              		.cfi_restore 3
 207              		.cfi_def_cfa_offset 0
 208              		.loc 1 41 0
 209 0012 FFF7FEBF 		b	adcSTM32EnableTSVREFE
 210              	.LVL18:
 211              	.L11:
 212 0016 00BF     		.align	2
 213              	.L10:
 214 0018 00000000 		.word	ADCD1
 215              		.cfi_endproc
 216              	.LFE119:
 217              		.size	adc_init, .-adc_init
 218              		.section	.text.adc_convert,"ax",%progbits
 219              		.align	2
 220              		.p2align 4,,15
 221              		.global	adc_convert
 222              		.thumb
 223              		.thumb_func
 224              		.type	adc_convert, %function
 225              	adc_convert:
 226              	.LFB121:
 227              		.loc 1 103 0
 228              		.cfi_startproc
ARM GAS  /tmp/ccIBcRc0.s 			page 5


 229              		@ args = 0, pretend = 0, frame = 0
 230              		@ frame_needed = 0, uses_anonymous_args = 0
 231 0000 10B5     		push	{r4, lr}
 232              		.cfi_def_cfa_offset 8
 233              		.cfi_offset 4, -8
 234              		.cfi_offset 14, -4
 235              		.loc 1 104 0
 236 0002 064C     		ldr	r4, .L14
 237 0004 2046     		mov	r0, r4
 238 0006 FFF7FEFF 		bl	adcStopConversion
 239              	.LVL19:
 240              		.loc 1 105 0
 241 000a 2046     		mov	r0, r4
 242 000c 0449     		ldr	r1, .L14+4
 243 000e 054A     		ldr	r2, .L14+8
 244 0010 0123     		movs	r3, #1
 245              		.loc 1 106 0
 246 0012 BDE81040 		pop	{r4, lr}
 247              		.cfi_restore 14
 248              		.cfi_restore 4
 249              		.cfi_def_cfa_offset 0
 250              		.loc 1 105 0
 251 0016 FFF7FEBF 		b	adcStartConversion
 252              	.LVL20:
 253              	.L15:
 254 001a 00BF     		.align	2
 255              	.L14:
 256 001c 00000000 		.word	ADCD1
 257 0020 00000000 		.word	.LANCHOR1
 258 0024 00000000 		.word	.LANCHOR2
 259              		.cfi_endproc
 260              	.LFE121:
 261              		.size	adc_convert, .-adc_convert
 262              		.global	adcvalues
 263              		.global	Mutex_DMAStream_1_7
 264              		.section	.bss.Mutex_DMAStream_1_7,"aw",%nobits
 265              		.align	2
 266              		.set	.LANCHOR0,. + 0
 267              		.type	Mutex_DMAStream_1_7, %object
 268              		.size	Mutex_DMAStream_1_7, 16
 269              	Mutex_DMAStream_1_7:
 270 0000 00000000 		.space	16
 270      00000000 
 270      00000000 
 270      00000000 
 271              		.section	.sram2,"aw",%progbits
 272              		.align	2
 273              		.set	.LANCHOR2,. + 0
 274              		.type	adcvalues, %object
 275              		.size	adcvalues, 32
 276              	adcvalues:
 277 0000 00000000 		.space	32
 277      00000000 
 277      00000000 
 277      00000000 
 277      00000000 
 278              		.section	.rodata.adcgrpcfg1,"a",%progbits
ARM GAS  /tmp/ccIBcRc0.s 			page 6


 279              		.align	2
 280              		.set	.LANCHOR1,. + 0
 281              		.type	adcgrpcfg1, %object
 282              		.size	adcgrpcfg1, 40
 283              	adcgrpcfg1:
 284 0000 00       		.byte	0
 285 0001 00       		.space	1
 286 0002 1000     		.short	16
 287 0004 00000000 		.word	0
 288 0008 00000000 		.word	0
 289 000c 00000000 		.word	0
 290 0010 00000040 		.word	1073741824
 291 0014 2449DA00 		.word	14305572
 292 0018 24499224 		.word	613566756
 293 001c ACB9F800 		.word	16300460
 294 0020 E6A0A416 		.word	379887846
 295 0024 2088410A 		.word	172066848
 296              		.text
 297              	.Letext0:
 298              		.file 2 "/home/sbcu/Dropbox/pcb-layouts/axo-on-discovery-board/axoloti/platform_linux/lib/gcc/arm-
 299              		.file 3 "/home/sbcu/Dropbox/pcb-layouts/axo-on-discovery-board/axoloti/platform_linux/arm-none-eab
 300              		.file 4 "/home/sbcu/Dropbox/pcb-layouts/axo-on-discovery-board/axoloti/platform_linux/arm-none-eab
 301              		.file 5 "/opt/Axoloti/app/chibios/os/ports/GCC/ARMCMx/chtypes.h"
 302              		.file 6 "/opt/Axoloti/app/chibios/os/kernel/include/chlists.h"
 303              		.file 7 "/opt/Axoloti/app/chibios/os/kernel/include/chthreads.h"
 304              		.file 8 "/opt/Axoloti/app/chibios/os/ports/GCC/ARMCMx/chcore_v7m.h"
 305              		.file 9 "/opt/Axoloti/app/chibios/os/kernel/include/chmtx.h"
 306              		.file 10 "/opt/Axoloti/app/chibios/os/hal/platforms/STM32F4xx/stm32f4xx.h"
 307              		.file 11 "/opt/Axoloti/app/chibios/os/hal/platforms/STM32F4xx/stm32_dma.h"
 308              		.file 12 "/opt/Axoloti/app/chibios/os/hal/platforms/STM32/GPIOv2/pal_lld.h"
 309              		.file 13 "/opt/Axoloti/app/chibios/os/hal/include/adc.h"
 310              		.file 14 "/opt/Axoloti/app/chibios/os/hal/platforms/STM32F4xx/adc_lld.h"
 311              		.file 15 "/opt/Axoloti/app/chibios/os/ports/common/ARMCMx/CMSIS/include/core_cm4.h"