ARM GAS  /tmp/ccIBcRc0.s 			page 1


   1              		.syntax unified
   2              		.cpu cortex-m4
   3              		.eabi_attribute 27, 1
   4              		.eabi_attribute 28, 1
   5              		.fpu fpv4-sp-d16
   6              		.eabi_attribute 20, 1
   7              		.eabi_attribute 21, 1
   8              		.eabi_attribute 23, 3
   9              		.eabi_attribute 24, 1
  10              		.eabi_attribute 25, 1
  11              		.eabi_attribute 26, 1
  12              		.eabi_attribute 30, 2
  13              		.eabi_attribute 34, 1
  14              		.eabi_attribute 18, 4
  15              		.thumb
  16              		.file	"axoloti_board.c"
  17              		.text
  18              	.Ltext0:
  19              		.cfi_sections	.debug_frame
  20              		.section	.text.axoloti_board_init,"ax",%progbits
  21              		.align	2
  22              		.p2align 4,,15
  23              		.global	axoloti_board_init
  24              		.thumb
  25              		.thumb_func
  26              		.type	axoloti_board_init, %function
  27              	axoloti_board_init:
  28              	.LFB118:
  29              		.file 1 "../axoloti_board.c"
  30              		.loc 1 27 0
  31              		.cfi_startproc
  32              		@ args = 0, pretend = 0, frame = 0
  33              		@ frame_needed = 0, uses_anonymous_args = 0
  34              		@ link register save eliminated.
  35              		.loc 1 28 0
  36 0000 0148     		ldr	r0, .L2
  37 0002 FFF7FEBF 		b	chMtxInit
  38              	.LVL0:
  39              	.L3:
  40 0006 00BF     		.align	2
  41              	.L2:
  42 0008 00000000 		.word	.LANCHOR0
  43              		.cfi_endproc
  44              	.LFE118:
  45              		.size	axoloti_board_init, .-axoloti_board_init
  46              		.section	.text.adc_configpads,"ax",%progbits
  47              		.align	2
  48              		.p2align 4,,15
  49              		.global	adc_configpads
  50              		.thumb
  51              		.thumb_func
  52              		.type	adc_configpads, %function
  53              	adc_configpads:
  54              	.LFB120:
  55              		.loc 1 44 0
  56              		.cfi_startproc
  57              		@ args = 0, pretend = 0, frame = 0
ARM GAS  /tmp/ccIBcRc0.s 			page 2


  58              		@ frame_needed = 0, uses_anonymous_args = 0
  59 0000 70B5     		push	{r4, r5, r6, lr}
  60              		.cfi_def_cfa_offset 16
  61              		.cfi_offset 4, -16
  62              		.cfi_offset 5, -12
  63              		.cfi_offset 6, -8
  64              		.cfi_offset 14, -4
  65              		.loc 1 45 0
  66 0002 274C     		ldr	r4, .L6
  67              		.loc 1 56 0
  68 0004 274E     		ldr	r6, .L6+4
  69              		.loc 1 59 0
  70 0006 284D     		ldr	r5, .L6+8
  71              		.loc 1 45 0
  72 0008 2046     		mov	r0, r4
  73 000a 0121     		movs	r1, #1
  74 000c 0322     		movs	r2, #3
  75 000e FFF7FEFF 		bl	_pal_lld_setgroupmode
  76              	.LVL1:
  77              		.loc 1 46 0
  78 0012 2046     		mov	r0, r4
  79 0014 0221     		movs	r1, #2
  80 0016 0322     		movs	r2, #3
  81 0018 FFF7FEFF 		bl	_pal_lld_setgroupmode
  82              	.LVL2:
  83              		.loc 1 48 0
  84 001c 2046     		mov	r0, r4
  85 001e 0421     		movs	r1, #4
  86 0020 0322     		movs	r2, #3
  87 0022 FFF7FEFF 		bl	_pal_lld_setgroupmode
  88              	.LVL3:
  89              		.loc 1 49 0
  90 0026 2046     		mov	r0, r4
  91 0028 0821     		movs	r1, #8
  92 002a 0322     		movs	r2, #3
  93 002c FFF7FEFF 		bl	_pal_lld_setgroupmode
  94              	.LVL4:
  95              		.loc 1 53 0
  96 0030 2046     		mov	r0, r4
  97 0032 2021     		movs	r1, #32
  98 0034 0322     		movs	r2, #3
  99 0036 FFF7FEFF 		bl	_pal_lld_setgroupmode
 100              	.LVL5:
 101              		.loc 1 54 0
 102 003a 2046     		mov	r0, r4
 103 003c 4021     		movs	r1, #64
 104 003e 0322     		movs	r2, #3
 105 0040 FFF7FEFF 		bl	_pal_lld_setgroupmode
 106              	.LVL6:
 107              		.loc 1 55 0
 108 0044 2046     		mov	r0, r4
 109 0046 8021     		movs	r1, #128
 110 0048 0322     		movs	r2, #3
 111 004a FFF7FEFF 		bl	_pal_lld_setgroupmode
 112              	.LVL7:
 113              		.loc 1 56 0
 114 004e 3046     		mov	r0, r6
ARM GAS  /tmp/ccIBcRc0.s 			page 3


 115 0050 0121     		movs	r1, #1
 116 0052 0322     		movs	r2, #3
 117 0054 FFF7FEFF 		bl	_pal_lld_setgroupmode
 118              	.LVL8:
 119              		.loc 1 57 0
 120 0058 3046     		mov	r0, r6
 121 005a 0221     		movs	r1, #2
 122 005c 0322     		movs	r2, #3
 123 005e FFF7FEFF 		bl	_pal_lld_setgroupmode
 124              	.LVL9:
 125              		.loc 1 59 0
 126 0062 2846     		mov	r0, r5
 127 0064 0221     		movs	r1, #2
 128 0066 0322     		movs	r2, #3
 129 0068 FFF7FEFF 		bl	_pal_lld_setgroupmode
 130              	.LVL10:
 131              		.loc 1 60 0
 132 006c 2846     		mov	r0, r5
 133 006e 0421     		movs	r1, #4
 134 0070 0322     		movs	r2, #3
 135 0072 FFF7FEFF 		bl	_pal_lld_setgroupmode
 136              	.LVL11:
 137              		.loc 1 61 0
 138 0076 2846     		mov	r0, r5
 139 0078 0821     		movs	r1, #8
 140 007a 0322     		movs	r2, #3
 141 007c FFF7FEFF 		bl	_pal_lld_setgroupmode
 142              	.LVL12:
 143              		.loc 1 62 0
 144 0080 2846     		mov	r0, r5
 145 0082 1021     		movs	r1, #16
 146 0084 0322     		movs	r2, #3
 147 0086 FFF7FEFF 		bl	_pal_lld_setgroupmode
 148              	.LVL13:
 149              		.loc 1 63 0
 150 008a 2846     		mov	r0, r5
 151 008c 2021     		movs	r1, #32
 152 008e 0322     		movs	r2, #3
 153 0090 FFF7FEFF 		bl	_pal_lld_setgroupmode
 154              	.LVL14:
 155              		.loc 1 64 0
 156 0094 0548     		ldr	r0, .L6+12
 157 0096 0021     		movs	r1, #0
 158              		.loc 1 65 0
 159 0098 BDE87040 		pop	{r4, r5, r6, lr}
 160              		.cfi_restore 14
 161              		.cfi_restore 6
 162              		.cfi_restore 5
 163              		.cfi_restore 4
 164              		.cfi_def_cfa_offset 0
 165              		.loc 1 64 0
 166 009c FFF7FEBF 		b	adcStart
 167              	.LVL15:
 168              	.L7:
 169              		.align	2
 170              	.L6:
 171 00a0 00000240 		.word	1073872896
ARM GAS  /tmp/ccIBcRc0.s 			page 4


 172 00a4 00040240 		.word	1073873920
 173 00a8 00080240 		.word	1073874944
 174 00ac 00000000 		.word	ADCD1
 175              		.cfi_endproc
 176              	.LFE120:
 177              		.size	adc_configpads, .-adc_configpads
 178              		.section	.text.adc_init,"ax",%progbits
 179              		.align	2
 180              		.p2align 4,,15
 181              		.global	adc_init
 182              		.thumb
 183              		.thumb_func
 184              		.type	adc_init, %function
 185              	adc_init:
 186              	.LFB119:
 187              		.loc 1 38 0
 188              		.cfi_startproc
 189              		@ args = 0, pretend = 0, frame = 0
 190              		@ frame_needed = 0, uses_anonymous_args = 0
 191 0000 08B5     		push	{r3, lr}
 192              		.cfi_def_cfa_offset 8
 193              		.cfi_offset 3, -8
 194              		.cfi_offset 14, -4
 195              		.loc 1 39 0
 196 0002 FFF7FEFF 		bl	adc_configpads
 197              	.LVL16:
 198              		.loc 1 40 0
 199 0006 0448     		ldr	r0, .L10
 200 0008 0021     		movs	r1, #0
 201 000a FFF7FEFF 		bl	adcStart
 202              	.LVL17:
 203              		.loc 1 42 0
 204 000e BDE80840 		pop	{r3, lr}
 205              		.cfi_restore 14
 206              		.cfi_restore 3
 207              		.cfi_def_cfa_offset 0
 208              		.loc 1 41 0
 209 0012 FFF7FEBF 		b	adcSTM32EnableTSVREFE
 210              	.LVL18:
 211              	.L11:
 212 0016 00BF     		.align	2
 213              	.L10:
 214 0018 00000000 		.word	ADCD1
 215              		.cfi_endproc
 216              	.LFE119:
 217              		.size	adc_init, .-adc_init
 218              		.section	.text.adc_convert,"ax",%progbits
 219              		.align	2
 220              		.p2align 4,,15
 221              		.global	adc_convert
 222              		.thumb
 223              		.thumb_func
 224              		.type	adc_convert, %function
 225              	adc_convert:
 226              	.LFB121:
 227              		.loc 1 103 0
 228              		.cfi_startproc
ARM GAS  /tmp/ccIBcRc0.s 			page 5


 229              		@ args = 0, pretend = 0, frame = 0
 230              		@ frame_needed = 0, uses_anonymous_args = 0
 231 0000 10B5     		push	{r4, lr}
 232              		.cfi_def_cfa_offset 8
 233              		.cfi_offset 4, -8
 234              		.cfi_offset 14, -4
 235              		.loc 1 104 0
 236 0002 064C     		ldr	r4, .L14
 237 0004 2046     		mov	r0, r4
 238 0006 FFF7FEFF 		bl	adcStopConversion
 239              	.LVL19:
 240              		.loc 1 105 0
 241 000a 2046     		mov	r0, r4
 242 000c 0449     		ldr	r1, .L14+4
 243 000e 054A     		ldr	r2, .L14+8
 244 0010 0123     		movs	r3, #1
 245              		.loc 1 106 0
 246 0012 BDE81040 		pop	{r4, lr}
 247              		.cfi_restore 14
 248              		.cfi_restore 4
 249              		.cfi_def_cfa_offset 0
 250              		.loc 1 105 0
 251 0016 FFF7FEBF 		b	adcStartConversion
 252              	.LVL20:
 253              	.L15:
 254 001a 00BF     		.align	2
 255              	.L14:
 256 001c 00000000 		.word	ADCD1
 257 0020 00000000 		.word	.LANCHOR1
 258 0024 00000000 		.word	.LANCHOR2
 259              		.cfi_endproc
 260              	.LFE121:
 261              		.size	adc_convert, .-adc_convert
 262              		.global	adcvalues
 263              		.global	Mutex_DMAStream_1_7
 264              		.section	.bss.Mutex_DMAStream_1_7,"aw",%nobits
 265              		.align	2
 266              		.set	.LANCHOR0,. + 0
 267              		.type	Mutex_DMAStream_1_7, %object
 268              		.size	Mutex_DMAStream_1_7, 16
 269              	Mutex_DMAStream_1_7:
 270 0000 00000000 		.space	16
 270      00000000 
 270      00000000 
 270      00000000 
 271              		.section	.sram2,"aw",%progbits
 272              		.align	2
 273              		.set	.LANCHOR2,. + 0
 274              		.type	adcvalues, %object
 275              		.size	adcvalues, 32
 276              	adcvalues:
 277 0000 00000000 		.space	32
 277      00000000 
 277      00000000 
 277      00000000 
 277      00000000 
 278              		.section	.rodata.adcgrpcfg1,"a",%progbits
ARM GAS  /tmp/ccIBcRc0.s 			page 6


 279              		.align	2
 280              		.set	.LANCHOR1,. + 0
 281              		.type	adcgrpcfg1, %object
 282              		.size	adcgrpcfg1, 40
 283              	adcgrpcfg1:
 284 0000 00       		.byte	0
 285 0001 00       		.space	1
 286 0002 1000     		.short	16
 287 0004 00000000 		.word	0
 288 0008 00000000 		.word	0
 289 000c 00000000 		.word	0
 290 0010 00000040 		.word	1073741824
 291 0014 2449DA00 		.word	14305572
 292 0018 24499224 		.word	613566756
 293 001c ACB9F800 		.word	16300460
 294 0020 E6A0A416 		.word	379887846
 295 0024 2088410A 		.word	172066848
 296              		.text
 297              	.Letext0:
 298              		.file 2 "/home/sbcu/Dropbox/pcb-layouts/axo-on-discovery-board/axoloti/platform_linux/lib/gcc/arm-
 299              		.file 3 "/home/sbcu/Dropbox/pcb-layouts/axo-on-discovery-board/axoloti/platform_linux/arm-none-eab
 300              		.file 4 "/home/sbcu/Dropbox/pcb-layouts/axo-on-discovery-board/axoloti/platform_linux/arm-none-eab
 301              		.file 5 "/opt/Axoloti/app/chibios/os/ports/GCC/ARMCMx/chtypes.h"
 302              		.file 6 "/opt/Axoloti/app/chibios/os/kernel/include/chlists.h"
 303              		.file 7 "/opt/Axoloti/app/chibios/os/kernel/include/chthreads.h"
 304              		.file 8 "/opt/Axoloti/app/chibios/os/ports/GCC/ARMCMx/chcore_v7m.h"
 305              		.file 9 "/opt/Axoloti/app/chibios/os/kernel/include/chmtx.h"
 306              		.file 10 "/opt/Axoloti/app/chibios/os/hal/platforms/STM32F4xx/stm32f4xx.h"
 307              		.file 11 "/opt/Axoloti/app/chibios/os/hal/platforms/STM32F4xx/stm32_dma.h"
 308              		.file 12 "/opt/Axoloti/app/chibios/os/hal/platforms/STM32/GPIOv2/pal_lld.h"
 309              		.file 13 "/opt/Axoloti/app/chibios/os/hal/include/adc.h"
 310              		.file 14 "/opt/Axoloti/app/chibios/os/hal/platforms/STM32F4xx/adc_lld.h"
 311              		.file 15 "/opt/Axoloti/app/chibios/os/ports/common/ARMCMx/CMSIS/include/core_cm4.h"
 312              		.section	.debug_info,"",%progbits
 313              	.Ldebug_info0:
 314 0000 FA0C0000 		.4byte	0xcfa
 315 0004 0400     		.2byte	0x4
 316 0006 00000000 		.4byte	.Ldebug_abbrev0
 317 000a 04       		.byte	0x4
 318 000b 01       		.uleb128 0x1
 319 000c AE020000 		.4byte	.LASF146
 320 0010 01       		.byte	0x1
 321 0011 15060000 		.4byte	.LASF147
 322 0015 DD010000 		.4byte	.LASF148
 323 0019 00000000 		.4byte	.Ldebug_ranges0+0
 324 001d 00000000 		.4byte	0
 325 0021 00000000 		.4byte	.Ldebug_line0
 326 0025 02       		.uleb128 0x2
 327 0026 04       		.byte	0x4
 328 0027 05       		.byte	0x5
 329 0028 696E7400 		.ascii	"int\000"
 330 002c 03       		.uleb128 0x3
 331 002d 05000000 		.4byte	.LASF2
 332 0031 02       		.byte	0x2
 333 0032 D4       		.byte	0xd4
 334 0033 37000000 		.4byte	0x37
 335 0037 04       		.uleb128 0x4
ARM GAS  /tmp/ccIBcRc0.s 			page 7


 336 0038 04       		.byte	0x4
 337 0039 07       		.byte	0x7
 338 003a C0010000 		.4byte	.LASF0
 339 003e 04       		.uleb128 0x4
 340 003f 01       		.byte	0x1
 341 0040 06       		.byte	0x6
 342 0041 C9000000 		.4byte	.LASF1
 343 0045 03       		.uleb128 0x3
 344 0046 34000000 		.4byte	.LASF3
 345 004a 03       		.byte	0x3
 346 004b 1D       		.byte	0x1d
 347 004c 50000000 		.4byte	0x50
 348 0050 04       		.uleb128 0x4
 349 0051 01       		.byte	0x1
 350 0052 08       		.byte	0x8
 351 0053 98040000 		.4byte	.LASF4
 352 0057 04       		.uleb128 0x4
 353 0058 02       		.byte	0x2
 354 0059 05       		.byte	0x5
 355 005a B0040000 		.4byte	.LASF5
 356 005e 03       		.uleb128 0x3
 357 005f 6B050000 		.4byte	.LASF6
 358 0063 03       		.byte	0x3
 359 0064 2B       		.byte	0x2b
 360 0065 69000000 		.4byte	0x69
 361 0069 04       		.uleb128 0x4
 362 006a 02       		.byte	0x2
 363 006b 07       		.byte	0x7
 364 006c 58020000 		.4byte	.LASF7
 365 0070 03       		.uleb128 0x3
 366 0071 9A050000 		.4byte	.LASF8
 367 0075 03       		.byte	0x3
 368 0076 3F       		.byte	0x3f
 369 0077 7B000000 		.4byte	0x7b
 370 007b 04       		.uleb128 0x4
 371 007c 04       		.byte	0x4
 372 007d 05       		.byte	0x5
 373 007e 0A010000 		.4byte	.LASF9
 374 0082 03       		.uleb128 0x3
 375 0083 80010000 		.4byte	.LASF10
 376 0087 03       		.byte	0x3
 377 0088 41       		.byte	0x41
 378 0089 8D000000 		.4byte	0x8d
 379 008d 04       		.uleb128 0x4
 380 008e 04       		.byte	0x4
 381 008f 07       		.byte	0x7
 382 0090 39050000 		.4byte	.LASF11
 383 0094 04       		.uleb128 0x4
 384 0095 08       		.byte	0x8
 385 0096 05       		.byte	0x5
 386 0097 BB000000 		.4byte	.LASF12
 387 009b 04       		.uleb128 0x4
 388 009c 08       		.byte	0x8
 389 009d 07       		.byte	0x7
 390 009e 6A000000 		.4byte	.LASF13
 391 00a2 03       		.uleb128 0x3
 392 00a3 60060000 		.4byte	.LASF14
ARM GAS  /tmp/ccIBcRc0.s 			page 8


 393 00a7 04       		.byte	0x4
 394 00a8 14       		.byte	0x14
 395 00a9 45000000 		.4byte	0x45
 396 00ad 03       		.uleb128 0x3
 397 00ae CD010000 		.4byte	.LASF15
 398 00b2 04       		.byte	0x4
 399 00b3 1A       		.byte	0x1a
 400 00b4 5E000000 		.4byte	0x5e
 401 00b8 03       		.uleb128 0x3
 402 00b9 90040000 		.4byte	.LASF16
 403 00bd 04       		.byte	0x4
 404 00be 1F       		.byte	0x1f
 405 00bf 70000000 		.4byte	0x70
 406 00c3 03       		.uleb128 0x3
 407 00c4 16050000 		.4byte	.LASF17
 408 00c8 04       		.byte	0x4
 409 00c9 20       		.byte	0x20
 410 00ca 82000000 		.4byte	0x82
 411 00ce 03       		.uleb128 0x3
 412 00cf DA000000 		.4byte	.LASF18
 413 00d3 05       		.byte	0x5
 414 00d4 2B       		.byte	0x2b
 415 00d5 D9000000 		.4byte	0xd9
 416 00d9 04       		.uleb128 0x4
 417 00da 01       		.byte	0x1
 418 00db 02       		.byte	0x2
 419 00dc 8A040000 		.4byte	.LASF19
 420 00e0 03       		.uleb128 0x3
 421 00e1 81020000 		.4byte	.LASF20
 422 00e5 05       		.byte	0x5
 423 00e6 2C       		.byte	0x2c
 424 00e7 A2000000 		.4byte	0xa2
 425 00eb 03       		.uleb128 0x3
 426 00ec 39010000 		.4byte	.LASF21
 427 00f0 05       		.byte	0x5
 428 00f1 2D       		.byte	0x2d
 429 00f2 A2000000 		.4byte	0xa2
 430 00f6 03       		.uleb128 0x3
 431 00f7 2F050000 		.4byte	.LASF22
 432 00fb 05       		.byte	0x5
 433 00fc 2F       		.byte	0x2f
 434 00fd A2000000 		.4byte	0xa2
 435 0101 03       		.uleb128 0x3
 436 0102 7C040000 		.4byte	.LASF23
 437 0106 05       		.byte	0x5
 438 0107 30       		.byte	0x30
 439 0108 C3000000 		.4byte	0xc3
 440 010c 03       		.uleb128 0x3
 441 010d 7B020000 		.4byte	.LASF24
 442 0111 05       		.byte	0x5
 443 0112 31       		.byte	0x31
 444 0113 B8000000 		.4byte	0xb8
 445 0117 03       		.uleb128 0x3
 446 0118 A2020000 		.4byte	.LASF25
 447 011c 05       		.byte	0x5
 448 011d 33       		.byte	0x33
 449 011e C3000000 		.4byte	0xc3
ARM GAS  /tmp/ccIBcRc0.s 			page 9


 450 0122 03       		.uleb128 0x3
 451 0123 85050000 		.4byte	.LASF26
 452 0127 05       		.byte	0x5
 453 0128 35       		.byte	0x35
 454 0129 C3000000 		.4byte	0xc3
 455 012d 03       		.uleb128 0x3
 456 012e FE040000 		.4byte	.LASF27
 457 0132 06       		.byte	0x6
 458 0133 2A       		.byte	0x2a
 459 0134 38010000 		.4byte	0x138
 460 0138 05       		.uleb128 0x5
 461 0139 FE040000 		.4byte	.LASF27
 462 013d 44       		.byte	0x44
 463 013e 07       		.byte	0x7
 464 013f 5E       		.byte	0x5e
 465 0140 1D020000 		.4byte	0x21d
 466 0144 06       		.uleb128 0x6
 467 0145 DC040000 		.4byte	.LASF28
 468 0149 07       		.byte	0x7
 469 014a 5F       		.byte	0x5f
 470 014b 3E020000 		.4byte	0x23e
 471 014f 00       		.byte	0
 472 0150 06       		.uleb128 0x6
 473 0151 62040000 		.4byte	.LASF29
 474 0155 07       		.byte	0x7
 475 0156 61       		.byte	0x61
 476 0157 3E020000 		.4byte	0x23e
 477 015b 04       		.byte	0x4
 478 015c 06       		.uleb128 0x6
 479 015d A8000000 		.4byte	.LASF30
 480 0161 07       		.byte	0x7
 481 0162 63       		.byte	0x63
 482 0163 01010000 		.4byte	0x101
 483 0167 08       		.byte	0x8
 484 0168 06       		.uleb128 0x6
 485 0169 EC060000 		.4byte	.LASF31
 486 016d 07       		.byte	0x7
 487 016e 64       		.byte	0x64
 488 016f C8030000 		.4byte	0x3c8
 489 0173 0C       		.byte	0xc
 490 0174 06       		.uleb128 0x6
 491 0175 42010000 		.4byte	.LASF32
 492 0179 07       		.byte	0x7
 493 017a 66       		.byte	0x66
 494 017b 3E020000 		.4byte	0x23e
 495 017f 10       		.byte	0x10
 496 0180 06       		.uleb128 0x6
 497 0181 1C040000 		.4byte	.LASF33
 498 0185 07       		.byte	0x7
 499 0186 67       		.byte	0x67
 500 0187 3E020000 		.4byte	0x23e
 501 018b 14       		.byte	0x14
 502 018c 06       		.uleb128 0x6
 503 018d A9060000 		.4byte	.LASF34
 504 0191 07       		.byte	0x7
 505 0192 6E       		.byte	0x6e
 506 0193 71040000 		.4byte	0x471
ARM GAS  /tmp/ccIBcRc0.s 			page 10


 507 0197 18       		.byte	0x18
 508 0198 06       		.uleb128 0x6
 509 0199 BA040000 		.4byte	.LASF35
 510 019d 07       		.byte	0x7
 511 019e 79       		.byte	0x79
 512 019f EB000000 		.4byte	0xeb
 513 01a3 1C       		.byte	0x1c
 514 01a4 06       		.uleb128 0x6
 515 01a5 E3040000 		.4byte	.LASF36
 516 01a9 07       		.byte	0x7
 517 01aa 7D       		.byte	0x7d
 518 01ab E0000000 		.4byte	0xe0
 519 01af 1D       		.byte	0x1d
 520 01b0 06       		.uleb128 0x6
 521 01b1 C2040000 		.4byte	.LASF37
 522 01b5 07       		.byte	0x7
 523 01b6 88       		.byte	0x88
 524 01b7 F6000000 		.4byte	0xf6
 525 01bb 1E       		.byte	0x1e
 526 01bc 06       		.uleb128 0x6
 527 01bd D6010000 		.4byte	.LASF38
 528 01c1 07       		.byte	0x7
 529 01c2 8F       		.byte	0x8f
 530 01c3 F5030000 		.4byte	0x3f5
 531 01c7 20       		.byte	0x20
 532 01c8 07       		.uleb128 0x7
 533 01c9 705F7500 		.ascii	"p_u\000"
 534 01cd 07       		.byte	0x7
 535 01ce B4       		.byte	0xb4
 536 01cf 3C040000 		.4byte	0x43c
 537 01d3 24       		.byte	0x24
 538 01d4 06       		.uleb128 0x6
 539 01d5 F2060000 		.4byte	.LASF39
 540 01d9 07       		.byte	0x7
 541 01da B9       		.byte	0xb9
 542 01db 64020000 		.4byte	0x264
 543 01df 28       		.byte	0x28
 544 01e0 06       		.uleb128 0x6
 545 01e1 2C020000 		.4byte	.LASF40
 546 01e5 07       		.byte	0x7
 547 01e6 BF       		.byte	0xbf
 548 01e7 44020000 		.4byte	0x244
 549 01eb 2C       		.byte	0x2c
 550 01ec 06       		.uleb128 0x6
 551 01ed C3060000 		.4byte	.LASF41
 552 01f1 07       		.byte	0x7
 553 01f2 C3       		.byte	0xc3
 554 01f3 0C010000 		.4byte	0x10c
 555 01f7 34       		.byte	0x34
 556 01f8 06       		.uleb128 0x6
 557 01f9 05050000 		.4byte	.LASF42
 558 01fd 07       		.byte	0x7
 559 01fe C9       		.byte	0xc9
 560 01ff 17010000 		.4byte	0x117
 561 0203 38       		.byte	0x38
 562 0204 06       		.uleb128 0x6
 563 0205 A6040000 		.4byte	.LASF43
ARM GAS  /tmp/ccIBcRc0.s 			page 11


 564 0209 07       		.byte	0x7
 565 020a D0       		.byte	0xd0
 566 020b 83040000 		.4byte	0x483
 567 020f 3C       		.byte	0x3c
 568 0210 06       		.uleb128 0x6
 569 0211 8F050000 		.4byte	.LASF44
 570 0215 07       		.byte	0x7
 571 0216 D4       		.byte	0xd4
 572 0217 01010000 		.4byte	0x101
 573 021b 40       		.byte	0x40
 574 021c 00       		.byte	0
 575 021d 08       		.uleb128 0x8
 576 021e 08       		.byte	0x8
 577 021f 06       		.byte	0x6
 578 0220 61       		.byte	0x61
 579 0221 3E020000 		.4byte	0x23e
 580 0225 06       		.uleb128 0x6
 581 0226 DC040000 		.4byte	.LASF28
 582 022a 06       		.byte	0x6
 583 022b 62       		.byte	0x62
 584 022c 3E020000 		.4byte	0x23e
 585 0230 00       		.byte	0
 586 0231 06       		.uleb128 0x6
 587 0232 62040000 		.4byte	.LASF29
 588 0236 06       		.byte	0x6
 589 0237 64       		.byte	0x64
 590 0238 3E020000 		.4byte	0x23e
 591 023c 04       		.byte	0x4
 592 023d 00       		.byte	0
 593 023e 09       		.uleb128 0x9
 594 023f 04       		.byte	0x4
 595 0240 2D010000 		.4byte	0x12d
 596 0244 03       		.uleb128 0x3
 597 0245 24040000 		.4byte	.LASF45
 598 0249 06       		.byte	0x6
 599 024a 66       		.byte	0x66
 600 024b 1D020000 		.4byte	0x21d
 601 024f 08       		.uleb128 0x8
 602 0250 04       		.byte	0x4
 603 0251 06       		.byte	0x6
 604 0252 6B       		.byte	0x6b
 605 0253 64020000 		.4byte	0x264
 606 0257 06       		.uleb128 0x6
 607 0258 DC040000 		.4byte	.LASF28
 608 025c 06       		.byte	0x6
 609 025d 6D       		.byte	0x6d
 610 025e 3E020000 		.4byte	0x23e
 611 0262 00       		.byte	0
 612 0263 00       		.byte	0
 613 0264 03       		.uleb128 0x3
 614 0265 96020000 		.4byte	.LASF46
 615 0269 06       		.byte	0x6
 616 026a 70       		.byte	0x70
 617 026b 4F020000 		.4byte	0x24f
 618 026f 03       		.uleb128 0x3
 619 0270 8B010000 		.4byte	.LASF47
 620 0274 08       		.byte	0x8
ARM GAS  /tmp/ccIBcRc0.s 			page 12


 621 0275 E5       		.byte	0xe5
 622 0276 7A020000 		.4byte	0x27a
 623 027a 0A       		.uleb128 0xa
 624 027b 04       		.byte	0x4
 625 027c 0B       		.uleb128 0xb
 626 027d 09060000 		.4byte	.LASF48
 627 0281 64       		.byte	0x64
 628 0282 08       		.byte	0x8
 629 0283 0C01     		.2byte	0x10c
 630 0285 C8030000 		.4byte	0x3c8
 631 0289 0C       		.uleb128 0xc
 632 028a 73313600 		.ascii	"s16\000"
 633 028e 08       		.byte	0x8
 634 028f 0E01     		.2byte	0x10e
 635 0291 6F020000 		.4byte	0x26f
 636 0295 00       		.byte	0
 637 0296 0C       		.uleb128 0xc
 638 0297 73313700 		.ascii	"s17\000"
 639 029b 08       		.byte	0x8
 640 029c 0F01     		.2byte	0x10f
 641 029e 6F020000 		.4byte	0x26f
 642 02a2 04       		.byte	0x4
 643 02a3 0C       		.uleb128 0xc
 644 02a4 73313800 		.ascii	"s18\000"
 645 02a8 08       		.byte	0x8
 646 02a9 1001     		.2byte	0x110
 647 02ab 6F020000 		.4byte	0x26f
 648 02af 08       		.byte	0x8
 649 02b0 0C       		.uleb128 0xc
 650 02b1 73313900 		.ascii	"s19\000"
 651 02b5 08       		.byte	0x8
 652 02b6 1101     		.2byte	0x111
 653 02b8 6F020000 		.4byte	0x26f
 654 02bc 0C       		.byte	0xc
 655 02bd 0C       		.uleb128 0xc
 656 02be 73323000 		.ascii	"s20\000"
 657 02c2 08       		.byte	0x8
 658 02c3 1201     		.2byte	0x112
 659 02c5 6F020000 		.4byte	0x26f
 660 02c9 10       		.byte	0x10
 661 02ca 0C       		.uleb128 0xc
 662 02cb 73323100 		.ascii	"s21\000"
 663 02cf 08       		.byte	0x8
 664 02d0 1301     		.2byte	0x113
 665 02d2 6F020000 		.4byte	0x26f
 666 02d6 14       		.byte	0x14
 667 02d7 0C       		.uleb128 0xc
 668 02d8 73323200 		.ascii	"s22\000"
 669 02dc 08       		.byte	0x8
 670 02dd 1401     		.2byte	0x114
 671 02df 6F020000 		.4byte	0x26f
 672 02e3 18       		.byte	0x18
 673 02e4 0C       		.uleb128 0xc
 674 02e5 73323300 		.ascii	"s23\000"
 675 02e9 08       		.byte	0x8
 676 02ea 1501     		.2byte	0x115
 677 02ec 6F020000 		.4byte	0x26f
ARM GAS  /tmp/ccIBcRc0.s 			page 13


 678 02f0 1C       		.byte	0x1c
 679 02f1 0C       		.uleb128 0xc
 680 02f2 73323400 		.ascii	"s24\000"
 681 02f6 08       		.byte	0x8
 682 02f7 1601     		.2byte	0x116
 683 02f9 6F020000 		.4byte	0x26f
 684 02fd 20       		.byte	0x20
 685 02fe 0C       		.uleb128 0xc
 686 02ff 73323500 		.ascii	"s25\000"
 687 0303 08       		.byte	0x8
 688 0304 1701     		.2byte	0x117
 689 0306 6F020000 		.4byte	0x26f
 690 030a 24       		.byte	0x24
 691 030b 0C       		.uleb128 0xc
 692 030c 73323600 		.ascii	"s26\000"
 693 0310 08       		.byte	0x8
 694 0311 1801     		.2byte	0x118
 695 0313 6F020000 		.4byte	0x26f
 696 0317 28       		.byte	0x28
 697 0318 0C       		.uleb128 0xc
 698 0319 73323700 		.ascii	"s27\000"
 699 031d 08       		.byte	0x8
 700 031e 1901     		.2byte	0x119
 701 0320 6F020000 		.4byte	0x26f
 702 0324 2C       		.byte	0x2c
 703 0325 0C       		.uleb128 0xc
 704 0326 73323800 		.ascii	"s28\000"
 705 032a 08       		.byte	0x8
 706 032b 1A01     		.2byte	0x11a
 707 032d 6F020000 		.4byte	0x26f
 708 0331 30       		.byte	0x30
 709 0332 0C       		.uleb128 0xc
 710 0333 73323900 		.ascii	"s29\000"
 711 0337 08       		.byte	0x8
 712 0338 1B01     		.2byte	0x11b
 713 033a 6F020000 		.4byte	0x26f
 714 033e 34       		.byte	0x34
 715 033f 0C       		.uleb128 0xc
 716 0340 73333000 		.ascii	"s30\000"
 717 0344 08       		.byte	0x8
 718 0345 1C01     		.2byte	0x11c
 719 0347 6F020000 		.4byte	0x26f
 720 034b 38       		.byte	0x38
 721 034c 0C       		.uleb128 0xc
 722 034d 73333100 		.ascii	"s31\000"
 723 0351 08       		.byte	0x8
 724 0352 1D01     		.2byte	0x11d
 725 0354 6F020000 		.4byte	0x26f
 726 0358 3C       		.byte	0x3c
 727 0359 0C       		.uleb128 0xc
 728 035a 723400   		.ascii	"r4\000"
 729 035d 08       		.byte	0x8
 730 035e 1F01     		.2byte	0x11f
 731 0360 6F020000 		.4byte	0x26f
 732 0364 40       		.byte	0x40
 733 0365 0C       		.uleb128 0xc
 734 0366 723500   		.ascii	"r5\000"
ARM GAS  /tmp/ccIBcRc0.s 			page 14


 735 0369 08       		.byte	0x8
 736 036a 2001     		.2byte	0x120
 737 036c 6F020000 		.4byte	0x26f
 738 0370 44       		.byte	0x44
 739 0371 0C       		.uleb128 0xc
 740 0372 723600   		.ascii	"r6\000"
 741 0375 08       		.byte	0x8
 742 0376 2101     		.2byte	0x121
 743 0378 6F020000 		.4byte	0x26f
 744 037c 48       		.byte	0x48
 745 037d 0C       		.uleb128 0xc
 746 037e 723700   		.ascii	"r7\000"
 747 0381 08       		.byte	0x8
 748 0382 2201     		.2byte	0x122
 749 0384 6F020000 		.4byte	0x26f
 750 0388 4C       		.byte	0x4c
 751 0389 0C       		.uleb128 0xc
 752 038a 723800   		.ascii	"r8\000"
 753 038d 08       		.byte	0x8
 754 038e 2301     		.2byte	0x123
 755 0390 6F020000 		.4byte	0x26f
 756 0394 50       		.byte	0x50
 757 0395 0C       		.uleb128 0xc
 758 0396 723900   		.ascii	"r9\000"
 759 0399 08       		.byte	0x8
 760 039a 2401     		.2byte	0x124
 761 039c 6F020000 		.4byte	0x26f
 762 03a0 54       		.byte	0x54
 763 03a1 0C       		.uleb128 0xc
 764 03a2 72313000 		.ascii	"r10\000"
 765 03a6 08       		.byte	0x8
 766 03a7 2501     		.2byte	0x125
 767 03a9 6F020000 		.4byte	0x26f
 768 03ad 58       		.byte	0x58
 769 03ae 0C       		.uleb128 0xc
 770 03af 72313100 		.ascii	"r11\000"
 771 03b3 08       		.byte	0x8
 772 03b4 2601     		.2byte	0x126
 773 03b6 6F020000 		.4byte	0x26f
 774 03ba 5C       		.byte	0x5c
 775 03bb 0C       		.uleb128 0xc
 776 03bc 6C7200   		.ascii	"lr\000"
 777 03bf 08       		.byte	0x8
 778 03c0 2701     		.2byte	0x127
 779 03c2 6F020000 		.4byte	0x26f
 780 03c6 60       		.byte	0x60
 781 03c7 00       		.byte	0
 782 03c8 0B       		.uleb128 0xb
 783 03c9 CE050000 		.4byte	.LASF49
 784 03cd 04       		.byte	0x4
 785 03ce 08       		.byte	0x8
 786 03cf 3101     		.2byte	0x131
 787 03d1 E3030000 		.4byte	0x3e3
 788 03d5 0C       		.uleb128 0xc
 789 03d6 72313300 		.ascii	"r13\000"
 790 03da 08       		.byte	0x8
 791 03db 3201     		.2byte	0x132
ARM GAS  /tmp/ccIBcRc0.s 			page 15


 792 03dd E3030000 		.4byte	0x3e3
 793 03e1 00       		.byte	0
 794 03e2 00       		.byte	0
 795 03e3 09       		.uleb128 0x9
 796 03e4 04       		.byte	0x4
 797 03e5 7C020000 		.4byte	0x27c
 798 03e9 0D       		.uleb128 0xd
 799 03ea C3000000 		.4byte	0xc3
 800 03ee 04       		.uleb128 0x4
 801 03ef 04       		.byte	0x4
 802 03f0 07       		.byte	0x7
 803 03f1 EB030000 		.4byte	.LASF50
 804 03f5 0D       		.uleb128 0xd
 805 03f6 22010000 		.4byte	0x122
 806 03fa 05       		.uleb128 0x5
 807 03fb 00040000 		.4byte	.LASF51
 808 03ff 10       		.byte	0x10
 809 0400 09       		.byte	0x9
 810 0401 2C       		.byte	0x2c
 811 0402 2B040000 		.4byte	0x42b
 812 0406 06       		.uleb128 0x6
 813 0407 E1000000 		.4byte	.LASF52
 814 040b 09       		.byte	0x9
 815 040c 2D       		.byte	0x2d
 816 040d 44020000 		.4byte	0x244
 817 0411 00       		.byte	0
 818 0412 06       		.uleb128 0x6
 819 0413 E4060000 		.4byte	.LASF53
 820 0417 09       		.byte	0x9
 821 0418 2F       		.byte	0x2f
 822 0419 3E020000 		.4byte	0x23e
 823 041d 08       		.byte	0x8
 824 041e 06       		.uleb128 0x6
 825 041f 3D040000 		.4byte	.LASF54
 826 0423 09       		.byte	0x9
 827 0424 31       		.byte	0x31
 828 0425 2B040000 		.4byte	0x42b
 829 0429 0C       		.byte	0xc
 830 042a 00       		.byte	0
 831 042b 09       		.uleb128 0x9
 832 042c 04       		.byte	0x4
 833 042d FA030000 		.4byte	0x3fa
 834 0431 03       		.uleb128 0x3
 835 0432 00040000 		.4byte	.LASF51
 836 0436 09       		.byte	0x9
 837 0437 33       		.byte	0x33
 838 0438 FA030000 		.4byte	0x3fa
 839 043c 0E       		.uleb128 0xe
 840 043d 04       		.byte	0x4
 841 043e 07       		.byte	0x7
 842 043f 96       		.byte	0x96
 843 0440 71040000 		.4byte	0x471
 844 0444 0F       		.uleb128 0xf
 845 0445 0C000000 		.4byte	.LASF55
 846 0449 07       		.byte	0x7
 847 044a 9D       		.byte	0x9d
 848 044b 0C010000 		.4byte	0x10c
ARM GAS  /tmp/ccIBcRc0.s 			page 16


 849 044f 0F       		.uleb128 0xf
 850 0450 87000000 		.4byte	.LASF56
 851 0454 07       		.byte	0x7
 852 0455 A4       		.byte	0xa4
 853 0456 0C010000 		.4byte	0x10c
 854 045a 0F       		.uleb128 0xf
 855 045b 95060000 		.4byte	.LASF57
 856 045f 07       		.byte	0x7
 857 0460 AB       		.byte	0xab
 858 0461 7A020000 		.4byte	0x27a
 859 0465 0F       		.uleb128 0xf
 860 0466 D5040000 		.4byte	.LASF58
 861 046a 07       		.byte	0x7
 862 046b B2       		.byte	0xb2
 863 046c 17010000 		.4byte	0x117
 864 0470 00       		.byte	0
 865 0471 09       		.uleb128 0x9
 866 0472 04       		.byte	0x4
 867 0473 77040000 		.4byte	0x477
 868 0477 10       		.uleb128 0x10
 869 0478 7C040000 		.4byte	0x47c
 870 047c 04       		.uleb128 0x4
 871 047d 01       		.byte	0x1
 872 047e 08       		.byte	0x8
 873 047f 4B050000 		.4byte	.LASF59
 874 0483 09       		.uleb128 0x9
 875 0484 04       		.byte	0x4
 876 0485 31040000 		.4byte	0x431
 877 0489 0D       		.uleb128 0xd
 878 048a B8000000 		.4byte	0xb8
 879 048e 11       		.uleb128 0x11
 880 048f 50       		.byte	0x50
 881 0490 0A       		.byte	0xa
 882 0491 0A02     		.2byte	0x20a
 883 0493 9A050000 		.4byte	0x59a
 884 0497 0C       		.uleb128 0xc
 885 0498 535200   		.ascii	"SR\000"
 886 049b 0A       		.byte	0xa
 887 049c 0C02     		.2byte	0x20c
 888 049e E9030000 		.4byte	0x3e9
 889 04a2 00       		.byte	0
 890 04a3 0C       		.uleb128 0xc
 891 04a4 43523100 		.ascii	"CR1\000"
 892 04a8 0A       		.byte	0xa
 893 04a9 0D02     		.2byte	0x20d
 894 04ab E9030000 		.4byte	0x3e9
 895 04af 04       		.byte	0x4
 896 04b0 0C       		.uleb128 0xc
 897 04b1 43523200 		.ascii	"CR2\000"
 898 04b5 0A       		.byte	0xa
 899 04b6 0E02     		.2byte	0x20e
 900 04b8 E9030000 		.4byte	0x3e9
 901 04bc 08       		.byte	0x8
 902 04bd 12       		.uleb128 0x12
 903 04be 31040000 		.4byte	.LASF60
 904 04c2 0A       		.byte	0xa
 905 04c3 0F02     		.2byte	0x20f
ARM GAS  /tmp/ccIBcRc0.s 			page 17


 906 04c5 E9030000 		.4byte	0x3e9
 907 04c9 0C       		.byte	0xc
 908 04ca 12       		.uleb128 0x12
 909 04cb 37040000 		.4byte	.LASF61
 910 04cf 0A       		.byte	0xa
 911 04d0 1002     		.2byte	0x210
 912 04d2 E9030000 		.4byte	0x3e9
 913 04d6 10       		.byte	0x10
 914 04d7 12       		.uleb128 0x12
 915 04d8 CC030000 		.4byte	.LASF62
 916 04dc 0A       		.byte	0xa
 917 04dd 1102     		.2byte	0x211
 918 04df E9030000 		.4byte	0x3e9
 919 04e3 14       		.byte	0x14
 920 04e4 12       		.uleb128 0x12
 921 04e5 D2030000 		.4byte	.LASF63
 922 04e9 0A       		.byte	0xa
 923 04ea 1202     		.2byte	0x212
 924 04ec E9030000 		.4byte	0x3e9
 925 04f0 18       		.byte	0x18
 926 04f1 12       		.uleb128 0x12
 927 04f2 D8030000 		.4byte	.LASF64
 928 04f6 0A       		.byte	0xa
 929 04f7 1302     		.2byte	0x213
 930 04f9 E9030000 		.4byte	0x3e9
 931 04fd 1C       		.byte	0x1c
 932 04fe 12       		.uleb128 0x12
 933 04ff 7B060000 		.4byte	.LASF65
 934 0503 0A       		.byte	0xa
 935 0504 1402     		.2byte	0x214
 936 0506 E9030000 		.4byte	0x3e9
 937 050a 20       		.byte	0x20
 938 050b 0C       		.uleb128 0xc
 939 050c 48545200 		.ascii	"HTR\000"
 940 0510 0A       		.byte	0xa
 941 0511 1502     		.2byte	0x215
 942 0513 E9030000 		.4byte	0x3e9
 943 0517 24       		.byte	0x24
 944 0518 0C       		.uleb128 0xc
 945 0519 4C545200 		.ascii	"LTR\000"
 946 051d 0A       		.byte	0xa
 947 051e 1602     		.2byte	0x216
 948 0520 E9030000 		.4byte	0x3e9
 949 0524 28       		.byte	0x28
 950 0525 12       		.uleb128 0x12
 951 0526 44040000 		.4byte	.LASF66
 952 052a 0A       		.byte	0xa
 953 052b 1702     		.2byte	0x217
 954 052d E9030000 		.4byte	0x3e9
 955 0531 2C       		.byte	0x2c
 956 0532 12       		.uleb128 0x12
 957 0533 49040000 		.4byte	.LASF67
 958 0537 0A       		.byte	0xa
 959 0538 1802     		.2byte	0x218
 960 053a E9030000 		.4byte	0x3e9
 961 053e 30       		.byte	0x30
 962 053f 12       		.uleb128 0x12
ARM GAS  /tmp/ccIBcRc0.s 			page 18


 963 0540 4E040000 		.4byte	.LASF68
 964 0544 0A       		.byte	0xa
 965 0545 1902     		.2byte	0x219
 966 0547 E9030000 		.4byte	0x3e9
 967 054b 34       		.byte	0x34
 968 054c 12       		.uleb128 0x12
 969 054d E6030000 		.4byte	.LASF69
 970 0551 0A       		.byte	0xa
 971 0552 1A02     		.2byte	0x21a
 972 0554 E9030000 		.4byte	0x3e9
 973 0558 38       		.byte	0x38
 974 0559 12       		.uleb128 0x12
 975 055a 81060000 		.4byte	.LASF70
 976 055e 0A       		.byte	0xa
 977 055f 1B02     		.2byte	0x21b
 978 0561 E9030000 		.4byte	0x3e9
 979 0565 3C       		.byte	0x3c
 980 0566 12       		.uleb128 0x12
 981 0567 86060000 		.4byte	.LASF71
 982 056b 0A       		.byte	0xa
 983 056c 1C02     		.2byte	0x21c
 984 056e E9030000 		.4byte	0x3e9
 985 0572 40       		.byte	0x40
 986 0573 12       		.uleb128 0x12
 987 0574 8B060000 		.4byte	.LASF72
 988 0578 0A       		.byte	0xa
 989 0579 1D02     		.2byte	0x21d
 990 057b E9030000 		.4byte	0x3e9
 991 057f 44       		.byte	0x44
 992 0580 12       		.uleb128 0x12
 993 0581 90060000 		.4byte	.LASF73
 994 0585 0A       		.byte	0xa
 995 0586 1E02     		.2byte	0x21e
 996 0588 E9030000 		.4byte	0x3e9
 997 058c 48       		.byte	0x48
 998 058d 0C       		.uleb128 0xc
 999 058e 445200   		.ascii	"DR\000"
 1000 0591 0A       		.byte	0xa
 1001 0592 1F02     		.2byte	0x21f
 1002 0594 E9030000 		.4byte	0x3e9
 1003 0598 4C       		.byte	0x4c
 1004 0599 00       		.byte	0
 1005 059a 13       		.uleb128 0x13
 1006 059b F4030000 		.4byte	.LASF74
 1007 059f 0A       		.byte	0xa
 1008 05a0 2002     		.2byte	0x220
 1009 05a2 8E040000 		.4byte	0x48e
 1010 05a6 11       		.uleb128 0x11
 1011 05a7 18       		.byte	0x18
 1012 05a8 0A       		.byte	0xa
 1013 05a9 B102     		.2byte	0x2b1
 1014 05ab FD050000 		.4byte	0x5fd
 1015 05af 0C       		.uleb128 0xc
 1016 05b0 435200   		.ascii	"CR\000"
 1017 05b3 0A       		.byte	0xa
 1018 05b4 B302     		.2byte	0x2b3
 1019 05b6 E9030000 		.4byte	0x3e9
ARM GAS  /tmp/ccIBcRc0.s 			page 19


 1020 05ba 00       		.byte	0
 1021 05bb 12       		.uleb128 0x12
 1022 05bc AB050000 		.4byte	.LASF75
 1023 05c0 0A       		.byte	0xa
 1024 05c1 B402     		.2byte	0x2b4
 1025 05c3 E9030000 		.4byte	0x3e9
 1026 05c7 04       		.byte	0x4
 1027 05c8 0C       		.uleb128 0xc
 1028 05c9 50415200 		.ascii	"PAR\000"
 1029 05cd 0A       		.byte	0xa
 1030 05ce B502     		.2byte	0x2b5
 1031 05d0 E9030000 		.4byte	0x3e9
 1032 05d4 08       		.byte	0x8
 1033 05d5 12       		.uleb128 0x12
 1034 05d6 00000000 		.4byte	.LASF76
 1035 05da 0A       		.byte	0xa
 1036 05db B602     		.2byte	0x2b6
 1037 05dd E9030000 		.4byte	0x3e9
 1038 05e1 0C       		.byte	0xc
 1039 05e2 12       		.uleb128 0x12
 1040 05e3 10060000 		.4byte	.LASF77
 1041 05e7 0A       		.byte	0xa
 1042 05e8 B702     		.2byte	0x2b7
 1043 05ea E9030000 		.4byte	0x3e9
 1044 05ee 10       		.byte	0x10
 1045 05ef 0C       		.uleb128 0xc
 1046 05f0 46435200 		.ascii	"FCR\000"
 1047 05f4 0A       		.byte	0xa
 1048 05f5 B802     		.2byte	0x2b8
 1049 05f7 E9030000 		.4byte	0x3e9
 1050 05fb 14       		.byte	0x14
 1051 05fc 00       		.byte	0
 1052 05fd 13       		.uleb128 0x13
 1053 05fe B0050000 		.4byte	.LASF78
 1054 0602 0A       		.byte	0xa
 1055 0603 B902     		.2byte	0x2b9
 1056 0605 A6050000 		.4byte	0x5a6
 1057 0609 08       		.uleb128 0x8
 1058 060a 0C       		.byte	0xc
 1059 060b 0B       		.byte	0xb
 1060 060c DA       		.byte	0xda
 1061 060d 4E060000 		.4byte	0x64e
 1062 0611 06       		.uleb128 0x6
 1063 0612 54000000 		.4byte	.LASF79
 1064 0616 0B       		.byte	0xb
 1065 0617 DB       		.byte	0xdb
 1066 0618 4E060000 		.4byte	0x64e
 1067 061c 00       		.byte	0
 1068 061d 06       		.uleb128 0x6
 1069 061e 5D040000 		.4byte	.LASF80
 1070 0622 0B       		.byte	0xb
 1071 0623 DC       		.byte	0xdc
 1072 0624 54060000 		.4byte	0x654
 1073 0628 04       		.byte	0x4
 1074 0629 06       		.uleb128 0x6
 1075 062a 51020000 		.4byte	.LASF81
 1076 062e 0B       		.byte	0xb
ARM GAS  /tmp/ccIBcRc0.s 			page 20


 1077 062f DD       		.byte	0xdd
 1078 0630 A2000000 		.4byte	0xa2
 1079 0634 08       		.byte	0x8
 1080 0635 06       		.uleb128 0x6
 1081 0636 94010000 		.4byte	.LASF82
 1082 063a 0B       		.byte	0xb
 1083 063b DF       		.byte	0xdf
 1084 063c A2000000 		.4byte	0xa2
 1085 0640 09       		.byte	0x9
 1086 0641 06       		.uleb128 0x6
 1087 0642 26000000 		.4byte	.LASF83
 1088 0646 0B       		.byte	0xb
 1089 0647 E0       		.byte	0xe0
 1090 0648 A2000000 		.4byte	0xa2
 1091 064c 0A       		.byte	0xa
 1092 064d 00       		.byte	0
 1093 064e 09       		.uleb128 0x9
 1094 064f 04       		.byte	0x4
 1095 0650 FD050000 		.4byte	0x5fd
 1096 0654 09       		.uleb128 0x9
 1097 0655 04       		.byte	0x4
 1098 0656 E9030000 		.4byte	0x3e9
 1099 065a 03       		.uleb128 0x3
 1100 065b 69040000 		.4byte	.LASF84
 1101 065f 0B       		.byte	0xb
 1102 0660 E1       		.byte	0xe1
 1103 0661 09060000 		.4byte	0x609
 1104 0665 08       		.uleb128 0x8
 1105 0666 04       		.byte	0x4
 1106 0667 0C       		.byte	0xc
 1107 0668 96       		.byte	0x96
 1108 0669 86060000 		.4byte	0x686
 1109 066d 07       		.uleb128 0x7
 1110 066e 73657400 		.ascii	"set\000"
 1111 0672 0C       		.byte	0xc
 1112 0673 97       		.byte	0x97
 1113 0674 AD000000 		.4byte	0xad
 1114 0678 00       		.byte	0
 1115 0679 06       		.uleb128 0x6
 1116 067a 10050000 		.4byte	.LASF85
 1117 067e 0C       		.byte	0xc
 1118 067f 98       		.byte	0x98
 1119 0680 AD000000 		.4byte	0xad
 1120 0684 02       		.byte	0x2
 1121 0685 00       		.byte	0
 1122 0686 0E       		.uleb128 0xe
 1123 0687 04       		.byte	0x4
 1124 0688 0C       		.byte	0xc
 1125 0689 94       		.byte	0x94
 1126 068a A1060000 		.4byte	0x6a1
 1127 068e 14       		.uleb128 0x14
 1128 068f 5700     		.ascii	"W\000"
 1129 0691 0C       		.byte	0xc
 1130 0692 95       		.byte	0x95
 1131 0693 C3000000 		.4byte	0xc3
 1132 0697 14       		.uleb128 0x14
 1133 0698 4800     		.ascii	"H\000"
ARM GAS  /tmp/ccIBcRc0.s 			page 21


 1134 069a 0C       		.byte	0xc
 1135 069b 99       		.byte	0x99
 1136 069c 65060000 		.4byte	0x665
 1137 06a0 00       		.byte	0
 1138 06a1 08       		.uleb128 0x8
 1139 06a2 28       		.byte	0x28
 1140 06a3 0C       		.byte	0xc
 1141 06a4 8C       		.byte	0x8c
 1142 06a5 22070000 		.4byte	0x722
 1143 06a9 06       		.uleb128 0x6
 1144 06aa 64000000 		.4byte	.LASF86
 1145 06ae 0C       		.byte	0xc
 1146 06af 8E       		.byte	0x8e
 1147 06b0 E9030000 		.4byte	0x3e9
 1148 06b4 00       		.byte	0
 1149 06b5 06       		.uleb128 0x6
 1150 06b6 2D000000 		.4byte	.LASF87
 1151 06ba 0C       		.byte	0xc
 1152 06bb 8F       		.byte	0x8f
 1153 06bc E9030000 		.4byte	0x3e9
 1154 06c0 04       		.byte	0x4
 1155 06c1 06       		.uleb128 0x6
 1156 06c2 78010000 		.4byte	.LASF88
 1157 06c6 0C       		.byte	0xc
 1158 06c7 90       		.byte	0x90
 1159 06c8 E9030000 		.4byte	0x3e9
 1160 06cc 08       		.byte	0x8
 1161 06cd 06       		.uleb128 0x6
 1162 06ce 81000000 		.4byte	.LASF89
 1163 06d2 0C       		.byte	0xc
 1164 06d3 91       		.byte	0x91
 1165 06d4 E9030000 		.4byte	0x3e9
 1166 06d8 0C       		.byte	0xc
 1167 06d9 07       		.uleb128 0x7
 1168 06da 49445200 		.ascii	"IDR\000"
 1169 06de 0C       		.byte	0xc
 1170 06df 92       		.byte	0x92
 1171 06e0 E9030000 		.4byte	0x3e9
 1172 06e4 10       		.byte	0x10
 1173 06e5 07       		.uleb128 0x7
 1174 06e6 4F445200 		.ascii	"ODR\000"
 1175 06ea 0C       		.byte	0xc
 1176 06eb 93       		.byte	0x93
 1177 06ec E9030000 		.4byte	0x3e9
 1178 06f0 14       		.byte	0x14
 1179 06f1 06       		.uleb128 0x6
 1180 06f2 D5000000 		.4byte	.LASF90
 1181 06f6 0C       		.byte	0xc
 1182 06f7 9A       		.byte	0x9a
 1183 06f8 22070000 		.4byte	0x722
 1184 06fc 18       		.byte	0x18
 1185 06fd 06       		.uleb128 0x6
 1186 06fe 4C020000 		.4byte	.LASF91
 1187 0702 0C       		.byte	0xc
 1188 0703 9B       		.byte	0x9b
 1189 0704 E9030000 		.4byte	0x3e9
 1190 0708 1C       		.byte	0x1c
ARM GAS  /tmp/ccIBcRc0.s 			page 22


 1191 0709 06       		.uleb128 0x6
 1192 070a 58040000 		.4byte	.LASF92
 1193 070e 0C       		.byte	0xc
 1194 070f 9C       		.byte	0x9c
 1195 0710 E9030000 		.4byte	0x3e9
 1196 0714 20       		.byte	0x20
 1197 0715 06       		.uleb128 0x6
 1198 0716 53040000 		.4byte	.LASF93
 1199 071a 0C       		.byte	0xc
 1200 071b 9D       		.byte	0x9d
 1201 071c E9030000 		.4byte	0x3e9
 1202 0720 24       		.byte	0x24
 1203 0721 00       		.byte	0
 1204 0722 0D       		.uleb128 0xd
 1205 0723 86060000 		.4byte	0x686
 1206 0727 03       		.uleb128 0x3
 1207 0728 5F010000 		.4byte	.LASF94
 1208 072c 0C       		.byte	0xc
 1209 072d 9E       		.byte	0x9e
 1210 072e A1060000 		.4byte	0x6a1
 1211 0732 03       		.uleb128 0x3
 1212 0733 06040000 		.4byte	.LASF95
 1213 0737 0C       		.byte	0xc
 1214 0738 F0       		.byte	0xf0
 1215 0739 C3000000 		.4byte	0xc3
 1216 073d 03       		.uleb128 0x3
 1217 073e DB060000 		.4byte	.LASF96
 1218 0742 0C       		.byte	0xc
 1219 0743 F5       		.byte	0xf5
 1220 0744 C3000000 		.4byte	0xc3
 1221 0748 03       		.uleb128 0x3
 1222 0749 C3050000 		.4byte	.LASF97
 1223 074d 0C       		.byte	0xc
 1224 074e FD       		.byte	0xfd
 1225 074f 53070000 		.4byte	0x753
 1226 0753 09       		.uleb128 0x9
 1227 0754 04       		.byte	0x4
 1228 0755 27070000 		.4byte	0x727
 1229 0759 15       		.uleb128 0x15
 1230 075a 01       		.byte	0x1
 1231 075b 0D       		.byte	0xd
 1232 075c 55       		.byte	0x55
 1233 075d 86070000 		.4byte	0x786
 1234 0761 16       		.uleb128 0x16
 1235 0762 90000000 		.4byte	.LASF98
 1236 0766 00       		.sleb128 0
 1237 0767 16       		.uleb128 0x16
 1238 0768 57060000 		.4byte	.LASF99
 1239 076c 01       		.sleb128 1
 1240 076d 16       		.uleb128 0x16
 1241 076e 6B020000 		.4byte	.LASF100
 1242 0772 02       		.sleb128 2
 1243 0773 16       		.uleb128 0x16
 1244 0774 B5010000 		.4byte	.LASF101
 1245 0778 03       		.sleb128 3
 1246 0779 16       		.uleb128 0x16
 1247 077a 9C060000 		.4byte	.LASF102
ARM GAS  /tmp/ccIBcRc0.s 			page 23


 1248 077e 04       		.sleb128 4
 1249 077f 16       		.uleb128 0x16
 1250 0780 28060000 		.4byte	.LASF103
 1251 0784 05       		.sleb128 5
 1252 0785 00       		.byte	0
 1253 0786 03       		.uleb128 0x3
 1254 0787 1B000000 		.4byte	.LASF104
 1255 078b 0D       		.byte	0xd
 1256 078c 5C       		.byte	0x5c
 1257 078d 59070000 		.4byte	0x759
 1258 0791 13       		.uleb128 0x13
 1259 0792 6C010000 		.4byte	.LASF105
 1260 0796 0E       		.byte	0xe
 1261 0797 2701     		.2byte	0x127
 1262 0799 AD000000 		.4byte	0xad
 1263 079d 13       		.uleb128 0x13
 1264 079e B0060000 		.4byte	.LASF106
 1265 07a2 0E       		.byte	0xe
 1266 07a3 2C01     		.2byte	0x12c
 1267 07a5 AD000000 		.4byte	0xad
 1268 07a9 17       		.uleb128 0x17
 1269 07aa 01       		.byte	0x1
 1270 07ab 0E       		.byte	0xe
 1271 07ac 3301     		.2byte	0x133
 1272 07ae BF070000 		.4byte	0x7bf
 1273 07b2 16       		.uleb128 0x16
 1274 07b3 13010000 		.4byte	.LASF107
 1275 07b7 00       		.sleb128 0
 1276 07b8 16       		.uleb128 0x16
 1277 07b9 A4010000 		.4byte	.LASF108
 1278 07bd 01       		.sleb128 1
 1279 07be 00       		.byte	0
 1280 07bf 13       		.uleb128 0x13
 1281 07c0 E9000000 		.4byte	.LASF109
 1282 07c4 0E       		.byte	0xe
 1283 07c5 3601     		.2byte	0x136
 1284 07c7 A9070000 		.4byte	0x7a9
 1285 07cb 13       		.uleb128 0x13
 1286 07cc 37020000 		.4byte	.LASF110
 1287 07d0 0E       		.byte	0xe
 1288 07d1 3B01     		.2byte	0x13b
 1289 07d3 D7070000 		.4byte	0x7d7
 1290 07d7 0B       		.uleb128 0xb
 1291 07d8 37020000 		.4byte	.LASF110
 1292 07dc 34       		.byte	0x34
 1293 07dd 0E       		.byte	0xe
 1294 07de 9F01     		.2byte	0x19f
 1295 07e0 67080000 		.4byte	0x867
 1296 07e4 12       		.uleb128 0x12
 1297 07e5 FB000000 		.4byte	.LASF111
 1298 07e9 0E       		.byte	0xe
 1299 07ea A301     		.2byte	0x1a3
 1300 07ec 86070000 		.4byte	0x786
 1301 07f0 00       		.byte	0
 1302 07f1 12       		.uleb128 0x12
 1303 07f2 50050000 		.4byte	.LASF112
 1304 07f6 0E       		.byte	0xe
ARM GAS  /tmp/ccIBcRc0.s 			page 24


 1305 07f7 A701     		.2byte	0x1a7
 1306 07f9 84090000 		.4byte	0x984
 1307 07fd 04       		.byte	0x4
 1308 07fe 12       		.uleb128 0x12
 1309 07ff DE030000 		.4byte	.LASF113
 1310 0803 0E       		.byte	0xe
 1311 0804 AB01     		.2byte	0x1ab
 1312 0806 94080000 		.4byte	0x894
 1313 080a 08       		.byte	0x8
 1314 080b 12       		.uleb128 0x12
 1315 080c 75020000 		.4byte	.LASF114
 1316 0810 0E       		.byte	0xe
 1317 0811 AF01     		.2byte	0x1af
 1318 0813 2C000000 		.4byte	0x2c
 1319 0817 0C       		.byte	0xc
 1320 0818 12       		.uleb128 0x12
 1321 0819 C7030000 		.4byte	.LASF115
 1322 081d 0E       		.byte	0xe
 1323 081e B301     		.2byte	0x1b3
 1324 0820 8F090000 		.4byte	0x98f
 1325 0824 10       		.byte	0x10
 1326 0825 12       		.uleb128 0x12
 1327 0826 A4050000 		.4byte	.LASF116
 1328 082a 0E       		.byte	0xe
 1329 082b B801     		.2byte	0x1b8
 1330 082d 3E020000 		.4byte	0x23e
 1331 0831 14       		.byte	0x14
 1332 0832 12       		.uleb128 0x12
 1333 0833 84040000 		.4byte	.LASF117
 1334 0837 0E       		.byte	0xe
 1335 0838 BF01     		.2byte	0x1bf
 1336 083a 31040000 		.4byte	0x431
 1337 083e 18       		.byte	0x18
 1338 083f 0C       		.uleb128 0xc
 1339 0840 61646300 		.ascii	"adc\000"
 1340 0844 0E       		.byte	0xe
 1341 0845 CB01     		.2byte	0x1cb
 1342 0847 9A090000 		.4byte	0x99a
 1343 084b 28       		.byte	0x28
 1344 084c 12       		.uleb128 0x12
 1345 084d F4000000 		.4byte	.LASF118
 1346 0851 0E       		.byte	0xe
 1347 0852 CF01     		.2byte	0x1cf
 1348 0854 A0090000 		.4byte	0x9a0
 1349 0858 2C       		.byte	0x2c
 1350 0859 12       		.uleb128 0x12
 1351 085a 13000000 		.4byte	.LASF119
 1352 085e 0E       		.byte	0xe
 1353 085f D301     		.2byte	0x1d3
 1354 0861 C3000000 		.4byte	0xc3
 1355 0865 30       		.byte	0x30
 1356 0866 00       		.byte	0
 1357 0867 13       		.uleb128 0x13
 1358 0868 51010000 		.4byte	.LASF120
 1359 086c 0E       		.byte	0xe
 1360 086d 4501     		.2byte	0x145
 1361 086f 73080000 		.4byte	0x873
ARM GAS  /tmp/ccIBcRc0.s 			page 25


 1362 0873 09       		.uleb128 0x9
 1363 0874 04       		.byte	0x4
 1364 0875 79080000 		.4byte	0x879
 1365 0879 18       		.uleb128 0x18
 1366 087a 8E080000 		.4byte	0x88e
 1367 087e 19       		.uleb128 0x19
 1368 087f 8E080000 		.4byte	0x88e
 1369 0883 19       		.uleb128 0x19
 1370 0884 94080000 		.4byte	0x894
 1371 0888 19       		.uleb128 0x19
 1372 0889 2C000000 		.4byte	0x2c
 1373 088d 00       		.byte	0
 1374 088e 09       		.uleb128 0x9
 1375 088f 04       		.byte	0x4
 1376 0890 CB070000 		.4byte	0x7cb
 1377 0894 09       		.uleb128 0x9
 1378 0895 04       		.byte	0x4
 1379 0896 91070000 		.4byte	0x791
 1380 089a 13       		.uleb128 0x13
 1381 089b 26010000 		.4byte	.LASF121
 1382 089f 0E       		.byte	0xe
 1383 08a0 4E01     		.2byte	0x14e
 1384 08a2 A6080000 		.4byte	0x8a6
 1385 08a6 09       		.uleb128 0x9
 1386 08a7 04       		.byte	0x4
 1387 08a8 AC080000 		.4byte	0x8ac
 1388 08ac 18       		.uleb128 0x18
 1389 08ad BC080000 		.4byte	0x8bc
 1390 08b1 19       		.uleb128 0x19
 1391 08b2 8E080000 		.4byte	0x88e
 1392 08b6 19       		.uleb128 0x19
 1393 08b7 BF070000 		.4byte	0x7bf
 1394 08bb 00       		.byte	0
 1395 08bc 11       		.uleb128 0x11
 1396 08bd 28       		.byte	0x28
 1397 08be 0E       		.byte	0xe
 1398 08bf 5801     		.2byte	0x158
 1399 08c1 55090000 		.4byte	0x955
 1400 08c5 12       		.uleb128 0x12
 1401 08c6 01010000 		.4byte	.LASF122
 1402 08ca 0E       		.byte	0xe
 1403 08cb 5C01     		.2byte	0x15c
 1404 08cd CE000000 		.4byte	0xce
 1405 08d1 00       		.byte	0
 1406 08d2 12       		.uleb128 0x12
 1407 08d3 89020000 		.4byte	.LASF123
 1408 08d7 0E       		.byte	0xe
 1409 08d8 6001     		.2byte	0x160
 1410 08da 9D070000 		.4byte	0x79d
 1411 08de 02       		.byte	0x2
 1412 08df 12       		.uleb128 0x12
 1413 08e0 4A010000 		.4byte	.LASF124
 1414 08e4 0E       		.byte	0xe
 1415 08e5 6401     		.2byte	0x164
 1416 08e7 67080000 		.4byte	0x867
 1417 08eb 04       		.byte	0x4
 1418 08ec 12       		.uleb128 0x12
ARM GAS  /tmp/ccIBcRc0.s 			page 26


 1419 08ed CC040000 		.4byte	.LASF125
 1420 08f1 0E       		.byte	0xe
 1421 08f2 6801     		.2byte	0x168
 1422 08f4 9A080000 		.4byte	0x89a
 1423 08f8 08       		.byte	0x8
 1424 08f9 0C       		.uleb128 0xc
 1425 08fa 63723100 		.ascii	"cr1\000"
 1426 08fe 0E       		.byte	0xe
 1427 08ff 6F01     		.2byte	0x16f
 1428 0901 C3000000 		.4byte	0xc3
 1429 0905 0C       		.byte	0xc
 1430 0906 0C       		.uleb128 0xc
 1431 0907 63723200 		.ascii	"cr2\000"
 1432 090b 0E       		.byte	0xe
 1433 090c 7601     		.2byte	0x176
 1434 090e C3000000 		.4byte	0xc3
 1435 0912 10       		.byte	0x10
 1436 0913 12       		.uleb128 0x12
 1437 0914 4B060000 		.4byte	.LASF126
 1438 0918 0E       		.byte	0xe
 1439 0919 7C01     		.2byte	0x17c
 1440 091b C3000000 		.4byte	0xc3
 1441 091f 14       		.byte	0x14
 1442 0920 12       		.uleb128 0x12
 1443 0921 51060000 		.4byte	.LASF127
 1444 0925 0E       		.byte	0xe
 1445 0926 8201     		.2byte	0x182
 1446 0928 C3000000 		.4byte	0xc3
 1447 092c 18       		.byte	0x18
 1448 092d 12       		.uleb128 0x12
 1449 092e 76050000 		.4byte	.LASF128
 1450 0932 0E       		.byte	0xe
 1451 0933 8701     		.2byte	0x187
 1452 0935 C3000000 		.4byte	0xc3
 1453 0939 1C       		.byte	0x1c
 1454 093a 12       		.uleb128 0x12
 1455 093b 7B050000 		.4byte	.LASF129
 1456 093f 0E       		.byte	0xe
 1457 0940 8C01     		.2byte	0x18c
 1458 0942 C3000000 		.4byte	0xc3
 1459 0946 20       		.byte	0x20
 1460 0947 12       		.uleb128 0x12
 1461 0948 80050000 		.4byte	.LASF130
 1462 094c 0E       		.byte	0xe
 1463 094d 9101     		.2byte	0x191
 1464 094f C3000000 		.4byte	0xc3
 1465 0953 24       		.byte	0x24
 1466 0954 00       		.byte	0
 1467 0955 13       		.uleb128 0x13
 1468 0956 68060000 		.4byte	.LASF131
 1469 095a 0E       		.byte	0xe
 1470 095b 9201     		.2byte	0x192
 1471 095d BC080000 		.4byte	0x8bc
 1472 0961 11       		.uleb128 0x11
 1473 0962 04       		.byte	0x4
 1474 0963 0E       		.byte	0xe
 1475 0964 9801     		.2byte	0x198
ARM GAS  /tmp/ccIBcRc0.s 			page 27


 1476 0966 78090000 		.4byte	0x978
 1477 096a 12       		.uleb128 0x12
 1478 096b 9E010000 		.4byte	.LASF132
 1479 096f 0E       		.byte	0xe
 1480 0970 9901     		.2byte	0x199
 1481 0972 C3000000 		.4byte	0xc3
 1482 0976 00       		.byte	0
 1483 0977 00       		.byte	0
 1484 0978 13       		.uleb128 0x13
 1485 0979 25050000 		.4byte	.LASF133
 1486 097d 0E       		.byte	0xe
 1487 097e 9A01     		.2byte	0x19a
 1488 0980 61090000 		.4byte	0x961
 1489 0984 09       		.uleb128 0x9
 1490 0985 04       		.byte	0x4
 1491 0986 8A090000 		.4byte	0x98a
 1492 098a 10       		.uleb128 0x10
 1493 098b 78090000 		.4byte	0x978
 1494 098f 09       		.uleb128 0x9
 1495 0990 04       		.byte	0x4
 1496 0991 95090000 		.4byte	0x995
 1497 0995 10       		.uleb128 0x10
 1498 0996 55090000 		.4byte	0x955
 1499 099a 09       		.uleb128 0x9
 1500 099b 04       		.byte	0x4
 1501 099c 9A050000 		.4byte	0x59a
 1502 09a0 09       		.uleb128 0x9
 1503 09a1 04       		.byte	0x4
 1504 09a2 A6090000 		.4byte	0x9a6
 1505 09a6 10       		.uleb128 0x10
 1506 09a7 5A060000 		.4byte	0x65a
 1507 09ab 1A       		.uleb128 0x1a
 1508 09ac EB040000 		.4byte	.LASF134
 1509 09b0 01       		.byte	0x1
 1510 09b1 1B       		.byte	0x1b
 1511 09b2 00000000 		.4byte	.LFB118
 1512 09b6 0C000000 		.4byte	.LFE118-.LFB118
 1513 09ba 01       		.uleb128 0x1
 1514 09bb 9C       		.byte	0x9c
 1515 09bc D4090000 		.4byte	0x9d4
 1516 09c0 1B       		.uleb128 0x1b
 1517 09c1 06000000 		.4byte	.LVL0
 1518 09c5 820C0000 		.4byte	0xc82
 1519 09c9 1C       		.uleb128 0x1c
 1520 09ca 01       		.uleb128 0x1
 1521 09cb 50       		.byte	0x50
 1522 09cc 05       		.uleb128 0x5
 1523 09cd 03       		.byte	0x3
 1524 09ce 00000000 		.4byte	.LANCHOR0
 1525 09d2 00       		.byte	0
 1526 09d3 00       		.byte	0
 1527 09d4 1A       		.uleb128 0x1a
 1528 09d5 3C060000 		.4byte	.LASF135
 1529 09d9 01       		.byte	0x1
 1530 09da 2C       		.byte	0x2c
 1531 09db 00000000 		.4byte	.LFB120
 1532 09df B0000000 		.4byte	.LFE120-.LFB120
ARM GAS  /tmp/ccIBcRc0.s 			page 28


 1533 09e3 01       		.uleb128 0x1
 1534 09e4 9C       		.byte	0x9c
 1535 09e5 A10B0000 		.4byte	0xba1
 1536 09e9 1D       		.uleb128 0x1d
 1537 09ea 12000000 		.4byte	.LVL1
 1538 09ee 930C0000 		.4byte	0xc93
 1539 09f2 070A0000 		.4byte	0xa07
 1540 09f6 1C       		.uleb128 0x1c
 1541 09f7 01       		.uleb128 0x1
 1542 09f8 52       		.byte	0x52
 1543 09f9 01       		.uleb128 0x1
 1544 09fa 33       		.byte	0x33
 1545 09fb 1C       		.uleb128 0x1c
 1546 09fc 01       		.uleb128 0x1
 1547 09fd 51       		.byte	0x51
 1548 09fe 01       		.uleb128 0x1
 1549 09ff 31       		.byte	0x31
 1550 0a00 1C       		.uleb128 0x1c
 1551 0a01 01       		.uleb128 0x1
 1552 0a02 50       		.byte	0x50
 1553 0a03 02       		.uleb128 0x2
 1554 0a04 74       		.byte	0x74
 1555 0a05 00       		.sleb128 0
 1556 0a06 00       		.byte	0
 1557 0a07 1D       		.uleb128 0x1d
 1558 0a08 1C000000 		.4byte	.LVL2
 1559 0a0c 930C0000 		.4byte	0xc93
 1560 0a10 250A0000 		.4byte	0xa25
 1561 0a14 1C       		.uleb128 0x1c
 1562 0a15 01       		.uleb128 0x1
 1563 0a16 52       		.byte	0x52
 1564 0a17 01       		.uleb128 0x1
 1565 0a18 33       		.byte	0x33
 1566 0a19 1C       		.uleb128 0x1c
 1567 0a1a 01       		.uleb128 0x1
 1568 0a1b 51       		.byte	0x51
 1569 0a1c 01       		.uleb128 0x1
 1570 0a1d 32       		.byte	0x32
 1571 0a1e 1C       		.uleb128 0x1c
 1572 0a1f 01       		.uleb128 0x1
 1573 0a20 50       		.byte	0x50
 1574 0a21 02       		.uleb128 0x2
 1575 0a22 74       		.byte	0x74
 1576 0a23 00       		.sleb128 0
 1577 0a24 00       		.byte	0
 1578 0a25 1D       		.uleb128 0x1d
 1579 0a26 26000000 		.4byte	.LVL3
 1580 0a2a 930C0000 		.4byte	0xc93
 1581 0a2e 430A0000 		.4byte	0xa43
 1582 0a32 1C       		.uleb128 0x1c
 1583 0a33 01       		.uleb128 0x1
 1584 0a34 52       		.byte	0x52
 1585 0a35 01       		.uleb128 0x1
 1586 0a36 33       		.byte	0x33
 1587 0a37 1C       		.uleb128 0x1c
 1588 0a38 01       		.uleb128 0x1
 1589 0a39 51       		.byte	0x51
ARM GAS  /tmp/ccIBcRc0.s 			page 29


 1590 0a3a 01       		.uleb128 0x1
 1591 0a3b 34       		.byte	0x34
 1592 0a3c 1C       		.uleb128 0x1c
 1593 0a3d 01       		.uleb128 0x1
 1594 0a3e 50       		.byte	0x50
 1595 0a3f 02       		.uleb128 0x2
 1596 0a40 74       		.byte	0x74
 1597 0a41 00       		.sleb128 0
 1598 0a42 00       		.byte	0
 1599 0a43 1D       		.uleb128 0x1d
 1600 0a44 30000000 		.4byte	.LVL4
 1601 0a48 930C0000 		.4byte	0xc93
 1602 0a4c 610A0000 		.4byte	0xa61
 1603 0a50 1C       		.uleb128 0x1c
 1604 0a51 01       		.uleb128 0x1
 1605 0a52 52       		.byte	0x52
 1606 0a53 01       		.uleb128 0x1
 1607 0a54 33       		.byte	0x33
 1608 0a55 1C       		.uleb128 0x1c
 1609 0a56 01       		.uleb128 0x1
 1610 0a57 51       		.byte	0x51
 1611 0a58 01       		.uleb128 0x1
 1612 0a59 38       		.byte	0x38
 1613 0a5a 1C       		.uleb128 0x1c
 1614 0a5b 01       		.uleb128 0x1
 1615 0a5c 50       		.byte	0x50
 1616 0a5d 02       		.uleb128 0x2
 1617 0a5e 74       		.byte	0x74
 1618 0a5f 00       		.sleb128 0
 1619 0a60 00       		.byte	0
 1620 0a61 1D       		.uleb128 0x1d
 1621 0a62 3A000000 		.4byte	.LVL5
 1622 0a66 930C0000 		.4byte	0xc93
 1623 0a6a 800A0000 		.4byte	0xa80
 1624 0a6e 1C       		.uleb128 0x1c
 1625 0a6f 01       		.uleb128 0x1
 1626 0a70 52       		.byte	0x52
 1627 0a71 01       		.uleb128 0x1
 1628 0a72 33       		.byte	0x33
 1629 0a73 1C       		.uleb128 0x1c
 1630 0a74 01       		.uleb128 0x1
 1631 0a75 51       		.byte	0x51
 1632 0a76 02       		.uleb128 0x2
 1633 0a77 08       		.byte	0x8
 1634 0a78 20       		.byte	0x20
 1635 0a79 1C       		.uleb128 0x1c
 1636 0a7a 01       		.uleb128 0x1
 1637 0a7b 50       		.byte	0x50
 1638 0a7c 02       		.uleb128 0x2
 1639 0a7d 74       		.byte	0x74
 1640 0a7e 00       		.sleb128 0
 1641 0a7f 00       		.byte	0
 1642 0a80 1D       		.uleb128 0x1d
 1643 0a81 44000000 		.4byte	.LVL6
 1644 0a85 930C0000 		.4byte	0xc93
 1645 0a89 9F0A0000 		.4byte	0xa9f
 1646 0a8d 1C       		.uleb128 0x1c
ARM GAS  /tmp/ccIBcRc0.s 			page 30


 1647 0a8e 01       		.uleb128 0x1
 1648 0a8f 52       		.byte	0x52
 1649 0a90 01       		.uleb128 0x1
 1650 0a91 33       		.byte	0x33
 1651 0a92 1C       		.uleb128 0x1c
 1652 0a93 01       		.uleb128 0x1
 1653 0a94 51       		.byte	0x51
 1654 0a95 02       		.uleb128 0x2
 1655 0a96 08       		.byte	0x8
 1656 0a97 40       		.byte	0x40
 1657 0a98 1C       		.uleb128 0x1c
 1658 0a99 01       		.uleb128 0x1
 1659 0a9a 50       		.byte	0x50
 1660 0a9b 02       		.uleb128 0x2
 1661 0a9c 74       		.byte	0x74
 1662 0a9d 00       		.sleb128 0
 1663 0a9e 00       		.byte	0
 1664 0a9f 1D       		.uleb128 0x1d
 1665 0aa0 4E000000 		.4byte	.LVL7
 1666 0aa4 930C0000 		.4byte	0xc93
 1667 0aa8 BE0A0000 		.4byte	0xabe
 1668 0aac 1C       		.uleb128 0x1c
 1669 0aad 01       		.uleb128 0x1
 1670 0aae 52       		.byte	0x52
 1671 0aaf 01       		.uleb128 0x1
 1672 0ab0 33       		.byte	0x33
 1673 0ab1 1C       		.uleb128 0x1c
 1674 0ab2 01       		.uleb128 0x1
 1675 0ab3 51       		.byte	0x51
 1676 0ab4 02       		.uleb128 0x2
 1677 0ab5 08       		.byte	0x8
 1678 0ab6 80       		.byte	0x80
 1679 0ab7 1C       		.uleb128 0x1c
 1680 0ab8 01       		.uleb128 0x1
 1681 0ab9 50       		.byte	0x50
 1682 0aba 02       		.uleb128 0x2
 1683 0abb 74       		.byte	0x74
 1684 0abc 00       		.sleb128 0
 1685 0abd 00       		.byte	0
 1686 0abe 1D       		.uleb128 0x1d
 1687 0abf 58000000 		.4byte	.LVL8
 1688 0ac3 930C0000 		.4byte	0xc93
 1689 0ac7 DC0A0000 		.4byte	0xadc
 1690 0acb 1C       		.uleb128 0x1c
 1691 0acc 01       		.uleb128 0x1
 1692 0acd 52       		.byte	0x52
 1693 0ace 01       		.uleb128 0x1
 1694 0acf 33       		.byte	0x33
 1695 0ad0 1C       		.uleb128 0x1c
 1696 0ad1 01       		.uleb128 0x1
 1697 0ad2 51       		.byte	0x51
 1698 0ad3 01       		.uleb128 0x1
 1699 0ad4 31       		.byte	0x31
 1700 0ad5 1C       		.uleb128 0x1c
 1701 0ad6 01       		.uleb128 0x1
 1702 0ad7 50       		.byte	0x50
 1703 0ad8 02       		.uleb128 0x2
ARM GAS  /tmp/ccIBcRc0.s 			page 31


 1704 0ad9 76       		.byte	0x76
 1705 0ada 00       		.sleb128 0
 1706 0adb 00       		.byte	0
 1707 0adc 1D       		.uleb128 0x1d
 1708 0add 62000000 		.4byte	.LVL9
 1709 0ae1 930C0000 		.4byte	0xc93
 1710 0ae5 FA0A0000 		.4byte	0xafa
 1711 0ae9 1C       		.uleb128 0x1c
 1712 0aea 01       		.uleb128 0x1
 1713 0aeb 52       		.byte	0x52
 1714 0aec 01       		.uleb128 0x1
 1715 0aed 33       		.byte	0x33
 1716 0aee 1C       		.uleb128 0x1c
 1717 0aef 01       		.uleb128 0x1
 1718 0af0 51       		.byte	0x51
 1719 0af1 01       		.uleb128 0x1
 1720 0af2 32       		.byte	0x32
 1721 0af3 1C       		.uleb128 0x1c
 1722 0af4 01       		.uleb128 0x1
 1723 0af5 50       		.byte	0x50
 1724 0af6 02       		.uleb128 0x2
 1725 0af7 76       		.byte	0x76
 1726 0af8 00       		.sleb128 0
 1727 0af9 00       		.byte	0
 1728 0afa 1D       		.uleb128 0x1d
 1729 0afb 6C000000 		.4byte	.LVL10
 1730 0aff 930C0000 		.4byte	0xc93
 1731 0b03 180B0000 		.4byte	0xb18
 1732 0b07 1C       		.uleb128 0x1c
 1733 0b08 01       		.uleb128 0x1
 1734 0b09 52       		.byte	0x52
 1735 0b0a 01       		.uleb128 0x1
 1736 0b0b 33       		.byte	0x33
 1737 0b0c 1C       		.uleb128 0x1c
 1738 0b0d 01       		.uleb128 0x1
 1739 0b0e 51       		.byte	0x51
 1740 0b0f 01       		.uleb128 0x1
 1741 0b10 32       		.byte	0x32
 1742 0b11 1C       		.uleb128 0x1c
 1743 0b12 01       		.uleb128 0x1
 1744 0b13 50       		.byte	0x50
 1745 0b14 02       		.uleb128 0x2
 1746 0b15 75       		.byte	0x75
 1747 0b16 00       		.sleb128 0
 1748 0b17 00       		.byte	0
 1749 0b18 1D       		.uleb128 0x1d
 1750 0b19 76000000 		.4byte	.LVL11
 1751 0b1d 930C0000 		.4byte	0xc93
 1752 0b21 360B0000 		.4byte	0xb36
 1753 0b25 1C       		.uleb128 0x1c
 1754 0b26 01       		.uleb128 0x1
 1755 0b27 52       		.byte	0x52
 1756 0b28 01       		.uleb128 0x1
 1757 0b29 33       		.byte	0x33
 1758 0b2a 1C       		.uleb128 0x1c
 1759 0b2b 01       		.uleb128 0x1
 1760 0b2c 51       		.byte	0x51
ARM GAS  /tmp/ccIBcRc0.s 			page 32


 1761 0b2d 01       		.uleb128 0x1
 1762 0b2e 34       		.byte	0x34
 1763 0b2f 1C       		.uleb128 0x1c
 1764 0b30 01       		.uleb128 0x1
 1765 0b31 50       		.byte	0x50
 1766 0b32 02       		.uleb128 0x2
 1767 0b33 75       		.byte	0x75
 1768 0b34 00       		.sleb128 0
 1769 0b35 00       		.byte	0
 1770 0b36 1D       		.uleb128 0x1d
 1771 0b37 80000000 		.4byte	.LVL12
 1772 0b3b 930C0000 		.4byte	0xc93
 1773 0b3f 540B0000 		.4byte	0xb54
 1774 0b43 1C       		.uleb128 0x1c
 1775 0b44 01       		.uleb128 0x1
 1776 0b45 52       		.byte	0x52
 1777 0b46 01       		.uleb128 0x1
 1778 0b47 33       		.byte	0x33
 1779 0b48 1C       		.uleb128 0x1c
 1780 0b49 01       		.uleb128 0x1
 1781 0b4a 51       		.byte	0x51
 1782 0b4b 01       		.uleb128 0x1
 1783 0b4c 38       		.byte	0x38
 1784 0b4d 1C       		.uleb128 0x1c
 1785 0b4e 01       		.uleb128 0x1
 1786 0b4f 50       		.byte	0x50
 1787 0b50 02       		.uleb128 0x2
 1788 0b51 75       		.byte	0x75
 1789 0b52 00       		.sleb128 0
 1790 0b53 00       		.byte	0
 1791 0b54 1D       		.uleb128 0x1d
 1792 0b55 8A000000 		.4byte	.LVL13
 1793 0b59 930C0000 		.4byte	0xc93
 1794 0b5d 720B0000 		.4byte	0xb72
 1795 0b61 1C       		.uleb128 0x1c
 1796 0b62 01       		.uleb128 0x1
 1797 0b63 52       		.byte	0x52
 1798 0b64 01       		.uleb128 0x1
 1799 0b65 33       		.byte	0x33
 1800 0b66 1C       		.uleb128 0x1c
 1801 0b67 01       		.uleb128 0x1
 1802 0b68 51       		.byte	0x51
 1803 0b69 01       		.uleb128 0x1
 1804 0b6a 40       		.byte	0x40
 1805 0b6b 1C       		.uleb128 0x1c
 1806 0b6c 01       		.uleb128 0x1
 1807 0b6d 50       		.byte	0x50
 1808 0b6e 02       		.uleb128 0x2
 1809 0b6f 75       		.byte	0x75
 1810 0b70 00       		.sleb128 0
 1811 0b71 00       		.byte	0
 1812 0b72 1D       		.uleb128 0x1d
 1813 0b73 94000000 		.4byte	.LVL14
 1814 0b77 930C0000 		.4byte	0xc93
 1815 0b7b 910B0000 		.4byte	0xb91
 1816 0b7f 1C       		.uleb128 0x1c
 1817 0b80 01       		.uleb128 0x1
ARM GAS  /tmp/ccIBcRc0.s 			page 33


 1818 0b81 52       		.byte	0x52
 1819 0b82 01       		.uleb128 0x1
 1820 0b83 33       		.byte	0x33
 1821 0b84 1C       		.uleb128 0x1c
 1822 0b85 01       		.uleb128 0x1
 1823 0b86 51       		.byte	0x51
 1824 0b87 02       		.uleb128 0x2
 1825 0b88 08       		.byte	0x8
 1826 0b89 20       		.byte	0x20
 1827 0b8a 1C       		.uleb128 0x1c
 1828 0b8b 01       		.uleb128 0x1
 1829 0b8c 50       		.byte	0x50
 1830 0b8d 02       		.uleb128 0x2
 1831 0b8e 75       		.byte	0x75
 1832 0b8f 00       		.sleb128 0
 1833 0b90 00       		.byte	0
 1834 0b91 1B       		.uleb128 0x1b
 1835 0b92 A0000000 		.4byte	.LVL15
 1836 0b96 AF0C0000 		.4byte	0xcaf
 1837 0b9a 1C       		.uleb128 0x1c
 1838 0b9b 01       		.uleb128 0x1
 1839 0b9c 51       		.byte	0x51
 1840 0b9d 01       		.uleb128 0x1
 1841 0b9e 30       		.byte	0x30
 1842 0b9f 00       		.byte	0
 1843 0ba0 00       		.byte	0
 1844 0ba1 1A       		.uleb128 0x1a
 1845 0ba2 5B000000 		.4byte	.LASF136
 1846 0ba6 01       		.byte	0x1
 1847 0ba7 26       		.byte	0x26
 1848 0ba8 00000000 		.4byte	.LFB119
 1849 0bac 1C000000 		.4byte	.LFE119-.LFB119
 1850 0bb0 01       		.uleb128 0x1
 1851 0bb1 9C       		.byte	0x9c
 1852 0bb2 DC0B0000 		.4byte	0xbdc
 1853 0bb6 1E       		.uleb128 0x1e
 1854 0bb7 06000000 		.4byte	.LVL16
 1855 0bbb D4090000 		.4byte	0x9d4
 1856 0bbf 1D       		.uleb128 0x1d
 1857 0bc0 0E000000 		.4byte	.LVL17
 1858 0bc4 AF0C0000 		.4byte	0xcaf
 1859 0bc8 D20B0000 		.4byte	0xbd2
 1860 0bcc 1C       		.uleb128 0x1c
 1861 0bcd 01       		.uleb128 0x1
 1862 0bce 51       		.byte	0x51
 1863 0bcf 01       		.uleb128 0x1
 1864 0bd0 30       		.byte	0x30
 1865 0bd1 00       		.byte	0
 1866 0bd2 1F       		.uleb128 0x1f
 1867 0bd3 16000000 		.4byte	.LVL18
 1868 0bd7 C60C0000 		.4byte	0xcc6
 1869 0bdb 00       		.byte	0
 1870 0bdc 1A       		.uleb128 0x1a
 1871 0bdd AF000000 		.4byte	.LASF137
 1872 0be1 01       		.byte	0x1
 1873 0be2 67       		.byte	0x67
 1874 0be3 00000000 		.4byte	.LFB121
ARM GAS  /tmp/ccIBcRc0.s 			page 34


 1875 0be7 28000000 		.4byte	.LFE121-.LFB121
 1876 0beb 01       		.uleb128 0x1
 1877 0bec 9C       		.byte	0x9c
 1878 0bed 270C0000 		.4byte	0xc27
 1879 0bf1 1D       		.uleb128 0x1d
 1880 0bf2 0A000000 		.4byte	.LVL19
 1881 0bf6 CE0C0000 		.4byte	0xcce
 1882 0bfa 050C0000 		.4byte	0xc05
 1883 0bfe 1C       		.uleb128 0x1c
 1884 0bff 01       		.uleb128 0x1
 1885 0c00 50       		.byte	0x50
 1886 0c01 02       		.uleb128 0x2
 1887 0c02 74       		.byte	0x74
 1888 0c03 00       		.sleb128 0
 1889 0c04 00       		.byte	0
 1890 0c05 1B       		.uleb128 0x1b
 1891 0c06 1A000000 		.4byte	.LVL20
 1892 0c0a E00C0000 		.4byte	0xce0
 1893 0c0e 1C       		.uleb128 0x1c
 1894 0c0f 01       		.uleb128 0x1
 1895 0c10 53       		.byte	0x53
 1896 0c11 01       		.uleb128 0x1
 1897 0c12 31       		.byte	0x31
 1898 0c13 1C       		.uleb128 0x1c
 1899 0c14 01       		.uleb128 0x1
 1900 0c15 52       		.byte	0x52
 1901 0c16 05       		.uleb128 0x5
 1902 0c17 03       		.byte	0x3
 1903 0c18 00000000 		.4byte	.LANCHOR2
 1904 0c1c 1C       		.uleb128 0x1c
 1905 0c1d 01       		.uleb128 0x1
 1906 0c1e 51       		.byte	0x51
 1907 0c1f 05       		.uleb128 0x5
 1908 0c20 03       		.byte	0x3
 1909 0c21 00000000 		.4byte	.LANCHOR1
 1910 0c25 00       		.byte	0
 1911 0c26 00       		.byte	0
 1912 0c27 20       		.uleb128 0x20
 1913 0c28 41020000 		.4byte	.LASF149
 1914 0c2c 01       		.byte	0x1
 1915 0c2d 4D       		.byte	0x4d
 1916 0c2e 95090000 		.4byte	0x995
 1917 0c32 05       		.uleb128 0x5
 1918 0c33 03       		.byte	0x3
 1919 0c34 00000000 		.4byte	adcgrpcfg1
 1920 0c38 21       		.uleb128 0x21
 1921 0c39 9B000000 		.4byte	.LASF138
 1922 0c3d 0F       		.byte	0xf
 1923 0c3e 9806     		.2byte	0x698
 1924 0c40 89040000 		.4byte	0x489
 1925 0c44 21       		.uleb128 0x21
 1926 0c45 1F050000 		.4byte	.LASF139
 1927 0c49 0E       		.byte	0xe
 1928 0c4a 1802     		.2byte	0x218
 1929 0c4c CB070000 		.4byte	0x7cb
 1930 0c50 22       		.uleb128 0x22
 1931 0c51 69000000 		.4byte	0x69
ARM GAS  /tmp/ccIBcRc0.s 			page 35


 1932 0c55 600C0000 		.4byte	0xc60
 1933 0c59 23       		.uleb128 0x23
 1934 0c5a EE030000 		.4byte	0x3ee
 1935 0c5e 0F       		.byte	0xf
 1936 0c5f 00       		.byte	0
 1937 0c60 24       		.uleb128 0x24
 1938 0c61 FF050000 		.4byte	.LASF140
 1939 0c65 01       		.byte	0x1
 1940 0c66 46       		.byte	0x46
 1941 0c67 500C0000 		.4byte	0xc50
 1942 0c6b 05       		.uleb128 0x5
 1943 0c6c 03       		.byte	0x3
 1944 0c6d 00000000 		.4byte	adcvalues
 1945 0c71 24       		.uleb128 0x24
 1946 0c72 57050000 		.4byte	.LASF141
 1947 0c76 01       		.byte	0x1
 1948 0c77 19       		.byte	0x19
 1949 0c78 31040000 		.4byte	0x431
 1950 0c7c 05       		.uleb128 0x5
 1951 0c7d 03       		.byte	0x3
 1952 0c7e 00000000 		.4byte	Mutex_DMAStream_1_7
 1953 0c82 25       		.uleb128 0x25
 1954 0c83 32060000 		.4byte	.LASF142
 1955 0c87 09       		.byte	0x9
 1956 0c88 38       		.byte	0x38
 1957 0c89 930C0000 		.4byte	0xc93
 1958 0c8d 19       		.uleb128 0x19
 1959 0c8e 83040000 		.4byte	0x483
 1960 0c92 00       		.byte	0
 1961 0c93 26       		.uleb128 0x26
 1962 0c94 D6050000 		.4byte	.LASF143
 1963 0c98 0C       		.byte	0xc
 1964 0c99 C201     		.2byte	0x1c2
 1965 0c9b AF0C0000 		.4byte	0xcaf
 1966 0c9f 19       		.uleb128 0x19
 1967 0ca0 48070000 		.4byte	0x748
 1968 0ca4 19       		.uleb128 0x19
 1969 0ca5 32070000 		.4byte	0x732
 1970 0ca9 19       		.uleb128 0x19
 1971 0caa 3D070000 		.4byte	0x73d
 1972 0cae 00       		.byte	0
 1973 0caf 26       		.uleb128 0x26
 1974 0cb0 13040000 		.4byte	.LASF144
 1975 0cb4 0D       		.byte	0xd
 1976 0cb5 1E01     		.2byte	0x11e
 1977 0cb7 C60C0000 		.4byte	0xcc6
 1978 0cbb 19       		.uleb128 0x19
 1979 0cbc 8E080000 		.4byte	0x88e
 1980 0cc0 19       		.uleb128 0x19
 1981 0cc1 84090000 		.4byte	0x984
 1982 0cc5 00       		.byte	0
 1983 0cc6 27       		.uleb128 0x27
 1984 0cc7 3E000000 		.4byte	.LASF150
 1985 0ccb 0E       		.byte	0xe
 1986 0ccc 2B02     		.2byte	0x22b
 1987 0cce 26       		.uleb128 0x26
 1988 0ccf C9060000 		.4byte	.LASF145
ARM GAS  /tmp/ccIBcRc0.s 			page 36


 1989 0cd3 0D       		.byte	0xd
 1990 0cd4 2801     		.2byte	0x128
 1991 0cd6 E00C0000 		.4byte	0xce0
 1992 0cda 19       		.uleb128 0x19
 1993 0cdb 8E080000 		.4byte	0x88e
 1994 0cdf 00       		.byte	0
 1995 0ce0 28       		.uleb128 0x28
 1996 0ce1 EC050000 		.4byte	.LASF151
 1997 0ce5 0D       		.byte	0xd
 1998 0ce6 2001     		.2byte	0x120
 1999 0ce8 19       		.uleb128 0x19
 2000 0ce9 8E080000 		.4byte	0x88e
 2001 0ced 19       		.uleb128 0x19
 2002 0cee 8F090000 		.4byte	0x98f
 2003 0cf2 19       		.uleb128 0x19
 2004 0cf3 94080000 		.4byte	0x894
 2005 0cf7 19       		.uleb128 0x19
 2006 0cf8 2C000000 		.4byte	0x2c
 2007 0cfc 00       		.byte	0
 2008 0cfd 00       		.byte	0
 2009              		.section	.debug_abbrev,"",%progbits
 2010              	.Ldebug_abbrev0:
 2011 0000 01       		.uleb128 0x1
 2012 0001 11       		.uleb128 0x11
 2013 0002 01       		.byte	0x1
 2014 0003 25       		.uleb128 0x25
 2015 0004 0E       		.uleb128 0xe
 2016 0005 13       		.uleb128 0x13
 2017 0006 0B       		.uleb128 0xb
 2018 0007 03       		.uleb128 0x3
 2019 0008 0E       		.uleb128 0xe
 2020 0009 1B       		.uleb128 0x1b
 2021 000a 0E       		.uleb128 0xe
 2022 000b 55       		.uleb128 0x55
 2023 000c 17       		.uleb128 0x17
 2024 000d 11       		.uleb128 0x11
 2025 000e 01       		.uleb128 0x1
 2026 000f 10       		.uleb128 0x10
 2027 0010 17       		.uleb128 0x17
 2028 0011 00       		.byte	0
 2029 0012 00       		.byte	0
 2030 0013 02       		.uleb128 0x2
 2031 0014 24       		.uleb128 0x24
 2032 0015 00       		.byte	0
 2033 0016 0B       		.uleb128 0xb
 2034 0017 0B       		.uleb128 0xb
 2035 0018 3E       		.uleb128 0x3e
 2036 0019 0B       		.uleb128 0xb
 2037 001a 03       		.uleb128 0x3
 2038 001b 08       		.uleb128 0x8
 2039 001c 00       		.byte	0
 2040 001d 00       		.byte	0
 2041 001e 03       		.uleb128 0x3
 2042 001f 16       		.uleb128 0x16
 2043 0020 00       		.byte	0
 2044 0021 03       		.uleb128 0x3
 2045 0022 0E       		.uleb128 0xe
ARM GAS  /tmp/ccIBcRc0.s 			page 37


 2046 0023 3A       		.uleb128 0x3a
 2047 0024 0B       		.uleb128 0xb
 2048 0025 3B       		.uleb128 0x3b
 2049 0026 0B       		.uleb128 0xb
 2050 0027 49       		.uleb128 0x49
 2051 0028 13       		.uleb128 0x13
 2052 0029 00       		.byte	0
 2053 002a 00       		.byte	0
 2054 002b 04       		.uleb128 0x4
 2055 002c 24       		.uleb128 0x24
 2056 002d 00       		.byte	0
 2057 002e 0B       		.uleb128 0xb
 2058 002f 0B       		.uleb128 0xb
 2059 0030 3E       		.uleb128 0x3e
 2060 0031 0B       		.uleb128 0xb
 2061 0032 03       		.uleb128 0x3
 2062 0033 0E       		.uleb128 0xe
 2063 0034 00       		.byte	0
 2064 0035 00       		.byte	0
 2065 0036 05       		.uleb128 0x5
 2066 0037 13       		.uleb128 0x13
 2067 0038 01       		.byte	0x1
 2068 0039 03       		.uleb128 0x3
 2069 003a 0E       		.uleb128 0xe
 2070 003b 0B       		.uleb128 0xb
 2071 003c 0B       		.uleb128 0xb
 2072 003d 3A       		.uleb128 0x3a
 2073 003e 0B       		.uleb128 0xb
 2074 003f 3B       		.uleb128 0x3b
 2075 0040 0B       		.uleb128 0xb
 2076 0041 01       		.uleb128 0x1
 2077 0042 13       		.uleb128 0x13
 2078 0043 00       		.byte	0
 2079 0044 00       		.byte	0
 2080 0045 06       		.uleb128 0x6
 2081 0046 0D       		.uleb128 0xd
 2082 0047 00       		.byte	0
 2083 0048 03       		.uleb128 0x3
 2084 0049 0E       		.uleb128 0xe
 2085 004a 3A       		.uleb128 0x3a
 2086 004b 0B       		.uleb128 0xb
 2087 004c 3B       		.uleb128 0x3b
 2088 004d 0B       		.uleb128 0xb
 2089 004e 49       		.uleb128 0x49
 2090 004f 13       		.uleb128 0x13
 2091 0050 38       		.uleb128 0x38
 2092 0051 0B       		.uleb128 0xb
 2093 0052 00       		.byte	0
 2094 0053 00       		.byte	0
 2095 0054 07       		.uleb128 0x7
 2096 0055 0D       		.uleb128 0xd
 2097 0056 00       		.byte	0
 2098 0057 03       		.uleb128 0x3
 2099 0058 08       		.uleb128 0x8
 2100 0059 3A       		.uleb128 0x3a
 2101 005a 0B       		.uleb128 0xb
 2102 005b 3B       		.uleb128 0x3b
ARM GAS  /tmp/ccIBcRc0.s 			page 38


 2103 005c 0B       		.uleb128 0xb
 2104 005d 49       		.uleb128 0x49
 2105 005e 13       		.uleb128 0x13
 2106 005f 38       		.uleb128 0x38
 2107 0060 0B       		.uleb128 0xb
 2108 0061 00       		.byte	0
 2109 0062 00       		.byte	0
 2110 0063 08       		.uleb128 0x8
 2111 0064 13       		.uleb128 0x13
 2112 0065 01       		.byte	0x1
 2113 0066 0B       		.uleb128 0xb
 2114 0067 0B       		.uleb128 0xb
 2115 0068 3A       		.uleb128 0x3a
 2116 0069 0B       		.uleb128 0xb
 2117 006a 3B       		.uleb128 0x3b
 2118 006b 0B       		.uleb128 0xb
 2119 006c 01       		.uleb128 0x1
 2120 006d 13       		.uleb128 0x13
 2121 006e 00       		.byte	0
 2122 006f 00       		.byte	0
 2123 0070 09       		.uleb128 0x9
 2124 0071 0F       		.uleb128 0xf
 2125 0072 00       		.byte	0
 2126 0073 0B       		.uleb128 0xb
 2127 0074 0B       		.uleb128 0xb
 2128 0075 49       		.uleb128 0x49
 2129 0076 13       		.uleb128 0x13
 2130 0077 00       		.byte	0
 2131 0078 00       		.byte	0
 2132 0079 0A       		.uleb128 0xa
 2133 007a 0F       		.uleb128 0xf
 2134 007b 00       		.byte	0
 2135 007c 0B       		.uleb128 0xb
 2136 007d 0B       		.uleb128 0xb
 2137 007e 00       		.byte	0
 2138 007f 00       		.byte	0
 2139 0080 0B       		.uleb128 0xb
 2140 0081 13       		.uleb128 0x13
 2141 0082 01       		.byte	0x1
 2142 0083 03       		.uleb128 0x3
 2143 0084 0E       		.uleb128 0xe
 2144 0085 0B       		.uleb128 0xb
 2145 0086 0B       		.uleb128 0xb
 2146 0087 3A       		.uleb128 0x3a
 2147 0088 0B       		.uleb128 0xb
 2148 0089 3B       		.uleb128 0x3b
 2149 008a 05       		.uleb128 0x5
 2150 008b 01       		.uleb128 0x1
 2151 008c 13       		.uleb128 0x13
 2152 008d 00       		.byte	0
 2153 008e 00       		.byte	0
 2154 008f 0C       		.uleb128 0xc
 2155 0090 0D       		.uleb128 0xd
 2156 0091 00       		.byte	0
 2157 0092 03       		.uleb128 0x3
 2158 0093 08       		.uleb128 0x8
 2159 0094 3A       		.uleb128 0x3a
ARM GAS  /tmp/ccIBcRc0.s 			page 39


 2160 0095 0B       		.uleb128 0xb
 2161 0096 3B       		.uleb128 0x3b
 2162 0097 05       		.uleb128 0x5
 2163 0098 49       		.uleb128 0x49
 2164 0099 13       		.uleb128 0x13
 2165 009a 38       		.uleb128 0x38
 2166 009b 0B       		.uleb128 0xb
 2167 009c 00       		.byte	0
 2168 009d 00       		.byte	0
 2169 009e 0D       		.uleb128 0xd
 2170 009f 35       		.uleb128 0x35
 2171 00a0 00       		.byte	0
 2172 00a1 49       		.uleb128 0x49
 2173 00a2 13       		.uleb128 0x13
 2174 00a3 00       		.byte	0
 2175 00a4 00       		.byte	0
 2176 00a5 0E       		.uleb128 0xe
 2177 00a6 17       		.uleb128 0x17
 2178 00a7 01       		.byte	0x1
 2179 00a8 0B       		.uleb128 0xb
 2180 00a9 0B       		.uleb128 0xb
 2181 00aa 3A       		.uleb128 0x3a
 2182 00ab 0B       		.uleb128 0xb
 2183 00ac 3B       		.uleb128 0x3b
 2184 00ad 0B       		.uleb128 0xb
 2185 00ae 01       		.uleb128 0x1
 2186 00af 13       		.uleb128 0x13
 2187 00b0 00       		.byte	0
 2188 00b1 00       		.byte	0
 2189 00b2 0F       		.uleb128 0xf
 2190 00b3 0D       		.uleb128 0xd
 2191 00b4 00       		.byte	0
 2192 00b5 03       		.uleb128 0x3
 2193 00b6 0E       		.uleb128 0xe
 2194 00b7 3A       		.uleb128 0x3a
 2195 00b8 0B       		.uleb128 0xb
 2196 00b9 3B       		.uleb128 0x3b
 2197 00ba 0B       		.uleb128 0xb
 2198 00bb 49       		.uleb128 0x49
 2199 00bc 13       		.uleb128 0x13
 2200 00bd 00       		.byte	0
 2201 00be 00       		.byte	0
 2202 00bf 10       		.uleb128 0x10
 2203 00c0 26       		.uleb128 0x26
 2204 00c1 00       		.byte	0
 2205 00c2 49       		.uleb128 0x49
 2206 00c3 13       		.uleb128 0x13
 2207 00c4 00       		.byte	0
 2208 00c5 00       		.byte	0
 2209 00c6 11       		.uleb128 0x11
 2210 00c7 13       		.uleb128 0x13
 2211 00c8 01       		.byte	0x1
 2212 00c9 0B       		.uleb128 0xb
 2213 00ca 0B       		.uleb128 0xb
 2214 00cb 3A       		.uleb128 0x3a
 2215 00cc 0B       		.uleb128 0xb
 2216 00cd 3B       		.uleb128 0x3b
ARM GAS  /tmp/ccIBcRc0.s 			page 40


 2217 00ce 05       		.uleb128 0x5
 2218 00cf 01       		.uleb128 0x1
 2219 00d0 13       		.uleb128 0x13
 2220 00d1 00       		.byte	0
 2221 00d2 00       		.byte	0
 2222 00d3 12       		.uleb128 0x12
 2223 00d4 0D       		.uleb128 0xd
 2224 00d5 00       		.byte	0
 2225 00d6 03       		.uleb128 0x3
 2226 00d7 0E       		.uleb128 0xe
 2227 00d8 3A       		.uleb128 0x3a
 2228 00d9 0B       		.uleb128 0xb
 2229 00da 3B       		.uleb128 0x3b
 2230 00db 05       		.uleb128 0x5
 2231 00dc 49       		.uleb128 0x49
 2232 00dd 13       		.uleb128 0x13
 2233 00de 38       		.uleb128 0x38
 2234 00df 0B       		.uleb128 0xb
 2235 00e0 00       		.byte	0
 2236 00e1 00       		.byte	0
 2237 00e2 13       		.uleb128 0x13
 2238 00e3 16       		.uleb128 0x16
 2239 00e4 00       		.byte	0
 2240 00e5 03       		.uleb128 0x3
 2241 00e6 0E       		.uleb128 0xe
 2242 00e7 3A       		.uleb128 0x3a
 2243 00e8 0B       		.uleb128 0xb
 2244 00e9 3B       		.uleb128 0x3b
 2245 00ea 05       		.uleb128 0x5
 2246 00eb 49       		.uleb128 0x49
 2247 00ec 13       		.uleb128 0x13
 2248 00ed 00       		.byte	0
 2249 00ee 00       		.byte	0
 2250 00ef 14       		.uleb128 0x14
 2251 00f0 0D       		.uleb128 0xd
 2252 00f1 00       		.byte	0
 2253 00f2 03       		.uleb128 0x3
 2254 00f3 08       		.uleb128 0x8
 2255 00f4 3A       		.uleb128 0x3a
 2256 00f5 0B       		.uleb128 0xb
 2257 00f6 3B       		.uleb128 0x3b
 2258 00f7 0B       		.uleb128 0xb
 2259 00f8 49       		.uleb128 0x49
 2260 00f9 13       		.uleb128 0x13
 2261 00fa 00       		.byte	0
 2262 00fb 00       		.byte	0
 2263 00fc 15       		.uleb128 0x15
 2264 00fd 04       		.uleb128 0x4
 2265 00fe 01       		.byte	0x1
 2266 00ff 0B       		.uleb128 0xb
 2267 0100 0B       		.uleb128 0xb
 2268 0101 3A       		.uleb128 0x3a
 2269 0102 0B       		.uleb128 0xb
 2270 0103 3B       		.uleb128 0x3b
 2271 0104 0B       		.uleb128 0xb
 2272 0105 01       		.uleb128 0x1
 2273 0106 13       		.uleb128 0x13
ARM GAS  /tmp/ccIBcRc0.s 			page 41


 2274 0107 00       		.byte	0
 2275 0108 00       		.byte	0
 2276 0109 16       		.uleb128 0x16
 2277 010a 28       		.uleb128 0x28
 2278 010b 00       		.byte	0
 2279 010c 03       		.uleb128 0x3
 2280 010d 0E       		.uleb128 0xe
 2281 010e 1C       		.uleb128 0x1c
 2282 010f 0D       		.uleb128 0xd
 2283 0110 00       		.byte	0
 2284 0111 00       		.byte	0
 2285 0112 17       		.uleb128 0x17
 2286 0113 04       		.uleb128 0x4
 2287 0114 01       		.byte	0x1
 2288 0115 0B       		.uleb128 0xb
 2289 0116 0B       		.uleb128 0xb
 2290 0117 3A       		.uleb128 0x3a
 2291 0118 0B       		.uleb128 0xb
 2292 0119 3B       		.uleb128 0x3b
 2293 011a 05       		.uleb128 0x5
 2294 011b 01       		.uleb128 0x1
 2295 011c 13       		.uleb128 0x13
 2296 011d 00       		.byte	0
 2297 011e 00       		.byte	0
 2298 011f 18       		.uleb128 0x18
 2299 0120 15       		.uleb128 0x15
 2300 0121 01       		.byte	0x1
 2301 0122 27       		.uleb128 0x27
 2302 0123 19       		.uleb128 0x19
 2303 0124 01       		.uleb128 0x1
 2304 0125 13       		.uleb128 0x13
 2305 0126 00       		.byte	0
 2306 0127 00       		.byte	0
 2307 0128 19       		.uleb128 0x19
 2308 0129 05       		.uleb128 0x5
 2309 012a 00       		.byte	0
 2310 012b 49       		.uleb128 0x49
 2311 012c 13       		.uleb128 0x13
 2312 012d 00       		.byte	0
 2313 012e 00       		.byte	0
 2314 012f 1A       		.uleb128 0x1a
 2315 0130 2E       		.uleb128 0x2e
 2316 0131 01       		.byte	0x1
 2317 0132 3F       		.uleb128 0x3f
 2318 0133 19       		.uleb128 0x19
 2319 0134 03       		.uleb128 0x3
 2320 0135 0E       		.uleb128 0xe
 2321 0136 3A       		.uleb128 0x3a
 2322 0137 0B       		.uleb128 0xb
 2323 0138 3B       		.uleb128 0x3b
 2324 0139 0B       		.uleb128 0xb
 2325 013a 27       		.uleb128 0x27
 2326 013b 19       		.uleb128 0x19
 2327 013c 11       		.uleb128 0x11
 2328 013d 01       		.uleb128 0x1
 2329 013e 12       		.uleb128 0x12
 2330 013f 06       		.uleb128 0x6
ARM GAS  /tmp/ccIBcRc0.s 			page 42


 2331 0140 40       		.uleb128 0x40
 2332 0141 18       		.uleb128 0x18
 2333 0142 9742     		.uleb128 0x2117
 2334 0144 19       		.uleb128 0x19
 2335 0145 01       		.uleb128 0x1
 2336 0146 13       		.uleb128 0x13
 2337 0147 00       		.byte	0
 2338 0148 00       		.byte	0
 2339 0149 1B       		.uleb128 0x1b
 2340 014a 898201   		.uleb128 0x4109
 2341 014d 01       		.byte	0x1
 2342 014e 11       		.uleb128 0x11
 2343 014f 01       		.uleb128 0x1
 2344 0150 9542     		.uleb128 0x2115
 2345 0152 19       		.uleb128 0x19
 2346 0153 31       		.uleb128 0x31
 2347 0154 13       		.uleb128 0x13
 2348 0155 00       		.byte	0
 2349 0156 00       		.byte	0
 2350 0157 1C       		.uleb128 0x1c
 2351 0158 8A8201   		.uleb128 0x410a
 2352 015b 00       		.byte	0
 2353 015c 02       		.uleb128 0x2
 2354 015d 18       		.uleb128 0x18
 2355 015e 9142     		.uleb128 0x2111
 2356 0160 18       		.uleb128 0x18
 2357 0161 00       		.byte	0
 2358 0162 00       		.byte	0
 2359 0163 1D       		.uleb128 0x1d
 2360 0164 898201   		.uleb128 0x4109
 2361 0167 01       		.byte	0x1
 2362 0168 11       		.uleb128 0x11
 2363 0169 01       		.uleb128 0x1
 2364 016a 31       		.uleb128 0x31
 2365 016b 13       		.uleb128 0x13
 2366 016c 01       		.uleb128 0x1
 2367 016d 13       		.uleb128 0x13
 2368 016e 00       		.byte	0
 2369 016f 00       		.byte	0
 2370 0170 1E       		.uleb128 0x1e
 2371 0171 898201   		.uleb128 0x4109
 2372 0174 00       		.byte	0
 2373 0175 11       		.uleb128 0x11
 2374 0176 01       		.uleb128 0x1
 2375 0177 31       		.uleb128 0x31
 2376 0178 13       		.uleb128 0x13
 2377 0179 00       		.byte	0
 2378 017a 00       		.byte	0
 2379 017b 1F       		.uleb128 0x1f
 2380 017c 898201   		.uleb128 0x4109
 2381 017f 00       		.byte	0
 2382 0180 11       		.uleb128 0x11
 2383 0181 01       		.uleb128 0x1
 2384 0182 9542     		.uleb128 0x2115
 2385 0184 19       		.uleb128 0x19
 2386 0185 31       		.uleb128 0x31
 2387 0186 13       		.uleb128 0x13
ARM GAS  /tmp/ccIBcRc0.s 			page 43


 2388 0187 00       		.byte	0
 2389 0188 00       		.byte	0
 2390 0189 20       		.uleb128 0x20
 2391 018a 34       		.uleb128 0x34
 2392 018b 00       		.byte	0
 2393 018c 03       		.uleb128 0x3
 2394 018d 0E       		.uleb128 0xe
 2395 018e 3A       		.uleb128 0x3a
 2396 018f 0B       		.uleb128 0xb
 2397 0190 3B       		.uleb128 0x3b
 2398 0191 0B       		.uleb128 0xb
 2399 0192 49       		.uleb128 0x49
 2400 0193 13       		.uleb128 0x13
 2401 0194 02       		.uleb128 0x2
 2402 0195 18       		.uleb128 0x18
 2403 0196 00       		.byte	0
 2404 0197 00       		.byte	0
 2405 0198 21       		.uleb128 0x21
 2406 0199 34       		.uleb128 0x34
 2407 019a 00       		.byte	0
 2408 019b 03       		.uleb128 0x3
 2409 019c 0E       		.uleb128 0xe
 2410 019d 3A       		.uleb128 0x3a
 2411 019e 0B       		.uleb128 0xb
 2412 019f 3B       		.uleb128 0x3b
 2413 01a0 05       		.uleb128 0x5
 2414 01a1 49       		.uleb128 0x49
 2415 01a2 13       		.uleb128 0x13
 2416 01a3 3F       		.uleb128 0x3f
 2417 01a4 19       		.uleb128 0x19
 2418 01a5 3C       		.uleb128 0x3c
 2419 01a6 19       		.uleb128 0x19
 2420 01a7 00       		.byte	0
 2421 01a8 00       		.byte	0
 2422 01a9 22       		.uleb128 0x22
 2423 01aa 01       		.uleb128 0x1
 2424 01ab 01       		.byte	0x1
 2425 01ac 49       		.uleb128 0x49
 2426 01ad 13       		.uleb128 0x13
 2427 01ae 01       		.uleb128 0x1
 2428 01af 13       		.uleb128 0x13
 2429 01b0 00       		.byte	0
 2430 01b1 00       		.byte	0
 2431 01b2 23       		.uleb128 0x23
 2432 01b3 21       		.uleb128 0x21
 2433 01b4 00       		.byte	0
 2434 01b5 49       		.uleb128 0x49
 2435 01b6 13       		.uleb128 0x13
 2436 01b7 2F       		.uleb128 0x2f
 2437 01b8 0B       		.uleb128 0xb
 2438 01b9 00       		.byte	0
 2439 01ba 00       		.byte	0
 2440 01bb 24       		.uleb128 0x24
 2441 01bc 34       		.uleb128 0x34
 2442 01bd 00       		.byte	0
 2443 01be 03       		.uleb128 0x3
 2444 01bf 0E       		.uleb128 0xe
ARM GAS  /tmp/ccIBcRc0.s 			page 44


 2445 01c0 3A       		.uleb128 0x3a
 2446 01c1 0B       		.uleb128 0xb
 2447 01c2 3B       		.uleb128 0x3b
 2448 01c3 0B       		.uleb128 0xb
 2449 01c4 49       		.uleb128 0x49
 2450 01c5 13       		.uleb128 0x13
 2451 01c6 3F       		.uleb128 0x3f
 2452 01c7 19       		.uleb128 0x19
 2453 01c8 02       		.uleb128 0x2
 2454 01c9 18       		.uleb128 0x18
 2455 01ca 00       		.byte	0
 2456 01cb 00       		.byte	0
 2457 01cc 25       		.uleb128 0x25
 2458 01cd 2E       		.uleb128 0x2e
 2459 01ce 01       		.byte	0x1
 2460 01cf 3F       		.uleb128 0x3f
 2461 01d0 19       		.uleb128 0x19
 2462 01d1 03       		.uleb128 0x3
 2463 01d2 0E       		.uleb128 0xe
 2464 01d3 3A       		.uleb128 0x3a
 2465 01d4 0B       		.uleb128 0xb
 2466 01d5 3B       		.uleb128 0x3b
 2467 01d6 0B       		.uleb128 0xb
 2468 01d7 27       		.uleb128 0x27
 2469 01d8 19       		.uleb128 0x19
 2470 01d9 3C       		.uleb128 0x3c
 2471 01da 19       		.uleb128 0x19
 2472 01db 01       		.uleb128 0x1
 2473 01dc 13       		.uleb128 0x13
 2474 01dd 00       		.byte	0
 2475 01de 00       		.byte	0
 2476 01df 26       		.uleb128 0x26
 2477 01e0 2E       		.uleb128 0x2e
 2478 01e1 01       		.byte	0x1
 2479 01e2 3F       		.uleb128 0x3f
 2480 01e3 19       		.uleb128 0x19
 2481 01e4 03       		.uleb128 0x3
 2482 01e5 0E       		.uleb128 0xe
 2483 01e6 3A       		.uleb128 0x3a
 2484 01e7 0B       		.uleb128 0xb
 2485 01e8 3B       		.uleb128 0x3b
 2486 01e9 05       		.uleb128 0x5
 2487 01ea 27       		.uleb128 0x27
 2488 01eb 19       		.uleb128 0x19
 2489 01ec 3C       		.uleb128 0x3c
 2490 01ed 19       		.uleb128 0x19
 2491 01ee 01       		.uleb128 0x1
 2492 01ef 13       		.uleb128 0x13
 2493 01f0 00       		.byte	0
 2494 01f1 00       		.byte	0
 2495 01f2 27       		.uleb128 0x27
 2496 01f3 2E       		.uleb128 0x2e
 2497 01f4 00       		.byte	0
 2498 01f5 3F       		.uleb128 0x3f
 2499 01f6 19       		.uleb128 0x19
 2500 01f7 03       		.uleb128 0x3
 2501 01f8 0E       		.uleb128 0xe
ARM GAS  /tmp/ccIBcRc0.s 			page 45


 2502 01f9 3A       		.uleb128 0x3a
 2503 01fa 0B       		.uleb128 0xb
 2504 01fb 3B       		.uleb128 0x3b
 2505 01fc 05       		.uleb128 0x5
 2506 01fd 27       		.uleb128 0x27
 2507 01fe 19       		.uleb128 0x19
 2508 01ff 3C       		.uleb128 0x3c
 2509 0200 19       		.uleb128 0x19
 2510 0201 00       		.byte	0
 2511 0202 00       		.byte	0
 2512 0203 28       		.uleb128 0x28
 2513 0204 2E       		.uleb128 0x2e
 2514 0205 01       		.byte	0x1
 2515 0206 3F       		.uleb128 0x3f
 2516 0207 19       		.uleb128 0x19
 2517 0208 03       		.uleb128 0x3
 2518 0209 0E       		.uleb128 0xe
 2519 020a 3A       		.uleb128 0x3a
 2520 020b 0B       		.uleb128 0xb
 2521 020c 3B       		.uleb128 0x3b
 2522 020d 05       		.uleb128 0x5
 2523 020e 27       		.uleb128 0x27
 2524 020f 19       		.uleb128 0x19
 2525 0210 3C       		.uleb128 0x3c
 2526 0211 19       		.uleb128 0x19
 2527 0212 00       		.byte	0
 2528 0213 00       		.byte	0
 2529 0214 00       		.byte	0
 2530              		.section	.debug_aranges,"",%progbits
 2531 0000 34000000 		.4byte	0x34
 2532 0004 0200     		.2byte	0x2
 2533 0006 00000000 		.4byte	.Ldebug_info0
 2534 000a 04       		.byte	0x4
 2535 000b 00       		.byte	0
 2536 000c 0000     		.2byte	0
 2537 000e 0000     		.2byte	0
 2538 0010 00000000 		.4byte	.LFB118
 2539 0014 0C000000 		.4byte	.LFE118-.LFB118
 2540 0018 00000000 		.4byte	.LFB120
 2541 001c B0000000 		.4byte	.LFE120-.LFB120
 2542 0020 00000000 		.4byte	.LFB119
 2543 0024 1C000000 		.4byte	.LFE119-.LFB119
 2544 0028 00000000 		.4byte	.LFB121
 2545 002c 28000000 		.4byte	.LFE121-.LFB121
 2546 0030 00000000 		.4byte	0
 2547 0034 00000000 		.4byte	0
 2548              		.section	.debug_ranges,"",%progbits
 2549              	.Ldebug_ranges0:
 2550 0000 00000000 		.4byte	.LFB118
 2551 0004 0C000000 		.4byte	.LFE118
 2552 0008 00000000 		.4byte	.LFB120
 2553 000c B0000000 		.4byte	.LFE120
 2554 0010 00000000 		.4byte	.LFB119
 2555 0014 1C000000 		.4byte	.LFE119
 2556 0018 00000000 		.4byte	.LFB121
 2557 001c 28000000 		.4byte	.LFE121
 2558 0020 00000000 		.4byte	0
ARM GAS  /tmp/ccIBcRc0.s 			page 46


 2559 0024 00000000 		.4byte	0
 2560              		.section	.debug_line,"",%progbits
 2561              	.Ldebug_line0:
 2562 0000 B9030000 		.section	.debug_str,"MS",%progbits,1
 2562      02005503 
 2562      00000201 
 2562      FB0E0D00 
 2562      01010101 
 2563              	.LASF76:
 2564 0000 4D304152 		.ascii	"M0AR\000"
 2564      00
 2565              	.LASF2:
 2566 0005 73697A65 		.ascii	"size_t\000"
 2566      5F7400
 2567              	.LASF55:
 2568 000c 7264796D 		.ascii	"rdymsg\000"
 2568      736700
 2569              	.LASF119:
 2570 0013 646D616D 		.ascii	"dmamode\000"
 2570      6F646500 
 2571              	.LASF104:
 2572 001b 61646373 		.ascii	"adcstate_t\000"
 2572      74617465 
 2572      5F7400
 2573              	.LASF83:
 2574 0026 76656374 		.ascii	"vector\000"
 2574      6F7200
 2575              	.LASF87:
 2576 002d 4F545950 		.ascii	"OTYPER\000"
 2576      455200
 2577              	.LASF3:
 2578 0034 5F5F7569 		.ascii	"__uint8_t\000"
 2578      6E74385F 
 2578      7400
 2579              	.LASF150:
 2580 003e 61646353 		.ascii	"adcSTM32EnableTSVREFE\000"
 2580      544D3332 
 2580      456E6162 
 2580      6C655453 
 2580      56524546 
 2581              	.LASF79:
 2582 0054 73747265 		.ascii	"stream\000"
 2582      616D00
 2583              	.LASF136:
 2584 005b 6164635F 		.ascii	"adc_init\000"
 2584      696E6974 
 2584      00
 2585              	.LASF86:
 2586 0064 4D4F4445 		.ascii	"MODER\000"
 2586      5200
 2587              	.LASF13:
 2588 006a 6C6F6E67 		.ascii	"long long unsigned int\000"
 2588      206C6F6E 
 2588      6720756E 
 2588      7369676E 
 2588      65642069 
 2589              	.LASF89:
ARM GAS  /tmp/ccIBcRc0.s 			page 47


 2590 0081 50555044 		.ascii	"PUPDR\000"
 2590      5200
 2591              	.LASF56:
 2592 0087 65786974 		.ascii	"exitcode\000"
 2592      636F6465 
 2592      00
 2593              	.LASF98:
 2594 0090 4144435F 		.ascii	"ADC_UNINIT\000"
 2594      554E494E 
 2594      495400
 2595              	.LASF138:
 2596 009b 49544D5F 		.ascii	"ITM_RxBuffer\000"
 2596      52784275 
 2596      66666572 
 2596      00
 2597              	.LASF30:
 2598 00a8 705F7072 		.ascii	"p_prio\000"
 2598      696F00
 2599              	.LASF137:
 2600 00af 6164635F 		.ascii	"adc_convert\000"
 2600      636F6E76 
 2600      65727400 
 2601              	.LASF12:
 2602 00bb 6C6F6E67 		.ascii	"long long int\000"
 2602      206C6F6E 
 2602      6720696E 
 2602      7400
 2603              	.LASF1:
 2604 00c9 7369676E 		.ascii	"signed char\000"
 2604      65642063 
 2604      68617200 
 2605              	.LASF90:
 2606 00d5 42535252 		.ascii	"BSRR\000"
 2606      00
 2607              	.LASF18:
 2608 00da 626F6F6C 		.ascii	"bool_t\000"
 2608      5F7400
 2609              	.LASF52:
 2610 00e1 6D5F7175 		.ascii	"m_queue\000"
 2610      65756500 
 2611              	.LASF109:
 2612 00e9 61646365 		.ascii	"adcerror_t\000"
 2612      72726F72 
 2612      5F7400
 2613              	.LASF118:
 2614 00f4 646D6173 		.ascii	"dmastp\000"
 2614      747000
 2615              	.LASF111:
 2616 00fb 73746174 		.ascii	"state\000"
 2616      6500
 2617              	.LASF122:
 2618 0101 63697263 		.ascii	"circular\000"
 2618      756C6172 
 2618      00
 2619              	.LASF9:
 2620 010a 6C6F6E67 		.ascii	"long int\000"
 2620      20696E74 
ARM GAS  /tmp/ccIBcRc0.s 			page 48


 2620      00
 2621              	.LASF107:
 2622 0113 4144435F 		.ascii	"ADC_ERR_DMAFAILURE\000"
 2622      4552525F 
 2622      444D4146 
 2622      41494C55 
 2622      524500
 2623              	.LASF121:
 2624 0126 61646365 		.ascii	"adcerrorcallback_t\000"
 2624      72726F72 
 2624      63616C6C 
 2624      6261636B 
 2624      5F7400
 2625              	.LASF21:
 2626 0139 74737461 		.ascii	"tstate_t\000"
 2626      74655F74 
 2626      00
 2627              	.LASF32:
 2628 0142 705F6E65 		.ascii	"p_newer\000"
 2628      77657200 
 2629              	.LASF124:
 2630 014a 656E645F 		.ascii	"end_cb\000"
 2630      636200
 2631              	.LASF120:
 2632 0151 61646363 		.ascii	"adccallback_t\000"
 2632      616C6C62 
 2632      61636B5F 
 2632      7400
 2633              	.LASF94:
 2634 015f 4750494F 		.ascii	"GPIO_TypeDef\000"
 2634      5F547970 
 2634      65446566 
 2634      00
 2635              	.LASF105:
 2636 016c 61646373 		.ascii	"adcsample_t\000"
 2636      616D706C 
 2636      655F7400 
 2637              	.LASF88:
 2638 0178 4F535045 		.ascii	"OSPEEDR\000"
 2638      45445200 
 2639              	.LASF10:
 2640 0180 5F5F7569 		.ascii	"__uint32_t\000"
 2640      6E743332 
 2640      5F7400
 2641              	.LASF47:
 2642 018b 72656761 		.ascii	"regarm_t\000"
 2642      726D5F74 
 2642      00
 2643              	.LASF82:
 2644 0194 73656C66 		.ascii	"selfindex\000"
 2644      696E6465 
 2644      7800
 2645              	.LASF132:
 2646 019e 64756D6D 		.ascii	"dummy\000"
 2646      7900
 2647              	.LASF108:
 2648 01a4 4144435F 		.ascii	"ADC_ERR_OVERFLOW\000"
ARM GAS  /tmp/ccIBcRc0.s 			page 49


 2648      4552525F 
 2648      4F564552 
 2648      464C4F57 
 2648      00
 2649              	.LASF101:
 2650 01b5 4144435F 		.ascii	"ADC_ACTIVE\000"
 2650      41435449 
 2650      564500
 2651              	.LASF0:
 2652 01c0 756E7369 		.ascii	"unsigned int\000"
 2652      676E6564 
 2652      20696E74 
 2652      00
 2653              	.LASF15:
 2654 01cd 75696E74 		.ascii	"uint16_t\000"
 2654      31365F74 
 2654      00
 2655              	.LASF38:
 2656 01d6 705F7469 		.ascii	"p_time\000"
 2656      6D6500
 2657              	.LASF148:
 2658 01dd 2F686F6D 		.ascii	"/home/sbcu/Dropbox/pcb-layouts/axo-on-discovery-boa"
 2658      652F7362 
 2658      63752F44 
 2658      726F7062 
 2658      6F782F70 
 2659 0210 72642F61 		.ascii	"rd/axoloti/firmware/flasher\000"
 2659      786F6C6F 
 2659      74692F66 
 2659      69726D77 
 2659      6172652F 
 2660              	.LASF40:
 2661 022c 705F6D73 		.ascii	"p_msgqueue\000"
 2661      67717565 
 2661      756500
 2662              	.LASF110:
 2663 0237 41444344 		.ascii	"ADCDriver\000"
 2663      72697665 
 2663      7200
 2664              	.LASF149:
 2665 0241 61646367 		.ascii	"adcgrpcfg1\000"
 2665      72706366 
 2665      673100
 2666              	.LASF91:
 2667 024c 4C434B52 		.ascii	"LCKR\000"
 2667      00
 2668              	.LASF81:
 2669 0251 69736869 		.ascii	"ishift\000"
 2669      667400
 2670              	.LASF7:
 2671 0258 73686F72 		.ascii	"short unsigned int\000"
 2671      7420756E 
 2671      7369676E 
 2671      65642069 
 2671      6E7400
 2672              	.LASF100:
 2673 026b 4144435F 		.ascii	"ADC_READY\000"
ARM GAS  /tmp/ccIBcRc0.s 			page 50


 2673      52454144 
 2673      5900
 2674              	.LASF114:
 2675 0275 64657074 		.ascii	"depth\000"
 2675      6800
 2676              	.LASF24:
 2677 027b 6D73675F 		.ascii	"msg_t\000"
 2677      7400
 2678              	.LASF20:
 2679 0281 746D6F64 		.ascii	"tmode_t\000"
 2679      655F7400 
 2680              	.LASF123:
 2681 0289 6E756D5F 		.ascii	"num_channels\000"
 2681      6368616E 
 2681      6E656C73 
 2681      00
 2682              	.LASF46:
 2683 0296 54687265 		.ascii	"ThreadsList\000"
 2683      6164734C 
 2683      69737400 
 2684              	.LASF25:
 2685 02a2 6576656E 		.ascii	"eventmask_t\000"
 2685      746D6173 
 2685      6B5F7400 
 2686              	.LASF146:
 2687 02ae 474E5520 		.ascii	"GNU C 4.9.3 20150529 (release) [ARM/embedded-4_9-br"
 2687      4320342E 
 2687      392E3320 
 2687      32303135 
 2687      30353239 
 2688 02e1 616E6368 		.ascii	"anch revision 224288] -mcpu=cortex-m4 -mfloat-abi=h"
 2688      20726576 
 2688      6973696F 
 2688      6E203232 
 2688      34323838 
 2689 0314 61726420 		.ascii	"ard -mfpu=fpv4-sp-d16 -mno-thumb-interwork -mthumb "
 2689      2D6D6670 
 2689      753D6670 
 2689      76342D73 
 2689      702D6431 
 2690 0347 2D676764 		.ascii	"-ggdb -O2 -fomit-frame-pointer -falign-functions=16"
 2690      62202D4F 
 2690      32202D66 
 2690      6F6D6974 
 2690      2D667261 
 2691 037a 202D6666 		.ascii	" -ffunction-sections -fdata-sections -fno-common -f"
 2691      756E6374 
 2691      696F6E2D 
 2691      73656374 
 2691      696F6E73 
 2692 03ad 73696E67 		.ascii	"single-precision-constant\000"
 2692      6C652D70 
 2692      72656369 
 2692      73696F6E 
 2692      2D636F6E 
 2693              	.LASF115:
 2694 03c7 67727070 		.ascii	"grpp\000"
ARM GAS  /tmp/ccIBcRc0.s 			page 51


 2694      00
 2695              	.LASF62:
 2696 03cc 4A4F4652 		.ascii	"JOFR1\000"
 2696      3100
 2697              	.LASF63:
 2698 03d2 4A4F4652 		.ascii	"JOFR2\000"
 2698      3200
 2699              	.LASF64:
 2700 03d8 4A4F4652 		.ascii	"JOFR3\000"
 2700      3300
 2701              	.LASF113:
 2702 03de 73616D70 		.ascii	"samples\000"
 2702      6C657300 
 2703              	.LASF69:
 2704 03e6 4A535152 		.ascii	"JSQR\000"
 2704      00
 2705              	.LASF50:
 2706 03eb 73697A65 		.ascii	"sizetype\000"
 2706      74797065 
 2706      00
 2707              	.LASF74:
 2708 03f4 4144435F 		.ascii	"ADC_TypeDef\000"
 2708      54797065 
 2708      44656600 
 2709              	.LASF51:
 2710 0400 4D757465 		.ascii	"Mutex\000"
 2710      7800
 2711              	.LASF95:
 2712 0406 696F706F 		.ascii	"ioportmask_t\000"
 2712      72746D61 
 2712      736B5F74 
 2712      00
 2713              	.LASF144:
 2714 0413 61646353 		.ascii	"adcStart\000"
 2714      74617274 
 2714      00
 2715              	.LASF33:
 2716 041c 705F6F6C 		.ascii	"p_older\000"
 2716      64657200 
 2717              	.LASF45:
 2718 0424 54687265 		.ascii	"ThreadsQueue\000"
 2718      61647351 
 2718      75657565 
 2718      00
 2719              	.LASF60:
 2720 0431 534D5052 		.ascii	"SMPR1\000"
 2720      3100
 2721              	.LASF61:
 2722 0437 534D5052 		.ascii	"SMPR2\000"
 2722      3200
 2723              	.LASF54:
 2724 043d 6D5F6E65 		.ascii	"m_next\000"
 2724      787400
 2725              	.LASF66:
 2726 0444 53515231 		.ascii	"SQR1\000"
 2726      00
 2727              	.LASF67:
ARM GAS  /tmp/ccIBcRc0.s 			page 52


 2728 0449 53515232 		.ascii	"SQR2\000"
 2728      00
 2729              	.LASF68:
 2730 044e 53515233 		.ascii	"SQR3\000"
 2730      00
 2731              	.LASF93:
 2732 0453 41465248 		.ascii	"AFRH\000"
 2732      00
 2733              	.LASF92:
 2734 0458 4146524C 		.ascii	"AFRL\000"
 2734      00
 2735              	.LASF80:
 2736 045d 69666372 		.ascii	"ifcr\000"
 2736      00
 2737              	.LASF29:
 2738 0462 705F7072 		.ascii	"p_prev\000"
 2738      657600
 2739              	.LASF84:
 2740 0469 73746D33 		.ascii	"stm32_dma_stream_t\000"
 2740      325F646D 
 2740      615F7374 
 2740      7265616D 
 2740      5F7400
 2741              	.LASF23:
 2742 047c 74707269 		.ascii	"tprio_t\000"
 2742      6F5F7400 
 2743              	.LASF117:
 2744 0484 6D757465 		.ascii	"mutex\000"
 2744      7800
 2745              	.LASF19:
 2746 048a 5F426F6F 		.ascii	"_Bool\000"
 2746      6C00
 2747              	.LASF16:
 2748 0490 696E7433 		.ascii	"int32_t\000"
 2748      325F7400 
 2749              	.LASF4:
 2750 0498 756E7369 		.ascii	"unsigned char\000"
 2750      676E6564 
 2750      20636861 
 2750      7200
 2751              	.LASF43:
 2752 04a6 705F6D74 		.ascii	"p_mtxlist\000"
 2752      786C6973 
 2752      7400
 2753              	.LASF5:
 2754 04b0 73686F72 		.ascii	"short int\000"
 2754      7420696E 
 2754      7400
 2755              	.LASF35:
 2756 04ba 705F7374 		.ascii	"p_state\000"
 2756      61746500 
 2757              	.LASF37:
 2758 04c2 705F7072 		.ascii	"p_preempt\000"
 2758      65656D70 
 2758      7400
 2759              	.LASF125:
 2760 04cc 6572726F 		.ascii	"error_cb\000"
ARM GAS  /tmp/ccIBcRc0.s 			page 53


 2760      725F6362 
 2760      00
 2761              	.LASF58:
 2762 04d5 65776D61 		.ascii	"ewmask\000"
 2762      736B00
 2763              	.LASF28:
 2764 04dc 705F6E65 		.ascii	"p_next\000"
 2764      787400
 2765              	.LASF36:
 2766 04e3 705F666C 		.ascii	"p_flags\000"
 2766      61677300 
 2767              	.LASF134:
 2768 04eb 61786F6C 		.ascii	"axoloti_board_init\000"
 2768      6F74695F 
 2768      626F6172 
 2768      645F696E 
 2768      697400
 2769              	.LASF27:
 2770 04fe 54687265 		.ascii	"Thread\000"
 2770      616400
 2771              	.LASF42:
 2772 0505 705F6570 		.ascii	"p_epending\000"
 2772      656E6469 
 2772      6E6700
 2773              	.LASF85:
 2774 0510 636C6561 		.ascii	"clear\000"
 2774      7200
 2775              	.LASF17:
 2776 0516 75696E74 		.ascii	"uint32_t\000"
 2776      33325F74 
 2776      00
 2777              	.LASF139:
 2778 051f 41444344 		.ascii	"ADCD1\000"
 2778      3100
 2779              	.LASF133:
 2780 0525 41444343 		.ascii	"ADCConfig\000"
 2780      6F6E6669 
 2780      6700
 2781              	.LASF22:
 2782 052f 74736C69 		.ascii	"tslices_t\000"
 2782      6365735F 
 2782      7400
 2783              	.LASF11:
 2784 0539 6C6F6E67 		.ascii	"long unsigned int\000"
 2784      20756E73 
 2784      69676E65 
 2784      6420696E 
 2784      7400
 2785              	.LASF59:
 2786 054b 63686172 		.ascii	"char\000"
 2786      00
 2787              	.LASF112:
 2788 0550 636F6E66 		.ascii	"config\000"
 2788      696700
 2789              	.LASF141:
 2790 0557 4D757465 		.ascii	"Mutex_DMAStream_1_7\000"
 2790      785F444D 
ARM GAS  /tmp/ccIBcRc0.s 			page 54


 2790      41537472 
 2790      65616D5F 
 2790      315F3700 
 2791              	.LASF6:
 2792 056b 5F5F7569 		.ascii	"__uint16_t\000"
 2792      6E743136 
 2792      5F7400
 2793              	.LASF128:
 2794 0576 73717231 		.ascii	"sqr1\000"
 2794      00
 2795              	.LASF129:
 2796 057b 73717232 		.ascii	"sqr2\000"
 2796      00
 2797              	.LASF130:
 2798 0580 73717233 		.ascii	"sqr3\000"
 2798      00
 2799              	.LASF26:
 2800 0585 73797374 		.ascii	"systime_t\000"
 2800      696D655F 
 2800      7400
 2801              	.LASF44:
 2802 058f 705F7265 		.ascii	"p_realprio\000"
 2802      616C7072 
 2802      696F00
 2803              	.LASF8:
 2804 059a 5F5F696E 		.ascii	"__int32_t\000"
 2804      7433325F 
 2804      7400
 2805              	.LASF116:
 2806 05a4 74687265 		.ascii	"thread\000"
 2806      616400
 2807              	.LASF75:
 2808 05ab 4E445452 		.ascii	"NDTR\000"
 2808      00
 2809              	.LASF78:
 2810 05b0 444D415F 		.ascii	"DMA_Stream_TypeDef\000"
 2810      53747265 
 2810      616D5F54 
 2810      79706544 
 2810      656600
 2811              	.LASF97:
 2812 05c3 696F706F 		.ascii	"ioportid_t\000"
 2812      72746964 
 2812      5F7400
 2813              	.LASF49:
 2814 05ce 636F6E74 		.ascii	"context\000"
 2814      65787400 
 2815              	.LASF143:
 2816 05d6 5F70616C 		.ascii	"_pal_lld_setgroupmode\000"
 2816      5F6C6C64 
 2816      5F736574 
 2816      67726F75 
 2816      706D6F64 
 2817              	.LASF151:
 2818 05ec 61646353 		.ascii	"adcStartConversion\000"
 2818      74617274 
 2818      436F6E76 
ARM GAS  /tmp/ccIBcRc0.s 			page 55


 2818      65727369 
 2818      6F6E00
 2819              	.LASF140:
 2820 05ff 61646376 		.ascii	"adcvalues\000"
 2820      616C7565 
 2820      7300
 2821              	.LASF48:
 2822 0609 696E7463 		.ascii	"intctx\000"
 2822      747800
 2823              	.LASF77:
 2824 0610 4D314152 		.ascii	"M1AR\000"
 2824      00
 2825              	.LASF147:
 2826 0615 2E2E2F61 		.ascii	"../axoloti_board.c\000"
 2826      786F6C6F 
 2826      74695F62 
 2826      6F617264 
 2826      2E6300
 2827              	.LASF103:
 2828 0628 4144435F 		.ascii	"ADC_ERROR\000"
 2828      4552524F 
 2828      5200
 2829              	.LASF142:
 2830 0632 63684D74 		.ascii	"chMtxInit\000"
 2830      78496E69 
 2830      7400
 2831              	.LASF135:
 2832 063c 6164635F 		.ascii	"adc_configpads\000"
 2832      636F6E66 
 2832      69677061 
 2832      647300
 2833              	.LASF126:
 2834 064b 736D7072 		.ascii	"smpr1\000"
 2834      3100
 2835              	.LASF127:
 2836 0651 736D7072 		.ascii	"smpr2\000"
 2836      3200
 2837              	.LASF99:
 2838 0657 4144435F 		.ascii	"ADC_STOP\000"
 2838      53544F50 
 2838      00
 2839              	.LASF14:
 2840 0660 75696E74 		.ascii	"uint8_t\000"
 2840      385F7400 
 2841              	.LASF131:
 2842 0668 41444343 		.ascii	"ADCConversionGroup\000"
 2842      6F6E7665 
 2842      7273696F 
 2842      6E47726F 
 2842      757000
 2843              	.LASF65:
 2844 067b 4A4F4652 		.ascii	"JOFR4\000"
 2844      3400
 2845              	.LASF70:
 2846 0681 4A445231 		.ascii	"JDR1\000"
 2846      00
 2847              	.LASF71:
ARM GAS  /tmp/ccIBcRc0.s 			page 56


 2848 0686 4A445232 		.ascii	"JDR2\000"
 2848      00
 2849              	.LASF72:
 2850 068b 4A445233 		.ascii	"JDR3\000"
 2850      00
 2851              	.LASF73:
 2852 0690 4A445234 		.ascii	"JDR4\000"
 2852      00
 2853              	.LASF57:
 2854 0695 77746F62 		.ascii	"wtobjp\000"
 2854      6A7000
 2855              	.LASF102:
 2856 069c 4144435F 		.ascii	"ADC_COMPLETE\000"
 2856      434F4D50 
 2856      4C455445 
 2856      00
 2857              	.LASF34:
 2858 06a9 705F6E61 		.ascii	"p_name\000"
 2858      6D6500
 2859              	.LASF106:
 2860 06b0 6164635F 		.ascii	"adc_channels_num_t\000"
 2860      6368616E 
 2860      6E656C73 
 2860      5F6E756D 
 2860      5F7400
 2861              	.LASF41:
 2862 06c3 705F6D73 		.ascii	"p_msg\000"
 2862      6700
 2863              	.LASF145:
 2864 06c9 61646353 		.ascii	"adcStopConversion\000"
 2864      746F7043 
 2864      6F6E7665 
 2864      7273696F 
 2864      6E00
 2865              	.LASF96:
 2866 06db 696F6D6F 		.ascii	"iomode_t\000"
 2866      64655F74 
 2866      00
 2867              	.LASF53:
 2868 06e4 6D5F6F77 		.ascii	"m_owner\000"
 2868      6E657200 
 2869              	.LASF31:
 2870 06ec 705F6374 		.ascii	"p_ctx\000"
 2870      7800
 2871              	.LASF39:
 2872 06f2 705F7761 		.ascii	"p_waiting\000"
 2872      6974696E 
 2872      6700
 2873              		.ident	"GCC: (GNU Tools for ARM Embedded Processors) 4.9.3 20150529 (release) [ARM/embedded-4_9-br
ARM GAS  /tmp/ccIBcRc0.s 			page 57


DEFINED SYMBOLS
                            *ABS*:00000000 axoloti_board.c
     /tmp/ccIBcRc0.s:21     .text.axoloti_board_init:00000000 $t
     /tmp/ccIBcRc0.s:27     .text.axoloti_board_init:00000000 axoloti_board_init
     /tmp/ccIBcRc0.s:42     .text.axoloti_board_init:00000008 $d
     /tmp/ccIBcRc0.s:47     .text.adc_configpads:00000000 $t
     /tmp/ccIBcRc0.s:53     .text.adc_configpads:00000000 adc_configpads
     /tmp/ccIBcRc0.s:171    .text.adc_configpads:000000a0 $d
     /tmp/ccIBcRc0.s:179    .text.adc_init:00000000 $t
     /tmp/ccIBcRc0.s:185    .text.adc_init:00000000 adc_init
     /tmp/ccIBcRc0.s:214    .text.adc_init:00000018 $d
     /tmp/ccIBcRc0.s:219    .text.adc_convert:00000000 $t
     /tmp/ccIBcRc0.s:225    .text.adc_convert:00000000 adc_convert
     /tmp/ccIBcRc0.s:256    .text.adc_convert:0000001c $d
     /tmp/ccIBcRc0.s:276    .sram2:00000000 adcvalues
     /tmp/ccIBcRc0.s:269    .bss.Mutex_DMAStream_1_7:00000000 Mutex_DMAStream_1_7
     /tmp/ccIBcRc0.s:265    .bss.Mutex_DMAStream_1_7:00000000 $d
     /tmp/ccIBcRc0.s:272    .sram2:00000000 $d
     /tmp/ccIBcRc0.s:279    .rodata.adcgrpcfg1:00000000 $d
     /tmp/ccIBcRc0.s:283    .rodata.adcgrpcfg1:00000000 adcgrpcfg1
                     .debug_frame:00000010 $d

UNDEFINED SYMBOLS
chMtxInit
_pal_lld_setgroupmode
adcStart
ADCD1
adcSTM32EnableTSVREFE
adcStopConversion
adcStartConversion
