ARM GAS  /tmp/ccYnLQOf.s 			page 1


   1              		.syntax unified
   2              		.cpu cortex-m4
   3              		.eabi_attribute 27, 1
   4              		.eabi_attribute 28, 1
   5              		.fpu fpv4-sp-d16
   6              		.eabi_attribute 20, 1
   7              		.eabi_attribute 21, 1
   8              		.eabi_attribute 23, 3
   9              		.eabi_attribute 24, 1
  10              		.eabi_attribute 25, 1
  11              		.eabi_attribute 26, 1
  12              		.eabi_attribute 30, 2
  13              		.eabi_attribute 34, 1
  14              		.eabi_attribute 18, 4
  15              		.thumb
  16              		.file	"axoloti_control.c"
  17              		.text
  18              	.Ltext0:
  19              		.cfi_sections	.debug_frame
  20              		.section	.text.do_axoloti_control,"ax",%progbits
  21              		.align	2
  22              		.p2align 4,,15
  23              		.global	do_axoloti_control
  24              		.thumb
  25              		.thumb_func
  26              		.type	do_axoloti_control, %function
  27              	do_axoloti_control:
  28              	.LFB118:
  29              		.file 1 "../axoloti_control.c"
  30              		.loc 1 38 0
  31              		.cfi_startproc
  32              		@ args = 0, pretend = 0, frame = 0
  33              		@ frame_needed = 0, uses_anonymous_args = 0
  34 0000 2DE9F84F 		push	{r3, r4, r5, r6, r7, r8, r9, r10, fp, lr}
  35              		.cfi_def_cfa_offset 40
  36              		.cfi_offset 3, -40
  37              		.cfi_offset 4, -36
  38              		.cfi_offset 5, -32
  39              		.cfi_offset 6, -28
  40              		.cfi_offset 7, -24
  41              		.cfi_offset 8, -20
  42              		.cfi_offset 9, -16
  43              		.cfi_offset 10, -12
  44              		.cfi_offset 11, -8
  45              		.cfi_offset 14, -4
  46              		.loc 1 39 0
  47 0004 3B4C     		ldr	r4, .L10
  48 0006 2378     		ldrb	r3, [r4]	@ zero_extendqisi2
  49 0008 0133     		adds	r3, r3, #1
  50 000a DBB2     		uxtb	r3, r3
  51              		.loc 1 40 0
  52 000c 092B     		cmp	r3, #9
  53 000e 6AD0     		beq	.L2
  54              		.loc 1 39 0
  55 0010 2370     		strb	r3, [r4]
  56              	.L3:
  57              		.loc 1 44 0
ARM GAS  /tmp/ccYnLQOf.s 			page 2


  58 0012 3948     		ldr	r0, .L10+4
  59 0014 FFF7FEFF 		bl	chMtxLock
  60              	.LVL0:
  61              		.loc 1 45 0
  62 0018 3848     		ldr	r0, .L10+8
  63 001a FFF7FEFF 		bl	spiAcquireBus
  64              	.LVL1:
  65              		.loc 1 46 0
  66 001e 3849     		ldr	r1, .L10+12
  67 0020 3648     		ldr	r0, .L10+8
  68 0022 FFF7FEFF 		bl	spiStart
  69              	.LVL2:
  70              		.loc 1 47 0
  71 0026 3548     		ldr	r0, .L10+8
  72 0028 FFF7FEFF 		bl	spiSelect
  73              	.LVL3:
  74              		.loc 1 48 0
  75 002c 0220     		movs	r0, #2
  76 002e FFF7FEFF 		bl	chThdSleep
  77              	.LVL4:
  78              		.loc 1 49 0
  79 0032 2278     		ldrb	r2, [r4]	@ zero_extendqisi2
  80 0034 082A     		cmp	r2, #8
  81 0036 4CD0     		beq	.L4
  82              		.loc 1 51 0
  83 0038 324C     		ldr	r4, .L10+16
  84              		.loc 1 50 0
  85 003a 3048     		ldr	r0, .L10+8
  86              		.loc 1 51 0
  87 003c 02EB4212 		add	r2, r2, r2, lsl #5
  88              		.loc 1 50 0
  89 0040 04EB8202 		add	r2, r4, r2, lsl #2
  90 0044 04F58463 		add	r3, r4, #1056
  91 0048 8421     		movs	r1, #132
  92 004a FFF7FEFF 		bl	spiExchange
  93              	.LVL5:
  94              	.L5:
  95              		.loc 1 56 0
  96 004e 2B48     		ldr	r0, .L10+8
  97 0050 FFF7FEFF 		bl	spiUnselect
  98              	.LVL6:
  99              		.loc 1 57 0
 100 0054 2948     		ldr	r0, .L10+8
 101 0056 FFF7FEFF 		bl	spiReleaseBus
 102              	.LVL7:
 103              		.loc 1 58 0
 104 005a 2848     		ldr	r0, .L10+8
 105 005c FFF7FEFF 		bl	spiStop
 106              	.LVL8:
 107              		.loc 1 59 0
 108 0060 FFF7FEFF 		bl	chMtxUnlock
 109              	.LVL9:
 110              		.loc 1 60 0
 111 0064 94F82034 		ldrb	r3, [r4, #1056]	@ zero_extendqisi2
 112 0068 264A     		ldr	r2, .L10+16
 113 006a 422B     		cmp	r3, #66
 114 006c 01D0     		beq	.L9
ARM GAS  /tmp/ccYnLQOf.s 			page 3


 115              	.L1:
 116 006e BDE8F88F 		pop	{r3, r4, r5, r6, r7, r8, r9, r10, fp, pc}
 117              	.L9:
 118              		.loc 1 60 0 is_stmt 0 discriminator 1
 119 0072 92F82134 		ldrb	r3, [r2, #1057]	@ zero_extendqisi2
 120 0076 542B     		cmp	r3, #84
 121 0078 F9D1     		bne	.L1
 122              		.loc 1 61 0 is_stmt 1
 123 007a 92F82234 		ldrb	r3, [r2, #1058]	@ zero_extendqisi2
 124 007e 4E2B     		cmp	r3, #78
 125 0080 F5D1     		bne	.L1
 126              		.loc 1 62 0
 127 0082 214F     		ldr	r7, .L10+20
 128              		.loc 1 64 0
 129 0084 214B     		ldr	r3, .L10+24
 130              		.loc 1 63 0
 131 0086 224E     		ldr	r6, .L10+28
 132              		.loc 1 62 0
 133 0088 D2F82454 		ldr	r5, [r2, #1060]
 134              		.loc 1 63 0
 135 008c D2F82844 		ldr	r4, [r2, #1064]
 136              		.loc 1 64 0
 137 0090 92F82C04 		ldrb	r0, [r2, #1068]	@ zero_extendqisi2
 138              		.loc 1 65 0
 139 0094 92F82D14 		ldrb	r1, [r2, #1069]	@ zero_extendqisi2
 140              		.loc 1 66 0
 141 0098 92F82EC4 		ldrb	ip, [r2, #1070]	@ zero_extendqisi2
 142              		.loc 1 67 0
 143 009c 92F82FE4 		ldrb	lr, [r2, #1071]	@ zero_extendqisi2
 144              		.loc 1 62 0
 145 00a0 3A68     		ldr	r2, [r7]
 146              		.loc 1 64 0
 147 00a2 93F800B0 		ldrb	fp, [r3]	@ zero_extendqisi2
 148              		.loc 1 65 0
 149 00a6 93F801A0 		ldrb	r10, [r3, #1]	@ zero_extendqisi2
 150              		.loc 1 66 0
 151 00aa 93F80290 		ldrb	r9, [r3, #2]	@ zero_extendqisi2
 152              		.loc 1 67 0
 153 00ae 93F80380 		ldrb	r8, [r3, #3]	@ zero_extendqisi2
 154              		.loc 1 62 0
 155 00b2 1543     		orrs	r5, r5, r2
 156              		.loc 1 63 0
 157 00b4 3268     		ldr	r2, [r6]
 158              		.loc 1 62 0
 159 00b6 3D60     		str	r5, [r7]
 160              		.loc 1 63 0
 161 00b8 1440     		ands	r4, r4, r2
 162              		.loc 1 64 0
 163 00ba 5844     		add	r0, r0, fp
 164              		.loc 1 65 0
 165 00bc 5144     		add	r1, r1, r10
 166              		.loc 1 66 0
 167 00be 09EB0C02 		add	r2, r9, ip
 168              		.loc 1 67 0
 169 00c2 F044     		add	r8, r8, lr
 170              		.loc 1 63 0
 171 00c4 3460     		str	r4, [r6]
ARM GAS  /tmp/ccYnLQOf.s 			page 4


 172              		.loc 1 64 0
 173 00c6 1870     		strb	r0, [r3]
 174              		.loc 1 65 0
 175 00c8 5970     		strb	r1, [r3, #1]
 176              		.loc 1 66 0
 177 00ca 9A70     		strb	r2, [r3, #2]
 178              		.loc 1 67 0
 179 00cc 83F80380 		strb	r8, [r3, #3]
 180 00d0 CDE7     		b	.L1
 181              	.L4:
 182              		.loc 1 54 0
 183 00d2 104A     		ldr	r2, .L10+32
 184 00d4 0948     		ldr	r0, .L10+8
 185 00d6 A2F18403 		sub	r3, r2, #132
 186 00da 8421     		movs	r1, #132
 187 00dc A2F2A444 		subw	r4, r2, #1188
 188 00e0 FFF7FEFF 		bl	spiExchange
 189              	.LVL10:
 190 00e4 B3E7     		b	.L5
 191              	.L2:
 192              		.loc 1 42 0
 193 00e6 0C4A     		ldr	r2, .L10+36
 194 00e8 1378     		ldrb	r3, [r2]	@ zero_extendqisi2
 195              		.loc 1 41 0
 196 00ea 0021     		movs	r1, #0
 197              		.loc 1 42 0
 198 00ec 0133     		adds	r3, r3, #1
 199 00ee 1370     		strb	r3, [r2]
 200              		.loc 1 41 0
 201 00f0 2170     		strb	r1, [r4]
 202 00f2 8EE7     		b	.L3
 203              	.L11:
 204              		.align	2
 205              	.L10:
 206 00f4 00000000 		.word	.LANCHOR0
 207 00f8 00000000 		.word	Mutex_DMAStream_1_7
 208 00fc 00000000 		.word	SPID3
 209 0100 00000000 		.word	.LANCHOR2
 210 0104 00000000 		.word	.LANCHOR3
 211 0108 00000000 		.word	Btn_Nav_Or
 212 010c 00000000 		.word	EncBuffer
 213 0110 00000000 		.word	Btn_Nav_And
 214 0114 A4040000 		.word	.LANCHOR3+1188
 215 0118 00000000 		.word	.LANCHOR1
 216              		.cfi_endproc
 217              	.LFE118:
 218              		.size	do_axoloti_control, .-do_axoloti_control
 219              		.section	.text.axoloti_control_init,"ax",%progbits
 220              		.align	2
 221              		.p2align 4,,15
 222              		.global	axoloti_control_init
 223              		.thumb
 224              		.thumb_func
 225              		.type	axoloti_control_init, %function
 226              	axoloti_control_init:
 227              	.LFB119:
 228              		.loc 1 71 0
ARM GAS  /tmp/ccYnLQOf.s 			page 5


 229              		.cfi_startproc
 230              		@ args = 0, pretend = 0, frame = 0
 231              		@ frame_needed = 0, uses_anonymous_args = 0
 232 0000 F8B5     		push	{r3, r4, r5, r6, r7, lr}
 233              		.cfi_def_cfa_offset 24
 234              		.cfi_offset 3, -24
 235              		.cfi_offset 4, -20
 236              		.cfi_offset 5, -16
 237              		.cfi_offset 6, -12
 238              		.cfi_offset 7, -8
 239              		.cfi_offset 14, -4
 240              		.loc 1 75 0
 241 0002 2A4B     		ldr	r3, .L22
 242              		.loc 1 76 0
 243 0004 2A48     		ldr	r0, .L22+4
 244              		.loc 1 75 0
 245 0006 0024     		movs	r4, #0
 246              		.loc 1 76 0
 247 0008 4FF40041 		mov	r1, #32768
 248 000c 0122     		movs	r2, #1
 249              		.loc 1 75 0
 250 000e 1C70     		strb	r4, [r3]
 251              		.loc 1 76 0
 252 0010 FFF7FEFF 		bl	_pal_lld_setgroupmode
 253              	.LVL11:
 254              		.loc 1 78 0
 255 0014 2748     		ldr	r0, .L22+8
 256 0016 2021     		movs	r1, #32
 257 0018 40F20232 		movw	r2, #770
 258 001c FFF7FEFF 		bl	_pal_lld_setgroupmode
 259              	.LVL12:
 260              		.loc 1 80 0
 261 0020 2448     		ldr	r0, .L22+8
 262 0022 1021     		movs	r1, #16
 263 0024 40F20232 		movw	r2, #770
 264 0028 FFF7FEFF 		bl	_pal_lld_setgroupmode
 265              	.LVL13:
 266              		.loc 1 82 0
 267 002c 0821     		movs	r1, #8
 268 002e 40F20232 		movw	r2, #770
 269 0032 2048     		ldr	r0, .L22+8
 270 0034 FFF7FEFF 		bl	_pal_lld_setgroupmode
 271              	.LVL14:
 272 0038 1F4B     		ldr	r3, .L22+12
 273              		.loc 1 87 0
 274 003a 2246     		mov	r2, r4
 275 003c 03F58461 		add	r1, r3, #1056
 276              	.LVL15:
 277              	.L13:
 278              		.loc 1 87 0 is_stmt 0 discriminator 3
 279 0040 03F8012F 		strb	r2, [r3, #1]!
 280              	.LVL16:
 281              		.loc 1 86 0 is_stmt 1 discriminator 3
 282 0044 8B42     		cmp	r3, r1
 283 0046 FBD1     		bne	.L13
 284 0048 1C4B     		ldr	r3, .L22+16
 285              	.LVL17:
ARM GAS  /tmp/ccYnLQOf.s 			page 6


 286              		.loc 1 86 0 is_stmt 0
 287 004a 3020     		movs	r0, #48
 288              		.loc 1 90 0 is_stmt 1
 289 004c 4FF0410E 		mov	lr, #65
 290              		.loc 1 91 0
 291 0050 7827     		movs	r7, #120
 292              		.loc 1 92 0
 293 0052 6F21     		movs	r1, #111
 294              	.L14:
 295 0054 421C     		adds	r2, r0, #1
 296              		.loc 1 93 0 discriminator 3
 297 0056 9870     		strb	r0, [r3, #2]
 298 0058 D0B2     		uxtb	r0, r2
 299              		.loc 1 89 0 discriminator 3
 300 005a 3828     		cmp	r0, #56
 301              		.loc 1 90 0 discriminator 3
 302 005c 03F801EC 		strb	lr, [r3, #-1]
 303              		.loc 1 91 0 discriminator 3
 304 0060 1F70     		strb	r7, [r3]
 305              		.loc 1 92 0 discriminator 3
 306 0062 5970     		strb	r1, [r3, #1]
 307              		.loc 1 90 0 discriminator 3
 308 0064 4FF04106 		mov	r6, #65
 309 0068 03F18403 		add	r3, r3, #132
 310              		.loc 1 91 0 discriminator 3
 311 006c 4FF07805 		mov	r5, #120
 312              		.loc 1 92 0 discriminator 3
 313 0070 4FF06F04 		mov	r4, #111
 314              		.loc 1 89 0 discriminator 3
 315 0074 EED1     		bne	.L14
 316              		.loc 1 95 0
 317 0076 124A     		ldr	r2, .L22+20
 318              		.loc 1 101 0
 319 0078 0021     		movs	r1, #0
 320              		.loc 1 95 0
 321 007a 82F8A464 		strb	r6, [r2, #1188]
 322              		.loc 1 96 0
 323 007e 82F8A554 		strb	r5, [r2, #1189]
 324              		.loc 1 97 0
 325 0082 82F8A644 		strb	r4, [r2, #1190]
 326              		.loc 1 98 0
 327 0086 82F8A704 		strb	r0, [r2, #1191]
 328              	.LVL18:
 329 008a 02F2A743 		addw	r3, r2, #1191
 330 008e 02F22752 		addw	r2, r2, #1319
 331              	.LVL19:
 332              	.L15:
 333              		.loc 1 101 0 discriminator 3
 334 0092 03F8011F 		strb	r1, [r3, #1]!
 335              	.LVL20:
 336              		.loc 1 100 0 discriminator 3
 337 0096 9342     		cmp	r3, r2
 338 0098 FBD1     		bne	.L15
 339 009a 0A4B     		ldr	r3, .L22+24
 340              	.LVL21:
 341              		.loc 1 104 0
 342 009c 0021     		movs	r1, #0
ARM GAS  /tmp/ccYnLQOf.s 			page 7


 343 009e 03F18002 		add	r2, r3, #128
 344              	.L16:
 345              	.LVL22:
 346              		.loc 1 104 0 is_stmt 0 discriminator 3
 347 00a2 03F8011F 		strb	r1, [r3, #1]!
 348              	.LVL23:
 349              		.loc 1 103 0 is_stmt 1 discriminator 3
 350 00a6 9342     		cmp	r3, r2
 351 00a8 FBD1     		bne	.L16
 352              		.loc 1 105 0
 353 00aa F8BD     		pop	{r3, r4, r5, r6, r7, pc}
 354              	.LVL24:
 355              	.L23:
 356              		.align	2
 357              	.L22:
 358 00ac 00000000 		.word	.LANCHOR0
 359 00b0 00000240 		.word	1073872896
 360 00b4 00040240 		.word	1073873920
 361 00b8 FFFFFFFF 		.word	.LANCHOR3-1
 362 00bc 01000000 		.word	.LANCHOR3+1
 363 00c0 00000000 		.word	.LANCHOR3
 364 00c4 1F040000 		.word	.LANCHOR3+1055
 365              		.cfi_endproc
 366              	.LFE119:
 367              		.size	axoloti_control_init, .-axoloti_control_init
 368              		.section	.text.LCD_updateBoundingBox,"ax",%progbits
 369              		.align	2
 370              		.p2align 4,,15
 371              		.global	LCD_updateBoundingBox
 372              		.thumb
 373              		.thumb_func
 374              		.type	LCD_updateBoundingBox, %function
 375              	LCD_updateBoundingBox:
 376              	.LFB120:
 377              		.loc 1 109 0
 378              		.cfi_startproc
 379              		@ args = 0, pretend = 0, frame = 0
 380              		@ frame_needed = 0, uses_anonymous_args = 0
 381              		@ link register save eliminated.
 382              	.LVL25:
 383 0000 7047     		bx	lr
 384              		.cfi_endproc
 385              	.LFE120:
 386              		.size	LCD_updateBoundingBox, .-LCD_updateBoundingBox
 387 0002 00BF     		.section	.text.LCD_drawPixel,"ax",%progbits
 388              		.align	2
 389              		.p2align 4,,15
 390              		.global	LCD_drawPixel
 391              		.thumb
 392              		.thumb_func
 393              		.type	LCD_drawPixel, %function
 394              	LCD_drawPixel:
 395              	.LFB121:
 396              		.loc 1 117 0
 397              		.cfi_startproc
 398              		@ args = 0, pretend = 0, frame = 0
 399              		@ frame_needed = 0, uses_anonymous_args = 0
ARM GAS  /tmp/ccYnLQOf.s 			page 8


 400              		@ link register save eliminated.
 401              		.loc 1 118 0
 402 0000 7F28     		cmp	r0, #127
 403 0002 12D8     		bhi	.L30
 404              		.loc 1 118 0 is_stmt 0 discriminator 2
 405 0004 3F29     		cmp	r1, #63
 406 0006 10D8     		bhi	.L30
 407              		.loc 1 123 0 is_stmt 1
 408 0008 0430     		adds	r0, r0, #4
 409 000a CB10     		asrs	r3, r1, #3
 410              		.loc 1 117 0
 411 000c 10B4     		push	{r4}
 412              		.cfi_def_cfa_offset 4
 413              		.cfi_offset 4, -4
 414              		.loc 1 123 0
 415 000e 00EBC310 		add	r0, r0, r3, lsl #7
 416              		.loc 1 122 0
 417 0012 5AB9     		cbnz	r2, .L31
 418              		.loc 1 125 0
 419 0014 0A4C     		ldr	r4, .L32
 420 0016 01F00701 		and	r1, r1, #7
 421 001a 225C     		ldrb	r2, [r4, r0]	@ zero_extendqisi2
 422 001c 0123     		movs	r3, #1
 423 001e 8B40     		lsls	r3, r3, r1
 424 0020 22EA0303 		bic	r3, r2, r3
 425 0024 2354     		strb	r3, [r4, r0]
 426              	.L25:
 427              		.loc 1 128 0
 428 0026 5DF8044B 		ldr	r4, [sp], #4
 429              		.cfi_restore 4
 430              		.cfi_def_cfa_offset 0
 431              	.L30:
 432 002a 7047     		bx	lr
 433              	.L31:
 434              		.cfi_def_cfa_offset 4
 435              		.cfi_offset 4, -4
 436              		.loc 1 123 0
 437 002c 044A     		ldr	r2, .L32
 438 002e 01F00701 		and	r1, r1, #7
 439 0032 145C     		ldrb	r4, [r2, r0]	@ zero_extendqisi2
 440 0034 0123     		movs	r3, #1
 441 0036 8B40     		lsls	r3, r3, r1
 442 0038 2343     		orrs	r3, r3, r4
 443 003a 1354     		strb	r3, [r2, r0]
 444 003c F3E7     		b	.L25
 445              	.L33:
 446 003e 00BF     		.align	2
 447              	.L32:
 448 0040 00000000 		.word	.LANCHOR3
 449              		.cfi_endproc
 450              	.LFE121:
 451              		.size	LCD_drawPixel, .-LCD_drawPixel
 452              		.section	.text.LCD_setPixel,"ax",%progbits
 453              		.align	2
 454              		.p2align 4,,15
 455              		.global	LCD_setPixel
 456              		.thumb
ARM GAS  /tmp/ccYnLQOf.s 			page 9


 457              		.thumb_func
 458              		.type	LCD_setPixel, %function
 459              	LCD_setPixel:
 460              	.LFB122:
 461              		.loc 1 130 0
 462              		.cfi_startproc
 463              		@ args = 0, pretend = 0, frame = 0
 464              		@ frame_needed = 0, uses_anonymous_args = 0
 465              		@ link register save eliminated.
 466              		.loc 1 131 0
 467 0000 7F28     		cmp	r0, #127
 468 0002 12D8     		bhi	.L38
 469              		.loc 1 131 0 is_stmt 0 discriminator 2
 470 0004 3F29     		cmp	r1, #63
 471 0006 10D8     		bhi	.L38
 472              		.loc 1 130 0 is_stmt 1
 473 0008 10B4     		push	{r4}
 474              		.cfi_def_cfa_offset 4
 475              		.cfi_offset 4, -4
 476              		.loc 1 133 0
 477 000a CB10     		asrs	r3, r1, #3
 478 000c 03EB4313 		add	r3, r3, r3, lsl #5
 479 0010 0430     		adds	r0, r0, #4
 480 0012 00EB8300 		add	r0, r0, r3, lsl #2
 481 0016 054A     		ldr	r2, .L39
 482 0018 01F00701 		and	r1, r1, #7
 483 001c 145C     		ldrb	r4, [r2, r0]	@ zero_extendqisi2
 484 001e 0123     		movs	r3, #1
 485 0020 8B40     		lsls	r3, r3, r1
 486 0022 2343     		orrs	r3, r3, r4
 487 0024 1354     		strb	r3, [r2, r0]
 488              		.loc 1 135 0
 489 0026 5DF8044B 		ldr	r4, [sp], #4
 490              		.cfi_restore 4
 491              		.cfi_def_cfa_offset 0
 492              	.L38:
 493 002a 7047     		bx	lr
 494              	.L40:
 495              		.align	2
 496              	.L39:
 497 002c 00000000 		.word	.LANCHOR3
 498              		.cfi_endproc
 499              	.LFE122:
 500              		.size	LCD_setPixel, .-LCD_setPixel
 501              		.section	.text.LCD_clearPixel,"ax",%progbits
 502              		.align	2
 503              		.p2align 4,,15
 504              		.global	LCD_clearPixel
 505              		.thumb
 506              		.thumb_func
 507              		.type	LCD_clearPixel, %function
 508              	LCD_clearPixel:
 509              	.LFB123:
 510              		.loc 1 137 0
 511              		.cfi_startproc
 512              		@ args = 0, pretend = 0, frame = 0
 513              		@ frame_needed = 0, uses_anonymous_args = 0
ARM GAS  /tmp/ccYnLQOf.s 			page 10


 514              		@ link register save eliminated.
 515              		.loc 1 138 0
 516 0000 7F28     		cmp	r0, #127
 517 0002 13D8     		bhi	.L45
 518              		.loc 1 138 0 is_stmt 0 discriminator 2
 519 0004 3F29     		cmp	r1, #63
 520 0006 11D8     		bhi	.L45
 521              		.loc 1 140 0 is_stmt 1
 522 0008 CB10     		asrs	r3, r1, #3
 523 000a 03EB4313 		add	r3, r3, r3, lsl #5
 524 000e 0430     		adds	r0, r0, #4
 525 0010 00EB8300 		add	r0, r0, r3, lsl #2
 526              		.loc 1 137 0
 527 0014 10B4     		push	{r4}
 528              		.cfi_def_cfa_offset 4
 529              		.cfi_offset 4, -4
 530              		.loc 1 140 0
 531 0016 064C     		ldr	r4, .L46
 532 0018 01F00701 		and	r1, r1, #7
 533 001c 225C     		ldrb	r2, [r4, r0]	@ zero_extendqisi2
 534 001e 0123     		movs	r3, #1
 535 0020 8B40     		lsls	r3, r3, r1
 536 0022 22EA0303 		bic	r3, r2, r3
 537 0026 2354     		strb	r3, [r4, r0]
 538              		.loc 1 142 0
 539 0028 5DF8044B 		ldr	r4, [sp], #4
 540              		.cfi_restore 4
 541              		.cfi_def_cfa_offset 0
 542              	.L45:
 543 002c 7047     		bx	lr
 544              	.L47:
 545 002e 00BF     		.align	2
 546              	.L46:
 547 0030 00000000 		.word	.LANCHOR3
 548              		.cfi_endproc
 549              	.LFE123:
 550              		.size	LCD_clearPixel, .-LCD_clearPixel
 551              		.section	.text.LCD_getPixel,"ax",%progbits
 552              		.align	2
 553              		.p2align 4,,15
 554              		.global	LCD_getPixel
 555              		.thumb
 556              		.thumb_func
 557              		.type	LCD_getPixel, %function
 558              	LCD_getPixel:
 559              	.LFB124:
 560              		.loc 1 144 0
 561              		.cfi_startproc
 562              		@ args = 0, pretend = 0, frame = 0
 563              		@ frame_needed = 0, uses_anonymous_args = 0
 564              		@ link register save eliminated.
 565              	.LVL26:
 566              		.loc 1 145 0
 567 0000 7F28     		cmp	r0, #127
 568 0002 0FD8     		bhi	.L51
 569              		.loc 1 145 0 is_stmt 0 discriminator 2
 570 0004 3F29     		cmp	r1, #63
ARM GAS  /tmp/ccYnLQOf.s 			page 11


 571 0006 0DD8     		bhi	.L51
 572              		.loc 1 148 0 is_stmt 1
 573 0008 CB10     		asrs	r3, r1, #3
 574 000a 074A     		ldr	r2, .L52
 575 000c 03EB4313 		add	r3, r3, r3, lsl #5
 576 0010 02EB8303 		add	r3, r2, r3, lsl #2
 577 0014 1844     		add	r0, r0, r3
 578              	.LVL27:
 579              		.loc 1 149 0
 580 0016 01F00701 		and	r1, r1, #7
 581              	.LVL28:
 582 001a 0079     		ldrb	r0, [r0, #4]	@ zero_extendqisi2
 583 001c 0841     		asrs	r0, r0, r1
 584              		.loc 1 148 0
 585 001e 00F00100 		and	r0, r0, #1
 586 0022 7047     		bx	lr
 587              	.LVL29:
 588              	.L51:
 589              		.loc 1 146 0
 590 0024 0020     		movs	r0, #0
 591              	.LVL30:
 592              		.loc 1 150 0
 593 0026 7047     		bx	lr
 594              	.L53:
 595              		.align	2
 596              	.L52:
 597 0028 00000000 		.word	.LANCHOR3
 598              		.cfi_endproc
 599              	.LFE124:
 600              		.size	LCD_getPixel, .-LCD_getPixel
 601              		.section	.text.LCD_clearDisplay,"ax",%progbits
 602              		.align	2
 603              		.p2align 4,,15
 604              		.global	LCD_clearDisplay
 605              		.thumb
 606              		.thumb_func
 607              		.type	LCD_clearDisplay, %function
 608              	LCD_clearDisplay:
 609              	.LFB125:
 610              		.loc 1 153 0
 611              		.cfi_startproc
 612              		@ args = 0, pretend = 0, frame = 0
 613              		@ frame_needed = 0, uses_anonymous_args = 0
 614              	.LVL31:
 615 0000 38B5     		push	{r3, r4, r5, lr}
 616              		.cfi_def_cfa_offset 16
 617              		.cfi_offset 3, -16
 618              		.cfi_offset 4, -12
 619              		.cfi_offset 5, -8
 620              		.cfi_offset 14, -4
 621 0002 064C     		ldr	r4, .L58
 622 0004 04F58065 		add	r5, r4, #1024
 623              	.LVL32:
 624              	.L55:
 625              		.loc 1 156 0 discriminator 3
 626 0008 2046     		mov	r0, r4
 627 000a 0021     		movs	r1, #0
ARM GAS  /tmp/ccYnLQOf.s 			page 12


 628 000c 8034     		adds	r4, r4, #128
 629 000e 8022     		movs	r2, #128
 630 0010 FFF7FEFF 		bl	memset
 631              	.LVL33:
 632              		.loc 1 155 0 discriminator 3
 633 0014 AC42     		cmp	r4, r5
 634 0016 F7D1     		bne	.L55
 635              		.loc 1 159 0
 636 0018 38BD     		pop	{r3, r4, r5, pc}
 637              	.L59:
 638 001a 00BF     		.align	2
 639              	.L58:
 640 001c 04000000 		.word	.LANCHOR3+4
 641              		.cfi_endproc
 642              	.LFE125:
 643              		.size	LCD_clearDisplay, .-LCD_clearDisplay
 644              		.section	.text.LCD_drawChar,"ax",%progbits
 645              		.align	2
 646              		.p2align 4,,15
 647              		.global	LCD_drawChar
 648              		.thumb
 649              		.thumb_func
 650              		.type	LCD_drawChar, %function
 651              	LCD_drawChar:
 652              	.LFB126:
 653              		.loc 1 164 0
 654              		.cfi_startproc
 655              		@ args = 0, pretend = 0, frame = 0
 656              		@ frame_needed = 0, uses_anonymous_args = 0
 657              		@ link register save eliminated.
 658              	.LVL34:
 659              		.loc 1 167 0
 660 0000 7A28     		cmp	r0, #122
 661 0002 1AD8     		bhi	.L64
 662              		.loc 1 167 0 is_stmt 0 discriminator 2
 663 0004 0729     		cmp	r1, #7
 664 0006 18D8     		bhi	.L64
 665              	.LVL35:
 666              		.loc 1 164 0 is_stmt 1
 667 0008 F0B4     		push	{r4, r5, r6, r7}
 668              		.cfi_def_cfa_offset 16
 669              		.cfi_offset 4, -16
 670              		.cfi_offset 5, -12
 671              		.cfi_offset 6, -8
 672              		.cfi_offset 7, -4
 673              	.LBB12:
 674              	.LBB13:
 675              		.loc 1 171 0
 676 000a 0C4D     		ldr	r5, .L65
 677 000c 0C4C     		ldr	r4, .L65+4
 678              		.loc 1 169 0
 679 000e 02EB8202 		add	r2, r2, r2, lsl #2
 680              	.LVL36:
 681              		.loc 1 170 0
 682 0012 01EB4111 		add	r1, r1, r1, lsl #5
 683              	.LVL37:
 684 0016 0430     		adds	r0, r0, #4
ARM GAS  /tmp/ccYnLQOf.s 			page 13


 685              	.LVL38:
 686 0018 00EB8100 		add	r0, r0, r1, lsl #2
 687              	.LVL39:
 688              		.loc 1 172 0
 689 001c A918     		adds	r1, r5, r2
 690 001e 2318     		adds	r3, r4, r0
 691              		.loc 1 171 0
 692 0020 AA5C     		ldrb	r2, [r5, r2]	@ zero_extendqisi2
 693              	.LVL40:
 694 0022 2254     		strb	r2, [r4, r0]
 695              		.loc 1 172 0
 696 0024 4F78     		ldrb	r7, [r1, #1]	@ zero_extendqisi2
 697              		.loc 1 173 0
 698 0026 8E78     		ldrb	r6, [r1, #2]	@ zero_extendqisi2
 699              		.loc 1 174 0
 700 0028 CD78     		ldrb	r5, [r1, #3]	@ zero_extendqisi2
 701              		.loc 1 175 0
 702 002a 0979     		ldrb	r1, [r1, #4]	@ zero_extendqisi2
 703              	.LVL41:
 704              		.loc 1 172 0
 705 002c 5F70     		strb	r7, [r3, #1]
 706              	.LVL42:
 707              		.loc 1 176 0
 708 002e 0022     		movs	r2, #0
 709              		.loc 1 173 0
 710 0030 9E70     		strb	r6, [r3, #2]
 711              	.LVL43:
 712              		.loc 1 174 0
 713 0032 DD70     		strb	r5, [r3, #3]
 714              	.LVL44:
 715              		.loc 1 175 0
 716 0034 1971     		strb	r1, [r3, #4]
 717              		.loc 1 176 0
 718 0036 5A71     		strb	r2, [r3, #5]
 719              	.LBE13:
 720              	.LBE12:
 721              		.loc 1 177 0
 722 0038 F0BC     		pop	{r4, r5, r6, r7}
 723              		.cfi_restore 7
 724              		.cfi_restore 6
 725              		.cfi_restore 5
 726              		.cfi_restore 4
 727              		.cfi_def_cfa_offset 0
 728              	.LVL45:
 729              	.L64:
 730 003a 7047     		bx	lr
 731              	.L66:
 732              		.align	2
 733              	.L65:
 734 003c 00000000 		.word	font
 735 0040 00000000 		.word	.LANCHOR3
 736              		.cfi_endproc
 737              	.LFE126:
 738              		.size	LCD_drawChar, .-LCD_drawChar
 739              		.section	.text.LCD_drawString,"ax",%progbits
 740              		.align	2
 741              		.p2align 4,,15
ARM GAS  /tmp/ccYnLQOf.s 			page 14


 742              		.global	LCD_drawString
 743              		.thumb
 744              		.thumb_func
 745              		.type	LCD_drawString, %function
 746              	LCD_drawString:
 747              	.LFB127:
 748              		.loc 1 179 0
 749              		.cfi_startproc
 750              		@ args = 0, pretend = 0, frame = 0
 751              		@ frame_needed = 0, uses_anonymous_args = 0
 752              	.LVL46:
 753              		.loc 1 180 0
 754 0000 0729     		cmp	r1, #7
 755 0002 2ED8     		bhi	.L76
 756              		.loc 1 180 0 is_stmt 0 discriminator 1
 757 0004 0028     		cmp	r0, #0
 758 0006 2CDB     		blt	.L76
 759              		.loc 1 179 0 is_stmt 1
 760 0008 F0B5     		push	{r4, r5, r6, r7, lr}
 761              		.cfi_def_cfa_offset 20
 762              		.cfi_offset 4, -20
 763              		.cfi_offset 5, -16
 764              		.cfi_offset 6, -12
 765              		.cfi_offset 7, -8
 766              		.cfi_offset 14, -4
 767              		.loc 1 183 0
 768 000a 031D     		adds	r3, r0, #4
 769 000c 01EB4111 		add	r1, r1, r1, lsl #5
 770              	.LVL47:
 771 0010 03EB8101 		add	r1, r3, r1, lsl #2
 772              	.LVL48:
 773              		.loc 1 184 0
 774 0014 134B     		ldr	r3, .L77
 775 0016 4FF0000C 		mov	ip, #0
 776 001a 03F801C0 		strb	ip, [r3, r1]
 777              	.LVL49:
 778              		.loc 1 186 0
 779 001e 1478     		ldrb	r4, [r2]	@ zero_extendqisi2
 780 0020 0132     		adds	r2, r2, #1
 781              	.LVL50:
 782 0022 ECB1     		cbz	r4, .L67
 783              	.LBB14:
 784              		.loc 1 187 0
 785 0024 7F28     		cmp	r0, #127
 786 0026 1BDC     		bgt	.L67
 787 0028 0B44     		add	r3, r3, r1
 788 002a 0F4D     		ldr	r5, .L77+4
 789 002c 01E0     		b	.L70
 790              	.LVL51:
 791              	.L71:
 792 002e 7F28     		cmp	r0, #127
 793 0030 16DC     		bgt	.L67
 794              	.L70:
 795              	.LVL52:
 796              		.loc 1 190 0
 797 0032 04EB8404 		add	r4, r4, r4, lsl #2
 798              	.LVL53:
ARM GAS  /tmp/ccYnLQOf.s 			page 15


 799              		.loc 1 192 0
 800 0036 2919     		adds	r1, r5, r4
 801              		.loc 1 191 0
 802 0038 15F804E0 		ldrb	lr, [r5, r4]	@ zero_extendqisi2
 803              		.loc 1 192 0
 804 003c 4F78     		ldrb	r7, [r1, #1]	@ zero_extendqisi2
 805              		.loc 1 194 0
 806 003e CC78     		ldrb	r4, [r1, #3]	@ zero_extendqisi2
 807              		.loc 1 193 0
 808 0040 8E78     		ldrb	r6, [r1, #2]	@ zero_extendqisi2
 809              		.loc 1 195 0
 810 0042 0979     		ldrb	r1, [r1, #4]	@ zero_extendqisi2
 811              		.loc 1 196 0
 812 0044 83F806C0 		strb	ip, [r3, #6]
 813              		.loc 1 191 0
 814 0048 83F801E0 		strb	lr, [r3, #1]
 815              		.loc 1 192 0
 816 004c 9F70     		strb	r7, [r3, #2]
 817              		.loc 1 193 0
 818 004e DE70     		strb	r6, [r3, #3]
 819              		.loc 1 194 0
 820 0050 1C71     		strb	r4, [r3, #4]
 821              		.loc 1 195 0
 822 0052 5971     		strb	r1, [r3, #5]
 823              	.LBE14:
 824              		.loc 1 186 0
 825 0054 12F8014B 		ldrb	r4, [r2], #1	@ zero_extendqisi2
 826              	.LVL54:
 827 0058 0633     		adds	r3, r3, #6
 828              	.LVL55:
 829              	.LBB15:
 830              		.loc 1 189 0
 831 005a 0630     		adds	r0, r0, #6
 832              	.LVL56:
 833              	.LBE15:
 834              		.loc 1 186 0
 835 005c 002C     		cmp	r4, #0
 836 005e E6D1     		bne	.L71
 837              	.L67:
 838 0060 F0BD     		pop	{r4, r5, r6, r7, pc}
 839              	.LVL57:
 840              	.L76:
 841              		.cfi_def_cfa_offset 0
 842              		.cfi_restore 4
 843              		.cfi_restore 5
 844              		.cfi_restore 6
 845              		.cfi_restore 7
 846              		.cfi_restore 14
 847 0062 7047     		bx	lr
 848              	.L78:
 849              		.align	2
 850              	.L77:
 851 0064 00000000 		.word	.LANCHOR3
 852 0068 00000000 		.word	font
 853              		.cfi_endproc
 854              	.LFE127:
 855              		.size	LCD_drawString, .-LCD_drawString
ARM GAS  /tmp/ccYnLQOf.s 			page 16


 856              		.section	.text.LCD_drawNumber3D,"ax",%progbits
 857              		.align	2
 858              		.p2align 4,,15
 859              		.global	LCD_drawNumber3D
 860              		.thumb
 861              		.thumb_func
 862              		.type	LCD_drawNumber3D, %function
 863              	LCD_drawNumber3D:
 864              	.LFB128:
 865              		.loc 1 200 0
 866              		.cfi_startproc
 867              		@ args = 0, pretend = 0, frame = 0
 868              		@ frame_needed = 0, uses_anonymous_args = 0
 869              	.LVL58:
 870 0000 2DE9F041 		push	{r4, r5, r6, r7, r8, lr}
 871              		.cfi_def_cfa_offset 24
 872              		.cfi_offset 4, -24
 873              		.cfi_offset 5, -20
 874              		.cfi_offset 6, -16
 875              		.cfi_offset 7, -12
 876              		.cfi_offset 8, -8
 877              		.cfi_offset 14, -4
 878              		.loc 1 201 0
 879 0004 151E     		subs	r5, r2, #0
 880              		.loc 1 208 0
 881 0006 DFF86480 		ldr	r8, .L83
 882              		.loc 1 203 0
 883 000a BABF     		itte	lt
 884 000c 6D42     		rsblt	r5, r5, #0
 885              		.loc 1 202 0
 886 000e 2D22     		movlt	r2, #45
 887              	.LVL59:
 888              		.loc 1 206 0
 889 0010 2022     		movge	r2, #32
 890              		.loc 1 200 0
 891 0012 0746     		mov	r7, r0
 892 0014 0E46     		mov	r6, r1
 893              		.loc 1 206 0
 894 0016 FFF7FEFF 		bl	LCD_drawChar
 895              	.LVL60:
 896              		.loc 1 208 0
 897 001a EB17     		asrs	r3, r5, #31
 898 001c 88FB0524 		smull	r2, r4, r8, r5
 899 0020 C3EBA404 		rsb	r4, r3, r4, asr #2
 900 0024 04EB8402 		add	r2, r4, r4, lsl #2
 901 0028 A5EB4202 		sub	r2, r5, r2, lsl #1
 902 002c 3032     		adds	r2, r2, #48
 903 002e 07F11200 		add	r0, r7, #18
 904 0032 3146     		mov	r1, r6
 905 0034 D2B2     		uxtb	r2, r2
 906 0036 FFF7FEFF 		bl	LCD_drawChar
 907              	.LVL61:
 908              		.loc 1 210 0
 909 003a 88FB0435 		smull	r3, r5, r8, r4
 910 003e E317     		asrs	r3, r4, #31
 911 0040 C3EBA505 		rsb	r5, r3, r5, asr #2
 912 0044 05EB8502 		add	r2, r5, r5, lsl #2
ARM GAS  /tmp/ccYnLQOf.s 			page 17


 913 0048 A4EB4202 		sub	r2, r4, r2, lsl #1
 914 004c 3032     		adds	r2, r2, #48
 915 004e 07F10C00 		add	r0, r7, #12
 916 0052 3146     		mov	r1, r6
 917 0054 D2B2     		uxtb	r2, r2
 918 0056 FFF7FEFF 		bl	LCD_drawChar
 919              	.LVL62:
 920              		.loc 1 212 0
 921 005a 05F13002 		add	r2, r5, #48
 922 005e B81D     		adds	r0, r7, #6
 923 0060 3146     		mov	r1, r6
 924 0062 D2B2     		uxtb	r2, r2
 925              		.loc 1 213 0
 926 0064 BDE8F041 		pop	{r4, r5, r6, r7, r8, lr}
 927              		.cfi_restore 14
 928              		.cfi_restore 8
 929              		.cfi_restore 7
 930              		.cfi_restore 6
 931              		.cfi_restore 5
 932              		.cfi_restore 4
 933              		.cfi_def_cfa_offset 0
 934              	.LVL63:
 935              		.loc 1 212 0
 936 0068 FFF7FEBF 		b	LCD_drawChar
 937              	.LVL64:
 938              	.L84:
 939              		.align	2
 940              	.L83:
 941 006c 67666666 		.word	1717986919
 942              		.cfi_endproc
 943              	.LFE128:
 944              		.size	LCD_drawNumber3D, .-LCD_drawNumber3D
 945              		.section	.text.LCD_drawNumber5D,"ax",%progbits
 946              		.align	2
 947              		.p2align 4,,15
 948              		.global	LCD_drawNumber5D
 949              		.thumb
 950              		.thumb_func
 951              		.type	LCD_drawNumber5D, %function
 952              	LCD_drawNumber5D:
 953              	.LFB129:
 954              		.loc 1 215 0
 955              		.cfi_startproc
 956              		@ args = 0, pretend = 0, frame = 0
 957              		@ frame_needed = 0, uses_anonymous_args = 0
 958              	.LVL65:
 959 0000 2DE9F041 		push	{r4, r5, r6, r7, r8, lr}
 960              		.cfi_def_cfa_offset 24
 961              		.cfi_offset 4, -24
 962              		.cfi_offset 5, -20
 963              		.cfi_offset 6, -16
 964              		.cfi_offset 7, -12
 965              		.cfi_offset 8, -8
 966              		.cfi_offset 14, -4
 967              		.loc 1 216 0
 968 0004 151E     		subs	r5, r2, #0
 969              		.loc 1 223 0
ARM GAS  /tmp/ccYnLQOf.s 			page 18


 970 0006 DFF8A480 		ldr	r8, .L89
 971              		.loc 1 218 0
 972 000a BABF     		itte	lt
 973 000c 6D42     		rsblt	r5, r5, #0
 974              		.loc 1 217 0
 975 000e 2D22     		movlt	r2, #45
 976              	.LVL66:
 977              		.loc 1 221 0
 978 0010 2022     		movge	r2, #32
 979              		.loc 1 215 0
 980 0012 0746     		mov	r7, r0
 981 0014 0E46     		mov	r6, r1
 982              		.loc 1 221 0
 983 0016 FFF7FEFF 		bl	LCD_drawChar
 984              	.LVL67:
 985              		.loc 1 223 0
 986 001a EB17     		asrs	r3, r5, #31
 987 001c 88FB0524 		smull	r2, r4, r8, r5
 988 0020 C3EBA404 		rsb	r4, r3, r4, asr #2
 989 0024 04EB8402 		add	r2, r4, r4, lsl #2
 990 0028 A5EB4202 		sub	r2, r5, r2, lsl #1
 991 002c 3032     		adds	r2, r2, #48
 992 002e 07F11E00 		add	r0, r7, #30
 993 0032 3146     		mov	r1, r6
 994 0034 D2B2     		uxtb	r2, r2
 995 0036 FFF7FEFF 		bl	LCD_drawChar
 996              	.LVL68:
 997              		.loc 1 225 0
 998 003a 88FB0435 		smull	r3, r5, r8, r4
 999 003e E317     		asrs	r3, r4, #31
 1000 0040 C3EBA505 		rsb	r5, r3, r5, asr #2
 1001 0044 05EB8502 		add	r2, r5, r5, lsl #2
 1002 0048 A4EB4202 		sub	r2, r4, r2, lsl #1
 1003 004c 3032     		adds	r2, r2, #48
 1004 004e 07F11800 		add	r0, r7, #24
 1005 0052 3146     		mov	r1, r6
 1006 0054 D2B2     		uxtb	r2, r2
 1007 0056 FFF7FEFF 		bl	LCD_drawChar
 1008              	.LVL69:
 1009              		.loc 1 227 0
 1010 005a 88FB0534 		smull	r3, r4, r8, r5
 1011 005e EB17     		asrs	r3, r5, #31
 1012 0060 C3EBA404 		rsb	r4, r3, r4, asr #2
 1013 0064 04EB8402 		add	r2, r4, r4, lsl #2
 1014 0068 A5EB4202 		sub	r2, r5, r2, lsl #1
 1015 006c 3032     		adds	r2, r2, #48
 1016 006e 07F11200 		add	r0, r7, #18
 1017 0072 3146     		mov	r1, r6
 1018 0074 D2B2     		uxtb	r2, r2
 1019 0076 FFF7FEFF 		bl	LCD_drawChar
 1020              	.LVL70:
 1021              		.loc 1 229 0
 1022 007a 88FB0438 		smull	r3, r8, r8, r4
 1023 007e E317     		asrs	r3, r4, #31
 1024 0080 C3EBA808 		rsb	r8, r3, r8, asr #2
 1025 0084 08EB8802 		add	r2, r8, r8, lsl #2
 1026 0088 A4EB4202 		sub	r2, r4, r2, lsl #1
ARM GAS  /tmp/ccYnLQOf.s 			page 19


 1027 008c 3032     		adds	r2, r2, #48
 1028 008e 07F10C00 		add	r0, r7, #12
 1029 0092 3146     		mov	r1, r6
 1030 0094 D2B2     		uxtb	r2, r2
 1031 0096 FFF7FEFF 		bl	LCD_drawChar
 1032              	.LVL71:
 1033              		.loc 1 231 0
 1034 009a 08F13002 		add	r2, r8, #48
 1035 009e B81D     		adds	r0, r7, #6
 1036 00a0 3146     		mov	r1, r6
 1037 00a2 D2B2     		uxtb	r2, r2
 1038              		.loc 1 232 0
 1039 00a4 BDE8F041 		pop	{r4, r5, r6, r7, r8, lr}
 1040              		.cfi_restore 14
 1041              		.cfi_restore 8
 1042              		.cfi_restore 7
 1043              		.cfi_restore 6
 1044              		.cfi_restore 5
 1045              		.cfi_restore 4
 1046              		.cfi_def_cfa_offset 0
 1047              	.LVL72:
 1048              		.loc 1 231 0
 1049 00a8 FFF7FEBF 		b	LCD_drawChar
 1050              	.LVL73:
 1051              	.L90:
 1052              		.align	2
 1053              	.L89:
 1054 00ac 67666666 		.word	1717986919
 1055              		.cfi_endproc
 1056              	.LFE129:
 1057              		.size	LCD_drawNumber5D, .-LCD_drawNumber5D
 1058              		.section	.text.LCD_drawCharInv,"ax",%progbits
 1059              		.align	2
 1060              		.p2align 4,,15
 1061              		.global	LCD_drawCharInv
 1062              		.thumb
 1063              		.thumb_func
 1064              		.type	LCD_drawCharInv, %function
 1065              	LCD_drawCharInv:
 1066              	.LFB130:
 1067              		.loc 1 234 0
 1068              		.cfi_startproc
 1069              		@ args = 0, pretend = 0, frame = 0
 1070              		@ frame_needed = 0, uses_anonymous_args = 0
 1071              	.LVL74:
 1072              		.loc 1 237 0
 1073 0000 7A28     		cmp	r0, #122
 1074 0002 21D8     		bhi	.L94
 1075              		.loc 1 237 0 is_stmt 0 discriminator 2
 1076 0004 0729     		cmp	r1, #7
 1077 0006 1FD8     		bhi	.L94
 1078              	.LVL75:
 1079              		.loc 1 234 0 is_stmt 1
 1080 0008 F0B5     		push	{r4, r5, r6, r7, lr}
 1081              		.cfi_def_cfa_offset 20
 1082              		.cfi_offset 4, -20
 1083              		.cfi_offset 5, -16
ARM GAS  /tmp/ccYnLQOf.s 			page 20


 1084              		.cfi_offset 6, -12
 1085              		.cfi_offset 7, -8
 1086              		.cfi_offset 14, -4
 1087              	.LBB18:
 1088              	.LBB19:
 1089              		.loc 1 241 0
 1090 000a 104D     		ldr	r5, .L95
 1091 000c 104C     		ldr	r4, .L95+4
 1092              		.loc 1 239 0
 1093 000e 02EB8202 		add	r2, r2, r2, lsl #2
 1094              	.LVL76:
 1095              		.loc 1 242 0
 1096 0012 AB18     		adds	r3, r5, r2
 1097              		.loc 1 241 0
 1098 0014 AF5C     		ldrb	r7, [r5, r2]	@ zero_extendqisi2
 1099              		.loc 1 242 0
 1100 0016 5E78     		ldrb	r6, [r3, #1]	@ zero_extendqisi2
 1101              		.loc 1 243 0
 1102 0018 9D78     		ldrb	r5, [r3, #2]	@ zero_extendqisi2
 1103              		.loc 1 245 0
 1104 001a 1A79     		ldrb	r2, [r3, #4]	@ zero_extendqisi2
 1105              	.LVL77:
 1106              		.loc 1 240 0
 1107 001c 01EB4111 		add	r1, r1, r1, lsl #5
 1108              	.LVL78:
 1109 0020 0430     		adds	r0, r0, #4
 1110              	.LVL79:
 1111 0022 00EB8100 		add	r0, r0, r1, lsl #2
 1112              	.LVL80:
 1113              		.loc 1 244 0
 1114 0026 D978     		ldrb	r1, [r3, #3]	@ zero_extendqisi2
 1115              		.loc 1 241 0
 1116 0028 FF43     		mvns	r7, r7
 1117              		.loc 1 242 0
 1118 002a 2318     		adds	r3, r4, r0
 1119              		.loc 1 241 0
 1120 002c 2754     		strb	r7, [r4, r0]
 1121              		.loc 1 242 0
 1122 002e F643     		mvns	r6, r6
 1123              		.loc 1 243 0
 1124 0030 ED43     		mvns	r5, r5
 1125              		.loc 1 244 0
 1126 0032 C943     		mvns	r1, r1
 1127              		.loc 1 245 0
 1128 0034 D243     		mvns	r2, r2
 1129              		.loc 1 246 0
 1130 0036 4FF0FF0E 		mov	lr, #255
 1131              	.LVL81:
 1132              		.loc 1 242 0
 1133 003a 5E70     		strb	r6, [r3, #1]
 1134              	.LVL82:
 1135              		.loc 1 243 0
 1136 003c 9D70     		strb	r5, [r3, #2]
 1137              	.LVL83:
 1138              		.loc 1 244 0
 1139 003e D970     		strb	r1, [r3, #3]
 1140              	.LVL84:
ARM GAS  /tmp/ccYnLQOf.s 			page 21


 1141              		.loc 1 245 0
 1142 0040 1A71     		strb	r2, [r3, #4]
 1143              		.loc 1 246 0
 1144 0042 83F805E0 		strb	lr, [r3, #5]
 1145 0046 F0BD     		pop	{r4, r5, r6, r7, pc}
 1146              	.LVL85:
 1147              	.L94:
 1148              		.cfi_def_cfa_offset 0
 1149              		.cfi_restore 4
 1150              		.cfi_restore 5
 1151              		.cfi_restore 6
 1152              		.cfi_restore 7
 1153              		.cfi_restore 14
 1154 0048 7047     		bx	lr
 1155              	.L96:
 1156 004a 00BF     		.align	2
 1157              	.L95:
 1158 004c 00000000 		.word	font
 1159 0050 00000000 		.word	.LANCHOR3
 1160              	.LBE19:
 1161              	.LBE18:
 1162              		.cfi_endproc
 1163              	.LFE130:
 1164              		.size	LCD_drawCharInv, .-LCD_drawCharInv
 1165              		.section	.text.LCD_drawStringInv,"ax",%progbits
 1166              		.align	2
 1167              		.p2align 4,,15
 1168              		.global	LCD_drawStringInv
 1169              		.thumb
 1170              		.thumb_func
 1171              		.type	LCD_drawStringInv, %function
 1172              	LCD_drawStringInv:
 1173              	.LFB131:
 1174              		.loc 1 249 0
 1175              		.cfi_startproc
 1176              		@ args = 0, pretend = 0, frame = 0
 1177              		@ frame_needed = 0, uses_anonymous_args = 0
 1178              	.LVL86:
 1179              		.loc 1 250 0
 1180 0000 0729     		cmp	r1, #7
 1181 0002 34D8     		bhi	.L106
 1182              		.loc 1 250 0 is_stmt 0 discriminator 1
 1183 0004 0028     		cmp	r0, #0
 1184 0006 32DB     		blt	.L106
 1185              		.loc 1 249 0 is_stmt 1
 1186 0008 F0B5     		push	{r4, r5, r6, r7, lr}
 1187              		.cfi_def_cfa_offset 20
 1188              		.cfi_offset 4, -20
 1189              		.cfi_offset 5, -16
 1190              		.cfi_offset 6, -12
 1191              		.cfi_offset 7, -8
 1192              		.cfi_offset 14, -4
 1193              		.loc 1 253 0
 1194 000a 031D     		adds	r3, r0, #4
 1195 000c 01EB4111 		add	r1, r1, r1, lsl #5
 1196              	.LVL87:
 1197 0010 03EB8101 		add	r1, r3, r1, lsl #2
ARM GAS  /tmp/ccYnLQOf.s 			page 22


 1198              	.LVL88:
 1199              		.loc 1 254 0
 1200 0014 164B     		ldr	r3, .L107
 1201 0016 FF27     		movs	r7, #255
 1202 0018 5F54     		strb	r7, [r3, r1]
 1203              	.LVL89:
 1204              		.loc 1 256 0
 1205 001a 1478     		ldrb	r4, [r2]	@ zero_extendqisi2
 1206 001c 0132     		adds	r2, r2, #1
 1207              	.LVL90:
 1208 001e 2CB3     		cbz	r4, .L97
 1209              	.LBB20:
 1210              		.loc 1 257 0
 1211 0020 7F28     		cmp	r0, #127
 1212 0022 23DC     		bgt	.L97
 1213 0024 0B44     		add	r3, r3, r1
 1214 0026 134E     		ldr	r6, .L107+4
 1215 0028 01E0     		b	.L100
 1216              	.LVL91:
 1217              	.L101:
 1218 002a 7F28     		cmp	r0, #127
 1219 002c 1EDC     		bgt	.L97
 1220              	.L100:
 1221              	.LVL92:
 1222              		.loc 1 260 0
 1223 002e 04EB8404 		add	r4, r4, r4, lsl #2
 1224              	.LVL93:
 1225              		.loc 1 262 0
 1226 0032 3119     		adds	r1, r6, r4
 1227              		.loc 1 261 0
 1228 0034 16F804C0 		ldrb	ip, [r6, r4]	@ zero_extendqisi2
 1229              		.loc 1 262 0
 1230 0038 91F801E0 		ldrb	lr, [r1, #1]	@ zero_extendqisi2
 1231              		.loc 1 263 0
 1232 003c 8D78     		ldrb	r5, [r1, #2]	@ zero_extendqisi2
 1233              		.loc 1 264 0
 1234 003e CC78     		ldrb	r4, [r1, #3]	@ zero_extendqisi2
 1235              		.loc 1 265 0
 1236 0040 0979     		ldrb	r1, [r1, #4]	@ zero_extendqisi2
 1237              		.loc 1 266 0
 1238 0042 9F71     		strb	r7, [r3, #6]
 1239              		.loc 1 264 0
 1240 0044 E443     		mvns	r4, r4
 1241              		.loc 1 261 0
 1242 0046 6FEA0C0C 		mvn	ip, ip
 1243              		.loc 1 262 0
 1244 004a 6FEA0E0E 		mvn	lr, lr
 1245              		.loc 1 263 0
 1246 004e ED43     		mvns	r5, r5
 1247              		.loc 1 265 0
 1248 0050 C943     		mvns	r1, r1
 1249              		.loc 1 261 0
 1250 0052 83F801C0 		strb	ip, [r3, #1]
 1251              		.loc 1 262 0
 1252 0056 83F802E0 		strb	lr, [r3, #2]
 1253              		.loc 1 263 0
 1254 005a DD70     		strb	r5, [r3, #3]
ARM GAS  /tmp/ccYnLQOf.s 			page 23


 1255              		.loc 1 264 0
 1256 005c 1C71     		strb	r4, [r3, #4]
 1257              		.loc 1 265 0
 1258 005e 5971     		strb	r1, [r3, #5]
 1259              	.LBE20:
 1260              		.loc 1 256 0
 1261 0060 12F8014B 		ldrb	r4, [r2], #1	@ zero_extendqisi2
 1262              	.LVL94:
 1263 0064 0633     		adds	r3, r3, #6
 1264              	.LVL95:
 1265              	.LBB21:
 1266              		.loc 1 259 0
 1267 0066 0630     		adds	r0, r0, #6
 1268              	.LVL96:
 1269              	.LBE21:
 1270              		.loc 1 256 0
 1271 0068 002C     		cmp	r4, #0
 1272 006a DED1     		bne	.L101
 1273              	.L97:
 1274 006c F0BD     		pop	{r4, r5, r6, r7, pc}
 1275              	.LVL97:
 1276              	.L106:
 1277              		.cfi_def_cfa_offset 0
 1278              		.cfi_restore 4
 1279              		.cfi_restore 5
 1280              		.cfi_restore 6
 1281              		.cfi_restore 7
 1282              		.cfi_restore 14
 1283 006e 7047     		bx	lr
 1284              	.L108:
 1285              		.align	2
 1286              	.L107:
 1287 0070 00000000 		.word	.LANCHOR3
 1288 0074 00000000 		.word	font
 1289              		.cfi_endproc
 1290              	.LFE131:
 1291              		.size	LCD_drawStringInv, .-LCD_drawStringInv
 1292              		.section	.text.LCD_drawNumber3DInv,"ax",%progbits
 1293              		.align	2
 1294              		.p2align 4,,15
 1295              		.global	LCD_drawNumber3DInv
 1296              		.thumb
 1297              		.thumb_func
 1298              		.type	LCD_drawNumber3DInv, %function
 1299              	LCD_drawNumber3DInv:
 1300              	.LFB132:
 1301              		.loc 1 270 0
 1302              		.cfi_startproc
 1303              		@ args = 0, pretend = 0, frame = 0
 1304              		@ frame_needed = 0, uses_anonymous_args = 0
 1305              	.LVL98:
 1306 0000 2DE9F041 		push	{r4, r5, r6, r7, r8, lr}
 1307              		.cfi_def_cfa_offset 24
 1308              		.cfi_offset 4, -24
 1309              		.cfi_offset 5, -20
 1310              		.cfi_offset 6, -16
 1311              		.cfi_offset 7, -12
ARM GAS  /tmp/ccYnLQOf.s 			page 24


 1312              		.cfi_offset 8, -8
 1313              		.cfi_offset 14, -4
 1314              		.loc 1 271 0
 1315 0004 151E     		subs	r5, r2, #0
 1316              		.loc 1 278 0
 1317 0006 DFF86480 		ldr	r8, .L113
 1318              		.loc 1 273 0
 1319 000a BABF     		itte	lt
 1320 000c 6D42     		rsblt	r5, r5, #0
 1321              		.loc 1 272 0
 1322 000e 2D22     		movlt	r2, #45
 1323              	.LVL99:
 1324              		.loc 1 276 0
 1325 0010 2022     		movge	r2, #32
 1326              		.loc 1 270 0
 1327 0012 0746     		mov	r7, r0
 1328 0014 0E46     		mov	r6, r1
 1329              		.loc 1 276 0
 1330 0016 FFF7FEFF 		bl	LCD_drawCharInv
 1331              	.LVL100:
 1332              		.loc 1 278 0
 1333 001a EB17     		asrs	r3, r5, #31
 1334 001c 88FB0524 		smull	r2, r4, r8, r5
 1335 0020 C3EBA404 		rsb	r4, r3, r4, asr #2
 1336 0024 04EB8402 		add	r2, r4, r4, lsl #2
 1337 0028 A5EB4202 		sub	r2, r5, r2, lsl #1
 1338 002c 3032     		adds	r2, r2, #48
 1339 002e 07F11200 		add	r0, r7, #18
 1340 0032 3146     		mov	r1, r6
 1341 0034 D2B2     		uxtb	r2, r2
 1342 0036 FFF7FEFF 		bl	LCD_drawCharInv
 1343              	.LVL101:
 1344              		.loc 1 280 0
 1345 003a 88FB0435 		smull	r3, r5, r8, r4
 1346 003e E317     		asrs	r3, r4, #31
 1347 0040 C3EBA505 		rsb	r5, r3, r5, asr #2
 1348 0044 05EB8502 		add	r2, r5, r5, lsl #2
 1349 0048 A4EB4202 		sub	r2, r4, r2, lsl #1
 1350 004c 3032     		adds	r2, r2, #48
 1351 004e 07F10C00 		add	r0, r7, #12
 1352 0052 3146     		mov	r1, r6
 1353 0054 D2B2     		uxtb	r2, r2
 1354 0056 FFF7FEFF 		bl	LCD_drawCharInv
 1355              	.LVL102:
 1356              		.loc 1 282 0
 1357 005a 05F13002 		add	r2, r5, #48
 1358 005e B81D     		adds	r0, r7, #6
 1359 0060 3146     		mov	r1, r6
 1360 0062 D2B2     		uxtb	r2, r2
 1361              		.loc 1 283 0
 1362 0064 BDE8F041 		pop	{r4, r5, r6, r7, r8, lr}
 1363              		.cfi_restore 14
 1364              		.cfi_restore 8
 1365              		.cfi_restore 7
 1366              		.cfi_restore 6
 1367              		.cfi_restore 5
 1368              		.cfi_restore 4
ARM GAS  /tmp/ccYnLQOf.s 			page 25


 1369              		.cfi_def_cfa_offset 0
 1370              	.LVL103:
 1371              		.loc 1 282 0
 1372 0068 FFF7FEBF 		b	LCD_drawCharInv
 1373              	.LVL104:
 1374              	.L114:
 1375              		.align	2
 1376              	.L113:
 1377 006c 67666666 		.word	1717986919
 1378              		.cfi_endproc
 1379              	.LFE132:
 1380              		.size	LCD_drawNumber3DInv, .-LCD_drawNumber3DInv
 1381              		.section	.text.LCD_drawNumber5DInv,"ax",%progbits
 1382              		.align	2
 1383              		.p2align 4,,15
 1384              		.global	LCD_drawNumber5DInv
 1385              		.thumb
 1386              		.thumb_func
 1387              		.type	LCD_drawNumber5DInv, %function
 1388              	LCD_drawNumber5DInv:
 1389              	.LFB133:
 1390              		.loc 1 285 0
 1391              		.cfi_startproc
 1392              		@ args = 0, pretend = 0, frame = 0
 1393              		@ frame_needed = 0, uses_anonymous_args = 0
 1394              	.LVL105:
 1395 0000 2DE9F041 		push	{r4, r5, r6, r7, r8, lr}
 1396              		.cfi_def_cfa_offset 24
 1397              		.cfi_offset 4, -24
 1398              		.cfi_offset 5, -20
 1399              		.cfi_offset 6, -16
 1400              		.cfi_offset 7, -12
 1401              		.cfi_offset 8, -8
 1402              		.cfi_offset 14, -4
 1403              		.loc 1 286 0
 1404 0004 151E     		subs	r5, r2, #0
 1405              		.loc 1 293 0
 1406 0006 DFF8A480 		ldr	r8, .L119
 1407              		.loc 1 288 0
 1408 000a BABF     		itte	lt
 1409 000c 6D42     		rsblt	r5, r5, #0
 1410              		.loc 1 287 0
 1411 000e 2D22     		movlt	r2, #45
 1412              	.LVL106:
 1413              		.loc 1 291 0
 1414 0010 2022     		movge	r2, #32
 1415              		.loc 1 285 0
 1416 0012 0746     		mov	r7, r0
 1417 0014 0E46     		mov	r6, r1
 1418              		.loc 1 291 0
 1419 0016 FFF7FEFF 		bl	LCD_drawCharInv
 1420              	.LVL107:
 1421              		.loc 1 293 0
 1422 001a EB17     		asrs	r3, r5, #31
 1423 001c 88FB0524 		smull	r2, r4, r8, r5
 1424 0020 C3EBA404 		rsb	r4, r3, r4, asr #2
 1425 0024 04EB8402 		add	r2, r4, r4, lsl #2
ARM GAS  /tmp/ccYnLQOf.s 			page 26


 1426 0028 A5EB4202 		sub	r2, r5, r2, lsl #1
 1427 002c 3032     		adds	r2, r2, #48
 1428 002e 07F11E00 		add	r0, r7, #30
 1429 0032 3146     		mov	r1, r6
 1430 0034 D2B2     		uxtb	r2, r2
 1431 0036 FFF7FEFF 		bl	LCD_drawCharInv
 1432              	.LVL108:
 1433              		.loc 1 295 0
 1434 003a 88FB0435 		smull	r3, r5, r8, r4
 1435 003e E317     		asrs	r3, r4, #31
 1436 0040 C3EBA505 		rsb	r5, r3, r5, asr #2
 1437 0044 05EB8502 		add	r2, r5, r5, lsl #2
 1438 0048 A4EB4202 		sub	r2, r4, r2, lsl #1
 1439 004c 3032     		adds	r2, r2, #48
 1440 004e 07F11800 		add	r0, r7, #24
 1441 0052 3146     		mov	r1, r6
 1442 0054 D2B2     		uxtb	r2, r2
 1443 0056 FFF7FEFF 		bl	LCD_drawCharInv
 1444              	.LVL109:
 1445              		.loc 1 297 0
 1446 005a 88FB0534 		smull	r3, r4, r8, r5
 1447 005e EB17     		asrs	r3, r5, #31
 1448 0060 C3EBA404 		rsb	r4, r3, r4, asr #2
 1449 0064 04EB8402 		add	r2, r4, r4, lsl #2
 1450 0068 A5EB4202 		sub	r2, r5, r2, lsl #1
 1451 006c 3032     		adds	r2, r2, #48
 1452 006e 07F11200 		add	r0, r7, #18
 1453 0072 3146     		mov	r1, r6
 1454 0074 D2B2     		uxtb	r2, r2
 1455 0076 FFF7FEFF 		bl	LCD_drawCharInv
 1456              	.LVL110:
 1457              		.loc 1 299 0
 1458 007a 88FB0438 		smull	r3, r8, r8, r4
 1459 007e E317     		asrs	r3, r4, #31
 1460 0080 C3EBA808 		rsb	r8, r3, r8, asr #2
 1461 0084 08EB8802 		add	r2, r8, r8, lsl #2
 1462 0088 A4EB4202 		sub	r2, r4, r2, lsl #1
 1463 008c 3032     		adds	r2, r2, #48
 1464 008e 07F10C00 		add	r0, r7, #12
 1465 0092 3146     		mov	r1, r6
 1466 0094 D2B2     		uxtb	r2, r2
 1467 0096 FFF7FEFF 		bl	LCD_drawCharInv
 1468              	.LVL111:
 1469              		.loc 1 301 0
 1470 009a 08F13002 		add	r2, r8, #48
 1471 009e B81D     		adds	r0, r7, #6
 1472 00a0 3146     		mov	r1, r6
 1473 00a2 D2B2     		uxtb	r2, r2
 1474              		.loc 1 302 0
 1475 00a4 BDE8F041 		pop	{r4, r5, r6, r7, r8, lr}
 1476              		.cfi_restore 14
 1477              		.cfi_restore 8
 1478              		.cfi_restore 7
 1479              		.cfi_restore 6
 1480              		.cfi_restore 5
 1481              		.cfi_restore 4
 1482              		.cfi_def_cfa_offset 0
ARM GAS  /tmp/ccYnLQOf.s 			page 27


 1483              	.LVL112:
 1484              		.loc 1 301 0
 1485 00a8 FFF7FEBF 		b	LCD_drawCharInv
 1486              	.LVL113:
 1487              	.L120:
 1488              		.align	2
 1489              	.L119:
 1490 00ac 67666666 		.word	1717986919
 1491              		.cfi_endproc
 1492              	.LFE133:
 1493              		.size	LCD_drawNumber5DInv, .-LCD_drawNumber5DInv
 1494              		.section	.text.LCD_drawStringN,"ax",%progbits
 1495              		.align	2
 1496              		.p2align 4,,15
 1497              		.global	LCD_drawStringN
 1498              		.thumb
 1499              		.thumb_func
 1500              		.type	LCD_drawStringN, %function
 1501              	LCD_drawStringN:
 1502              	.LFB134:
 1503              		.loc 1 304 0
 1504              		.cfi_startproc
 1505              		@ args = 0, pretend = 0, frame = 0
 1506              		@ frame_needed = 0, uses_anonymous_args = 0
 1507              	.LVL114:
 1508              		.loc 1 306 0
 1509 0000 0729     		cmp	r1, #7
 1510 0002 45D8     		bhi	.L137
 1511              		.loc 1 306 0 is_stmt 0 discriminator 1
 1512 0004 0028     		cmp	r0, #0
 1513 0006 43DB     		blt	.L137
 1514              		.loc 1 308 0 is_stmt 1
 1515 0008 01EB4111 		add	r1, r1, r1, lsl #5
 1516              	.LVL115:
 1517 000c DFF88CC0 		ldr	ip, .L139+4
 1518              		.loc 1 304 0
 1519 0010 2DE9F047 		push	{r4, r5, r6, r7, r8, r9, r10, lr}
 1520              		.cfi_def_cfa_offset 32
 1521              		.cfi_offset 4, -32
 1522              		.cfi_offset 5, -28
 1523              		.cfi_offset 6, -24
 1524              		.cfi_offset 7, -20
 1525              		.cfi_offset 8, -16
 1526              		.cfi_offset 9, -12
 1527              		.cfi_offset 10, -8
 1528              		.cfi_offset 14, -4
 1529              		.loc 1 308 0
 1530 0014 8900     		lsls	r1, r1, #2
 1531 0016 0CEB0103 		add	r3, ip, r1
 1532              	.LVL116:
 1533 001a 0344     		add	r3, r3, r0
 1534 001c 4FF00009 		mov	r9, #0
 1535 0020 83F80490 		strb	r9, [r3, #4]
 1536              		.loc 1 310 0
 1537 0024 1478     		ldrb	r4, [r2]	@ zero_extendqisi2
 1538 0026 561C     		adds	r6, r2, #1
 1539              		.loc 1 309 0
ARM GAS  /tmp/ccYnLQOf.s 			page 28


 1540 0028 431C     		adds	r3, r0, #1
 1541              	.LVL117:
 1542              		.loc 1 310 0
 1543 002a 14B3     		cbz	r4, .L124
 1544              	.LBB22:
 1545              		.loc 1 311 0
 1546 002c 7A2B     		cmp	r3, #122
 1547 002e 20DC     		bgt	.L124
 1548 0030 0844     		add	r0, r0, r1
 1549 0032 194F     		ldr	r7, .L139
 1550 0034 6044     		add	r0, r0, ip
 1551 0036 01E0     		b	.L126
 1552              	.LVL118:
 1553              	.L128:
 1554 0038 7A2B     		cmp	r3, #122
 1555 003a 1ADC     		bgt	.L124
 1556              	.LVL119:
 1557              	.L126:
 1558              		.loc 1 313 0
 1559 003c 04EB8404 		add	r4, r4, r4, lsl #2
 1560              	.LVL120:
 1561              		.loc 1 316 0
 1562 0040 3D19     		adds	r5, r7, r4
 1563              		.loc 1 315 0
 1564 0042 17F804A0 		ldrb	r10, [r7, r4]	@ zero_extendqisi2
 1565              		.loc 1 316 0
 1566 0046 95F80180 		ldrb	r8, [r5, #1]	@ zero_extendqisi2
 1567              		.loc 1 319 0
 1568 004a 2C79     		ldrb	r4, [r5, #4]	@ zero_extendqisi2
 1569              	.LVL121:
 1570              		.loc 1 317 0
 1571 004c AA78     		ldrb	r2, [r5, #2]	@ zero_extendqisi2
 1572              		.loc 1 318 0
 1573 004e 95F803E0 		ldrb	lr, [r5, #3]	@ zero_extendqisi2
 1574              		.loc 1 320 0
 1575 0052 80F80A90 		strb	r9, [r0, #10]
 1576              		.loc 1 315 0
 1577 0056 80F805A0 		strb	r10, [r0, #5]
 1578              	.LVL122:
 1579              		.loc 1 316 0
 1580 005a 80F80680 		strb	r8, [r0, #6]
 1581              	.LVL123:
 1582              		.loc 1 317 0
 1583 005e C271     		strb	r2, [r0, #7]
 1584              	.LVL124:
 1585              		.loc 1 318 0
 1586 0060 80F808E0 		strb	lr, [r0, #8]
 1587              	.LVL125:
 1588              		.loc 1 319 0
 1589 0064 4472     		strb	r4, [r0, #9]
 1590              	.LBE22:
 1591              		.loc 1 310 0
 1592 0066 16F8014B 		ldrb	r4, [r6], #1	@ zero_extendqisi2
 1593              	.LVL126:
 1594 006a 0630     		adds	r0, r0, #6
 1595              	.LBB23:
 1596              		.loc 1 321 0
ARM GAS  /tmp/ccYnLQOf.s 			page 29


 1597 006c 0633     		adds	r3, r3, #6
 1598              	.LVL127:
 1599              	.LBE23:
 1600              		.loc 1 310 0
 1601 006e 002C     		cmp	r4, #0
 1602 0070 E2D1     		bne	.L128
 1603              	.LVL128:
 1604              	.L124:
 1605              		.loc 1 323 0
 1606 0072 7F2B     		cmp	r3, #127
 1607 0074 0DDC     		bgt	.L138
 1608 0076 CA1C     		adds	r2, r1, #3
 1609 0078 1344     		add	r3, r3, r2
 1610              	.LVL129:
 1611 007a 8331     		adds	r1, r1, #131
 1612 007c 0CEB0102 		add	r2, ip, r1
 1613 0080 6344     		add	r3, r3, ip
 1614              	.LBB24:
 1615              		.loc 1 325 0
 1616 0082 0021     		movs	r1, #0
 1617              	.L129:
 1618              	.LVL130:
 1619 0084 03F8011F 		strb	r1, [r3, #1]!
 1620              	.LVL131:
 1621              	.LBE24:
 1622              		.loc 1 323 0
 1623 0088 9342     		cmp	r3, r2
 1624 008a FBD1     		bne	.L129
 1625 008c BDE8F087 		pop	{r4, r5, r6, r7, r8, r9, r10, pc}
 1626              	.LVL132:
 1627              	.L137:
 1628              		.cfi_def_cfa_offset 0
 1629              		.cfi_restore 4
 1630              		.cfi_restore 5
 1631              		.cfi_restore 6
 1632              		.cfi_restore 7
 1633              		.cfi_restore 8
 1634              		.cfi_restore 9
 1635              		.cfi_restore 10
 1636              		.cfi_restore 14
 1637 0090 7047     		bx	lr
 1638              	.LVL133:
 1639              	.L138:
 1640              		.cfi_def_cfa_offset 32
 1641              		.cfi_offset 4, -32
 1642              		.cfi_offset 5, -28
 1643              		.cfi_offset 6, -24
 1644              		.cfi_offset 7, -20
 1645              		.cfi_offset 8, -16
 1646              		.cfi_offset 9, -12
 1647              		.cfi_offset 10, -8
 1648              		.cfi_offset 14, -4
 1649 0092 BDE8F087 		pop	{r4, r5, r6, r7, r8, r9, r10, pc}
 1650              	.LVL134:
 1651              	.L140:
 1652 0096 00BF     		.align	2
 1653              	.L139:
ARM GAS  /tmp/ccYnLQOf.s 			page 30


 1654 0098 00000000 		.word	font
 1655 009c 00000000 		.word	.LANCHOR3
 1656              		.cfi_endproc
 1657              	.LFE134:
 1658              		.size	LCD_drawStringN, .-LCD_drawStringN
 1659              		.section	.text.LCD_drawStringInvN,"ax",%progbits
 1660              		.align	2
 1661              		.p2align 4,,15
 1662              		.global	LCD_drawStringInvN
 1663              		.thumb
 1664              		.thumb_func
 1665              		.type	LCD_drawStringInvN, %function
 1666              	LCD_drawStringInvN:
 1667              	.LFB135:
 1668              		.loc 1 330 0
 1669              		.cfi_startproc
 1670              		@ args = 0, pretend = 0, frame = 0
 1671              		@ frame_needed = 0, uses_anonymous_args = 0
 1672              	.LVL135:
 1673              		.loc 1 332 0
 1674 0000 0729     		cmp	r1, #7
 1675 0002 4CD8     		bhi	.L157
 1676              		.loc 1 332 0 is_stmt 0 discriminator 1
 1677 0004 0028     		cmp	r0, #0
 1678 0006 4ADB     		blt	.L157
 1679              		.loc 1 330 0 is_stmt 1
 1680 0008 2DE9F047 		push	{r4, r5, r6, r7, r8, r9, r10, lr}
 1681              		.cfi_def_cfa_offset 32
 1682              		.cfi_offset 4, -32
 1683              		.cfi_offset 5, -28
 1684              		.cfi_offset 6, -24
 1685              		.cfi_offset 7, -20
 1686              		.cfi_offset 8, -16
 1687              		.cfi_offset 9, -12
 1688              		.cfi_offset 10, -8
 1689              		.cfi_offset 14, -4
 1690              		.loc 1 334 0
 1691 000c 01EB4111 		add	r1, r1, r1, lsl #5
 1692              	.LVL136:
 1693 0010 244F     		ldr	r7, .L159
 1694 0012 8900     		lsls	r1, r1, #2
 1695 0014 7B18     		adds	r3, r7, r1
 1696              	.LVL137:
 1697 0016 0344     		add	r3, r3, r0
 1698 0018 4FF0FF0C 		mov	ip, #255
 1699 001c 83F804C0 		strb	ip, [r3, #4]
 1700              		.loc 1 336 0
 1701 0020 1478     		ldrb	r4, [r2]	@ zero_extendqisi2
 1702              		.loc 1 335 0
 1703 0022 431C     		adds	r3, r0, #1
 1704              	.LVL138:
 1705              		.loc 1 336 0
 1706 0024 0132     		adds	r2, r2, #1
 1707              	.LVL139:
 1708 0026 64B3     		cbz	r4, .L144
 1709              	.LBB25:
 1710              		.loc 1 337 0
ARM GAS  /tmp/ccYnLQOf.s 			page 31


 1711 0028 7A2B     		cmp	r3, #122
 1712 002a 2ADC     		bgt	.L144
 1713 002c 0844     		add	r0, r0, r1
 1714 002e DFF878E0 		ldr	lr, .L159+4
 1715 0032 3844     		add	r0, r0, r7
 1716 0034 01E0     		b	.L146
 1717              	.LVL140:
 1718              	.L148:
 1719 0036 7A2B     		cmp	r3, #122
 1720 0038 23DC     		bgt	.L144
 1721              	.LVL141:
 1722              	.L146:
 1723              		.loc 1 339 0
 1724 003a 04EB8404 		add	r4, r4, r4, lsl #2
 1725              	.LVL142:
 1726              		.loc 1 342 0
 1727 003e 0EEB0405 		add	r5, lr, r4
 1728              		.loc 1 341 0
 1729 0042 1EF804A0 		ldrb	r10, [lr, r4]	@ zero_extendqisi2
 1730              		.loc 1 342 0
 1731 0046 95F80190 		ldrb	r9, [r5, #1]	@ zero_extendqisi2
 1732              		.loc 1 343 0
 1733 004a 95F80280 		ldrb	r8, [r5, #2]	@ zero_extendqisi2
 1734              		.loc 1 345 0
 1735 004e 2C79     		ldrb	r4, [r5, #4]	@ zero_extendqisi2
 1736              	.LVL143:
 1737              		.loc 1 344 0
 1738 0050 EE78     		ldrb	r6, [r5, #3]	@ zero_extendqisi2
 1739              		.loc 1 346 0
 1740 0052 80F80AC0 		strb	ip, [r0, #10]
 1741              		.loc 1 345 0
 1742 0056 E443     		mvns	r4, r4
 1743              		.loc 1 341 0
 1744 0058 6FEA0A0A 		mvn	r10, r10
 1745              		.loc 1 342 0
 1746 005c 6FEA0909 		mvn	r9, r9
 1747              		.loc 1 343 0
 1748 0060 6FEA0808 		mvn	r8, r8
 1749              		.loc 1 344 0
 1750 0064 F543     		mvns	r5, r6
 1751              		.loc 1 341 0
 1752 0066 80F805A0 		strb	r10, [r0, #5]
 1753              	.LVL144:
 1754              		.loc 1 342 0
 1755 006a 80F80690 		strb	r9, [r0, #6]
 1756              	.LVL145:
 1757              		.loc 1 343 0
 1758 006e 80F80780 		strb	r8, [r0, #7]
 1759              	.LVL146:
 1760              		.loc 1 344 0
 1761 0072 0572     		strb	r5, [r0, #8]
 1762              	.LVL147:
 1763              		.loc 1 345 0
 1764 0074 4472     		strb	r4, [r0, #9]
 1765              	.LBE25:
 1766              		.loc 1 336 0
 1767 0076 12F8014B 		ldrb	r4, [r2], #1	@ zero_extendqisi2
ARM GAS  /tmp/ccYnLQOf.s 			page 32


 1768              	.LVL148:
 1769 007a 0630     		adds	r0, r0, #6
 1770              	.LBB26:
 1771              		.loc 1 347 0
 1772 007c 0633     		adds	r3, r3, #6
 1773              	.LVL149:
 1774              	.LBE26:
 1775              		.loc 1 336 0
 1776 007e 002C     		cmp	r4, #0
 1777 0080 D9D1     		bne	.L148
 1778              	.LVL150:
 1779              	.L144:
 1780              		.loc 1 349 0
 1781 0082 7F2B     		cmp	r3, #127
 1782 0084 0CDC     		bgt	.L158
 1783 0086 CA1C     		adds	r2, r1, #3
 1784 0088 1344     		add	r3, r3, r2
 1785              	.LVL151:
 1786 008a 8331     		adds	r1, r1, #131
 1787 008c 7A18     		adds	r2, r7, r1
 1788 008e 3B44     		add	r3, r3, r7
 1789              	.LBB27:
 1790              		.loc 1 351 0
 1791 0090 FF21     		movs	r1, #255
 1792              	.L149:
 1793              	.LVL152:
 1794 0092 03F8011F 		strb	r1, [r3, #1]!
 1795              	.LVL153:
 1796              	.LBE27:
 1797              		.loc 1 349 0
 1798 0096 9342     		cmp	r3, r2
 1799 0098 FBD1     		bne	.L149
 1800 009a BDE8F087 		pop	{r4, r5, r6, r7, r8, r9, r10, pc}
 1801              	.LVL154:
 1802              	.L157:
 1803              		.cfi_def_cfa_offset 0
 1804              		.cfi_restore 4
 1805              		.cfi_restore 5
 1806              		.cfi_restore 6
 1807              		.cfi_restore 7
 1808              		.cfi_restore 8
 1809              		.cfi_restore 9
 1810              		.cfi_restore 10
 1811              		.cfi_restore 14
 1812 009e 7047     		bx	lr
 1813              	.LVL155:
 1814              	.L158:
 1815              		.cfi_def_cfa_offset 32
 1816              		.cfi_offset 4, -32
 1817              		.cfi_offset 5, -28
 1818              		.cfi_offset 6, -24
 1819              		.cfi_offset 7, -20
 1820              		.cfi_offset 8, -16
 1821              		.cfi_offset 9, -12
 1822              		.cfi_offset 10, -8
 1823              		.cfi_offset 14, -4
 1824 00a0 BDE8F087 		pop	{r4, r5, r6, r7, r8, r9, r10, pc}
ARM GAS  /tmp/ccYnLQOf.s 			page 33


 1825              	.LVL156:
 1826              	.L160:
 1827              		.align	2
 1828              	.L159:
 1829 00a4 00000000 		.word	.LANCHOR3
 1830 00a8 00000000 		.word	font
 1831              		.cfi_endproc
 1832              	.LFE135:
 1833              		.size	LCD_drawStringInvN, .-LCD_drawStringInvN
 1834              		.section	.text.LCD_drawIBAR,"ax",%progbits
 1835              		.align	2
 1836              		.p2align 4,,15
 1837              		.global	LCD_drawIBAR
 1838              		.thumb
 1839              		.thumb_func
 1840              		.type	LCD_drawIBAR, %function
 1841              	LCD_drawIBAR:
 1842              	.LFB136:
 1843              		.loc 1 356 0
 1844              		.cfi_startproc
 1845              		@ args = 0, pretend = 0, frame = 0
 1846              		@ frame_needed = 0, uses_anonymous_args = 0
 1847              	.LVL157:
 1848              		.loc 1 357 0
 1849 0000 0729     		cmp	r1, #7
 1850 0002 2AD8     		bhi	.L178
 1851              		.loc 1 357 0 is_stmt 0 discriminator 1
 1852 0004 0028     		cmp	r0, #0
 1853 0006 28DB     		blt	.L178
 1854              		.loc 1 356 0 is_stmt 1
 1855 0008 F0B5     		push	{r4, r5, r6, r7, lr}
 1856              		.cfi_def_cfa_offset 20
 1857              		.cfi_offset 4, -20
 1858              		.cfi_offset 5, -16
 1859              		.cfi_offset 6, -12
 1860              		.cfi_offset 7, -8
 1861              		.cfi_offset 14, -4
 1862              		.loc 1 359 0
 1863 000a 041D     		adds	r4, r0, #4
 1864 000c 04EBC111 		add	r1, r4, r1, lsl #7
 1865              	.LVL158:
 1866              		.loc 1 362 0
 1867 0010 002A     		cmp	r2, #0
 1868 0012 1A4F     		ldr	r7, .L181
 1869 0014 01F1FF34 		add	r4, r1, #-1
 1870 0018 01F11D0E 		add	lr, r1, #29
 1871 001c 1EDD     		ble	.L164
 1872 001e 3C44     		add	r4, r4, r7
 1873 0020 BE44     		add	lr, lr, r7
 1874 0022 0125     		movs	r5, #1
 1875              	.LVL159:
 1876              	.L166:
 1877              		.loc 1 365 0
 1878 0024 AA42     		cmp	r2, r5
 1879 0026 CCBF     		ite	gt
 1880 0028 0226     		movgt	r6, #2
 1881 002a 0026     		movle	r6, #0
ARM GAS  /tmp/ccYnLQOf.s 			page 34


 1882 002c 04F8016F 		strb	r6, [r4, #1]!
 1883              	.LVL160:
 1884              		.loc 1 363 0
 1885 0030 7445     		cmp	r4, lr
 1886              		.loc 1 366 0
 1887 0032 4FEA4505 		lsl	r5, r5, #1
 1888              	.LVL161:
 1889              		.loc 1 363 0
 1890 0036 F5D1     		bne	.L166
 1891              	.LVL162:
 1892              	.L179:
 1893 0038 1E30     		adds	r0, r0, #30
 1894              		.loc 1 377 0
 1895 003a 9842     		cmp	r0, r3
 1896 003c 01F11E01 		add	r1, r1, #30
 1897              	.LVL163:
 1898 0040 1BDA     		bge	.L180
 1899 0042 013B     		subs	r3, r3, #1
 1900              	.LVL164:
 1901 0044 CA18     		adds	r2, r1, r3
 1902              	.LVL165:
 1903 0046 121A     		subs	r2, r2, r0
 1904 0048 0139     		subs	r1, r1, #1
 1905              	.LVL166:
 1906 004a 7B18     		adds	r3, r7, r1
 1907              	.LVL167:
 1908 004c 3A44     		add	r2, r2, r7
 1909              		.loc 1 378 0
 1910 004e 0021     		movs	r1, #0
 1911              	.LVL168:
 1912              	.L171:
 1913 0050 03F8011F 		strb	r1, [r3, #1]!
 1914              	.LVL169:
 1915              		.loc 1 377 0
 1916 0054 9342     		cmp	r3, r2
 1917 0056 FBD1     		bne	.L171
 1918 0058 F0BD     		pop	{r4, r5, r6, r7, pc}
 1919              	.LVL170:
 1920              	.L178:
 1921              		.cfi_def_cfa_offset 0
 1922              		.cfi_restore 4
 1923              		.cfi_restore 5
 1924              		.cfi_restore 6
 1925              		.cfi_restore 7
 1926              		.cfi_restore 14
 1927 005a 7047     		bx	lr
 1928              	.LVL171:
 1929              	.L164:
 1930              		.cfi_def_cfa_offset 20
 1931              		.cfi_offset 4, -20
 1932              		.cfi_offset 5, -16
 1933              		.cfi_offset 6, -12
 1934              		.cfi_offset 7, -8
 1935              		.cfi_offset 14, -4
 1936              		.loc 1 370 0
 1937 005c 5242     		negs	r2, r2
 1938              	.LVL172:
ARM GAS  /tmp/ccYnLQOf.s 			page 35


 1939 005e 3C44     		add	r4, r4, r7
 1940 0060 BE44     		add	lr, lr, r7
 1941              		.loc 1 360 0
 1942 0062 0125     		movs	r5, #1
 1943              	.LVL173:
 1944              	.L169:
 1945              		.loc 1 373 0
 1946 0064 AA42     		cmp	r2, r5
 1947 0066 CCBF     		ite	gt
 1948 0068 4026     		movgt	r6, #64
 1949 006a 0026     		movle	r6, #0
 1950 006c 04F8016F 		strb	r6, [r4, #1]!
 1951              	.LVL174:
 1952              		.loc 1 371 0
 1953 0070 7445     		cmp	r4, lr
 1954              		.loc 1 374 0
 1955 0072 4FEA4505 		lsl	r5, r5, #1
 1956              	.LVL175:
 1957              		.loc 1 371 0
 1958 0076 F5D1     		bne	.L169
 1959 0078 DEE7     		b	.L179
 1960              	.LVL176:
 1961              	.L180:
 1962 007a F0BD     		pop	{r4, r5, r6, r7, pc}
 1963              	.LVL177:
 1964              	.L182:
 1965              		.align	2
 1966              	.L181:
 1967 007c 00000000 		.word	.LANCHOR3
 1968              		.cfi_endproc
 1969              	.LFE136:
 1970              		.size	LCD_drawIBAR, .-LCD_drawIBAR
 1971              		.section	.text.LCD_drawIBARadd,"ax",%progbits
 1972              		.align	2
 1973              		.p2align 4,,15
 1974              		.global	LCD_drawIBARadd
 1975              		.thumb
 1976              		.thumb_func
 1977              		.type	LCD_drawIBARadd, %function
 1978              	LCD_drawIBARadd:
 1979              	.LFB137:
 1980              		.loc 1 383 0
 1981              		.cfi_startproc
 1982              		@ args = 0, pretend = 0, frame = 0
 1983              		@ frame_needed = 0, uses_anonymous_args = 0
 1984              		@ link register save eliminated.
 1985              	.LVL178:
 1986              		.loc 1 384 0
 1987 0000 3F29     		cmp	r1, #63
 1988 0002 21D8     		bhi	.L191
 1989              		.loc 1 384 0 is_stmt 0 discriminator 1
 1990 0004 0028     		cmp	r0, #0
 1991 0006 1FDB     		blt	.L191
 1992              		.loc 1 383 0 is_stmt 1
 1993 0008 70B4     		push	{r4, r5, r6}
 1994              		.cfi_def_cfa_offset 12
 1995              		.cfi_offset 4, -12
ARM GAS  /tmp/ccYnLQOf.s 			page 36


 1996              		.cfi_offset 5, -8
 1997              		.cfi_offset 6, -4
 1998              		.loc 1 388 0
 1999 000a 1518     		adds	r5, r2, r0
 2000 000c 802D     		cmp	r5, #128
 2001              		.loc 1 389 0
 2002 000e C8BF     		it	gt
 2003 0010 C0F18002 		rsbgt	r2, r0, #128
 2004              	.LVL179:
 2005              		.loc 1 386 0
 2006 0014 031D     		adds	r3, r0, #4
 2007              		.loc 1 387 0
 2008 0016 01F00706 		and	r6, r1, #7
 2009 001a 0124     		movs	r4, #1
 2010              		.loc 1 392 0
 2011 001c 002A     		cmp	r2, #0
 2012              		.loc 1 386 0
 2013 001e 03EBC113 		add	r3, r3, r1, lsl #7
 2014              	.LVL180:
 2015              		.loc 1 387 0
 2016 0022 04FA06F4 		lsl	r4, r4, r6
 2017              	.LVL181:
 2018              		.loc 1 392 0
 2019 0026 0EDD     		ble	.L183
 2020 0028 0848     		ldr	r0, .L192
 2021              	.LVL182:
 2022 002a 013B     		subs	r3, r3, #1
 2023 002c D118     		adds	r1, r2, r3
 2024              	.LVL183:
 2025 002e E543     		mvns	r5, r4
 2026 0030 0144     		add	r1, r1, r0
 2027 0032 C218     		adds	r2, r0, r3
 2028              	.LVL184:
 2029 0034 EDB2     		uxtb	r5, r5
 2030 0036 E0B2     		uxtb	r0, r4
 2031              	.LVL185:
 2032              	.L187:
 2033              		.loc 1 395 0 discriminator 3
 2034 0038 12F8013F 		ldrb	r3, [r2, #1]!	@ zero_extendqisi2
 2035              	.LVL186:
 2036 003c 2B40     		ands	r3, r3, r5
 2037              		.loc 1 396 0 discriminator 3
 2038 003e 0344     		add	r3, r3, r0
 2039              		.loc 1 393 0 discriminator 3
 2040 0040 8A42     		cmp	r2, r1
 2041              		.loc 1 396 0 discriminator 3
 2042 0042 1370     		strb	r3, [r2]
 2043              		.loc 1 393 0 discriminator 3
 2044 0044 F8D1     		bne	.L187
 2045              	.LVL187:
 2046              	.L183:
 2047              		.loc 1 399 0
 2048 0046 70BC     		pop	{r4, r5, r6}
 2049              		.cfi_restore 6
 2050              		.cfi_restore 5
 2051              		.cfi_restore 4
 2052              		.cfi_def_cfa_offset 0
ARM GAS  /tmp/ccYnLQOf.s 			page 37


 2053              	.LVL188:
 2054              	.L191:
 2055 0048 7047     		bx	lr
 2056              	.L193:
 2057 004a 00BF     		.align	2
 2058              	.L192:
 2059 004c 00000000 		.word	.LANCHOR3
 2060              		.cfi_endproc
 2061              	.LFE137:
 2062              		.size	LCD_drawIBARadd, .-LCD_drawIBARadd
 2063              		.global	k
 2064              		.global	row_update_index
 2065              		.global	control_rx_buffer
 2066              		.global	led_buffer
 2067              		.global	lcd_buffer
 2068              		.section	.bss.k,"aw",%nobits
 2069              		.set	.LANCHOR1,. + 0
 2070              		.type	k, %object
 2071              		.size	k, 1
 2072              	k:
 2073 0000 00       		.space	1
 2074              		.section	.rodata.ls_spicfg,"a",%progbits
 2075              		.align	2
 2076              		.set	.LANCHOR2,. + 0
 2077              		.type	ls_spicfg, %object
 2078              		.size	ls_spicfg, 12
 2079              	ls_spicfg:
 2080 0000 00000000 		.word	0
 2081 0004 00000240 		.word	1073872896
 2082 0008 0F00     		.short	15
 2083 000a 1800     		.short	24
 2084              		.section	.sram2,"aw",%progbits
 2085              		.align	2
 2086              		.set	.LANCHOR3,. + 0
 2087              		.type	lcd_buffer, %object
 2088              		.size	lcd_buffer, 1056
 2089              	lcd_buffer:
 2090 0000 00000000 		.space	1056
 2090      00000000 
 2090      00000000 
 2090      00000000 
 2090      00000000 
 2091              		.type	control_rx_buffer, %object
 2092              		.size	control_rx_buffer, 132
 2093              	control_rx_buffer:
 2094 0420 00000000 		.space	132
 2094      00000000 
 2094      00000000 
 2094      00000000 
 2094      00000000 
 2095              		.type	led_buffer, %object
 2096              		.size	led_buffer, 132
 2097              	led_buffer:
 2098 04a4 00000000 		.space	132
 2098      00000000 
 2098      00000000 
 2098      00000000 
ARM GAS  /tmp/ccYnLQOf.s 			page 38


 2098      00000000 
 2099              		.section	.bss.row_update_index,"aw",%nobits
 2100              		.set	.LANCHOR0,. + 0
 2101              		.type	row_update_index, %object
 2102              		.size	row_update_index, 1
 2103              	row_update_index:
 2104 0000 00       		.space	1
 2105              		.text
 2106              	.Letext0:
 2107              		.file 2 "/home/sbcu/Dropbox/pcb-layouts/axo-on-discovery-board/axoloti/platform_linux/lib/gcc/arm-
 2108              		.file 3 "/home/sbcu/Dropbox/pcb-layouts/axo-on-discovery-board/axoloti/platform_linux/arm-none-eab
 2109              		.file 4 "/home/sbcu/Dropbox/pcb-layouts/axo-on-discovery-board/axoloti/platform_linux/arm-none-eab
 2110              		.file 5 "/home/sbcu/Dropbox/pcb-layouts/axo-on-discovery-board/axoloti/platform_linux/../chibios/o
 2111              		.file 6 "/home/sbcu/Dropbox/pcb-layouts/axo-on-discovery-board/axoloti/platform_linux/../chibios/o
 2112              		.file 7 "/home/sbcu/Dropbox/pcb-layouts/axo-on-discovery-board/axoloti/platform_linux/../chibios/o
 2113              		.file 8 "/home/sbcu/Dropbox/pcb-layouts/axo-on-discovery-board/axoloti/platform_linux/../chibios/o
 2114              		.file 9 "/home/sbcu/Dropbox/pcb-layouts/axo-on-discovery-board/axoloti/platform_linux/../chibios/o
 2115              		.file 10 "/home/sbcu/Dropbox/pcb-layouts/axo-on-discovery-board/axoloti/platform_linux/../chibios/
 2116              		.file 11 "/home/sbcu/Dropbox/pcb-layouts/axo-on-discovery-board/axoloti/platform_linux/../chibios/
 2117              		.file 12 "/home/sbcu/Dropbox/pcb-layouts/axo-on-discovery-board/axoloti/platform_linux/../chibios/
 2118              		.file 13 "/home/sbcu/Dropbox/pcb-layouts/axo-on-discovery-board/axoloti/platform_linux/../chibios/
 2119              		.file 14 "/home/sbcu/Dropbox/pcb-layouts/axo-on-discovery-board/axoloti/platform_linux/../chibios/
 2120              		.file 15 "../ui.h"
 2121              		.file 16 "/home/sbcu/Dropbox/pcb-layouts/axo-on-discovery-board/axoloti/platform_linux/../chibios/
 2122              		.file 17 "../axoloti_board.h"