ARM GAS  /tmp/cc4jmVSE.s 			page 1


   1              		.syntax unified
   2              		.cpu cortex-m4
   3              		.eabi_attribute 27, 1
   4              		.eabi_attribute 28, 1
   5              		.fpu fpv4-sp-d16
   6              		.eabi_attribute 20, 1
   7              		.eabi_attribute 21, 1
   8              		.eabi_attribute 23, 3
   9              		.eabi_attribute 24, 1
  10              		.eabi_attribute 25, 1
  11              		.eabi_attribute 26, 1
  12              		.eabi_attribute 30, 2
  13              		.eabi_attribute 34, 1
  14              		.eabi_attribute 18, 4
  15              		.thumb
  16              		.file	"board.c"
  17              		.text
  18              	.Ltext0:
  19              		.cfi_sections	.debug_frame
  20              		.section	.text.__early_init,"ax",%progbits
  21              		.align	2
  22              		.p2align 4,,15
  23              		.global	__early_init
  24              		.thumb
  25              		.thumb_func
  26              		.type	__early_init, %function
  27              	__early_init:
  28              	.LFB118:
  29              		.file 1 "board.c"
  30              		.loc 1 40 0
  31              		.cfi_startproc
  32              		@ args = 0, pretend = 0, frame = 0
  33              		@ frame_needed = 0, uses_anonymous_args = 0
  34 0000 38B5     		push	{r3, r4, r5, lr}
  35              		.cfi_def_cfa_offset 16
  36              		.cfi_offset 3, -16
  37              		.cfi_offset 4, -12
  38              		.cfi_offset 5, -8
  39              		.cfi_offset 14, -4
  40              		.loc 1 42 0
  41 0002 124B     		ldr	r3, .L3
  42              		.loc 1 46 0
  43 0004 124D     		ldr	r5, .L3+4
  44              		.loc 1 42 0
  45 0006 1A69     		ldr	r2, [r3, #16]
  46              		.loc 1 49 0
  47 0008 1249     		ldr	r1, .L3+8
  48              		.loc 1 42 0
  49 000a 0024     		movs	r4, #0
  50 000c 4FF0FF32 		mov	r2, #-1
  51 0010 1A61     		str	r2, [r3, #16]
  52 0012 1C61     		str	r4, [r3, #16]
  53              		.loc 1 43 0
  54 0014 5869     		ldr	r0, [r3, #20]
  55 0016 5A61     		str	r2, [r3, #20]
  56 0018 5C61     		str	r4, [r3, #20]
  57              		.loc 1 44 0
ARM GAS  /tmp/cc4jmVSE.s 			page 2


  58 001a 186A     		ldr	r0, [r3, #32]
  59 001c 1A62     		str	r2, [r3, #32]
  60 001e 1C62     		str	r4, [r3, #32]
  61              		.loc 1 45 0
  62 0020 5A6A     		ldr	r2, [r3, #36]
  63 0022 62F08052 		orn	r2, r2, #268435456
  64 0026 5A62     		str	r2, [r3, #36]
  65              		.loc 1 49 0
  66 0028 4FF00050 		mov	r0, #536870912
  67              		.loc 1 45 0
  68 002c 5C62     		str	r4, [r3, #36]
  69              		.loc 1 49 0
  70 002e 4FF40072 		mov	r2, #512
  71              		.loc 1 46 0
  72 0032 AC61     		str	r4, [r5, #24]
  73              		.loc 1 49 0
  74 0034 FFF7FEFF 		bl	memcpy
  75              	.LVL0:
  76              		.loc 1 51 0
  77 0038 074A     		ldr	r2, .L3+12
  78 003a 1368     		ldr	r3, [r2]
  79 003c 43F00303 		orr	r3, r3, #3
  80 0040 1360     		str	r3, [r2]
  81              		.loc 1 53 0
  82 0042 BDE83840 		pop	{r3, r4, r5, lr}
  83              		.cfi_restore 14
  84              		.cfi_restore 5
  85              		.cfi_restore 4
  86              		.cfi_restore 3
  87              		.cfi_def_cfa_offset 0
  88              		.loc 1 52 0
  89 0046 FFF7FEBF 		b	stm32_clock_init
  90              	.LVL1:
  91              	.L4:
  92 004a 00BF     		.align	2
  93              	.L3:
  94 004c 00380240 		.word	1073887232
  95 0050 00000440 		.word	1074003968
  96 0054 00000000 		.word	_vectors
  97 0058 00380140 		.word	1073821696
  98              		.cfi_endproc
  99              	.LFE118:
 100              		.size	__early_init, .-__early_init
 101              		.section	.text.boardInit,"ax",%progbits
 102              		.align	2
 103              		.p2align 4,,15
 104              		.global	boardInit
 105              		.thumb
 106              		.thumb_func
 107              		.type	boardInit, %function
 108              	boardInit:
 109              	.LFB119:
 110              		.loc 1 82 0
 111              		.cfi_startproc
 112              		@ args = 0, pretend = 0, frame = 0
 113              		@ frame_needed = 0, uses_anonymous_args = 0
 114              		@ link register save eliminated.
ARM GAS  /tmp/cc4jmVSE.s 			page 3


 115 0000 7047     		bx	lr
 116              		.cfi_endproc
 117              	.LFE119:
 118              		.size	boardInit, .-boardInit
 119 0002 00BF     		.section	.text.Vector174,"ax",%progbits
 120              		.align	2
 121              		.p2align 4,,15
 122              		.global	Vector174
 123              		.thumb
 124              		.thumb_func
 125              		.type	Vector174, %function
 126              	Vector174:
 127              	.LFB120:
 128              		.loc 1 85 0
 129              		.cfi_startproc
 130              		@ args = 0, pretend = 0, frame = 0
 131              		@ frame_needed = 0, uses_anonymous_args = 0
 132              		@ link register save eliminated.
 133 0000 7047     		bx	lr
 134              		.cfi_endproc
 135              	.LFE120:
 136              		.size	Vector174, .-Vector174
 137              		.global	pal_default_config
 138 0002 00BF     		.section	.rodata.pal_default_config,"a",%progbits
 139              		.align	2
 140              		.type	pal_default_config, %object
 141              		.size	pal_default_config, 252
 142              	pal_default_config:
 143 0000 00AAA02A 		.word	715172352
 144 0004 00000000 		.word	0
 145 0008 FFABFFFF 		.word	-21505
 146 000c 54000140 		.word	1073807444
 147 0010 FFFF0000 		.word	65535
 148 0014 00005655 		.word	1431699456
 149 0018 00AA0A00 		.word	698880
 150 001c 80280800 		.word	534656
 151 0020 00020000 		.word	512
 152 0024 FFFFFFFF 		.word	-1
 153 0028 15415155 		.word	1431388437
 154 002c FFFF0000 		.word	65535
 155 0030 0000C00C 		.word	213909504
 156 0034 40000000 		.word	64
 157 0038 A2802002 		.word	35684514
 158 003c 00000000 		.word	0
 159 0040 FFFFFFFF 		.word	-1
 160 0044 54154554 		.word	1413813588
 161 0048 FFFF0000 		.word	65535
 162 004c 0CCC0060 		.word	1610664972
 163 0050 00060600 		.word	394752
 164 0054 0A012AA5 		.word	-1523973878
 165 0058 00000000 		.word	0
 166 005c FFFFFFFF 		.word	-1
 167 0060 55505500 		.word	5591125
 168 0064 FFCF0000 		.word	53247
 169 0068 CC000000 		.word	204
 170 006c CC0C00CC 		.word	-872411956
 171 0070 4A80AAAA 		.word	-1431666614
ARM GAS  /tmp/cc4jmVSE.s 			page 4


 172 0074 00000000 		.word	0
 173 0078 FFFFFFFF 		.word	-1
 174 007c 00000000 		.word	0
 175 0080 FFFF0000 		.word	65535
 176 0084 CC0000C0 		.word	-1073741620
 177 0088 CCCCCCCC 		.word	-858993460
 178 008c AA0AB0AA 		.word	-1431303510
 179 0090 00000000 		.word	0
 180 0094 FFFFFFFF 		.word	-1
 181 0098 00000000 		.word	0
 182 009c FFFF0000 		.word	65535
 183 00a0 CCCCCC00 		.word	13421772
 184 00a4 00C0CCCC 		.word	-858996736
 185 00a8 2A0A0280 		.word	-2147349974
 186 00ac 00000000 		.word	0
 187 00b0 FFFFFFFF 		.word	-1
 188 00b4 00000004 		.word	67108864
 189 00b8 FFFF0000 		.word	65535
 190 00bc CC0CCC00 		.word	13372620
 191 00c0 0C0000C0 		.word	-1073741812
 192 00c4 A0A80000 		.word	43168
 193 00c8 00000000 		.word	0
 194 00cc FFFFFFFF 		.word	-1
 195 00d0 00000000 		.word	0
 196 00d4 FFFF0000 		.word	65535
 197 00d8 00CCC0CC 		.word	-859780096
 198 00dc 00000000 		.word	0
 199 00e0 00000000 		.word	0
 200 00e4 00000000 		.word	0
 201 00e8 FFFFFFFF 		.word	-1
 202 00ec 00000000 		.word	0
 203 00f0 FFFF0000 		.word	65535
 204 00f4 00000000 		.word	0
 205 00f8 00000000 		.word	0
 206              		.text
 207              	.Letext0:
 208              		.file 2 "/home/sbcu/Dropbox/pcb-layouts/axo-on-discovery-board/axoloti/platform_linux/arm-none-eab
 209              		.file 3 "/home/sbcu/Dropbox/pcb-layouts/axo-on-discovery-board/axoloti/platform_linux/arm-none-eab
 210              		.file 4 "/home/sbcu/Dropbox/pcb-layouts/axo-on-discovery-board/axoloti/platform_linux/../chibios/o
 211              		.file 5 "/home/sbcu/Dropbox/pcb-layouts/axo-on-discovery-board/axoloti/platform_linux/../chibios/o
 212              		.file 6 "/home/sbcu/Dropbox/pcb-layouts/axo-on-discovery-board/axoloti/platform_linux/../chibios/o
 213              		.file 7 "/home/sbcu/Dropbox/pcb-layouts/axo-on-discovery-board/axoloti/platform_linux/../chibios/o
 214              		.file 8 "/home/sbcu/Dropbox/pcb-layouts/axo-on-discovery-board/axoloti/platform_linux/../chibios/o