ARM GAS  /tmp/cc4jmVSE.s 			page 1


   1              		.syntax unified
   2              		.cpu cortex-m4
   3              		.eabi_attribute 27, 1
   4              		.eabi_attribute 28, 1
   5              		.fpu fpv4-sp-d16
   6              		.eabi_attribute 20, 1
   7              		.eabi_attribute 21, 1
   8              		.eabi_attribute 23, 3
   9              		.eabi_attribute 24, 1
  10              		.eabi_attribute 25, 1
  11              		.eabi_attribute 26, 1
  12              		.eabi_attribute 30, 2
  13              		.eabi_attribute 34, 1
  14              		.eabi_attribute 18, 4
  15              		.thumb
  16              		.file	"board.c"
  17              		.text
  18              	.Ltext0:
  19              		.cfi_sections	.debug_frame
  20              		.section	.text.__early_init,"ax",%progbits
  21              		.align	2
  22              		.p2align 4,,15
  23              		.global	__early_init
  24              		.thumb
  25              		.thumb_func
  26              		.type	__early_init, %function
  27              	__early_init:
  28              	.LFB118:
  29              		.file 1 "board.c"
  30              		.loc 1 40 0
  31              		.cfi_startproc
  32              		@ args = 0, pretend = 0, frame = 0
  33              		@ frame_needed = 0, uses_anonymous_args = 0
  34 0000 38B5     		push	{r3, r4, r5, lr}
  35              		.cfi_def_cfa_offset 16
  36              		.cfi_offset 3, -16
  37              		.cfi_offset 4, -12
  38              		.cfi_offset 5, -8
  39              		.cfi_offset 14, -4
  40              		.loc 1 42 0
  41 0002 124B     		ldr	r3, .L3
  42              		.loc 1 46 0
  43 0004 124D     		ldr	r5, .L3+4
  44              		.loc 1 42 0
  45 0006 1A69     		ldr	r2, [r3, #16]
  46              		.loc 1 49 0
  47 0008 1249     		ldr	r1, .L3+8
  48              		.loc 1 42 0
  49 000a 0024     		movs	r4, #0
  50 000c 4FF0FF32 		mov	r2, #-1
  51 0010 1A61     		str	r2, [r3, #16]
  52 0012 1C61     		str	r4, [r3, #16]
  53              		.loc 1 43 0
  54 0014 5869     		ldr	r0, [r3, #20]
  55 0016 5A61     		str	r2, [r3, #20]
  56 0018 5C61     		str	r4, [r3, #20]
  57              		.loc 1 44 0
ARM GAS  /tmp/cc4jmVSE.s 			page 2


  58 001a 186A     		ldr	r0, [r3, #32]
  59 001c 1A62     		str	r2, [r3, #32]
  60 001e 1C62     		str	r4, [r3, #32]
  61              		.loc 1 45 0
  62 0020 5A6A     		ldr	r2, [r3, #36]
  63 0022 62F08052 		orn	r2, r2, #268435456
  64 0026 5A62     		str	r2, [r3, #36]
  65              		.loc 1 49 0
  66 0028 4FF00050 		mov	r0, #536870912
  67              		.loc 1 45 0
  68 002c 5C62     		str	r4, [r3, #36]
  69              		.loc 1 49 0
  70 002e 4FF40072 		mov	r2, #512
  71              		.loc 1 46 0
  72 0032 AC61     		str	r4, [r5, #24]
  73              		.loc 1 49 0
  74 0034 FFF7FEFF 		bl	memcpy
  75              	.LVL0:
  76              		.loc 1 51 0
  77 0038 074A     		ldr	r2, .L3+12
  78 003a 1368     		ldr	r3, [r2]
  79 003c 43F00303 		orr	r3, r3, #3
  80 0040 1360     		str	r3, [r2]
  81              		.loc 1 53 0
  82 0042 BDE83840 		pop	{r3, r4, r5, lr}
  83              		.cfi_restore 14
  84              		.cfi_restore 5
  85              		.cfi_restore 4
  86              		.cfi_restore 3
  87              		.cfi_def_cfa_offset 0
  88              		.loc 1 52 0
  89 0046 FFF7FEBF 		b	stm32_clock_init
  90              	.LVL1:
  91              	.L4:
  92 004a 00BF     		.align	2
  93              	.L3:
  94 004c 00380240 		.word	1073887232
  95 0050 00000440 		.word	1074003968
  96 0054 00000000 		.word	_vectors
  97 0058 00380140 		.word	1073821696
  98              		.cfi_endproc
  99              	.LFE118:
 100              		.size	__early_init, .-__early_init
 101              		.section	.text.boardInit,"ax",%progbits
 102              		.align	2
 103              		.p2align 4,,15
 104              		.global	boardInit
 105              		.thumb
 106              		.thumb_func
 107              		.type	boardInit, %function
 108              	boardInit:
 109              	.LFB119:
 110              		.loc 1 82 0
 111              		.cfi_startproc
 112              		@ args = 0, pretend = 0, frame = 0
 113              		@ frame_needed = 0, uses_anonymous_args = 0
 114              		@ link register save eliminated.
ARM GAS  /tmp/cc4jmVSE.s 			page 3


 115 0000 7047     		bx	lr
 116              		.cfi_endproc
 117              	.LFE119:
 118              		.size	boardInit, .-boardInit
 119 0002 00BF     		.section	.text.Vector174,"ax",%progbits
 120              		.align	2
 121              		.p2align 4,,15
 122              		.global	Vector174
 123              		.thumb
 124              		.thumb_func
 125              		.type	Vector174, %function
 126              	Vector174:
 127              	.LFB120:
 128              		.loc 1 85 0
 129              		.cfi_startproc
 130              		@ args = 0, pretend = 0, frame = 0
 131              		@ frame_needed = 0, uses_anonymous_args = 0
 132              		@ link register save eliminated.
 133 0000 7047     		bx	lr
 134              		.cfi_endproc
 135              	.LFE120:
 136              		.size	Vector174, .-Vector174
 137              		.global	pal_default_config
 138 0002 00BF     		.section	.rodata.pal_default_config,"a",%progbits
 139              		.align	2
 140              		.type	pal_default_config, %object
 141              		.size	pal_default_config, 252
 142              	pal_default_config:
 143 0000 00AAA02A 		.word	715172352
 144 0004 00000000 		.word	0
 145 0008 FFABFFFF 		.word	-21505
 146 000c 54000140 		.word	1073807444
 147 0010 FFFF0000 		.word	65535
 148 0014 00005655 		.word	1431699456
 149 0018 00AA0A00 		.word	698880
 150 001c 80280800 		.word	534656
 151 0020 00020000 		.word	512
 152 0024 FFFFFFFF 		.word	-1
 153 0028 15415155 		.word	1431388437
 154 002c FFFF0000 		.word	65535
 155 0030 0000C00C 		.word	213909504
 156 0034 40000000 		.word	64
 157 0038 A2802002 		.word	35684514
 158 003c 00000000 		.word	0
 159 0040 FFFFFFFF 		.word	-1
 160 0044 54154554 		.word	1413813588
 161 0048 FFFF0000 		.word	65535
 162 004c 0CCC0060 		.word	1610664972
 163 0050 00060600 		.word	394752
 164 0054 0A012AA5 		.word	-1523973878
 165 0058 00000000 		.word	0
 166 005c FFFFFFFF 		.word	-1
 167 0060 55505500 		.word	5591125
 168 0064 FFCF0000 		.word	53247
 169 0068 CC000000 		.word	204
 170 006c CC0C00CC 		.word	-872411956
 171 0070 4A80AAAA 		.word	-1431666614
ARM GAS  /tmp/cc4jmVSE.s 			page 4


 172 0074 00000000 		.word	0
 173 0078 FFFFFFFF 		.word	-1
 174 007c 00000000 		.word	0
 175 0080 FFFF0000 		.word	65535
 176 0084 CC0000C0 		.word	-1073741620
 177 0088 CCCCCCCC 		.word	-858993460
 178 008c AA0AB0AA 		.word	-1431303510
 179 0090 00000000 		.word	0
 180 0094 FFFFFFFF 		.word	-1
 181 0098 00000000 		.word	0
 182 009c FFFF0000 		.word	65535
 183 00a0 CCCCCC00 		.word	13421772
 184 00a4 00C0CCCC 		.word	-858996736
 185 00a8 2A0A0280 		.word	-2147349974
 186 00ac 00000000 		.word	0
 187 00b0 FFFFFFFF 		.word	-1
 188 00b4 00000004 		.word	67108864
 189 00b8 FFFF0000 		.word	65535
 190 00bc CC0CCC00 		.word	13372620
 191 00c0 0C0000C0 		.word	-1073741812
 192 00c4 A0A80000 		.word	43168
 193 00c8 00000000 		.word	0
 194 00cc FFFFFFFF 		.word	-1
 195 00d0 00000000 		.word	0
 196 00d4 FFFF0000 		.word	65535
 197 00d8 00CCC0CC 		.word	-859780096
 198 00dc 00000000 		.word	0
 199 00e0 00000000 		.word	0
 200 00e4 00000000 		.word	0
 201 00e8 FFFFFFFF 		.word	-1
 202 00ec 00000000 		.word	0
 203 00f0 FFFF0000 		.word	65535
 204 00f4 00000000 		.word	0
 205 00f8 00000000 		.word	0
 206              		.text
 207              	.Letext0:
 208              		.file 2 "/home/sbcu/Dropbox/pcb-layouts/axo-on-discovery-board/axoloti/platform_linux/arm-none-eab
 209              		.file 3 "/home/sbcu/Dropbox/pcb-layouts/axo-on-discovery-board/axoloti/platform_linux/arm-none-eab
 210              		.file 4 "/home/sbcu/Dropbox/pcb-layouts/axo-on-discovery-board/axoloti/platform_linux/../chibios/o
 211              		.file 5 "/home/sbcu/Dropbox/pcb-layouts/axo-on-discovery-board/axoloti/platform_linux/../chibios/o
 212              		.file 6 "/home/sbcu/Dropbox/pcb-layouts/axo-on-discovery-board/axoloti/platform_linux/../chibios/o
 213              		.file 7 "/home/sbcu/Dropbox/pcb-layouts/axo-on-discovery-board/axoloti/platform_linux/../chibios/o
 214              		.file 8 "/home/sbcu/Dropbox/pcb-layouts/axo-on-discovery-board/axoloti/platform_linux/../chibios/o
 215              		.section	.debug_info,"",%progbits
 216              	.Ldebug_info0:
 217 0000 D6090000 		.4byte	0x9d6
 218 0004 0400     		.2byte	0x4
 219 0006 00000000 		.4byte	.Ldebug_abbrev0
 220 000a 04       		.byte	0x4
 221 000b 01       		.uleb128 0x1
 222 000c 0C050000 		.4byte	.LASF148
 223 0010 01       		.byte	0x1
 224 0011 A5040000 		.4byte	.LASF149
 225 0015 C3010000 		.4byte	.LASF150
 226 0019 00000000 		.4byte	.Ldebug_ranges0+0
 227 001d 00000000 		.4byte	0
 228 0021 00000000 		.4byte	.Ldebug_line0
ARM GAS  /tmp/cc4jmVSE.s 			page 5


 229 0025 02       		.uleb128 0x2
 230 0026 04       		.byte	0x4
 231 0027 05       		.byte	0x5
 232 0028 696E7400 		.ascii	"int\000"
 233 002c 03       		.uleb128 0x3
 234 002d 04       		.byte	0x4
 235 002e 07       		.byte	0x7
 236 002f A5010000 		.4byte	.LASF0
 237 0033 03       		.uleb128 0x3
 238 0034 01       		.byte	0x1
 239 0035 06       		.byte	0x6
 240 0036 D6000000 		.4byte	.LASF1
 241 003a 03       		.uleb128 0x3
 242 003b 01       		.byte	0x1
 243 003c 08       		.byte	0x8
 244 003d 00040000 		.4byte	.LASF2
 245 0041 03       		.uleb128 0x3
 246 0042 02       		.byte	0x2
 247 0043 05       		.byte	0x5
 248 0044 26040000 		.4byte	.LASF3
 249 0048 03       		.uleb128 0x3
 250 0049 02       		.byte	0x2
 251 004a 07       		.byte	0x7
 252 004b 67010000 		.4byte	.LASF4
 253 004f 04       		.uleb128 0x4
 254 0050 D2040000 		.4byte	.LASF6
 255 0054 02       		.byte	0x2
 256 0055 3F       		.byte	0x3f
 257 0056 5A000000 		.4byte	0x5a
 258 005a 03       		.uleb128 0x3
 259 005b 04       		.byte	0x4
 260 005c 05       		.byte	0x5
 261 005d 16010000 		.4byte	.LASF5
 262 0061 04       		.uleb128 0x4
 263 0062 7A010000 		.4byte	.LASF7
 264 0066 02       		.byte	0x2
 265 0067 41       		.byte	0x41
 266 0068 6C000000 		.4byte	0x6c
 267 006c 03       		.uleb128 0x3
 268 006d 04       		.byte	0x4
 269 006e 07       		.byte	0x7
 270 006f 1A020000 		.4byte	.LASF8
 271 0073 03       		.uleb128 0x3
 272 0074 08       		.byte	0x8
 273 0075 05       		.byte	0x5
 274 0076 C8000000 		.4byte	.LASF9
 275 007a 03       		.uleb128 0x3
 276 007b 08       		.byte	0x8
 277 007c 07       		.byte	0x7
 278 007d 72000000 		.4byte	.LASF10
 279 0081 04       		.uleb128 0x4
 280 0082 F8030000 		.4byte	.LASF11
 281 0086 03       		.byte	0x3
 282 0087 1F       		.byte	0x1f
 283 0088 4F000000 		.4byte	0x4f
 284 008c 04       		.uleb128 0x4
 285 008d 89040000 		.4byte	.LASF12
ARM GAS  /tmp/cc4jmVSE.s 			page 6


 286 0091 03       		.byte	0x3
 287 0092 20       		.byte	0x20
 288 0093 61000000 		.4byte	0x61
 289 0097 03       		.uleb128 0x3
 290 0098 01       		.byte	0x1
 291 0099 02       		.byte	0x2
 292 009a F2030000 		.4byte	.LASF13
 293 009e 05       		.uleb128 0x5
 294 009f 04       		.byte	0x4
 295 00a0 06       		.uleb128 0x6
 296 00a1 8C000000 		.4byte	0x8c
 297 00a5 03       		.uleb128 0x3
 298 00a6 04       		.byte	0x4
 299 00a7 07       		.byte	0x7
 300 00a8 0B030000 		.4byte	.LASF14
 301 00ac 03       		.uleb128 0x3
 302 00ad 01       		.byte	0x1
 303 00ae 08       		.byte	0x8
 304 00af A0040000 		.4byte	.LASF15
 305 00b3 07       		.uleb128 0x7
 306 00b4 8C000000 		.4byte	0x8c
 307 00b8 C3000000 		.4byte	0xc3
 308 00bc 08       		.uleb128 0x8
 309 00bd A5000000 		.4byte	0xa5
 310 00c1 01       		.byte	0x1
 311 00c2 00       		.byte	0
 312 00c3 07       		.uleb128 0x7
 313 00c4 8C000000 		.4byte	0x8c
 314 00c8 D3000000 		.4byte	0xd3
 315 00cc 08       		.uleb128 0x8
 316 00cd A5000000 		.4byte	0xa5
 317 00d1 03       		.byte	0x3
 318 00d2 00       		.byte	0
 319 00d3 07       		.uleb128 0x7
 320 00d4 8C000000 		.4byte	0x8c
 321 00d8 E3000000 		.4byte	0xe3
 322 00dc 08       		.uleb128 0x8
 323 00dd A5000000 		.4byte	0xa5
 324 00e1 0E       		.byte	0xe
 325 00e2 00       		.byte	0
 326 00e3 06       		.uleb128 0x6
 327 00e4 81000000 		.4byte	0x81
 328 00e8 09       		.uleb128 0x9
 329 00e9 24       		.byte	0x24
 330 00ea 04       		.byte	0x4
 331 00eb E903     		.2byte	0x3e9
 332 00ed 33010000 		.4byte	0x133
 333 00f1 0A       		.uleb128 0xa
 334 00f2 6B000000 		.4byte	.LASF16
 335 00f6 04       		.byte	0x4
 336 00f7 EB03     		.2byte	0x3eb
 337 00f9 A0000000 		.4byte	0xa0
 338 00fd 00       		.byte	0
 339 00fe 0B       		.uleb128 0xb
 340 00ff 504D4300 		.ascii	"PMC\000"
 341 0103 04       		.byte	0x4
 342 0104 EC03     		.2byte	0x3ec
ARM GAS  /tmp/cc4jmVSE.s 			page 7


 343 0106 A0000000 		.4byte	0xa0
 344 010a 04       		.byte	0x4
 345 010b 0A       		.uleb128 0xa
 346 010c B6060000 		.4byte	.LASF17
 347 0110 04       		.byte	0x4
 348 0111 ED03     		.2byte	0x3ed
 349 0113 33010000 		.4byte	0x133
 350 0117 08       		.byte	0x8
 351 0118 0A       		.uleb128 0xa
 352 0119 4C040000 		.4byte	.LASF18
 353 011d 04       		.byte	0x4
 354 011e EE03     		.2byte	0x3ee
 355 0120 B3000000 		.4byte	0xb3
 356 0124 18       		.byte	0x18
 357 0125 0A       		.uleb128 0xa
 358 0126 66030000 		.4byte	.LASF19
 359 012a 04       		.byte	0x4
 360 012b EF03     		.2byte	0x3ef
 361 012d A0000000 		.4byte	0xa0
 362 0131 20       		.byte	0x20
 363 0132 00       		.byte	0
 364 0133 06       		.uleb128 0x6
 365 0134 C3000000 		.4byte	0xc3
 366 0138 0C       		.uleb128 0xc
 367 0139 87030000 		.4byte	.LASF20
 368 013d 04       		.byte	0x4
 369 013e F003     		.2byte	0x3f0
 370 0140 E8000000 		.4byte	0xe8
 371 0144 09       		.uleb128 0x9
 372 0145 90       		.byte	0x90
 373 0146 04       		.byte	0x4
 374 0147 5804     		.2byte	0x458
 375 0149 ED020000 		.4byte	0x2ed
 376 014d 0B       		.uleb128 0xb
 377 014e 435200   		.ascii	"CR\000"
 378 0151 04       		.byte	0x4
 379 0152 5A04     		.2byte	0x45a
 380 0154 A0000000 		.4byte	0xa0
 381 0158 00       		.byte	0
 382 0159 0A       		.uleb128 0xa
 383 015a 8A020000 		.4byte	.LASF21
 384 015e 04       		.byte	0x4
 385 015f 5B04     		.2byte	0x45b
 386 0161 A0000000 		.4byte	0xa0
 387 0165 04       		.byte	0x4
 388 0166 0A       		.uleb128 0xa
 389 0167 7C060000 		.4byte	.LASF22
 390 016b 04       		.byte	0x4
 391 016c 5C04     		.2byte	0x45c
 392 016e A0000000 		.4byte	0xa0
 393 0172 08       		.byte	0x8
 394 0173 0B       		.uleb128 0xb
 395 0174 43495200 		.ascii	"CIR\000"
 396 0178 04       		.byte	0x4
 397 0179 5D04     		.2byte	0x45d
 398 017b A0000000 		.4byte	0xa0
 399 017f 0C       		.byte	0xc
ARM GAS  /tmp/cc4jmVSE.s 			page 8


 400 0180 0A       		.uleb128 0xa
 401 0181 E2000000 		.4byte	.LASF23
 402 0185 04       		.byte	0x4
 403 0186 5E04     		.2byte	0x45e
 404 0188 A0000000 		.4byte	0xa0
 405 018c 10       		.byte	0x10
 406 018d 0A       		.uleb128 0xa
 407 018e BB040000 		.4byte	.LASF24
 408 0192 04       		.byte	0x4
 409 0193 5F04     		.2byte	0x45f
 410 0195 A0000000 		.4byte	0xa0
 411 0199 14       		.byte	0x14
 412 019a 0A       		.uleb128 0xa
 413 019b 68040000 		.4byte	.LASF25
 414 019f 04       		.byte	0x4
 415 01a0 6004     		.2byte	0x460
 416 01a2 A0000000 		.4byte	0xa0
 417 01a6 18       		.byte	0x18
 418 01a7 0A       		.uleb128 0xa
 419 01a8 96030000 		.4byte	.LASF26
 420 01ac 04       		.byte	0x4
 421 01ad 6104     		.2byte	0x461
 422 01af 8C000000 		.4byte	0x8c
 423 01b3 1C       		.byte	0x1c
 424 01b4 0A       		.uleb128 0xa
 425 01b5 55030000 		.4byte	.LASF27
 426 01b9 04       		.byte	0x4
 427 01ba 6204     		.2byte	0x462
 428 01bc A0000000 		.4byte	0xa0
 429 01c0 20       		.byte	0x20
 430 01c1 0A       		.uleb128 0xa
 431 01c2 26010000 		.4byte	.LASF28
 432 01c6 04       		.byte	0x4
 433 01c7 6304     		.2byte	0x463
 434 01c9 A0000000 		.4byte	0xa0
 435 01cd 24       		.byte	0x24
 436 01ce 0A       		.uleb128 0xa
 437 01cf A0030000 		.4byte	.LASF29
 438 01d3 04       		.byte	0x4
 439 01d4 6404     		.2byte	0x464
 440 01d6 B3000000 		.4byte	0xb3
 441 01da 28       		.byte	0x28
 442 01db 0A       		.uleb128 0xa
 443 01dc 6D060000 		.4byte	.LASF30
 444 01e0 04       		.byte	0x4
 445 01e1 6504     		.2byte	0x465
 446 01e3 A0000000 		.4byte	0xa0
 447 01e7 30       		.byte	0x30
 448 01e8 0A       		.uleb128 0xa
 449 01e9 F4040000 		.4byte	.LASF31
 450 01ed 04       		.byte	0x4
 451 01ee 6604     		.2byte	0x466
 452 01f0 A0000000 		.4byte	0xa0
 453 01f4 34       		.byte	0x34
 454 01f5 0A       		.uleb128 0xa
 455 01f6 78040000 		.4byte	.LASF32
 456 01fa 04       		.byte	0x4
ARM GAS  /tmp/cc4jmVSE.s 			page 9


 457 01fb 6704     		.2byte	0x467
 458 01fd A0000000 		.4byte	0xa0
 459 0201 38       		.byte	0x38
 460 0202 0A       		.uleb128 0xa
 461 0203 AA030000 		.4byte	.LASF33
 462 0207 04       		.byte	0x4
 463 0208 6804     		.2byte	0x468
 464 020a 8C000000 		.4byte	0x8c
 465 020e 3C       		.byte	0x3c
 466 020f 0A       		.uleb128 0xa
 467 0210 E4040000 		.4byte	.LASF34
 468 0214 04       		.byte	0x4
 469 0215 6904     		.2byte	0x469
 470 0217 A0000000 		.4byte	0xa0
 471 021b 40       		.byte	0x40
 472 021c 0A       		.uleb128 0xa
 473 021d 60040000 		.4byte	.LASF35
 474 0221 04       		.byte	0x4
 475 0222 6A04     		.2byte	0x46a
 476 0224 A0000000 		.4byte	0xa0
 477 0228 44       		.byte	0x44
 478 0229 0A       		.uleb128 0xa
 479 022a B4030000 		.4byte	.LASF36
 480 022e 04       		.byte	0x4
 481 022f 6B04     		.2byte	0x46b
 482 0231 B3000000 		.4byte	0xb3
 483 0235 48       		.byte	0x48
 484 0236 0A       		.uleb128 0xa
 485 0237 AD000000 		.4byte	.LASF37
 486 023b 04       		.byte	0x4
 487 023c 6C04     		.2byte	0x46c
 488 023e A0000000 		.4byte	0xa0
 489 0242 50       		.byte	0x50
 490 0243 0A       		.uleb128 0xa
 491 0244 36030000 		.4byte	.LASF38
 492 0248 04       		.byte	0x4
 493 0249 6D04     		.2byte	0x46d
 494 024b A0000000 		.4byte	0xa0
 495 024f 54       		.byte	0x54
 496 0250 0A       		.uleb128 0xa
 497 0251 3A040000 		.4byte	.LASF39
 498 0255 04       		.byte	0x4
 499 0256 6E04     		.2byte	0x46e
 500 0258 A0000000 		.4byte	0xa0
 501 025c 58       		.byte	0x58
 502 025d 0A       		.uleb128 0xa
 503 025e BE030000 		.4byte	.LASF40
 504 0262 04       		.byte	0x4
 505 0263 6F04     		.2byte	0x46f
 506 0265 8C000000 		.4byte	0x8c
 507 0269 5C       		.byte	0x5c
 508 026a 0A       		.uleb128 0xa
 509 026b 1C000000 		.4byte	.LASF41
 510 026f 04       		.byte	0x4
 511 0270 7004     		.2byte	0x470
 512 0272 A0000000 		.4byte	0xa0
 513 0276 60       		.byte	0x60
ARM GAS  /tmp/cc4jmVSE.s 			page 10


 514 0277 0A       		.uleb128 0xa
 515 0278 B4020000 		.4byte	.LASF42
 516 027c 04       		.byte	0x4
 517 027d 7104     		.2byte	0x471
 518 027f A0000000 		.4byte	0xa0
 519 0283 64       		.byte	0x64
 520 0284 0A       		.uleb128 0xa
 521 0285 C8030000 		.4byte	.LASF43
 522 0289 04       		.byte	0x4
 523 028a 7204     		.2byte	0x472
 524 028c B3000000 		.4byte	0xb3
 525 0290 68       		.byte	0x68
 526 0291 0A       		.uleb128 0xa
 527 0292 4D060000 		.4byte	.LASF44
 528 0296 04       		.byte	0x4
 529 0297 7304     		.2byte	0x473
 530 0299 A0000000 		.4byte	0xa0
 531 029d 70       		.byte	0x70
 532 029e 0B       		.uleb128 0xb
 533 029f 43535200 		.ascii	"CSR\000"
 534 02a3 04       		.byte	0x4
 535 02a4 7404     		.2byte	0x474
 536 02a6 A0000000 		.4byte	0xa0
 537 02aa 74       		.byte	0x74
 538 02ab 0A       		.uleb128 0xa
 539 02ac D2030000 		.4byte	.LASF45
 540 02b0 04       		.byte	0x4
 541 02b1 7504     		.2byte	0x475
 542 02b3 B3000000 		.4byte	0xb3
 543 02b7 78       		.byte	0x78
 544 02b8 0A       		.uleb128 0xa
 545 02b9 35060000 		.4byte	.LASF46
 546 02bd 04       		.byte	0x4
 547 02be 7604     		.2byte	0x476
 548 02c0 A0000000 		.4byte	0xa0
 549 02c4 80       		.byte	0x80
 550 02c5 0A       		.uleb128 0xa
 551 02c6 77020000 		.4byte	.LASF47
 552 02ca 04       		.byte	0x4
 553 02cb 7704     		.2byte	0x477
 554 02cd A0000000 		.4byte	0xa0
 555 02d1 84       		.byte	0x84
 556 02d2 0A       		.uleb128 0xa
 557 02d3 14030000 		.4byte	.LASF48
 558 02d7 04       		.byte	0x4
 559 02d8 7804     		.2byte	0x478
 560 02da A0000000 		.4byte	0xa0
 561 02de 88       		.byte	0x88
 562 02df 0A       		.uleb128 0xa
 563 02e0 C0000000 		.4byte	.LASF49
 564 02e4 04       		.byte	0x4
 565 02e5 7904     		.2byte	0x479
 566 02e7 A0000000 		.4byte	0xa0
 567 02eb 8C       		.byte	0x8c
 568 02ec 00       		.byte	0
 569 02ed 0C       		.uleb128 0xc
 570 02ee 34020000 		.4byte	.LASF50
ARM GAS  /tmp/cc4jmVSE.s 			page 11


 571 02f2 04       		.byte	0x4
 572 02f3 7B04     		.2byte	0x47b
 573 02f5 44010000 		.4byte	0x144
 574 02f9 0D       		.uleb128 0xd
 575 02fa 1C       		.byte	0x1c
 576 02fb 05       		.byte	0x5
 577 02fc A3       		.byte	0xa3
 578 02fd 56030000 		.4byte	0x356
 579 0301 0E       		.uleb128 0xe
 580 0302 07010000 		.4byte	.LASF51
 581 0306 05       		.byte	0x5
 582 0307 A5       		.byte	0xa5
 583 0308 8C000000 		.4byte	0x8c
 584 030c 00       		.byte	0
 585 030d 0E       		.uleb128 0xe
 586 030e 5A000000 		.4byte	.LASF52
 587 0312 05       		.byte	0x5
 588 0313 A7       		.byte	0xa7
 589 0314 8C000000 		.4byte	0x8c
 590 0318 04       		.byte	0x4
 591 0319 0E       		.uleb128 0xe
 592 031a 48020000 		.4byte	.LASF53
 593 031e 05       		.byte	0x5
 594 031f A9       		.byte	0xa9
 595 0320 8C000000 		.4byte	0x8c
 596 0324 08       		.byte	0x8
 597 0325 0E       		.uleb128 0xe
 598 0326 89000000 		.4byte	.LASF54
 599 032a 05       		.byte	0x5
 600 032b AB       		.byte	0xab
 601 032c 8C000000 		.4byte	0x8c
 602 0330 0C       		.byte	0xc
 603 0331 0F       		.uleb128 0xf
 604 0332 6F647200 		.ascii	"odr\000"
 605 0336 05       		.byte	0x5
 606 0337 AD       		.byte	0xad
 607 0338 8C000000 		.4byte	0x8c
 608 033c 10       		.byte	0x10
 609 033d 0E       		.uleb128 0xe
 610 033e 92040000 		.4byte	.LASF55
 611 0342 05       		.byte	0x5
 612 0343 AF       		.byte	0xaf
 613 0344 8C000000 		.4byte	0x8c
 614 0348 14       		.byte	0x14
 615 0349 0E       		.uleb128 0xe
 616 034a 40030000 		.4byte	.LASF56
 617 034e 05       		.byte	0x5
 618 034f B1       		.byte	0xb1
 619 0350 8C000000 		.4byte	0x8c
 620 0354 18       		.byte	0x18
 621 0355 00       		.byte	0
 622 0356 04       		.uleb128 0x4
 623 0357 00000000 		.4byte	.LASF57
 624 035b 05       		.byte	0x5
 625 035c B2       		.byte	0xb2
 626 035d F9020000 		.4byte	0x2f9
 627 0361 0D       		.uleb128 0xd
ARM GAS  /tmp/cc4jmVSE.s 			page 12


 628 0362 FC       		.byte	0xfc
 629 0363 05       		.byte	0x5
 630 0364 BB       		.byte	0xbb
 631 0365 D6030000 		.4byte	0x3d6
 632 0369 0E       		.uleb128 0xe
 633 036a 53010000 		.4byte	.LASF58
 634 036e 05       		.byte	0x5
 635 036f BE       		.byte	0xbe
 636 0370 56030000 		.4byte	0x356
 637 0374 00       		.byte	0
 638 0375 0E       		.uleb128 0xe
 639 0376 9E010000 		.4byte	.LASF59
 640 037a 05       		.byte	0x5
 641 037b C2       		.byte	0xc2
 642 037c 56030000 		.4byte	0x356
 643 0380 1C       		.byte	0x1c
 644 0381 0E       		.uleb128 0xe
 645 0382 75060000 		.4byte	.LASF60
 646 0386 05       		.byte	0x5
 647 0387 C6       		.byte	0xc6
 648 0388 56030000 		.4byte	0x356
 649 038c 38       		.byte	0x38
 650 038d 0E       		.uleb128 0xe
 651 038e 4E030000 		.4byte	.LASF61
 652 0392 05       		.byte	0x5
 653 0393 CA       		.byte	0xca
 654 0394 56030000 		.4byte	0x356
 655 0398 54       		.byte	0x54
 656 0399 0E       		.uleb128 0xe
 657 039a 1F010000 		.4byte	.LASF62
 658 039e 05       		.byte	0x5
 659 039f CE       		.byte	0xce
 660 03a0 56030000 		.4byte	0x356
 661 03a4 70       		.byte	0x70
 662 03a5 0E       		.uleb128 0xe
 663 03a6 FC040000 		.4byte	.LASF63
 664 03aa 05       		.byte	0x5
 665 03ab D2       		.byte	0xd2
 666 03ac 56030000 		.4byte	0x356
 667 03b0 8C       		.byte	0x8c
 668 03b1 0E       		.uleb128 0xe
 669 03b2 CF020000 		.4byte	.LASF64
 670 03b6 05       		.byte	0x5
 671 03b7 D6       		.byte	0xd6
 672 03b8 56030000 		.4byte	0x356
 673 03bc A8       		.byte	0xa8
 674 03bd 0E       		.uleb128 0xe
 675 03be 5A010000 		.4byte	.LASF65
 676 03c2 05       		.byte	0x5
 677 03c3 DA       		.byte	0xda
 678 03c4 56030000 		.4byte	0x356
 679 03c8 C4       		.byte	0xc4
 680 03c9 0E       		.uleb128 0xe
 681 03ca 71040000 		.4byte	.LASF66
 682 03ce 05       		.byte	0x5
 683 03cf DE       		.byte	0xde
 684 03d0 56030000 		.4byte	0x356
ARM GAS  /tmp/cc4jmVSE.s 			page 13


 685 03d4 E0       		.byte	0xe0
 686 03d5 00       		.byte	0
 687 03d6 04       		.uleb128 0x4
 688 03d7 90060000 		.4byte	.LASF67
 689 03db 05       		.byte	0x5
 690 03dc E0       		.byte	0xe0
 691 03dd 61030000 		.4byte	0x361
 692 03e1 0D       		.uleb128 0xd
 693 03e2 20       		.byte	0x20
 694 03e3 06       		.byte	0x6
 695 03e4 35       		.byte	0x35
 696 03e5 4A040000 		.4byte	0x44a
 697 03e9 0E       		.uleb128 0xe
 698 03ea 81060000 		.4byte	.LASF68
 699 03ee 06       		.byte	0x6
 700 03ef 36       		.byte	0x36
 701 03f0 A0000000 		.4byte	0xa0
 702 03f4 00       		.byte	0
 703 03f5 0E       		.uleb128 0xe
 704 03f6 EB030000 		.4byte	.LASF69
 705 03fa 06       		.byte	0x6
 706 03fb 38       		.byte	0x38
 707 03fc A0000000 		.4byte	0xa0
 708 0400 04       		.byte	0x4
 709 0401 0E       		.uleb128 0xe
 710 0402 30030000 		.4byte	.LASF70
 711 0406 06       		.byte	0x6
 712 0407 39       		.byte	0x39
 713 0408 A0000000 		.4byte	0xa0
 714 040c 08       		.byte	0x8
 715 040d 0E       		.uleb128 0xe
 716 040e FE000000 		.4byte	.LASF71
 717 0412 06       		.byte	0x6
 718 0413 3A       		.byte	0x3a
 719 0414 A0000000 		.4byte	0xa0
 720 0418 0C       		.byte	0xc
 721 0419 0E       		.uleb128 0xe
 722 041a EB000000 		.4byte	.LASF72
 723 041e 06       		.byte	0x6
 724 041f 3C       		.byte	0x3c
 725 0420 A0000000 		.4byte	0xa0
 726 0424 10       		.byte	0x10
 727 0425 0E       		.uleb128 0xe
 728 0426 2C020000 		.4byte	.LASF73
 729 042a 06       		.byte	0x6
 730 042b 3E       		.byte	0x3e
 731 042c A0000000 		.4byte	0xa0
 732 0430 14       		.byte	0x14
 733 0431 0E       		.uleb128 0xe
 734 0432 40020000 		.4byte	.LASF74
 735 0436 06       		.byte	0x6
 736 0437 3F       		.byte	0x3f
 737 0438 A0000000 		.4byte	0xa0
 738 043c 18       		.byte	0x18
 739 043d 0E       		.uleb128 0xe
 740 043e C7020000 		.4byte	.LASF75
 741 0442 06       		.byte	0x6
ARM GAS  /tmp/cc4jmVSE.s 			page 14


 742 0443 40       		.byte	0x40
 743 0444 A0000000 		.4byte	0xa0
 744 0448 1C       		.byte	0x1c
 745 0449 00       		.byte	0
 746 044a 04       		.uleb128 0x4
 747 044b 97020000 		.4byte	.LASF76
 748 044f 06       		.byte	0x6
 749 0450 41       		.byte	0x41
 750 0451 E1030000 		.4byte	0x3e1
 751 0455 0D       		.uleb128 0xd
 752 0456 20       		.byte	0x20
 753 0457 06       		.byte	0x6
 754 0458 46       		.byte	0x46
 755 0459 BE040000 		.4byte	0x4be
 756 045d 0E       		.uleb128 0xe
 757 045e 1F030000 		.4byte	.LASF77
 758 0462 06       		.byte	0x6
 759 0463 47       		.byte	0x47
 760 0464 A0000000 		.4byte	0xa0
 761 0468 00       		.byte	0
 762 0469 0E       		.uleb128 0xe
 763 046a DC030000 		.4byte	.LASF78
 764 046e 06       		.byte	0x6
 765 046f 49       		.byte	0x49
 766 0470 A0000000 		.4byte	0xa0
 767 0474 04       		.byte	0x4
 768 0475 0E       		.uleb128 0xe
 769 0476 0E040000 		.4byte	.LASF79
 770 047a 06       		.byte	0x6
 771 047b 4A       		.byte	0x4a
 772 047c A0000000 		.4byte	0xa0
 773 0480 08       		.byte	0x8
 774 0481 0E       		.uleb128 0xe
 775 0482 16040000 		.4byte	.LASF80
 776 0486 06       		.byte	0x6
 777 0487 4C       		.byte	0x4c
 778 0488 A0000000 		.4byte	0xa0
 779 048c 0C       		.byte	0xc
 780 048d 0E       		.uleb128 0xe
 781 048e 45030000 		.4byte	.LASF81
 782 0492 06       		.byte	0x6
 783 0493 4D       		.byte	0x4d
 784 0494 A0000000 		.4byte	0xa0
 785 0498 10       		.byte	0x10
 786 0499 0E       		.uleb128 0xe
 787 049a 2C020000 		.4byte	.LASF73
 788 049e 06       		.byte	0x6
 789 049f 4F       		.byte	0x4f
 790 04a0 A0000000 		.4byte	0xa0
 791 04a4 14       		.byte	0x14
 792 04a5 0E       		.uleb128 0xe
 793 04a6 E3030000 		.4byte	.LASF82
 794 04aa 06       		.byte	0x6
 795 04ab 50       		.byte	0x50
 796 04ac A0000000 		.4byte	0xa0
 797 04b0 18       		.byte	0x18
 798 04b1 0E       		.uleb128 0xe
ARM GAS  /tmp/cc4jmVSE.s 			page 15


 799 04b2 66020000 		.4byte	.LASF83
 800 04b6 06       		.byte	0x6
 801 04b7 52       		.byte	0x52
 802 04b8 A0000000 		.4byte	0xa0
 803 04bc 1C       		.byte	0x1c
 804 04bd 00       		.byte	0
 805 04be 04       		.uleb128 0x4
 806 04bf DF020000 		.4byte	.LASF84
 807 04c3 06       		.byte	0x6
 808 04c4 53       		.byte	0x53
 809 04c5 55040000 		.4byte	0x455
 810 04c9 0D       		.uleb128 0xd
 811 04ca 20       		.byte	0x20
 812 04cb 06       		.byte	0x6
 813 04cc 58       		.byte	0x58
 814 04cd 32050000 		.4byte	0x532
 815 04d1 0E       		.uleb128 0xe
 816 04d2 2D060000 		.4byte	.LASF85
 817 04d6 06       		.byte	0x6
 818 04d7 59       		.byte	0x59
 819 04d8 A0000000 		.4byte	0xa0
 820 04dc 00       		.byte	0
 821 04dd 0E       		.uleb128 0xe
 822 04de DC030000 		.4byte	.LASF78
 823 04e2 06       		.byte	0x6
 824 04e3 5B       		.byte	0x5b
 825 04e4 A0000000 		.4byte	0xa0
 826 04e8 04       		.byte	0x4
 827 04e9 0E       		.uleb128 0xe
 828 04ea BD060000 		.4byte	.LASF86
 829 04ee 06       		.byte	0x6
 830 04ef 5C       		.byte	0x5c
 831 04f0 A0000000 		.4byte	0xa0
 832 04f4 08       		.byte	0x8
 833 04f5 0E       		.uleb128 0xe
 834 04f6 16040000 		.4byte	.LASF80
 835 04fa 06       		.byte	0x6
 836 04fb 5E       		.byte	0x5e
 837 04fc A0000000 		.4byte	0xa0
 838 0500 0C       		.byte	0xc
 839 0501 0E       		.uleb128 0xe
 840 0502 1D040000 		.4byte	.LASF87
 841 0506 06       		.byte	0x6
 842 0507 5F       		.byte	0x5f
 843 0508 A0000000 		.4byte	0xa0
 844 050c 10       		.byte	0x10
 845 050d 0E       		.uleb128 0xe
 846 050e 2C020000 		.4byte	.LASF73
 847 0512 06       		.byte	0x6
 848 0513 61       		.byte	0x61
 849 0514 A0000000 		.4byte	0xa0
 850 0518 14       		.byte	0x14
 851 0519 0E       		.uleb128 0xe
 852 051a 40020000 		.4byte	.LASF74
 853 051e 06       		.byte	0x6
 854 051f 62       		.byte	0x62
 855 0520 A0000000 		.4byte	0xa0
ARM GAS  /tmp/cc4jmVSE.s 			page 16


 856 0524 18       		.byte	0x18
 857 0525 0E       		.uleb128 0xe
 858 0526 66020000 		.4byte	.LASF83
 859 052a 06       		.byte	0x6
 860 052b 63       		.byte	0x63
 861 052c A0000000 		.4byte	0xa0
 862 0530 1C       		.byte	0x1c
 863 0531 00       		.byte	0
 864 0532 04       		.uleb128 0x4
 865 0533 26000000 		.4byte	.LASF88
 866 0537 06       		.byte	0x6
 867 0538 64       		.byte	0x64
 868 0539 C9040000 		.4byte	0x4c9
 869 053d 10       		.uleb128 0x10
 870 053e 00100100 		.4byte	0x11000
 871 0542 06       		.byte	0x6
 872 0543 69       		.byte	0x69
 873 0544 1A080000 		.4byte	0x81a
 874 0548 0E       		.uleb128 0xe
 875 0549 EC040000 		.4byte	.LASF89
 876 054d 06       		.byte	0x6
 877 054e 6A       		.byte	0x6a
 878 054f A0000000 		.4byte	0xa0
 879 0553 00       		.byte	0
 880 0554 0E       		.uleb128 0xe
 881 0555 85010000 		.4byte	.LASF90
 882 0559 06       		.byte	0x6
 883 055a 6B       		.byte	0x6b
 884 055b A0000000 		.4byte	0xa0
 885 055f 04       		.byte	0x4
 886 0560 0E       		.uleb128 0xe
 887 0561 52000000 		.4byte	.LASF91
 888 0565 06       		.byte	0x6
 889 0566 6C       		.byte	0x6c
 890 0567 A0000000 		.4byte	0xa0
 891 056b 08       		.byte	0x8
 892 056c 0E       		.uleb128 0xe
 893 056d 6C030000 		.4byte	.LASF92
 894 0571 06       		.byte	0x6
 895 0572 6D       		.byte	0x6d
 896 0573 A0000000 		.4byte	0xa0
 897 0577 0C       		.byte	0xc
 898 0578 0E       		.uleb128 0xe
 899 0579 AC020000 		.4byte	.LASF93
 900 057d 06       		.byte	0x6
 901 057e 6E       		.byte	0x6e
 902 057f A0000000 		.4byte	0xa0
 903 0583 10       		.byte	0x10
 904 0584 0E       		.uleb128 0xe
 905 0585 82020000 		.4byte	.LASF94
 906 0589 06       		.byte	0x6
 907 058a 6F       		.byte	0x6f
 908 058b A0000000 		.4byte	0xa0
 909 058f 14       		.byte	0x14
 910 0590 0E       		.uleb128 0xe
 911 0591 BB010000 		.4byte	.LASF95
 912 0595 06       		.byte	0x6
ARM GAS  /tmp/cc4jmVSE.s 			page 17


 913 0596 70       		.byte	0x70
 914 0597 A0000000 		.4byte	0xa0
 915 059b 18       		.byte	0x18
 916 059c 0E       		.uleb128 0xe
 917 059d 03030000 		.4byte	.LASF96
 918 05a1 06       		.byte	0x6
 919 05a2 71       		.byte	0x71
 920 05a3 A0000000 		.4byte	0xa0
 921 05a7 1C       		.byte	0x1c
 922 05a8 0E       		.uleb128 0xe
 923 05a9 98000000 		.4byte	.LASF97
 924 05ad 06       		.byte	0x6
 925 05ae 73       		.byte	0x73
 926 05af A0000000 		.4byte	0xa0
 927 05b3 20       		.byte	0x20
 928 05b4 0E       		.uleb128 0xe
 929 05b5 DC040000 		.4byte	.LASF98
 930 05b9 06       		.byte	0x6
 931 05ba 75       		.byte	0x75
 932 05bb A0000000 		.4byte	0xa0
 933 05bf 24       		.byte	0x24
 934 05c0 0E       		.uleb128 0xe
 935 05c1 0D010000 		.4byte	.LASF99
 936 05c5 06       		.byte	0x6
 937 05c6 76       		.byte	0x76
 938 05c7 A0000000 		.4byte	0xa0
 939 05cb 28       		.byte	0x28
 940 05cc 0E       		.uleb128 0xe
 941 05cd AD060000 		.4byte	.LASF100
 942 05d1 06       		.byte	0x6
 943 05d2 78       		.byte	0x78
 944 05d3 A0000000 		.4byte	0xa0
 945 05d7 2C       		.byte	0x2c
 946 05d8 0E       		.uleb128 0xe
 947 05d9 44040000 		.4byte	.LASF101
 948 05dd 06       		.byte	0x6
 949 05de 7A       		.byte	0x7a
 950 05df A0000000 		.4byte	0xa0
 951 05e3 30       		.byte	0x30
 952 05e4 0E       		.uleb128 0xe
 953 05e5 B3040000 		.4byte	.LASF102
 954 05e9 06       		.byte	0x6
 955 05ea 7B       		.byte	0x7b
 956 05eb A0000000 		.4byte	0xa0
 957 05ef 34       		.byte	0x34
 958 05f0 0E       		.uleb128 0xe
 959 05f1 62060000 		.4byte	.LASF103
 960 05f5 06       		.byte	0x6
 961 05f6 7C       		.byte	0x7c
 962 05f7 A0000000 		.4byte	0xa0
 963 05fb 38       		.byte	0x38
 964 05fc 0F       		.uleb128 0xf
 965 05fd 43494400 		.ascii	"CID\000"
 966 0601 06       		.byte	0x6
 967 0602 7D       		.byte	0x7d
 968 0603 A0000000 		.4byte	0xa0
 969 0607 3C       		.byte	0x3c
ARM GAS  /tmp/cc4jmVSE.s 			page 18


 970 0608 0E       		.uleb128 0xe
 971 0609 52060000 		.4byte	.LASF104
 972 060d 06       		.byte	0x6
 973 060e 7E       		.byte	0x7e
 974 060f 2A080000 		.4byte	0x82a
 975 0613 40       		.byte	0x40
 976 0614 11       		.uleb128 0x11
 977 0615 3B060000 		.4byte	.LASF105
 978 0619 06       		.byte	0x6
 979 061a 7F       		.byte	0x7f
 980 061b A0000000 		.4byte	0xa0
 981 061f 0001     		.2byte	0x100
 982 0621 11       		.uleb128 0x11
 983 0622 88060000 		.4byte	.LASF106
 984 0626 06       		.byte	0x6
 985 0627 81       		.byte	0x81
 986 0628 2F080000 		.4byte	0x82f
 987 062c 0401     		.2byte	0x104
 988 062e 11       		.uleb128 0x11
 989 062f 97040000 		.4byte	.LASF107
 990 0633 06       		.byte	0x6
 991 0634 83       		.byte	0x83
 992 0635 44080000 		.4byte	0x844
 993 0639 4001     		.2byte	0x140
 994 063b 11       		.uleb128 0x11
 995 063c C4040000 		.4byte	.LASF108
 996 0640 06       		.byte	0x6
 997 0641 84       		.byte	0x84
 998 0642 A0000000 		.4byte	0xa0
 999 0646 0004     		.2byte	0x400
 1000 0648 11       		.uleb128 0x11
 1001 0649 92020000 		.4byte	.LASF109
 1002 064d 06       		.byte	0x6
 1003 064e 85       		.byte	0x85
 1004 064f A0000000 		.4byte	0xa0
 1005 0653 0404     		.2byte	0x404
 1006 0655 11       		.uleb128 0x11
 1007 0656 44010000 		.4byte	.LASF110
 1008 065a 06       		.byte	0x6
 1009 065b 86       		.byte	0x86
 1010 065c A0000000 		.4byte	0xa0
 1011 0660 0804     		.2byte	0x408
 1012 0662 11       		.uleb128 0x11
 1013 0663 80040000 		.4byte	.LASF111
 1014 0667 06       		.byte	0x6
 1015 0668 88       		.byte	0x88
 1016 0669 A0000000 		.4byte	0xa0
 1017 066d 0C04     		.2byte	0x40c
 1018 066f 11       		.uleb128 0x11
 1019 0670 25060000 		.4byte	.LASF112
 1020 0674 06       		.byte	0x6
 1021 0675 89       		.byte	0x89
 1022 0676 A0000000 		.4byte	0xa0
 1023 067a 1004     		.2byte	0x410
 1024 067c 11       		.uleb128 0x11
 1025 067d AD040000 		.4byte	.LASF113
 1026 0681 06       		.byte	0x6
ARM GAS  /tmp/cc4jmVSE.s 			page 19


 1027 0682 8B       		.byte	0x8b
 1028 0683 A0000000 		.4byte	0xa0
 1029 0687 1404     		.2byte	0x414
 1030 0689 11       		.uleb128 0x11
 1031 068a F1020000 		.4byte	.LASF114
 1032 068e 06       		.byte	0x6
 1033 068f 8D       		.byte	0x8d
 1034 0690 A0000000 		.4byte	0xa0
 1035 0694 1804     		.2byte	0x418
 1036 0696 11       		.uleb128 0x11
 1037 0697 BE020000 		.4byte	.LASF115
 1038 069b 06       		.byte	0x6
 1039 069c 8F       		.byte	0x8f
 1040 069d 59080000 		.4byte	0x859
 1041 06a1 1C04     		.2byte	0x41c
 1042 06a3 11       		.uleb128 0x11
 1043 06a4 39000000 		.4byte	.LASF116
 1044 06a8 06       		.byte	0x6
 1045 06a9 90       		.byte	0x90
 1046 06aa A0000000 		.4byte	0xa0
 1047 06ae 4004     		.2byte	0x440
 1048 06b0 11       		.uleb128 0x11
 1049 06b1 2F010000 		.4byte	.LASF117
 1050 06b5 06       		.byte	0x6
 1051 06b6 92       		.byte	0x92
 1052 06b7 6E080000 		.4byte	0x86e
 1053 06bb 4404     		.2byte	0x444
 1054 06bd 12       		.uleb128 0x12
 1055 06be 686300   		.ascii	"hc\000"
 1056 06c1 06       		.byte	0x6
 1057 06c2 93       		.byte	0x93
 1058 06c3 73080000 		.4byte	0x873
 1059 06c7 0005     		.2byte	0x500
 1060 06c9 11       		.uleb128 0x11
 1061 06ca B7000000 		.4byte	.LASF118
 1062 06ce 06       		.byte	0x6
 1063 06cf 94       		.byte	0x94
 1064 06d0 93080000 		.4byte	0x893
 1065 06d4 0007     		.2byte	0x700
 1066 06d6 11       		.uleb128 0x11
 1067 06d7 3F010000 		.4byte	.LASF119
 1068 06db 06       		.byte	0x6
 1069 06dc 95       		.byte	0x95
 1070 06dd A0000000 		.4byte	0xa0
 1071 06e1 0008     		.2byte	0x800
 1072 06e3 11       		.uleb128 0x11
 1073 06e4 66000000 		.4byte	.LASF120
 1074 06e8 06       		.byte	0x6
 1075 06e9 96       		.byte	0x96
 1076 06ea A0000000 		.4byte	0xa0
 1077 06ee 0408     		.2byte	0x804
 1078 06f0 11       		.uleb128 0x11
 1079 06f1 61000000 		.4byte	.LASF121
 1080 06f5 06       		.byte	0x6
 1081 06f6 97       		.byte	0x97
 1082 06f7 A0000000 		.4byte	0xa0
 1083 06fb 0808     		.2byte	0x808
ARM GAS  /tmp/cc4jmVSE.s 			page 20


 1084 06fd 11       		.uleb128 0x11
 1085 06fe 44060000 		.4byte	.LASF122
 1086 0702 06       		.byte	0x6
 1087 0703 98       		.byte	0x98
 1088 0704 A0000000 		.4byte	0xa0
 1089 0708 0C08     		.2byte	0x80c
 1090 070a 11       		.uleb128 0x11
 1091 070b 5E030000 		.4byte	.LASF123
 1092 070f 06       		.byte	0x6
 1093 0710 99       		.byte	0x99
 1094 0711 A0000000 		.4byte	0xa0
 1095 0715 1008     		.2byte	0x810
 1096 0717 11       		.uleb128 0x11
 1097 0718 5A060000 		.4byte	.LASF124
 1098 071c 06       		.byte	0x6
 1099 071d 9B       		.byte	0x9b
 1100 071e A0000000 		.4byte	0xa0
 1101 0722 1408     		.2byte	0x814
 1102 0724 11       		.uleb128 0x11
 1103 0725 61010000 		.4byte	.LASF125
 1104 0729 06       		.byte	0x6
 1105 072a 9D       		.byte	0x9d
 1106 072b A0000000 		.4byte	0xa0
 1107 072f 1808     		.2byte	0x818
 1108 0731 11       		.uleb128 0x11
 1109 0732 49000000 		.4byte	.LASF126
 1110 0736 06       		.byte	0x6
 1111 0737 9F       		.byte	0x9f
 1112 0738 A0000000 		.4byte	0xa0
 1113 073c 1C08     		.2byte	0x81c
 1114 073e 11       		.uleb128 0x11
 1115 073f B2010000 		.4byte	.LASF127
 1116 0743 06       		.byte	0x6
 1117 0744 A1       		.byte	0xa1
 1118 0745 A0000000 		.4byte	0xa0
 1119 0749 2008     		.2byte	0x820
 1120 074b 11       		.uleb128 0x11
 1121 074c 4A010000 		.4byte	.LASF128
 1122 0750 06       		.byte	0x6
 1123 0751 A2       		.byte	0xa2
 1124 0752 A0000000 		.4byte	0xa0
 1125 0756 2408     		.2byte	0x824
 1126 0758 11       		.uleb128 0x11
 1127 0759 03050000 		.4byte	.LASF129
 1128 075d 06       		.byte	0x6
 1129 075e A3       		.byte	0xa3
 1130 075f A0000000 		.4byte	0xa0
 1131 0763 2808     		.2byte	0x828
 1132 0765 11       		.uleb128 0x11
 1133 0766 55040000 		.4byte	.LASF130
 1134 076a 06       		.byte	0x6
 1135 076b A5       		.byte	0xa5
 1136 076c A0000000 		.4byte	0xa0
 1137 0770 2C08     		.2byte	0x82c
 1138 0772 11       		.uleb128 0x11
 1139 0773 74030000 		.4byte	.LASF131
 1140 0777 06       		.byte	0x6
ARM GAS  /tmp/cc4jmVSE.s 			page 21


 1141 0778 A7       		.byte	0xa7
 1142 0779 A0000000 		.4byte	0xa0
 1143 077d 3008     		.2byte	0x830
 1144 077f 11       		.uleb128 0x11
 1145 0780 3E000000 		.4byte	.LASF132
 1146 0784 06       		.byte	0x6
 1147 0785 A8       		.byte	0xa8
 1148 0786 A0000000 		.4byte	0xa0
 1149 078a 3408     		.2byte	0x834
 1150 078c 11       		.uleb128 0x11
 1151 078d 50020000 		.4byte	.LASF133
 1152 0791 06       		.byte	0x6
 1153 0792 AA       		.byte	0xaa
 1154 0793 A0000000 		.4byte	0xa0
 1155 0797 3808     		.2byte	0x838
 1156 0799 11       		.uleb128 0x11
 1157 079a 6E020000 		.4byte	.LASF134
 1158 079e 06       		.byte	0x6
 1159 079f AB       		.byte	0xab
 1160 07a0 A0000000 		.4byte	0xa0
 1161 07a4 3C08     		.2byte	0x83c
 1162 07a6 11       		.uleb128 0x11
 1163 07a7 FA020000 		.4byte	.LASF135
 1164 07ab 06       		.byte	0x6
 1165 07ac AC       		.byte	0xac
 1166 07ad A8080000 		.4byte	0x8a8
 1167 07b1 4008     		.2byte	0x840
 1168 07b3 11       		.uleb128 0x11
 1169 07b4 13000000 		.4byte	.LASF136
 1170 07b8 06       		.byte	0x6
 1171 07b9 AD       		.byte	0xad
 1172 07ba AD080000 		.4byte	0x8ad
 1173 07be 8008     		.2byte	0x880
 1174 07c0 11       		.uleb128 0x11
 1175 07c1 D6020000 		.4byte	.LASF137
 1176 07c5 06       		.byte	0x6
 1177 07c6 AE       		.byte	0xae
 1178 07c7 B2080000 		.4byte	0x8b2
 1179 07cb C008     		.2byte	0x8c0
 1180 07cd 12       		.uleb128 0x12
 1181 07ce 696500   		.ascii	"ie\000"
 1182 07d1 06       		.byte	0x6
 1183 07d2 AF       		.byte	0xaf
 1184 07d3 B7080000 		.4byte	0x8b7
 1185 07d7 0009     		.2byte	0x900
 1186 07d9 12       		.uleb128 0x12
 1187 07da 6F6500   		.ascii	"oe\000"
 1188 07dd 06       		.byte	0x6
 1189 07de B0       		.byte	0xb0
 1190 07df C7080000 		.4byte	0x8c7
 1191 07e3 000B     		.2byte	0xb00
 1192 07e5 11       		.uleb128 0x11
 1193 07e6 C9040000 		.4byte	.LASF138
 1194 07ea 06       		.byte	0x6
 1195 07eb B1       		.byte	0xb1
 1196 07ec D7080000 		.4byte	0x8d7
 1197 07f0 000D     		.2byte	0xd00
ARM GAS  /tmp/cc4jmVSE.s 			page 22


 1198 07f2 11       		.uleb128 0x11
 1199 07f3 12020000 		.4byte	.LASF139
 1200 07f7 06       		.byte	0x6
 1201 07f8 B2       		.byte	0xb2
 1202 07f9 A0000000 		.4byte	0xa0
 1203 07fd 000E     		.2byte	0xe00
 1204 07ff 11       		.uleb128 0x11
 1205 0800 27030000 		.4byte	.LASF140
 1206 0804 06       		.byte	0x6
 1207 0805 B4       		.byte	0xb4
 1208 0806 EC080000 		.4byte	0x8ec
 1209 080a 040E     		.2byte	0xe04
 1210 080c 11       		.uleb128 0x11
 1211 080d 68060000 		.4byte	.LASF141
 1212 0811 06       		.byte	0x6
 1213 0812 B5       		.byte	0xb5
 1214 0813 08090000 		.4byte	0x908
 1215 0817 0010     		.2byte	0x1000
 1216 0819 00       		.byte	0
 1217 081a 07       		.uleb128 0x7
 1218 081b 8C000000 		.4byte	0x8c
 1219 081f 2A080000 		.4byte	0x82a
 1220 0823 08       		.uleb128 0x8
 1221 0824 A5000000 		.4byte	0xa5
 1222 0828 2F       		.byte	0x2f
 1223 0829 00       		.byte	0
 1224 082a 06       		.uleb128 0x6
 1225 082b 1A080000 		.4byte	0x81a
 1226 082f 06       		.uleb128 0x6
 1227 0830 D3000000 		.4byte	0xd3
 1228 0834 07       		.uleb128 0x7
 1229 0835 8C000000 		.4byte	0x8c
 1230 0839 44080000 		.4byte	0x844
 1231 083d 08       		.uleb128 0x8
 1232 083e A5000000 		.4byte	0xa5
 1233 0842 AF       		.byte	0xaf
 1234 0843 00       		.byte	0
 1235 0844 06       		.uleb128 0x6
 1236 0845 34080000 		.4byte	0x834
 1237 0849 07       		.uleb128 0x7
 1238 084a 8C000000 		.4byte	0x8c
 1239 084e 59080000 		.4byte	0x859
 1240 0852 08       		.uleb128 0x8
 1241 0853 A5000000 		.4byte	0xa5
 1242 0857 08       		.byte	0x8
 1243 0858 00       		.byte	0
 1244 0859 06       		.uleb128 0x6
 1245 085a 49080000 		.4byte	0x849
 1246 085e 07       		.uleb128 0x7
 1247 085f 8C000000 		.4byte	0x8c
 1248 0863 6E080000 		.4byte	0x86e
 1249 0867 08       		.uleb128 0x8
 1250 0868 A5000000 		.4byte	0xa5
 1251 086c 2E       		.byte	0x2e
 1252 086d 00       		.byte	0
 1253 086e 06       		.uleb128 0x6
 1254 086f 5E080000 		.4byte	0x85e
ARM GAS  /tmp/cc4jmVSE.s 			page 23


 1255 0873 07       		.uleb128 0x7
 1256 0874 4A040000 		.4byte	0x44a
 1257 0878 83080000 		.4byte	0x883
 1258 087c 08       		.uleb128 0x8
 1259 087d A5000000 		.4byte	0xa5
 1260 0881 0F       		.byte	0xf
 1261 0882 00       		.byte	0
 1262 0883 07       		.uleb128 0x7
 1263 0884 8C000000 		.4byte	0x8c
 1264 0888 93080000 		.4byte	0x893
 1265 088c 08       		.uleb128 0x8
 1266 088d A5000000 		.4byte	0xa5
 1267 0891 3F       		.byte	0x3f
 1268 0892 00       		.byte	0
 1269 0893 06       		.uleb128 0x6
 1270 0894 83080000 		.4byte	0x883
 1271 0898 07       		.uleb128 0x7
 1272 0899 8C000000 		.4byte	0x8c
 1273 089d A8080000 		.4byte	0x8a8
 1274 08a1 08       		.uleb128 0x8
 1275 08a2 A5000000 		.4byte	0xa5
 1276 08a6 0F       		.byte	0xf
 1277 08a7 00       		.byte	0
 1278 08a8 06       		.uleb128 0x6
 1279 08a9 98080000 		.4byte	0x898
 1280 08ad 06       		.uleb128 0x6
 1281 08ae 98080000 		.4byte	0x898
 1282 08b2 06       		.uleb128 0x6
 1283 08b3 98080000 		.4byte	0x898
 1284 08b7 07       		.uleb128 0x7
 1285 08b8 BE040000 		.4byte	0x4be
 1286 08bc C7080000 		.4byte	0x8c7
 1287 08c0 08       		.uleb128 0x8
 1288 08c1 A5000000 		.4byte	0xa5
 1289 08c5 0F       		.byte	0xf
 1290 08c6 00       		.byte	0
 1291 08c7 07       		.uleb128 0x7
 1292 08c8 32050000 		.4byte	0x532
 1293 08cc D7080000 		.4byte	0x8d7
 1294 08d0 08       		.uleb128 0x8
 1295 08d1 A5000000 		.4byte	0xa5
 1296 08d5 0F       		.byte	0xf
 1297 08d6 00       		.byte	0
 1298 08d7 06       		.uleb128 0x6
 1299 08d8 83080000 		.4byte	0x883
 1300 08dc 07       		.uleb128 0x7
 1301 08dd 8C000000 		.4byte	0x8c
 1302 08e1 EC080000 		.4byte	0x8ec
 1303 08e5 08       		.uleb128 0x8
 1304 08e6 A5000000 		.4byte	0xa5
 1305 08ea 7E       		.byte	0x7e
 1306 08eb 00       		.byte	0
 1307 08ec 06       		.uleb128 0x6
 1308 08ed DC080000 		.4byte	0x8dc
 1309 08f1 07       		.uleb128 0x7
 1310 08f2 8C000000 		.4byte	0x8c
 1311 08f6 08090000 		.4byte	0x908
ARM GAS  /tmp/cc4jmVSE.s 			page 24


 1312 08fa 08       		.uleb128 0x8
 1313 08fb A5000000 		.4byte	0xa5
 1314 08ff 0F       		.byte	0xf
 1315 0900 13       		.uleb128 0x13
 1316 0901 A5000000 		.4byte	0xa5
 1317 0905 FF03     		.2byte	0x3ff
 1318 0907 00       		.byte	0
 1319 0908 06       		.uleb128 0x6
 1320 0909 F1080000 		.4byte	0x8f1
 1321 090d 04       		.uleb128 0x4
 1322 090e F2000000 		.4byte	.LASF142
 1323 0912 06       		.byte	0x6
 1324 0913 B6       		.byte	0xb6
 1325 0914 3D050000 		.4byte	0x53d
 1326 0918 14       		.uleb128 0x14
 1327 0919 59020000 		.4byte	.LASF151
 1328 091d 01       		.byte	0x1
 1329 091e 28       		.byte	0x28
 1330 091f 00000000 		.4byte	.LFB118
 1331 0923 5C000000 		.4byte	.LFE118-.LFB118
 1332 0927 01       		.uleb128 0x1
 1333 0928 9C       		.byte	0x9c
 1334 0929 5E090000 		.4byte	0x95e
 1335 092d 15       		.uleb128 0x15
 1336 092e 8F000000 		.4byte	.LASF145
 1337 0932 01       		.byte	0x1
 1338 0933 30       		.byte	0x30
 1339 0934 25000000 		.4byte	0x25
 1340 0938 16       		.uleb128 0x16
 1341 0939 38000000 		.4byte	.LVL0
 1342 093d AD090000 		.4byte	0x9ad
 1343 0941 54090000 		.4byte	0x954
 1344 0945 17       		.uleb128 0x17
 1345 0946 01       		.uleb128 0x1
 1346 0947 52       		.byte	0x52
 1347 0948 03       		.uleb128 0x3
 1348 0949 0A       		.byte	0xa
 1349 094a 0002     		.2byte	0x200
 1350 094c 17       		.uleb128 0x17
 1351 094d 01       		.uleb128 0x1
 1352 094e 50       		.byte	0x50
 1353 094f 03       		.uleb128 0x3
 1354 0950 40       		.byte	0x40
 1355 0951 49       		.byte	0x49
 1356 0952 24       		.byte	0x24
 1357 0953 00       		.byte	0
 1358 0954 18       		.uleb128 0x18
 1359 0955 4A000000 		.4byte	.LVL1
 1360 0959 D1090000 		.4byte	0x9d1
 1361 095d 00       		.byte	0
 1362 095e 19       		.uleb128 0x19
 1363 095f 30040000 		.4byte	.LASF143
 1364 0963 01       		.byte	0x1
 1365 0964 52       		.byte	0x52
 1366 0965 00000000 		.4byte	.LFB119
 1367 0969 02000000 		.4byte	.LFE119-.LFB119
 1368 096d 01       		.uleb128 0x1
ARM GAS  /tmp/cc4jmVSE.s 			page 25


 1369 096e 9C       		.byte	0x9c
 1370 096f 19       		.uleb128 0x19
 1371 0970 7D030000 		.4byte	.LASF144
 1372 0974 01       		.byte	0x1
 1373 0975 55       		.byte	0x55
 1374 0976 00000000 		.4byte	.LFB120
 1375 097a 02000000 		.4byte	.LFE120-.LFB120
 1376 097e 01       		.uleb128 0x1
 1377 097f 9C       		.byte	0x9c
 1378 0980 1A       		.uleb128 0x1a
 1379 0981 A0000000 		.4byte	.LASF146
 1380 0985 07       		.byte	0x7
 1381 0986 9806     		.2byte	0x698
 1382 0988 E3000000 		.4byte	0xe3
 1383 098c 1B       		.uleb128 0x1b
 1384 098d 9A060000 		.4byte	.LASF147
 1385 0991 01       		.byte	0x1
 1386 0992 0C       		.byte	0xc
 1387 0993 9D090000 		.4byte	0x99d
 1388 0997 05       		.uleb128 0x5
 1389 0998 03       		.byte	0x3
 1390 0999 00000000 		.4byte	pal_default_config
 1391 099d 1C       		.uleb128 0x1c
 1392 099e D6030000 		.4byte	0x3d6
 1393 09a2 15       		.uleb128 0x15
 1394 09a3 8F000000 		.4byte	.LASF145
 1395 09a7 01       		.byte	0x1
 1396 09a8 30       		.byte	0x30
 1397 09a9 25000000 		.4byte	0x25
 1398 09ad 1D       		.uleb128 0x1d
 1399 09ae 38010000 		.4byte	.LASF152
 1400 09b2 9E000000 		.4byte	0x9e
 1401 09b6 CA090000 		.4byte	0x9ca
 1402 09ba 1E       		.uleb128 0x1e
 1403 09bb 9E000000 		.4byte	0x9e
 1404 09bf 1E       		.uleb128 0x1e
 1405 09c0 CA090000 		.4byte	0x9ca
 1406 09c4 1E       		.uleb128 0x1e
 1407 09c5 A5000000 		.4byte	0xa5
 1408 09c9 00       		.byte	0
 1409 09ca 1F       		.uleb128 0x1f
 1410 09cb 04       		.byte	0x4
 1411 09cc D0090000 		.4byte	0x9d0
 1412 09d0 20       		.uleb128 0x20
 1413 09d1 21       		.uleb128 0x21
 1414 09d2 8D010000 		.4byte	.LASF153
 1415 09d6 08       		.byte	0x8
 1416 09d7 E606     		.2byte	0x6e6
 1417 09d9 00       		.byte	0
 1418              		.section	.debug_abbrev,"",%progbits
 1419              	.Ldebug_abbrev0:
 1420 0000 01       		.uleb128 0x1
 1421 0001 11       		.uleb128 0x11
 1422 0002 01       		.byte	0x1
 1423 0003 25       		.uleb128 0x25
 1424 0004 0E       		.uleb128 0xe
 1425 0005 13       		.uleb128 0x13
ARM GAS  /tmp/cc4jmVSE.s 			page 26


 1426 0006 0B       		.uleb128 0xb
 1427 0007 03       		.uleb128 0x3
 1428 0008 0E       		.uleb128 0xe
 1429 0009 1B       		.uleb128 0x1b
 1430 000a 0E       		.uleb128 0xe
 1431 000b 55       		.uleb128 0x55
 1432 000c 17       		.uleb128 0x17
 1433 000d 11       		.uleb128 0x11
 1434 000e 01       		.uleb128 0x1
 1435 000f 10       		.uleb128 0x10
 1436 0010 17       		.uleb128 0x17
 1437 0011 00       		.byte	0
 1438 0012 00       		.byte	0
 1439 0013 02       		.uleb128 0x2
 1440 0014 24       		.uleb128 0x24
 1441 0015 00       		.byte	0
 1442 0016 0B       		.uleb128 0xb
 1443 0017 0B       		.uleb128 0xb
 1444 0018 3E       		.uleb128 0x3e
 1445 0019 0B       		.uleb128 0xb
 1446 001a 03       		.uleb128 0x3
 1447 001b 08       		.uleb128 0x8
 1448 001c 00       		.byte	0
 1449 001d 00       		.byte	0
 1450 001e 03       		.uleb128 0x3
 1451 001f 24       		.uleb128 0x24
 1452 0020 00       		.byte	0
 1453 0021 0B       		.uleb128 0xb
 1454 0022 0B       		.uleb128 0xb
 1455 0023 3E       		.uleb128 0x3e
 1456 0024 0B       		.uleb128 0xb
 1457 0025 03       		.uleb128 0x3
 1458 0026 0E       		.uleb128 0xe
 1459 0027 00       		.byte	0
 1460 0028 00       		.byte	0
 1461 0029 04       		.uleb128 0x4
 1462 002a 16       		.uleb128 0x16
 1463 002b 00       		.byte	0
 1464 002c 03       		.uleb128 0x3
 1465 002d 0E       		.uleb128 0xe
 1466 002e 3A       		.uleb128 0x3a
 1467 002f 0B       		.uleb128 0xb
 1468 0030 3B       		.uleb128 0x3b
 1469 0031 0B       		.uleb128 0xb
 1470 0032 49       		.uleb128 0x49
 1471 0033 13       		.uleb128 0x13
 1472 0034 00       		.byte	0
 1473 0035 00       		.byte	0
 1474 0036 05       		.uleb128 0x5
 1475 0037 0F       		.uleb128 0xf
 1476 0038 00       		.byte	0
 1477 0039 0B       		.uleb128 0xb
 1478 003a 0B       		.uleb128 0xb
 1479 003b 00       		.byte	0
 1480 003c 00       		.byte	0
 1481 003d 06       		.uleb128 0x6
 1482 003e 35       		.uleb128 0x35
ARM GAS  /tmp/cc4jmVSE.s 			page 27


 1483 003f 00       		.byte	0
 1484 0040 49       		.uleb128 0x49
 1485 0041 13       		.uleb128 0x13
 1486 0042 00       		.byte	0
 1487 0043 00       		.byte	0
 1488 0044 07       		.uleb128 0x7
 1489 0045 01       		.uleb128 0x1
 1490 0046 01       		.byte	0x1
 1491 0047 49       		.uleb128 0x49
 1492 0048 13       		.uleb128 0x13
 1493 0049 01       		.uleb128 0x1
 1494 004a 13       		.uleb128 0x13
 1495 004b 00       		.byte	0
 1496 004c 00       		.byte	0
 1497 004d 08       		.uleb128 0x8
 1498 004e 21       		.uleb128 0x21
 1499 004f 00       		.byte	0
 1500 0050 49       		.uleb128 0x49
 1501 0051 13       		.uleb128 0x13
 1502 0052 2F       		.uleb128 0x2f
 1503 0053 0B       		.uleb128 0xb
 1504 0054 00       		.byte	0
 1505 0055 00       		.byte	0
 1506 0056 09       		.uleb128 0x9
 1507 0057 13       		.uleb128 0x13
 1508 0058 01       		.byte	0x1
 1509 0059 0B       		.uleb128 0xb
 1510 005a 0B       		.uleb128 0xb
 1511 005b 3A       		.uleb128 0x3a
 1512 005c 0B       		.uleb128 0xb
 1513 005d 3B       		.uleb128 0x3b
 1514 005e 05       		.uleb128 0x5
 1515 005f 01       		.uleb128 0x1
 1516 0060 13       		.uleb128 0x13
 1517 0061 00       		.byte	0
 1518 0062 00       		.byte	0
 1519 0063 0A       		.uleb128 0xa
 1520 0064 0D       		.uleb128 0xd
 1521 0065 00       		.byte	0
 1522 0066 03       		.uleb128 0x3
 1523 0067 0E       		.uleb128 0xe
 1524 0068 3A       		.uleb128 0x3a
 1525 0069 0B       		.uleb128 0xb
 1526 006a 3B       		.uleb128 0x3b
 1527 006b 05       		.uleb128 0x5
 1528 006c 49       		.uleb128 0x49
 1529 006d 13       		.uleb128 0x13
 1530 006e 38       		.uleb128 0x38
 1531 006f 0B       		.uleb128 0xb
 1532 0070 00       		.byte	0
 1533 0071 00       		.byte	0
 1534 0072 0B       		.uleb128 0xb
 1535 0073 0D       		.uleb128 0xd
 1536 0074 00       		.byte	0
 1537 0075 03       		.uleb128 0x3
 1538 0076 08       		.uleb128 0x8
 1539 0077 3A       		.uleb128 0x3a
ARM GAS  /tmp/cc4jmVSE.s 			page 28


 1540 0078 0B       		.uleb128 0xb
 1541 0079 3B       		.uleb128 0x3b
 1542 007a 05       		.uleb128 0x5
 1543 007b 49       		.uleb128 0x49
 1544 007c 13       		.uleb128 0x13
 1545 007d 38       		.uleb128 0x38
 1546 007e 0B       		.uleb128 0xb
 1547 007f 00       		.byte	0
 1548 0080 00       		.byte	0
 1549 0081 0C       		.uleb128 0xc
 1550 0082 16       		.uleb128 0x16
 1551 0083 00       		.byte	0
 1552 0084 03       		.uleb128 0x3
 1553 0085 0E       		.uleb128 0xe
 1554 0086 3A       		.uleb128 0x3a
 1555 0087 0B       		.uleb128 0xb
 1556 0088 3B       		.uleb128 0x3b
 1557 0089 05       		.uleb128 0x5
 1558 008a 49       		.uleb128 0x49
 1559 008b 13       		.uleb128 0x13
 1560 008c 00       		.byte	0
 1561 008d 00       		.byte	0
 1562 008e 0D       		.uleb128 0xd
 1563 008f 13       		.uleb128 0x13
 1564 0090 01       		.byte	0x1
 1565 0091 0B       		.uleb128 0xb
 1566 0092 0B       		.uleb128 0xb
 1567 0093 3A       		.uleb128 0x3a
 1568 0094 0B       		.uleb128 0xb
 1569 0095 3B       		.uleb128 0x3b
 1570 0096 0B       		.uleb128 0xb
 1571 0097 01       		.uleb128 0x1
 1572 0098 13       		.uleb128 0x13
 1573 0099 00       		.byte	0
 1574 009a 00       		.byte	0
 1575 009b 0E       		.uleb128 0xe
 1576 009c 0D       		.uleb128 0xd
 1577 009d 00       		.byte	0
 1578 009e 03       		.uleb128 0x3
 1579 009f 0E       		.uleb128 0xe
 1580 00a0 3A       		.uleb128 0x3a
 1581 00a1 0B       		.uleb128 0xb
 1582 00a2 3B       		.uleb128 0x3b
 1583 00a3 0B       		.uleb128 0xb
 1584 00a4 49       		.uleb128 0x49
 1585 00a5 13       		.uleb128 0x13
 1586 00a6 38       		.uleb128 0x38
 1587 00a7 0B       		.uleb128 0xb
 1588 00a8 00       		.byte	0
 1589 00a9 00       		.byte	0
 1590 00aa 0F       		.uleb128 0xf
 1591 00ab 0D       		.uleb128 0xd
 1592 00ac 00       		.byte	0
 1593 00ad 03       		.uleb128 0x3
 1594 00ae 08       		.uleb128 0x8
 1595 00af 3A       		.uleb128 0x3a
 1596 00b0 0B       		.uleb128 0xb
ARM GAS  /tmp/cc4jmVSE.s 			page 29


 1597 00b1 3B       		.uleb128 0x3b
 1598 00b2 0B       		.uleb128 0xb
 1599 00b3 49       		.uleb128 0x49
 1600 00b4 13       		.uleb128 0x13
 1601 00b5 38       		.uleb128 0x38
 1602 00b6 0B       		.uleb128 0xb
 1603 00b7 00       		.byte	0
 1604 00b8 00       		.byte	0
 1605 00b9 10       		.uleb128 0x10
 1606 00ba 13       		.uleb128 0x13
 1607 00bb 01       		.byte	0x1
 1608 00bc 0B       		.uleb128 0xb
 1609 00bd 06       		.uleb128 0x6
 1610 00be 3A       		.uleb128 0x3a
 1611 00bf 0B       		.uleb128 0xb
 1612 00c0 3B       		.uleb128 0x3b
 1613 00c1 0B       		.uleb128 0xb
 1614 00c2 01       		.uleb128 0x1
 1615 00c3 13       		.uleb128 0x13
 1616 00c4 00       		.byte	0
 1617 00c5 00       		.byte	0
 1618 00c6 11       		.uleb128 0x11
 1619 00c7 0D       		.uleb128 0xd
 1620 00c8 00       		.byte	0
 1621 00c9 03       		.uleb128 0x3
 1622 00ca 0E       		.uleb128 0xe
 1623 00cb 3A       		.uleb128 0x3a
 1624 00cc 0B       		.uleb128 0xb
 1625 00cd 3B       		.uleb128 0x3b
 1626 00ce 0B       		.uleb128 0xb
 1627 00cf 49       		.uleb128 0x49
 1628 00d0 13       		.uleb128 0x13
 1629 00d1 38       		.uleb128 0x38
 1630 00d2 05       		.uleb128 0x5
 1631 00d3 00       		.byte	0
 1632 00d4 00       		.byte	0
 1633 00d5 12       		.uleb128 0x12
 1634 00d6 0D       		.uleb128 0xd
 1635 00d7 00       		.byte	0
 1636 00d8 03       		.uleb128 0x3
 1637 00d9 08       		.uleb128 0x8
 1638 00da 3A       		.uleb128 0x3a
 1639 00db 0B       		.uleb128 0xb
 1640 00dc 3B       		.uleb128 0x3b
 1641 00dd 0B       		.uleb128 0xb
 1642 00de 49       		.uleb128 0x49
 1643 00df 13       		.uleb128 0x13
 1644 00e0 38       		.uleb128 0x38
 1645 00e1 05       		.uleb128 0x5
 1646 00e2 00       		.byte	0
 1647 00e3 00       		.byte	0
 1648 00e4 13       		.uleb128 0x13
 1649 00e5 21       		.uleb128 0x21
 1650 00e6 00       		.byte	0
 1651 00e7 49       		.uleb128 0x49
 1652 00e8 13       		.uleb128 0x13
 1653 00e9 2F       		.uleb128 0x2f
ARM GAS  /tmp/cc4jmVSE.s 			page 30


 1654 00ea 05       		.uleb128 0x5
 1655 00eb 00       		.byte	0
 1656 00ec 00       		.byte	0
 1657 00ed 14       		.uleb128 0x14
 1658 00ee 2E       		.uleb128 0x2e
 1659 00ef 01       		.byte	0x1
 1660 00f0 3F       		.uleb128 0x3f
 1661 00f1 19       		.uleb128 0x19
 1662 00f2 03       		.uleb128 0x3
 1663 00f3 0E       		.uleb128 0xe
 1664 00f4 3A       		.uleb128 0x3a
 1665 00f5 0B       		.uleb128 0xb
 1666 00f6 3B       		.uleb128 0x3b
 1667 00f7 0B       		.uleb128 0xb
 1668 00f8 27       		.uleb128 0x27
 1669 00f9 19       		.uleb128 0x19
 1670 00fa 11       		.uleb128 0x11
 1671 00fb 01       		.uleb128 0x1
 1672 00fc 12       		.uleb128 0x12
 1673 00fd 06       		.uleb128 0x6
 1674 00fe 40       		.uleb128 0x40
 1675 00ff 18       		.uleb128 0x18
 1676 0100 9742     		.uleb128 0x2117
 1677 0102 19       		.uleb128 0x19
 1678 0103 01       		.uleb128 0x1
 1679 0104 13       		.uleb128 0x13
 1680 0105 00       		.byte	0
 1681 0106 00       		.byte	0
 1682 0107 15       		.uleb128 0x15
 1683 0108 34       		.uleb128 0x34
 1684 0109 00       		.byte	0
 1685 010a 03       		.uleb128 0x3
 1686 010b 0E       		.uleb128 0xe
 1687 010c 3A       		.uleb128 0x3a
 1688 010d 0B       		.uleb128 0xb
 1689 010e 3B       		.uleb128 0x3b
 1690 010f 0B       		.uleb128 0xb
 1691 0110 49       		.uleb128 0x49
 1692 0111 13       		.uleb128 0x13
 1693 0112 3F       		.uleb128 0x3f
 1694 0113 19       		.uleb128 0x19
 1695 0114 3C       		.uleb128 0x3c
 1696 0115 19       		.uleb128 0x19
 1697 0116 00       		.byte	0
 1698 0117 00       		.byte	0
 1699 0118 16       		.uleb128 0x16
 1700 0119 898201   		.uleb128 0x4109
 1701 011c 01       		.byte	0x1
 1702 011d 11       		.uleb128 0x11
 1703 011e 01       		.uleb128 0x1
 1704 011f 31       		.uleb128 0x31
 1705 0120 13       		.uleb128 0x13
 1706 0121 01       		.uleb128 0x1
 1707 0122 13       		.uleb128 0x13
 1708 0123 00       		.byte	0
 1709 0124 00       		.byte	0
 1710 0125 17       		.uleb128 0x17
ARM GAS  /tmp/cc4jmVSE.s 			page 31


 1711 0126 8A8201   		.uleb128 0x410a
 1712 0129 00       		.byte	0
 1713 012a 02       		.uleb128 0x2
 1714 012b 18       		.uleb128 0x18
 1715 012c 9142     		.uleb128 0x2111
 1716 012e 18       		.uleb128 0x18
 1717 012f 00       		.byte	0
 1718 0130 00       		.byte	0
 1719 0131 18       		.uleb128 0x18
 1720 0132 898201   		.uleb128 0x4109
 1721 0135 00       		.byte	0
 1722 0136 11       		.uleb128 0x11
 1723 0137 01       		.uleb128 0x1
 1724 0138 9542     		.uleb128 0x2115
 1725 013a 19       		.uleb128 0x19
 1726 013b 31       		.uleb128 0x31
 1727 013c 13       		.uleb128 0x13
 1728 013d 00       		.byte	0
 1729 013e 00       		.byte	0
 1730 013f 19       		.uleb128 0x19
 1731 0140 2E       		.uleb128 0x2e
 1732 0141 00       		.byte	0
 1733 0142 3F       		.uleb128 0x3f
 1734 0143 19       		.uleb128 0x19
 1735 0144 03       		.uleb128 0x3
 1736 0145 0E       		.uleb128 0xe
 1737 0146 3A       		.uleb128 0x3a
 1738 0147 0B       		.uleb128 0xb
 1739 0148 3B       		.uleb128 0x3b
 1740 0149 0B       		.uleb128 0xb
 1741 014a 27       		.uleb128 0x27
 1742 014b 19       		.uleb128 0x19
 1743 014c 11       		.uleb128 0x11
 1744 014d 01       		.uleb128 0x1
 1745 014e 12       		.uleb128 0x12
 1746 014f 06       		.uleb128 0x6
 1747 0150 40       		.uleb128 0x40
 1748 0151 18       		.uleb128 0x18
 1749 0152 9742     		.uleb128 0x2117
 1750 0154 19       		.uleb128 0x19
 1751 0155 00       		.byte	0
 1752 0156 00       		.byte	0
 1753 0157 1A       		.uleb128 0x1a
 1754 0158 34       		.uleb128 0x34
 1755 0159 00       		.byte	0
 1756 015a 03       		.uleb128 0x3
 1757 015b 0E       		.uleb128 0xe
 1758 015c 3A       		.uleb128 0x3a
 1759 015d 0B       		.uleb128 0xb
 1760 015e 3B       		.uleb128 0x3b
 1761 015f 05       		.uleb128 0x5
 1762 0160 49       		.uleb128 0x49
 1763 0161 13       		.uleb128 0x13
 1764 0162 3F       		.uleb128 0x3f
 1765 0163 19       		.uleb128 0x19
 1766 0164 3C       		.uleb128 0x3c
 1767 0165 19       		.uleb128 0x19
ARM GAS  /tmp/cc4jmVSE.s 			page 32


 1768 0166 00       		.byte	0
 1769 0167 00       		.byte	0
 1770 0168 1B       		.uleb128 0x1b
 1771 0169 34       		.uleb128 0x34
 1772 016a 00       		.byte	0
 1773 016b 03       		.uleb128 0x3
 1774 016c 0E       		.uleb128 0xe
 1775 016d 3A       		.uleb128 0x3a
 1776 016e 0B       		.uleb128 0xb
 1777 016f 3B       		.uleb128 0x3b
 1778 0170 0B       		.uleb128 0xb
 1779 0171 49       		.uleb128 0x49
 1780 0172 13       		.uleb128 0x13
 1781 0173 3F       		.uleb128 0x3f
 1782 0174 19       		.uleb128 0x19
 1783 0175 02       		.uleb128 0x2
 1784 0176 18       		.uleb128 0x18
 1785 0177 00       		.byte	0
 1786 0178 00       		.byte	0
 1787 0179 1C       		.uleb128 0x1c
 1788 017a 26       		.uleb128 0x26
 1789 017b 00       		.byte	0
 1790 017c 49       		.uleb128 0x49
 1791 017d 13       		.uleb128 0x13
 1792 017e 00       		.byte	0
 1793 017f 00       		.byte	0
 1794 0180 1D       		.uleb128 0x1d
 1795 0181 2E       		.uleb128 0x2e
 1796 0182 01       		.byte	0x1
 1797 0183 3F       		.uleb128 0x3f
 1798 0184 19       		.uleb128 0x19
 1799 0185 03       		.uleb128 0x3
 1800 0186 0E       		.uleb128 0xe
 1801 0187 27       		.uleb128 0x27
 1802 0188 19       		.uleb128 0x19
 1803 0189 49       		.uleb128 0x49
 1804 018a 13       		.uleb128 0x13
 1805 018b 34       		.uleb128 0x34
 1806 018c 19       		.uleb128 0x19
 1807 018d 3C       		.uleb128 0x3c
 1808 018e 19       		.uleb128 0x19
 1809 018f 01       		.uleb128 0x1
 1810 0190 13       		.uleb128 0x13
 1811 0191 00       		.byte	0
 1812 0192 00       		.byte	0
 1813 0193 1E       		.uleb128 0x1e
 1814 0194 05       		.uleb128 0x5
 1815 0195 00       		.byte	0
 1816 0196 49       		.uleb128 0x49
 1817 0197 13       		.uleb128 0x13
 1818 0198 00       		.byte	0
 1819 0199 00       		.byte	0
 1820 019a 1F       		.uleb128 0x1f
 1821 019b 0F       		.uleb128 0xf
 1822 019c 00       		.byte	0
 1823 019d 0B       		.uleb128 0xb
 1824 019e 0B       		.uleb128 0xb
ARM GAS  /tmp/cc4jmVSE.s 			page 33


 1825 019f 49       		.uleb128 0x49
 1826 01a0 13       		.uleb128 0x13
 1827 01a1 00       		.byte	0
 1828 01a2 00       		.byte	0
 1829 01a3 20       		.uleb128 0x20
 1830 01a4 26       		.uleb128 0x26
 1831 01a5 00       		.byte	0
 1832 01a6 00       		.byte	0
 1833 01a7 00       		.byte	0
 1834 01a8 21       		.uleb128 0x21
 1835 01a9 2E       		.uleb128 0x2e
 1836 01aa 00       		.byte	0
 1837 01ab 3F       		.uleb128 0x3f
 1838 01ac 19       		.uleb128 0x19
 1839 01ad 03       		.uleb128 0x3
 1840 01ae 0E       		.uleb128 0xe
 1841 01af 3A       		.uleb128 0x3a
 1842 01b0 0B       		.uleb128 0xb
 1843 01b1 3B       		.uleb128 0x3b
 1844 01b2 05       		.uleb128 0x5
 1845 01b3 27       		.uleb128 0x27
 1846 01b4 19       		.uleb128 0x19
 1847 01b5 3C       		.uleb128 0x3c
 1848 01b6 19       		.uleb128 0x19
 1849 01b7 00       		.byte	0
 1850 01b8 00       		.byte	0
 1851 01b9 00       		.byte	0
 1852              		.section	.debug_aranges,"",%progbits
 1853 0000 2C000000 		.4byte	0x2c
 1854 0004 0200     		.2byte	0x2
 1855 0006 00000000 		.4byte	.Ldebug_info0
 1856 000a 04       		.byte	0x4
 1857 000b 00       		.byte	0
 1858 000c 0000     		.2byte	0
 1859 000e 0000     		.2byte	0
 1860 0010 00000000 		.4byte	.LFB118
 1861 0014 5C000000 		.4byte	.LFE118-.LFB118
 1862 0018 00000000 		.4byte	.LFB119
 1863 001c 02000000 		.4byte	.LFE119-.LFB119
 1864 0020 00000000 		.4byte	.LFB120
 1865 0024 02000000 		.4byte	.LFE120-.LFB120
 1866 0028 00000000 		.4byte	0
 1867 002c 00000000 		.4byte	0
 1868              		.section	.debug_ranges,"",%progbits
 1869              	.Ldebug_ranges0:
 1870 0000 00000000 		.4byte	.LFB118
 1871 0004 5C000000 		.4byte	.LFE118
 1872 0008 00000000 		.4byte	.LFB119
 1873 000c 02000000 		.4byte	.LFE119
 1874 0010 00000000 		.4byte	.LFB120
 1875 0014 02000000 		.4byte	.LFE120
 1876 0018 00000000 		.4byte	0
 1877 001c 00000000 		.4byte	0
 1878              		.section	.debug_line,"",%progbits
 1879              	.Ldebug_line0:
 1880 0000 79030000 		.section	.debug_str,"MS",%progbits,1
 1880      02003203 
ARM GAS  /tmp/cc4jmVSE.s 			page 34


 1880      00000201 
 1880      FB0E0D00 
 1880      01010101 
 1881              	.LASF57:
 1882 0000 73746D33 		.ascii	"stm32_gpio_setup_t\000"
 1882      325F6770 
 1882      696F5F73 
 1882      65747570 
 1882      5F7400
 1883              	.LASF136:
 1884 0013 72657376 		.ascii	"resvd880\000"
 1884      64383830 
 1884      00
 1885              	.LASF41:
 1886 001c 41504231 		.ascii	"APB1LPENR\000"
 1886      4C50454E 
 1886      5200
 1887              	.LASF88:
 1888 0026 73746D33 		.ascii	"stm32_otg_out_ep_t\000"
 1888      325F6F74 
 1888      675F6F75 
 1888      745F6570 
 1888      5F7400
 1889              	.LASF116:
 1890 0039 48505254 		.ascii	"HPRT\000"
 1890      00
 1891              	.LASF132:
 1892 003e 44494550 		.ascii	"DIEPEMPMSK\000"
 1892      454D504D 
 1892      534B00
 1893              	.LASF126:
 1894 0049 4441494E 		.ascii	"DAINTMSK\000"
 1894      544D534B 
 1894      00
 1895              	.LASF91:
 1896 0052 47414842 		.ascii	"GAHBCFG\000"
 1896      43464700 
 1897              	.LASF52:
 1898 005a 6F747970 		.ascii	"otyper\000"
 1898      657200
 1899              	.LASF121:
 1900 0061 44535453 		.ascii	"DSTS\000"
 1900      00
 1901              	.LASF120:
 1902 0066 4443544C 		.ascii	"DCTL\000"
 1902      00
 1903              	.LASF16:
 1904 006b 4D454D52 		.ascii	"MEMRMP\000"
 1904      4D5000
 1905              	.LASF10:
 1906 0072 6C6F6E67 		.ascii	"long long unsigned int\000"
 1906      206C6F6E 
 1906      6720756E 
 1906      7369676E 
 1906      65642069 
 1907              	.LASF54:
 1908 0089 70757064 		.ascii	"pupdr\000"
ARM GAS  /tmp/cc4jmVSE.s 			page 35


 1908      7200
 1909              	.LASF145:
 1910 008f 5F766563 		.ascii	"_vectors\000"
 1910      746F7273 
 1910      00
 1911              	.LASF97:
 1912 0098 47525853 		.ascii	"GRXSTSP\000"
 1912      54535000 
 1913              	.LASF146:
 1914 00a0 49544D5F 		.ascii	"ITM_RxBuffer\000"
 1914      52784275 
 1914      66666572 
 1914      00
 1915              	.LASF37:
 1916 00ad 41484231 		.ascii	"AHB1LPENR\000"
 1916      4C50454E 
 1916      5200
 1917              	.LASF118:
 1918 00b7 72657376 		.ascii	"resvd700\000"
 1918      64373030 
 1918      00
 1919              	.LASF49:
 1920 00c0 44434B43 		.ascii	"DCKCFGR\000"
 1920      46475200 
 1921              	.LASF9:
 1922 00c8 6C6F6E67 		.ascii	"long long int\000"
 1922      206C6F6E 
 1922      6720696E 
 1922      7400
 1923              	.LASF1:
 1924 00d6 7369676E 		.ascii	"signed char\000"
 1924      65642063 
 1924      68617200 
 1925              	.LASF23:
 1926 00e2 41484231 		.ascii	"AHB1RSTR\000"
 1926      52535452 
 1926      00
 1927              	.LASF72:
 1928 00eb 48435453 		.ascii	"HCTSIZ\000"
 1928      495A00
 1929              	.LASF142:
 1930 00f2 73746D33 		.ascii	"stm32_otg_t\000"
 1930      325F6F74 
 1930      675F7400 
 1931              	.LASF71:
 1932 00fe 4843494E 		.ascii	"HCINTMSK\000"
 1932      544D534B 
 1932      00
 1933              	.LASF51:
 1934 0107 6D6F6465 		.ascii	"moder\000"
 1934      7200
 1935              	.LASF99:
 1936 010d 44494550 		.ascii	"DIEPTXF0\000"
 1936      54584630 
 1936      00
 1937              	.LASF5:
 1938 0116 6C6F6E67 		.ascii	"long int\000"
ARM GAS  /tmp/cc4jmVSE.s 			page 36


 1938      20696E74 
 1938      00
 1939              	.LASF62:
 1940 011f 50454461 		.ascii	"PEData\000"
 1940      746100
 1941              	.LASF28:
 1942 0126 41504232 		.ascii	"APB2RSTR\000"
 1942      52535452 
 1942      00
 1943              	.LASF117:
 1944 012f 72657376 		.ascii	"resvd444\000"
 1944      64343434 
 1944      00
 1945              	.LASF152:
 1946 0138 6D656D63 		.ascii	"memcpy\000"
 1946      707900
 1947              	.LASF119:
 1948 013f 44434647 		.ascii	"DCFG\000"
 1948      00
 1949              	.LASF110:
 1950 0144 48464E55 		.ascii	"HFNUM\000"
 1950      4D00
 1951              	.LASF128:
 1952 014a 72657376 		.ascii	"resvd824\000"
 1952      64383234 
 1952      00
 1953              	.LASF58:
 1954 0153 50414461 		.ascii	"PAData\000"
 1954      746100
 1955              	.LASF65:
 1956 015a 50484461 		.ascii	"PHData\000"
 1956      746100
 1957              	.LASF125:
 1958 0161 4441494E 		.ascii	"DAINT\000"
 1958      5400
 1959              	.LASF4:
 1960 0167 73686F72 		.ascii	"short unsigned int\000"
 1960      7420756E 
 1960      7369676E 
 1960      65642069 
 1960      6E7400
 1961              	.LASF7:
 1962 017a 5F5F7569 		.ascii	"__uint32_t\000"
 1962      6E743332 
 1962      5F7400
 1963              	.LASF90:
 1964 0185 474F5447 		.ascii	"GOTGINT\000"
 1964      494E5400 
 1965              	.LASF153:
 1966 018d 73746D33 		.ascii	"stm32_clock_init\000"
 1966      325F636C 
 1966      6F636B5F 
 1966      696E6974 
 1966      00
 1967              	.LASF59:
 1968 019e 50424461 		.ascii	"PBData\000"
 1968      746100
ARM GAS  /tmp/cc4jmVSE.s 			page 37


 1969              	.LASF0:
 1970 01a5 756E7369 		.ascii	"unsigned int\000"
 1970      676E6564 
 1970      20696E74 
 1970      00
 1971              	.LASF127:
 1972 01b2 72657376 		.ascii	"resvd820\000"
 1972      64383230 
 1972      00
 1973              	.LASF95:
 1974 01bb 47494E54 		.ascii	"GINTMSK\000"
 1974      4D534B00 
 1975              	.LASF150:
 1976 01c3 2F686F6D 		.ascii	"/home/sbcu/Dropbox/pcb-layouts/axo-on-discovery-boa"
 1976      652F7362 
 1976      63752F44 
 1976      726F7062 
 1976      6F782F70 
 1977 01f6 72642F61 		.ascii	"rd/axoloti/firmware/flasher\000"
 1977      786F6C6F 
 1977      74692F66 
 1977      69726D77 
 1977      6172652F 
 1978              	.LASF139:
 1979 0212 50434743 		.ascii	"PCGCCTL\000"
 1979      43544C00 
 1980              	.LASF8:
 1981 021a 6C6F6E67 		.ascii	"long unsigned int\000"
 1981      20756E73 
 1981      69676E65 
 1981      6420696E 
 1981      7400
 1982              	.LASF73:
 1983 022c 72657376 		.ascii	"resvd14\000"
 1983      64313400 
 1984              	.LASF50:
 1985 0234 5243435F 		.ascii	"RCC_TypeDef\000"
 1985      54797065 
 1985      44656600 
 1986              	.LASF74:
 1987 0240 72657376 		.ascii	"resvd18\000"
 1987      64313800 
 1988              	.LASF53:
 1989 0248 6F737065 		.ascii	"ospeedr\000"
 1989      65647200 
 1990              	.LASF133:
 1991 0250 72657376 		.ascii	"resvd838\000"
 1991      64383338 
 1991      00
 1992              	.LASF151:
 1993 0259 5F5F6561 		.ascii	"__early_init\000"
 1993      726C795F 
 1993      696E6974 
 1993      00
 1994              	.LASF83:
 1995 0266 72657376 		.ascii	"resvd1C\000"
 1995      64314300 
ARM GAS  /tmp/cc4jmVSE.s 			page 38


 1996              	.LASF134:
 1997 026e 72657376 		.ascii	"resvd83C\000"
 1997      64383343 
 1997      00
 1998              	.LASF47:
 1999 0277 504C4C49 		.ascii	"PLLI2SCFGR\000"
 1999      32534346 
 1999      475200
 2000              	.LASF94:
 2001 0282 47494E54 		.ascii	"GINTSTS\000"
 2001      53545300 
 2002              	.LASF21:
 2003 028a 504C4C43 		.ascii	"PLLCFGR\000"
 2003      46475200 
 2004              	.LASF109:
 2005 0292 48464952 		.ascii	"HFIR\000"
 2005      00
 2006              	.LASF76:
 2007 0297 73746D33 		.ascii	"stm32_otg_host_chn_t\000"
 2007      325F6F74 
 2007      675F686F 
 2007      73745F63 
 2007      686E5F74 
 2008              	.LASF93:
 2009 02ac 47525354 		.ascii	"GRSTCTL\000"
 2009      43544C00 
 2010              	.LASF42:
 2011 02b4 41504232 		.ascii	"APB2LPENR\000"
 2011      4C50454E 
 2011      5200
 2012              	.LASF115:
 2013 02be 72657376 		.ascii	"resvd41C\000"
 2013      64343143 
 2013      00
 2014              	.LASF75:
 2015 02c7 72657376 		.ascii	"resvd1c\000"
 2015      64316300 
 2016              	.LASF64:
 2017 02cf 50474461 		.ascii	"PGData\000"
 2017      746100
 2018              	.LASF137:
 2019 02d6 72657376 		.ascii	"resvd8C0\000"
 2019      64384330 
 2019      00
 2020              	.LASF84:
 2021 02df 73746D33 		.ascii	"stm32_otg_in_ep_t\000"
 2021      325F6F74 
 2021      675F696E 
 2021      5F65705F 
 2021      7400
 2022              	.LASF114:
 2023 02f1 4841494E 		.ascii	"HAINTMSK\000"
 2023      544D534B 
 2023      00
 2024              	.LASF135:
 2025 02fa 72657376 		.ascii	"resvd840\000"
 2025      64383430 
ARM GAS  /tmp/cc4jmVSE.s 			page 39


 2025      00
 2026              	.LASF96:
 2027 0303 47525853 		.ascii	"GRXSTSR\000"
 2027      54535200 
 2028              	.LASF14:
 2029 030b 73697A65 		.ascii	"sizetype\000"
 2029      74797065 
 2029      00
 2030              	.LASF48:
 2031 0314 504C4C53 		.ascii	"PLLSAICFGR\000"
 2031      41494346 
 2031      475200
 2032              	.LASF77:
 2033 031f 44494550 		.ascii	"DIEPCTL\000"
 2033      43544C00 
 2034              	.LASF140:
 2035 0327 72657376 		.ascii	"resvdE04\000"
 2035      64453034 
 2035      00
 2036              	.LASF70:
 2037 0330 4843494E 		.ascii	"HCINT\000"
 2037      5400
 2038              	.LASF38:
 2039 0336 41484232 		.ascii	"AHB2LPENR\000"
 2039      4C50454E 
 2039      5200
 2040              	.LASF56:
 2041 0340 61667268 		.ascii	"afrh\000"
 2041      00
 2042              	.LASF81:
 2043 0345 44494550 		.ascii	"DIEPTSIZ\000"
 2043      5453495A 
 2043      00
 2044              	.LASF61:
 2045 034e 50444461 		.ascii	"PDData\000"
 2045      746100
 2046              	.LASF27:
 2047 0355 41504231 		.ascii	"APB1RSTR\000"
 2047      52535452 
 2047      00
 2048              	.LASF123:
 2049 035e 44494550 		.ascii	"DIEPMSK\000"
 2049      4D534B00 
 2050              	.LASF19:
 2051 0366 434D5043 		.ascii	"CMPCR\000"
 2051      5200
 2052              	.LASF92:
 2053 036c 47555342 		.ascii	"GUSBCFG\000"
 2053      43464700 
 2054              	.LASF131:
 2055 0374 72657376 		.ascii	"resvd830\000"
 2055      64383330 
 2055      00
 2056              	.LASF144:
 2057 037d 56656374 		.ascii	"Vector174\000"
 2057      6F723137 
 2057      3400
ARM GAS  /tmp/cc4jmVSE.s 			page 40


 2058              	.LASF20:
 2059 0387 53595343 		.ascii	"SYSCFG_TypeDef\000"
 2059      46475F54 
 2059      79706544 
 2059      656600
 2060              	.LASF26:
 2061 0396 52455345 		.ascii	"RESERVED0\000"
 2061      52564544 
 2061      3000
 2062              	.LASF29:
 2063 03a0 52455345 		.ascii	"RESERVED1\000"
 2063      52564544 
 2063      3100
 2064              	.LASF33:
 2065 03aa 52455345 		.ascii	"RESERVED2\000"
 2065      52564544 
 2065      3200
 2066              	.LASF36:
 2067 03b4 52455345 		.ascii	"RESERVED3\000"
 2067      52564544 
 2067      3300
 2068              	.LASF40:
 2069 03be 52455345 		.ascii	"RESERVED4\000"
 2069      52564544 
 2069      3400
 2070              	.LASF43:
 2071 03c8 52455345 		.ascii	"RESERVED5\000"
 2071      52564544 
 2071      3500
 2072              	.LASF45:
 2073 03d2 52455345 		.ascii	"RESERVED6\000"
 2073      52564544 
 2073      3600
 2074              	.LASF78:
 2075 03dc 72657376 		.ascii	"resvd4\000"
 2075      643400
 2076              	.LASF82:
 2077 03e3 44545846 		.ascii	"DTXFSTS\000"
 2077      53545300 
 2078              	.LASF69:
 2079 03eb 72657376 		.ascii	"resvd8\000"
 2079      643800
 2080              	.LASF13:
 2081 03f2 5F426F6F 		.ascii	"_Bool\000"
 2081      6C00
 2082              	.LASF11:
 2083 03f8 696E7433 		.ascii	"int32_t\000"
 2083      325F7400 
 2084              	.LASF2:
 2085 0400 756E7369 		.ascii	"unsigned char\000"
 2085      676E6564 
 2085      20636861 
 2085      7200
 2086              	.LASF79:
 2087 040e 44494550 		.ascii	"DIEPINT\000"
 2087      494E5400 
 2088              	.LASF80:
ARM GAS  /tmp/cc4jmVSE.s 			page 41


 2089 0416 72657376 		.ascii	"resvdC\000"
 2089      644300
 2090              	.LASF87:
 2091 041d 444F4550 		.ascii	"DOEPTSIZ\000"
 2091      5453495A 
 2091      00
 2092              	.LASF3:
 2093 0426 73686F72 		.ascii	"short int\000"
 2093      7420696E 
 2093      7400
 2094              	.LASF143:
 2095 0430 626F6172 		.ascii	"boardInit\000"
 2095      64496E69 
 2095      7400
 2096              	.LASF39:
 2097 043a 41484233 		.ascii	"AHB3LPENR\000"
 2097      4C50454E 
 2097      5200
 2098              	.LASF101:
 2099 0444 72657376 		.ascii	"resvd30\000"
 2099      64333000 
 2100              	.LASF18:
 2101 044c 52455345 		.ascii	"RESERVED\000"
 2101      52564544 
 2101      00
 2102              	.LASF130:
 2103 0455 44564255 		.ascii	"DVBUSPULSE\000"
 2103      5350554C 
 2103      534500
 2104              	.LASF35:
 2105 0460 41504232 		.ascii	"APB2ENR\000"
 2105      454E5200 
 2106              	.LASF25:
 2107 0468 41484233 		.ascii	"AHB3RSTR\000"
 2107      52535452 
 2107      00
 2108              	.LASF66:
 2109 0471 50494461 		.ascii	"PIData\000"
 2109      746100
 2110              	.LASF32:
 2111 0478 41484233 		.ascii	"AHB3ENR\000"
 2111      454E5200 
 2112              	.LASF111:
 2113 0480 72657376 		.ascii	"resvd40C\000"
 2113      64343043 
 2113      00
 2114              	.LASF12:
 2115 0489 75696E74 		.ascii	"uint32_t\000"
 2115      33325F74 
 2115      00
 2116              	.LASF55:
 2117 0492 6166726C 		.ascii	"afrl\000"
 2117      00
 2118              	.LASF107:
 2119 0497 72657376 		.ascii	"resvd140\000"
 2119      64313430 
 2119      00
ARM GAS  /tmp/cc4jmVSE.s 			page 42


 2120              	.LASF15:
 2121 04a0 63686172 		.ascii	"char\000"
 2121      00
 2122              	.LASF149:
 2123 04a5 626F6172 		.ascii	"board.c\000"
 2123      642E6300 
 2124              	.LASF113:
 2125 04ad 4841494E 		.ascii	"HAINT\000"
 2125      5400
 2126              	.LASF102:
 2127 04b3 72657376 		.ascii	"resvd34\000"
 2127      64333400 
 2128              	.LASF24:
 2129 04bb 41484232 		.ascii	"AHB2RSTR\000"
 2129      52535452 
 2129      00
 2130              	.LASF108:
 2131 04c4 48434647 		.ascii	"HCFG\000"
 2131      00
 2132              	.LASF138:
 2133 04c9 72657376 		.ascii	"resvdD00\000"
 2133      64443030 
 2133      00
 2134              	.LASF6:
 2135 04d2 5F5F696E 		.ascii	"__int32_t\000"
 2135      7433325F 
 2135      7400
 2136              	.LASF98:
 2137 04dc 47525846 		.ascii	"GRXFSIZ\000"
 2137      53495A00 
 2138              	.LASF34:
 2139 04e4 41504231 		.ascii	"APB1ENR\000"
 2139      454E5200 
 2140              	.LASF89:
 2141 04ec 474F5447 		.ascii	"GOTGCTL\000"
 2141      43544C00 
 2142              	.LASF31:
 2143 04f4 41484232 		.ascii	"AHB2ENR\000"
 2143      454E5200 
 2144              	.LASF63:
 2145 04fc 50464461 		.ascii	"PFData\000"
 2145      746100
 2146              	.LASF129:
 2147 0503 44564255 		.ascii	"DVBUSDIS\000"
 2147      53444953 
 2147      00
 2148              	.LASF148:
 2149 050c 474E5520 		.ascii	"GNU C 4.9.3 20150529 (release) [ARM/embedded-4_9-br"
 2149      4320342E 
 2149      392E3320 
 2149      32303135 
 2149      30353239 
 2150 053f 616E6368 		.ascii	"anch revision 224288] -mcpu=cortex-m4 -mfloat-abi=h"
 2150      20726576 
 2150      6973696F 
 2150      6E203232 
 2150      34323838 
ARM GAS  /tmp/cc4jmVSE.s 			page 43


 2151 0572 61726420 		.ascii	"ard -mfpu=fpv4-sp-d16 -mno-thumb-interwork -mthumb "
 2151      2D6D6670 
 2151      753D6670 
 2151      76342D73 
 2151      702D6431 
 2152 05a5 2D676764 		.ascii	"-ggdb -O2 -fomit-frame-pointer -falign-functions=16"
 2152      62202D4F 
 2152      32202D66 
 2152      6F6D6974 
 2152      2D667261 
 2153 05d8 202D6666 		.ascii	" -ffunction-sections -fdata-sections -fno-common -f"
 2153      756E6374 
 2153      696F6E2D 
 2153      73656374 
 2153      696F6E73 
 2154 060b 73696E67 		.ascii	"single-precision-constant\000"
 2154      6C652D70 
 2154      72656369 
 2154      73696F6E 
 2154      2D636F6E 
 2155              	.LASF112:
 2156 0625 48505458 		.ascii	"HPTXSTS\000"
 2156      53545300 
 2157              	.LASF85:
 2158 062d 444F4550 		.ascii	"DOEPCTL\000"
 2158      43544C00 
 2159              	.LASF46:
 2160 0635 53534347 		.ascii	"SSCGR\000"
 2160      5200
 2161              	.LASF105:
 2162 063b 48505458 		.ascii	"HPTXFSIZ\000"
 2162      4653495A 
 2162      00
 2163              	.LASF122:
 2164 0644 72657376 		.ascii	"resvd80C\000"
 2164      64383043 
 2164      00
 2165              	.LASF44:
 2166 064d 42444352 		.ascii	"BDCR\000"
 2166      00
 2167              	.LASF104:
 2168 0652 72657376 		.ascii	"resvd58\000"
 2168      64353800 
 2169              	.LASF124:
 2170 065a 444F4550 		.ascii	"DOEPMSK\000"
 2170      4D534B00 
 2171              	.LASF103:
 2172 0662 47434346 		.ascii	"GCCFG\000"
 2172      4700
 2173              	.LASF141:
 2174 0668 4649464F 		.ascii	"FIFO\000"
 2174      00
 2175              	.LASF30:
 2176 066d 41484231 		.ascii	"AHB1ENR\000"
 2176      454E5200 
 2177              	.LASF60:
 2178 0675 50434461 		.ascii	"PCData\000"
ARM GAS  /tmp/cc4jmVSE.s 			page 44


 2178      746100
 2179              	.LASF22:
 2180 067c 43464752 		.ascii	"CFGR\000"
 2180      00
 2181              	.LASF68:
 2182 0681 48434348 		.ascii	"HCCHAR\000"
 2182      415200
 2183              	.LASF106:
 2184 0688 44494550 		.ascii	"DIEPTXF\000"
 2184      54584600 
 2185              	.LASF67:
 2186 0690 50414C43 		.ascii	"PALConfig\000"
 2186      6F6E6669 
 2186      6700
 2187              	.LASF147:
 2188 069a 70616C5F 		.ascii	"pal_default_config\000"
 2188      64656661 
 2188      756C745F 
 2188      636F6E66 
 2188      696700
 2189              	.LASF100:
 2190 06ad 484E5054 		.ascii	"HNPTXSTS\000"
 2190      58535453 
 2190      00
 2191              	.LASF17:
 2192 06b6 45585449 		.ascii	"EXTICR\000"
 2192      435200
 2193              	.LASF86:
 2194 06bd 444F4550 		.ascii	"DOEPINT\000"
 2194      494E5400 
 2195              		.ident	"GCC: (GNU Tools for ARM Embedded Processors) 4.9.3 20150529 (release) [ARM/embedded-4_9-br
ARM GAS  /tmp/cc4jmVSE.s 			page 45


DEFINED SYMBOLS
                            *ABS*:00000000 board.c
     /tmp/cc4jmVSE.s:21     .text.__early_init:00000000 $t
     /tmp/cc4jmVSE.s:27     .text.__early_init:00000000 __early_init
     /tmp/cc4jmVSE.s:94     .text.__early_init:0000004c $d
     /tmp/cc4jmVSE.s:102    .text.boardInit:00000000 $t
     /tmp/cc4jmVSE.s:108    .text.boardInit:00000000 boardInit
     /tmp/cc4jmVSE.s:120    .text.Vector174:00000000 $t
     /tmp/cc4jmVSE.s:126    .text.Vector174:00000000 Vector174
     /tmp/cc4jmVSE.s:142    .rodata.pal_default_config:00000000 pal_default_config
     /tmp/cc4jmVSE.s:139    .rodata.pal_default_config:00000000 $d
                     .debug_frame:00000010 $d

UNDEFINED SYMBOLS
memcpy
stm32_clock_init
_vectors
