ARM GAS  /tmp/ccLjyTS3.s 			page 1


   1              		.syntax unified
   2              		.cpu cortex-m4
   3              		.eabi_attribute 27, 1
   4              		.eabi_attribute 28, 1
   5              		.fpu fpv4-sp-d16
   6              		.eabi_attribute 20, 1
   7              		.eabi_attribute 21, 1
   8              		.eabi_attribute 23, 3
   9              		.eabi_attribute 24, 1
  10              		.eabi_attribute 25, 1
  11              		.eabi_attribute 26, 1
  12              		.eabi_attribute 30, 2
  13              		.eabi_attribute 34, 1
  14              		.eabi_attribute 18, 4
  15              		.thumb
  16              		.file	"chcore_v7m.c"
  17              		.text
  18              	.Ltext0:
  19              		.cfi_sections	.debug_frame
  20              		.section	.text._port_switch_from_isr,"ax",%progbits
  21              		.align	2
  22              		.p2align 4,,15
  23              		.global	_port_switch_from_isr
  24              		.thumb
  25              		.thumb_func
  26              		.type	_port_switch_from_isr, %function
  27              	_port_switch_from_isr:
  28              	.LFB11:
  29              		.file 1 "/home/sbcu/Dropbox/pcb-layouts/axo-on-discovery-board/axoloti/platform_linux/../chibios/o
  30              		.loc 1 200 0
  31              		.cfi_startproc
  32              		@ Naked Function: prologue and epilogue provided by programmer.
  33              		@ args = 0, pretend = 0, frame = 0
  34              		@ frame_needed = 0, uses_anonymous_args = 0
  35              		.loc 1 203 0
  36 0000 FFF7FEFF 		bl	chSchDoReschedule
  37              	.LVL0:
  38              		.loc 1 205 0
  39              	@ 205 "/home/sbcu/Dropbox/pcb-layouts/axo-on-discovery-board/axoloti/platform_linux/../chibios/os/p
  40              		_port_exit_from_isr:
  41              	@ 0 "" 2
  42              		.loc 1 207 0
  43              	@ 207 "/home/sbcu/Dropbox/pcb-layouts/axo-on-discovery-board/axoloti/platform_linux/../chibios/os/p
  44 0004 00DF     		svc     #0
  45              	@ 0 "" 2
  46              		.loc 1 214 0
  47              		.thumb
  48              		.cfi_endproc
  49              	.LFE11:
  50              		.size	_port_switch_from_isr, .-_port_switch_from_isr
  51 0006 00BF     		.section	.text.SVCallVector,"ax",%progbits
  52              		.align	2
  53              		.p2align 4,,15
  54              		.global	SVCallVector
  55              		.thumb
  56              		.thumb_func
  57              		.type	SVCallVector, %function
ARM GAS  /tmp/ccLjyTS3.s 			page 2


  58              	SVCallVector:
  59              	.LFB8:
  60              		.loc 1 65 0
  61              		.cfi_startproc
  62              		@ args = 0, pretend = 0, frame = 0
  63              		@ frame_needed = 0, uses_anonymous_args = 0
  64              		@ link register save eliminated.
  65              		.loc 1 70 0
  66 0000 064A     		ldr	r2, .L3
  67 0002 5368     		ldr	r3, [r2, #4]
  68 0004 23F00103 		bic	r3, r3, #1
  69 0008 5360     		str	r3, [r2, #4]
  70              		.loc 1 74 0
  71              	@ 74 "/home/sbcu/Dropbox/pcb-layouts/axo-on-discovery-board/axoloti/platform_linux/../chibios/os/po
  72 000a EFF30983 		mrs     r3, PSP
  73              	@ 0 "" 2
  74              	.LVL1:
  75              		.loc 1 78 0
  76              		.thumb
  77 000e 6833     		adds	r3, r3, #104
  78              	.LVL2:
  79              		.loc 1 81 0
  80              	@ 81 "/home/sbcu/Dropbox/pcb-layouts/axo-on-discovery-board/axoloti/platform_linux/../chibios/os/po
  81 0010 83F30988 		msr     PSP, r3
  82              	@ 0 "" 2
  83              		.thumb
  84              	.LBB5:
  85              		.loc 1 82 0
  86 0014 0023     		movs	r3, #0
  87              	.LVL3:
  88              	@ 82 "/home/sbcu/Dropbox/pcb-layouts/axo-on-discovery-board/axoloti/platform_linux/../chibios/os/po
  89 0016 83F31188 		msr     BASEPRI, r3
  90              	@ 0 "" 2
  91              		.thumb
  92 001a 7047     		bx	lr
  93              	.L4:
  94              		.align	2
  95              	.L3:
  96 001c 30EF00E0 		.word	-536809680
  97              	.LBE5:
  98              		.cfi_endproc
  99              	.LFE8:
 100              		.size	SVCallVector, .-SVCallVector
 101              		.section	.text._port_init,"ax",%progbits
 102              		.align	2
 103              		.p2align 4,,15
 104              		.global	_port_init
 105              		.thumb
 106              		.thumb_func
 107              		.type	_port_init, %function
 108              	_port_init:
 109              	.LFB9:
 110              		.loc 1 120 0
 111              		.cfi_startproc
 112              		@ args = 0, pretend = 0, frame = 0
 113              		@ frame_needed = 0, uses_anonymous_args = 0
 114 0000 08B5     		push	{r3, lr}
ARM GAS  /tmp/ccLjyTS3.s 			page 3


 115              		.cfi_def_cfa_offset 8
 116              		.cfi_offset 3, -8
 117              		.cfi_offset 14, -4
 118              		.loc 1 123 0
 119 0002 094B     		ldr	r3, .L7
 120              		.loc 1 124 0
 121 0004 094A     		ldr	r2, .L7+4
 122              		.loc 1 123 0
 123 0006 0021     		movs	r1, #0
 124 0008 9960     		str	r1, [r3, #8]
 125              		.loc 1 127 0
 126 000a 0720     		movs	r0, #7
 127              		.loc 1 124 0
 128 000c DA60     		str	r2, [r3, #12]
 129              		.loc 1 127 0
 130 000e 1021     		movs	r1, #16
 131 0010 FFF7FEFF 		bl	nvicSetSystemHandlerPriority
 132              	.LVL4:
 133              		.loc 1 129 0
 134 0014 0A20     		movs	r0, #10
 135 0016 2021     		movs	r1, #32
 136 0018 FFF7FEFF 		bl	nvicSetSystemHandlerPriority
 137              	.LVL5:
 138              		.loc 1 131 0
 139 001c 0B20     		movs	r0, #11
 140 001e 8021     		movs	r1, #128
 141              		.loc 1 133 0
 142 0020 BDE80840 		pop	{r3, lr}
 143              		.cfi_restore 14
 144              		.cfi_restore 3
 145              		.cfi_def_cfa_offset 0
 146              		.loc 1 131 0
 147 0024 FFF7FEBF 		b	nvicSetSystemHandlerPriority
 148              	.LVL6:
 149              	.L8:
 150              		.align	2
 151              	.L7:
 152 0028 00ED00E0 		.word	-536810240
 153 002c 0003FA05 		.word	100270848
 154              		.cfi_endproc
 155              	.LFE9:
 156              		.size	_port_init, .-_port_init
 157              		.section	.text._port_irq_epilogue,"ax",%progbits
 158              		.align	2
 159              		.p2align 4,,15
 160              		.global	_port_irq_epilogue
 161              		.thumb
 162              		.thumb_func
 163              		.type	_port_irq_epilogue, %function
 164              	_port_irq_epilogue:
 165              	.LFB10:
 166              		.loc 1 150 0
 167              		.cfi_startproc
 168              		@ args = 0, pretend = 0, frame = 0
 169              		@ frame_needed = 0, uses_anonymous_args = 0
 170              		@ link register save eliminated.
 171              	.LBB14:
ARM GAS  /tmp/ccLjyTS3.s 			page 4


 172              		.loc 1 152 0
 173 0000 2023     		movs	r3, #32
 174              	@ 152 "/home/sbcu/Dropbox/pcb-layouts/axo-on-discovery-board/axoloti/platform_linux/../chibios/os/p
 175 0002 83F31188 		msr     BASEPRI, r3
 176              	@ 0 "" 2
 177              		.thumb
 178              	.LBE14:
 179              		.loc 1 153 0
 180 0006 1A4B     		ldr	r3, .L17
 181 0008 5B68     		ldr	r3, [r3, #4]
 182 000a 13F40063 		ands	r3, r3, #2048
 183 000e 1FD0     		beq	.L10
 184              	.LBB15:
 185              	.LBB16:
 186              		.loc 1 159 0
 187              	@ 159 "/home/sbcu/Dropbox/pcb-layouts/axo-on-discovery-board/axoloti/platform_linux/../chibios/os/p
 188 0010 F1EE10FA 		vmrs    APSR_nzcv, FPSCR
 189              	@ 0 "" 2
 190              		.loc 1 163 0
 191              	@ 163 "/home/sbcu/Dropbox/pcb-layouts/axo-on-discovery-board/axoloti/platform_linux/../chibios/os/p
 192 0014 EFF30983 		mrs     r3, PSP
 193              	@ 0 "" 2
 194              	.LVL7:
 195              		.loc 1 170 0
 196              		.thumb
 197 0018 164A     		ldr	r2, .L17+4
 198              		.loc 1 168 0
 199 001a 4FF08071 		mov	r1, #16777216
 200              		.loc 1 170 0
 201 001e D268     		ldr	r2, [r2, #12]
 202 0020 43F8082C 		str	r2, [r3, #-8]
 203              		.loc 1 168 0
 204 0024 43F84C1C 		str	r1, [r3, #-76]
 205              		.loc 1 167 0
 206 0028 A3F16802 		sub	r2, r3, #104
 207              	.LVL8:
 208              		.loc 1 172 0
 209              	@ 172 "/home/sbcu/Dropbox/pcb-layouts/axo-on-discovery-board/axoloti/platform_linux/../chibios/os/p
 210 002c 82F30988 		msr     PSP, r2
 211              	@ 0 "" 2
 212              		.loc 1 176 0
 213              		.thumb
 214 0030 1149     		ldr	r1, .L17+8
 215 0032 8A69     		ldr	r2, [r1, #24]
 216              	.LVL9:
 217 0034 907F     		ldrb	r0, [r2, #30]	@ zero_extendqisi2
 218 0036 70B1     		cbz	r0, .L11
 219 0038 0868     		ldr	r0, [r1]
 220 003a 9168     		ldr	r1, [r2, #8]
 221 003c 8268     		ldr	r2, [r0, #8]
 222 003e 8A42     		cmp	r2, r1
 223 0040 94BF     		ite	ls
 224 0042 0022     		movls	r2, #0
 225 0044 0122     		movhi	r2, #1
 226 0046 7AB1     		cbz	r2, .L13
 227              	.L16:
 228              		.loc 1 178 0
ARM GAS  /tmp/ccLjyTS3.s 			page 5


 229 0048 0C4A     		ldr	r2, .L17+12
 230 004a 43F8502C 		str	r2, [r3, #-80]
 231 004e 7047     		bx	lr
 232              	.LVL10:
 233              	.L10:
 234              	.LBE16:
 235              	.LBE15:
 236              	.LBB18:
 237              		.loc 1 190 0
 238              	@ 190 "/home/sbcu/Dropbox/pcb-layouts/axo-on-discovery-board/axoloti/platform_linux/../chibios/os/p
 239 0050 83F31188 		msr     BASEPRI, r3
 240              	@ 0 "" 2
 241              		.thumb
 242 0054 7047     		bx	lr
 243              	.LVL11:
 244              	.L11:
 245              	.LBE18:
 246              	.LBB19:
 247              	.LBB17:
 248              		.loc 1 176 0
 249 0056 0868     		ldr	r0, [r1]
 250 0058 9168     		ldr	r1, [r2, #8]
 251 005a 8268     		ldr	r2, [r0, #8]
 252 005c 8A42     		cmp	r2, r1
 253 005e 34BF     		ite	cc
 254 0060 0022     		movcc	r2, #0
 255 0062 0122     		movcs	r2, #1
 256 0064 002A     		cmp	r2, #0
 257 0066 EFD1     		bne	.L16
 258              	.L13:
 259              		.loc 1 183 0
 260 0068 054A     		ldr	r2, .L17+16
 261 006a 43F8502C 		str	r2, [r3, #-80]
 262 006e 7047     		bx	lr
 263              	.L18:
 264              		.align	2
 265              	.L17:
 266 0070 00ED00E0 		.word	-536810240
 267 0074 30EF00E0 		.word	-536809680
 268 0078 00000000 		.word	rlist
 269 007c 00000000 		.word	_port_switch_from_isr
 270 0080 04000000 		.word	_port_exit_from_isr
 271              	.LBE17:
 272              	.LBE19:
 273              		.cfi_endproc
 274              	.LFE10:
 275              		.size	_port_irq_epilogue, .-_port_irq_epilogue
 276              		.section	.text.SysTickVector,"ax",%progbits
 277              		.align	2
 278              		.p2align 4,,15
 279              		.global	SysTickVector
 280              		.thumb
 281              		.thumb_func
 282              		.type	SysTickVector, %function
 283              	SysTickVector:
 284              	.LFB7:
 285              		.loc 1 47 0
ARM GAS  /tmp/ccLjyTS3.s 			page 6


 286              		.cfi_startproc
 287              		@ args = 0, pretend = 0, frame = 0
 288              		@ frame_needed = 0, uses_anonymous_args = 0
 289 0000 08B5     		push	{r3, lr}
 290              		.cfi_def_cfa_offset 8
 291              		.cfi_offset 3, -8
 292              		.cfi_offset 14, -4
 293              	.LBB20:
 294              		.loc 1 51 0
 295 0002 2023     		movs	r3, #32
 296              	@ 51 "/home/sbcu/Dropbox/pcb-layouts/axo-on-discovery-board/axoloti/platform_linux/../chibios/os/po
 297 0004 83F31188 		msr     BASEPRI, r3
 298              	@ 0 "" 2
 299              		.thumb
 300              	.LBE20:
 301              		.loc 1 52 0
 302 0008 FFF7FEFF 		bl	chSysTimerHandlerI
 303              	.LVL12:
 304              	.LBB21:
 305              		.loc 1 53 0
 306 000c 0023     		movs	r3, #0
 307              	@ 53 "/home/sbcu/Dropbox/pcb-layouts/axo-on-discovery-board/axoloti/platform_linux/../chibios/os/po
 308 000e 83F31188 		msr     BASEPRI, r3
 309              	@ 0 "" 2
 310              		.thumb
 311              	.LBE21:
 312              		.loc 1 56 0
 313 0012 BDE80840 		pop	{r3, lr}
 314              		.cfi_restore 14
 315              		.cfi_restore 3
 316              		.cfi_def_cfa_offset 0
 317              		.loc 1 55 0
 318 0016 FFF7FEBF 		b	_port_irq_epilogue
 319              	.LVL13:
 320              		.cfi_endproc
 321              	.LFE7:
 322              		.size	SysTickVector, .-SysTickVector
 323 001a 00BF     		.section	.text._port_switch,"ax",%progbits
 324              		.align	2
 325              		.p2align 4,,15
 326              		.global	_port_switch
 327              		.thumb
 328              		.thumb_func
 329              		.type	_port_switch, %function
 330              	_port_switch:
 331              	.LFB12:
 332              		.loc 1 229 0
 333              		.cfi_startproc
 334              		@ Naked Function: prologue and epilogue provided by programmer.
 335              		@ args = 0, pretend = 0, frame = 0
 336              		@ frame_needed = 0, uses_anonymous_args = 0
 337              	.LVL14:
 338              		.loc 1 231 0
 339              	@ 231 "/home/sbcu/Dropbox/pcb-layouts/axo-on-discovery-board/axoloti/platform_linux/../chibios/os/p
 340 0000 2DE9F04F 		push    {r4, r5, r6, r7, r8, r9, r10, r11, lr}
 341              	@ 0 "" 2
 342              		.loc 1 234 0
ARM GAS  /tmp/ccLjyTS3.s 			page 7


 343              	@ 234 "/home/sbcu/Dropbox/pcb-layouts/axo-on-discovery-board/axoloti/platform_linux/../chibios/os/p
 344 0004 2DED108A 		vpush   {s16-s31}
 345              	@ 0 "" 2
 346              		.loc 1 237 0
 347              	@ 237 "/home/sbcu/Dropbox/pcb-layouts/axo-on-discovery-board/axoloti/platform_linux/../chibios/os/p
 348 0008 C1F80CD0 		str     sp, [r1, #12]                          
 349 000c D0F80CD0 		ldr     sp, [r0, #12]
 350              	@ 0 "" 2
 351              		.loc 1 241 0
 352              	@ 241 "/home/sbcu/Dropbox/pcb-layouts/axo-on-discovery-board/axoloti/platform_linux/../chibios/os/p
 353 0010 BDEC108A 		vpop    {s16-s31}
 354              	@ 0 "" 2
 355              		.loc 1 243 0
 356              	@ 243 "/home/sbcu/Dropbox/pcb-layouts/axo-on-discovery-board/axoloti/platform_linux/../chibios/os/p
 357 0014 BDE8F08F 		pop     {r4, r5, r6, r7, r8, r9, r10, r11, pc}
 358              	@ 0 "" 2
 359              		.loc 1 245 0
 360              		.thumb
 361              		.cfi_endproc
 362              	.LFE12:
 363              		.size	_port_switch, .-_port_switch
 364              		.section	.text._port_thread_start,"ax",%progbits
 365              		.align	2
 366              		.p2align 4,,15
 367              		.global	_port_thread_start
 368              		.thumb
 369              		.thumb_func
 370              		.type	_port_thread_start, %function
 371              	_port_thread_start:
 372              	.LFB13:
 373              		.loc 1 252 0
 374              		.cfi_startproc
 375              		@ args = 0, pretend = 0, frame = 0
 376              		@ frame_needed = 0, uses_anonymous_args = 0
 377              		@ link register save eliminated.
 378              	.LBB22:
 379              		.loc 1 254 0
 380 0000 0023     		movs	r3, #0
 381              	@ 254 "/home/sbcu/Dropbox/pcb-layouts/axo-on-discovery-board/axoloti/platform_linux/../chibios/os/p
 382 0002 83F31188 		msr     BASEPRI, r3
 383              	@ 0 "" 2
 384              		.thumb
 385              	.LBE22:
 386              		.loc 1 255 0
 387              	@ 255 "/home/sbcu/Dropbox/pcb-layouts/axo-on-discovery-board/axoloti/platform_linux/../chibios/os/p
 388 0006 2846     		mov     r0, r5                                 
 389 0008 A047     		blx     r4                                     
 390 000a FFF7FEFF 		bl      chThdExit
 391              	@ 0 "" 2
 392              		.thumb
 393 000e 7047     		bx	lr
 394              		.cfi_endproc
 395              	.LFE13:
 396              		.size	_port_thread_start, .-_port_thread_start
 397              		.text
 398              	.Letext0:
 399              		.file 2 "/home/sbcu/Dropbox/pcb-layouts/axo-on-discovery-board/axoloti/platform_linux/arm-none-eab
ARM GAS  /tmp/ccLjyTS3.s 			page 8


 400              		.file 3 "/home/sbcu/Dropbox/pcb-layouts/axo-on-discovery-board/axoloti/platform_linux/arm-none-eab
 401              		.file 4 "/home/sbcu/Dropbox/pcb-layouts/axo-on-discovery-board/axoloti/platform_linux/../chibios/o
 402              		.file 5 "/home/sbcu/Dropbox/pcb-layouts/axo-on-discovery-board/axoloti/platform_linux/../chibios/o
 403              		.file 6 "/home/sbcu/Dropbox/pcb-layouts/axo-on-discovery-board/axoloti/platform_linux/../chibios/o
 404              		.file 7 "/home/sbcu/Dropbox/pcb-layouts/axo-on-discovery-board/axoloti/platform_linux/../chibios/o
 405              		.file 8 "/home/sbcu/Dropbox/pcb-layouts/axo-on-discovery-board/axoloti/platform_linux/../chibios/o
 406              		.file 9 "/home/sbcu/Dropbox/pcb-layouts/axo-on-discovery-board/axoloti/platform_linux/../chibios/o
 407              		.file 10 "/home/sbcu/Dropbox/pcb-layouts/axo-on-discovery-board/axoloti/platform_linux/../chibios/
 408              		.file 11 "/home/sbcu/Dropbox/pcb-layouts/axo-on-discovery-board/axoloti/platform_linux/../chibios/
 409              		.section	.debug_info,"",%progbits
 410              	.Ldebug_info0:
 411 0000 070A0000 		.4byte	0xa07
 412 0004 0400     		.2byte	0x4
 413 0006 00000000 		.4byte	.Ldebug_abbrev0
 414 000a 04       		.byte	0x4
 415 000b 01       		.uleb128 0x1
 416 000c BE030000 		.4byte	.LASF102
 417 0010 01       		.byte	0x1
 418 0011 CC010000 		.4byte	.LASF103
 419 0015 18000000 		.4byte	.Ldebug_ranges0+0x18
 420 0019 00000000 		.4byte	0
 421 001d 00000000 		.4byte	.Ldebug_line0
 422 0021 02       		.uleb128 0x2
 423 0022 04       		.byte	0x4
 424 0023 05       		.byte	0x5
 425 0024 696E7400 		.ascii	"int\000"
 426 0028 03       		.uleb128 0x3
 427 0029 04       		.byte	0x4
 428 002a 07       		.byte	0x7
 429 002b 1D010000 		.4byte	.LASF0
 430 002f 03       		.uleb128 0x3
 431 0030 01       		.byte	0x1
 432 0031 06       		.byte	0x6
 433 0032 79000000 		.4byte	.LASF1
 434 0036 04       		.uleb128 0x4
 435 0037 14000000 		.4byte	.LASF5
 436 003b 02       		.byte	0x2
 437 003c 1D       		.byte	0x1d
 438 003d 41000000 		.4byte	0x41
 439 0041 03       		.uleb128 0x3
 440 0042 01       		.byte	0x1
 441 0043 08       		.byte	0x8
 442 0044 D2020000 		.4byte	.LASF2
 443 0048 03       		.uleb128 0x3
 444 0049 02       		.byte	0x2
 445 004a 05       		.byte	0x5
 446 004b F0020000 		.4byte	.LASF3
 447 004f 03       		.uleb128 0x3
 448 0050 02       		.byte	0x2
 449 0051 07       		.byte	0x7
 450 0052 7A010000 		.4byte	.LASF4
 451 0056 04       		.uleb128 0x4
 452 0057 96030000 		.4byte	.LASF6
 453 005b 02       		.byte	0x2
 454 005c 3F       		.byte	0x3f
 455 005d 61000000 		.4byte	0x61
 456 0061 03       		.uleb128 0x3
ARM GAS  /tmp/ccLjyTS3.s 			page 9


 457 0062 04       		.byte	0x4
 458 0063 05       		.byte	0x5
 459 0064 97000000 		.4byte	.LASF7
 460 0068 04       		.uleb128 0x4
 461 0069 D1000000 		.4byte	.LASF8
 462 006d 02       		.byte	0x2
 463 006e 41       		.byte	0x41
 464 006f 73000000 		.4byte	0x73
 465 0073 03       		.uleb128 0x3
 466 0074 04       		.byte	0x4
 467 0075 07       		.byte	0x7
 468 0076 45010000 		.4byte	.LASF9
 469 007a 03       		.uleb128 0x3
 470 007b 08       		.byte	0x8
 471 007c 05       		.byte	0x5
 472 007d 6B000000 		.4byte	.LASF10
 473 0081 03       		.uleb128 0x3
 474 0082 08       		.byte	0x8
 475 0083 07       		.byte	0x7
 476 0084 47000000 		.4byte	.LASF11
 477 0088 04       		.uleb128 0x4
 478 0089 FF040000 		.4byte	.LASF12
 479 008d 03       		.byte	0x3
 480 008e 14       		.byte	0x14
 481 008f 36000000 		.4byte	0x36
 482 0093 04       		.uleb128 0x4
 483 0094 CA020000 		.4byte	.LASF13
 484 0098 03       		.byte	0x3
 485 0099 1F       		.byte	0x1f
 486 009a 56000000 		.4byte	0x56
 487 009e 04       		.uleb128 0x4
 488 009f 54030000 		.4byte	.LASF14
 489 00a3 03       		.byte	0x3
 490 00a4 20       		.byte	0x20
 491 00a5 68000000 		.4byte	0x68
 492 00a9 03       		.uleb128 0x3
 493 00aa 01       		.byte	0x1
 494 00ab 02       		.byte	0x2
 495 00ac C4020000 		.4byte	.LASF15
 496 00b0 04       		.uleb128 0x4
 497 00b1 C4010000 		.4byte	.LASF16
 498 00b5 04       		.byte	0x4
 499 00b6 2C       		.byte	0x2c
 500 00b7 88000000 		.4byte	0x88
 501 00bb 04       		.uleb128 0x4
 502 00bc AD000000 		.4byte	.LASF17
 503 00c0 04       		.byte	0x4
 504 00c1 2D       		.byte	0x2d
 505 00c2 88000000 		.4byte	0x88
 506 00c6 04       		.uleb128 0x4
 507 00c7 8D000000 		.4byte	.LASF18
 508 00cb 04       		.byte	0x4
 509 00cc 2F       		.byte	0x2f
 510 00cd 88000000 		.4byte	0x88
 511 00d1 04       		.uleb128 0x4
 512 00d2 BC020000 		.4byte	.LASF19
 513 00d6 04       		.byte	0x4
ARM GAS  /tmp/ccLjyTS3.s 			page 10


 514 00d7 30       		.byte	0x30
 515 00d8 9E000000 		.4byte	0x9e
 516 00dc 04       		.uleb128 0x4
 517 00dd 92010000 		.4byte	.LASF20
 518 00e1 04       		.byte	0x4
 519 00e2 31       		.byte	0x31
 520 00e3 93000000 		.4byte	0x93
 521 00e7 04       		.uleb128 0x4
 522 00e8 51020000 		.4byte	.LASF21
 523 00ec 04       		.byte	0x4
 524 00ed 33       		.byte	0x33
 525 00ee 9E000000 		.4byte	0x9e
 526 00f2 04       		.uleb128 0x4
 527 00f3 81030000 		.4byte	.LASF22
 528 00f7 04       		.byte	0x4
 529 00f8 35       		.byte	0x35
 530 00f9 9E000000 		.4byte	0x9e
 531 00fd 04       		.uleb128 0x4
 532 00fe 42030000 		.4byte	.LASF23
 533 0102 05       		.byte	0x5
 534 0103 2A       		.byte	0x2a
 535 0104 08010000 		.4byte	0x108
 536 0108 05       		.uleb128 0x5
 537 0109 42030000 		.4byte	.LASF23
 538 010d 44       		.byte	0x44
 539 010e 06       		.byte	0x6
 540 010f 5E       		.byte	0x5e
 541 0110 ED010000 		.4byte	0x1ed
 542 0114 06       		.uleb128 0x6
 543 0115 27030000 		.4byte	.LASF24
 544 0119 06       		.byte	0x6
 545 011a 5F       		.byte	0x5f
 546 011b 0E020000 		.4byte	0x20e
 547 011f 00       		.byte	0
 548 0120 06       		.uleb128 0x6
 549 0121 B5020000 		.4byte	.LASF25
 550 0125 06       		.byte	0x6
 551 0126 61       		.byte	0x61
 552 0127 0E020000 		.4byte	0x20e
 553 012b 04       		.byte	0x4
 554 012c 06       		.uleb128 0x6
 555 012d 64000000 		.4byte	.LASF26
 556 0131 06       		.byte	0x6
 557 0132 63       		.byte	0x63
 558 0133 D1000000 		.4byte	0xd1
 559 0137 08       		.byte	0x8
 560 0138 06       		.uleb128 0x6
 561 0139 33050000 		.4byte	.LASF27
 562 013d 06       		.byte	0x6
 563 013e 64       		.byte	0x64
 564 013f D7040000 		.4byte	0x4d7
 565 0143 0C       		.byte	0xc
 566 0144 06       		.uleb128 0x6
 567 0145 B6000000 		.4byte	.LASF28
 568 0149 06       		.byte	0x6
 569 014a 66       		.byte	0x66
 570 014b 0E020000 		.4byte	0x20e
ARM GAS  /tmp/ccLjyTS3.s 			page 11


 571 014f 10       		.byte	0x10
 572 0150 06       		.uleb128 0x6
 573 0151 77020000 		.4byte	.LASF29
 574 0155 06       		.byte	0x6
 575 0156 67       		.byte	0x67
 576 0157 0E020000 		.4byte	0x20e
 577 015b 14       		.byte	0x14
 578 015c 06       		.uleb128 0x6
 579 015d 19050000 		.4byte	.LASF30
 580 0161 06       		.byte	0x6
 581 0162 6E       		.byte	0x6e
 582 0163 C1070000 		.4byte	0x7c1
 583 0167 18       		.byte	0x18
 584 0168 06       		.uleb128 0x6
 585 0169 FA020000 		.4byte	.LASF31
 586 016d 06       		.byte	0x6
 587 016e 79       		.byte	0x79
 588 016f BB000000 		.4byte	0xbb
 589 0173 1C       		.byte	0x1c
 590 0174 06       		.uleb128 0x6
 591 0175 34030000 		.4byte	.LASF32
 592 0179 06       		.byte	0x6
 593 017a 7D       		.byte	0x7d
 594 017b B0000000 		.4byte	0xb0
 595 017f 1D       		.byte	0x1d
 596 0180 06       		.uleb128 0x6
 597 0181 0A030000 		.4byte	.LASF33
 598 0185 06       		.byte	0x6
 599 0186 88       		.byte	0x88
 600 0187 C6000000 		.4byte	0xc6
 601 018b 1E       		.byte	0x1e
 602 018c 06       		.uleb128 0x6
 603 018d A0030000 		.4byte	.LASF34
 604 0191 06       		.byte	0x6
 605 0192 8F       		.byte	0x8f
 606 0193 E9060000 		.4byte	0x6e9
 607 0197 20       		.byte	0x20
 608 0198 07       		.uleb128 0x7
 609 0199 705F7500 		.ascii	"p_u\000"
 610 019d 06       		.byte	0x6
 611 019e B4       		.byte	0xb4
 612 019f 8C070000 		.4byte	0x78c
 613 01a3 24       		.byte	0x24
 614 01a4 06       		.uleb128 0x6
 615 01a5 39050000 		.4byte	.LASF35
 616 01a9 06       		.byte	0x6
 617 01aa B9       		.byte	0xb9
 618 01ab 34020000 		.4byte	0x234
 619 01af 28       		.byte	0x28
 620 01b0 06       		.uleb128 0x6
 621 01b1 B3030000 		.4byte	.LASF36
 622 01b5 06       		.byte	0x6
 623 01b6 BF       		.byte	0xbf
 624 01b7 14020000 		.4byte	0x214
 625 01bb 2C       		.byte	0x2c
 626 01bc 06       		.uleb128 0x6
 627 01bd 00000000 		.4byte	.LASF37
ARM GAS  /tmp/ccLjyTS3.s 			page 12


 628 01c1 06       		.byte	0x6
 629 01c2 C3       		.byte	0xc3
 630 01c3 DC000000 		.4byte	0xdc
 631 01c7 34       		.byte	0x34
 632 01c8 06       		.uleb128 0x6
 633 01c9 49030000 		.4byte	.LASF38
 634 01cd 06       		.byte	0x6
 635 01ce C9       		.byte	0xc9
 636 01cf E7000000 		.4byte	0xe7
 637 01d3 38       		.byte	0x38
 638 01d4 06       		.uleb128 0x6
 639 01d5 E6020000 		.4byte	.LASF39
 640 01d9 06       		.byte	0x6
 641 01da D0       		.byte	0xd0
 642 01db D3070000 		.4byte	0x7d3
 643 01df 3C       		.byte	0x3c
 644 01e0 06       		.uleb128 0x6
 645 01e1 8B030000 		.4byte	.LASF40
 646 01e5 06       		.byte	0x6
 647 01e6 D4       		.byte	0xd4
 648 01e7 D1000000 		.4byte	0xd1
 649 01eb 40       		.byte	0x40
 650 01ec 00       		.byte	0
 651 01ed 08       		.uleb128 0x8
 652 01ee 08       		.byte	0x8
 653 01ef 05       		.byte	0x5
 654 01f0 61       		.byte	0x61
 655 01f1 0E020000 		.4byte	0x20e
 656 01f5 06       		.uleb128 0x6
 657 01f6 27030000 		.4byte	.LASF24
 658 01fa 05       		.byte	0x5
 659 01fb 62       		.byte	0x62
 660 01fc 0E020000 		.4byte	0x20e
 661 0200 00       		.byte	0
 662 0201 06       		.uleb128 0x6
 663 0202 B5020000 		.4byte	.LASF25
 664 0206 05       		.byte	0x5
 665 0207 64       		.byte	0x64
 666 0208 0E020000 		.4byte	0x20e
 667 020c 04       		.byte	0x4
 668 020d 00       		.byte	0
 669 020e 09       		.uleb128 0x9
 670 020f 04       		.byte	0x4
 671 0210 FD000000 		.4byte	0xfd
 672 0214 04       		.uleb128 0x4
 673 0215 85020000 		.4byte	.LASF41
 674 0219 05       		.byte	0x5
 675 021a 66       		.byte	0x66
 676 021b ED010000 		.4byte	0x1ed
 677 021f 08       		.uleb128 0x8
 678 0220 04       		.byte	0x4
 679 0221 05       		.byte	0x5
 680 0222 6B       		.byte	0x6b
 681 0223 34020000 		.4byte	0x234
 682 0227 06       		.uleb128 0x6
 683 0228 27030000 		.4byte	.LASF24
 684 022c 05       		.byte	0x5
ARM GAS  /tmp/ccLjyTS3.s 			page 13


 685 022d 6D       		.byte	0x6d
 686 022e 0E020000 		.4byte	0x20e
 687 0232 00       		.byte	0
 688 0233 00       		.byte	0
 689 0234 04       		.uleb128 0x4
 690 0235 45020000 		.4byte	.LASF42
 691 0239 05       		.byte	0x5
 692 023a 70       		.byte	0x70
 693 023b 1F020000 		.4byte	0x21f
 694 023f 04       		.uleb128 0x4
 695 0240 F9000000 		.4byte	.LASF43
 696 0244 07       		.byte	0x7
 697 0245 E5       		.byte	0xe5
 698 0246 4A020000 		.4byte	0x24a
 699 024a 0A       		.uleb128 0xa
 700 024b 04       		.byte	0x4
 701 024c 05       		.uleb128 0x5
 702 024d 31010000 		.4byte	.LASF44
 703 0251 68       		.byte	0x68
 704 0252 07       		.byte	0x7
 705 0253 ED       		.byte	0xed
 706 0254 8B030000 		.4byte	0x38b
 707 0258 07       		.uleb128 0x7
 708 0259 723000   		.ascii	"r0\000"
 709 025c 07       		.byte	0x7
 710 025d EE       		.byte	0xee
 711 025e 3F020000 		.4byte	0x23f
 712 0262 00       		.byte	0
 713 0263 07       		.uleb128 0x7
 714 0264 723100   		.ascii	"r1\000"
 715 0267 07       		.byte	0x7
 716 0268 EF       		.byte	0xef
 717 0269 3F020000 		.4byte	0x23f
 718 026d 04       		.byte	0x4
 719 026e 07       		.uleb128 0x7
 720 026f 723200   		.ascii	"r2\000"
 721 0272 07       		.byte	0x7
 722 0273 F0       		.byte	0xf0
 723 0274 3F020000 		.4byte	0x23f
 724 0278 08       		.byte	0x8
 725 0279 07       		.uleb128 0x7
 726 027a 723300   		.ascii	"r3\000"
 727 027d 07       		.byte	0x7
 728 027e F1       		.byte	0xf1
 729 027f 3F020000 		.4byte	0x23f
 730 0283 0C       		.byte	0xc
 731 0284 07       		.uleb128 0x7
 732 0285 72313200 		.ascii	"r12\000"
 733 0289 07       		.byte	0x7
 734 028a F2       		.byte	0xf2
 735 028b 3F020000 		.4byte	0x23f
 736 028f 10       		.byte	0x10
 737 0290 06       		.uleb128 0x6
 738 0291 2A010000 		.4byte	.LASF45
 739 0295 07       		.byte	0x7
 740 0296 F3       		.byte	0xf3
 741 0297 3F020000 		.4byte	0x23f
ARM GAS  /tmp/ccLjyTS3.s 			page 14


 742 029b 14       		.byte	0x14
 743 029c 07       		.uleb128 0x7
 744 029d 706300   		.ascii	"pc\000"
 745 02a0 07       		.byte	0x7
 746 02a1 F4       		.byte	0xf4
 747 02a2 3F020000 		.4byte	0x23f
 748 02a6 18       		.byte	0x18
 749 02a7 06       		.uleb128 0x6
 750 02a8 14030000 		.4byte	.LASF46
 751 02ac 07       		.byte	0x7
 752 02ad F5       		.byte	0xf5
 753 02ae 3F020000 		.4byte	0x23f
 754 02b2 1C       		.byte	0x1c
 755 02b3 07       		.uleb128 0x7
 756 02b4 733000   		.ascii	"s0\000"
 757 02b7 07       		.byte	0x7
 758 02b8 F7       		.byte	0xf7
 759 02b9 3F020000 		.4byte	0x23f
 760 02bd 20       		.byte	0x20
 761 02be 07       		.uleb128 0x7
 762 02bf 733100   		.ascii	"s1\000"
 763 02c2 07       		.byte	0x7
 764 02c3 F8       		.byte	0xf8
 765 02c4 3F020000 		.4byte	0x23f
 766 02c8 24       		.byte	0x24
 767 02c9 07       		.uleb128 0x7
 768 02ca 733200   		.ascii	"s2\000"
 769 02cd 07       		.byte	0x7
 770 02ce F9       		.byte	0xf9
 771 02cf 3F020000 		.4byte	0x23f
 772 02d3 28       		.byte	0x28
 773 02d4 07       		.uleb128 0x7
 774 02d5 733300   		.ascii	"s3\000"
 775 02d8 07       		.byte	0x7
 776 02d9 FA       		.byte	0xfa
 777 02da 3F020000 		.4byte	0x23f
 778 02de 2C       		.byte	0x2c
 779 02df 07       		.uleb128 0x7
 780 02e0 733400   		.ascii	"s4\000"
 781 02e3 07       		.byte	0x7
 782 02e4 FB       		.byte	0xfb
 783 02e5 3F020000 		.4byte	0x23f
 784 02e9 30       		.byte	0x30
 785 02ea 07       		.uleb128 0x7
 786 02eb 733500   		.ascii	"s5\000"
 787 02ee 07       		.byte	0x7
 788 02ef FC       		.byte	0xfc
 789 02f0 3F020000 		.4byte	0x23f
 790 02f4 34       		.byte	0x34
 791 02f5 07       		.uleb128 0x7
 792 02f6 733600   		.ascii	"s6\000"
 793 02f9 07       		.byte	0x7
 794 02fa FD       		.byte	0xfd
 795 02fb 3F020000 		.4byte	0x23f
 796 02ff 38       		.byte	0x38
 797 0300 07       		.uleb128 0x7
 798 0301 733700   		.ascii	"s7\000"
ARM GAS  /tmp/ccLjyTS3.s 			page 15


 799 0304 07       		.byte	0x7
 800 0305 FE       		.byte	0xfe
 801 0306 3F020000 		.4byte	0x23f
 802 030a 3C       		.byte	0x3c
 803 030b 07       		.uleb128 0x7
 804 030c 733800   		.ascii	"s8\000"
 805 030f 07       		.byte	0x7
 806 0310 FF       		.byte	0xff
 807 0311 3F020000 		.4byte	0x23f
 808 0315 40       		.byte	0x40
 809 0316 0B       		.uleb128 0xb
 810 0317 733900   		.ascii	"s9\000"
 811 031a 07       		.byte	0x7
 812 031b 0001     		.2byte	0x100
 813 031d 3F020000 		.4byte	0x23f
 814 0321 44       		.byte	0x44
 815 0322 0B       		.uleb128 0xb
 816 0323 73313000 		.ascii	"s10\000"
 817 0327 07       		.byte	0x7
 818 0328 0101     		.2byte	0x101
 819 032a 3F020000 		.4byte	0x23f
 820 032e 48       		.byte	0x48
 821 032f 0B       		.uleb128 0xb
 822 0330 73313100 		.ascii	"s11\000"
 823 0334 07       		.byte	0x7
 824 0335 0201     		.2byte	0x102
 825 0337 3F020000 		.4byte	0x23f
 826 033b 4C       		.byte	0x4c
 827 033c 0B       		.uleb128 0xb
 828 033d 73313200 		.ascii	"s12\000"
 829 0341 07       		.byte	0x7
 830 0342 0301     		.2byte	0x103
 831 0344 3F020000 		.4byte	0x23f
 832 0348 50       		.byte	0x50
 833 0349 0B       		.uleb128 0xb
 834 034a 73313300 		.ascii	"s13\000"
 835 034e 07       		.byte	0x7
 836 034f 0401     		.2byte	0x104
 837 0351 3F020000 		.4byte	0x23f
 838 0355 54       		.byte	0x54
 839 0356 0B       		.uleb128 0xb
 840 0357 73313400 		.ascii	"s14\000"
 841 035b 07       		.byte	0x7
 842 035c 0501     		.2byte	0x105
 843 035e 3F020000 		.4byte	0x23f
 844 0362 58       		.byte	0x58
 845 0363 0B       		.uleb128 0xb
 846 0364 73313500 		.ascii	"s15\000"
 847 0368 07       		.byte	0x7
 848 0369 0601     		.2byte	0x106
 849 036b 3F020000 		.4byte	0x23f
 850 036f 5C       		.byte	0x5c
 851 0370 0C       		.uleb128 0xc
 852 0371 2E030000 		.4byte	.LASF47
 853 0375 07       		.byte	0x7
 854 0376 0701     		.2byte	0x107
 855 0378 3F020000 		.4byte	0x23f
ARM GAS  /tmp/ccLjyTS3.s 			page 16


 856 037c 60       		.byte	0x60
 857 037d 0C       		.uleb128 0xc
 858 037e 14010000 		.4byte	.LASF48
 859 0382 07       		.byte	0x7
 860 0383 0801     		.2byte	0x108
 861 0385 3F020000 		.4byte	0x23f
 862 0389 64       		.byte	0x64
 863 038a 00       		.byte	0
 864 038b 0D       		.uleb128 0xd
 865 038c AC030000 		.4byte	.LASF49
 866 0390 64       		.byte	0x64
 867 0391 07       		.byte	0x7
 868 0392 0C01     		.2byte	0x10c
 869 0394 D7040000 		.4byte	0x4d7
 870 0398 0B       		.uleb128 0xb
 871 0399 73313600 		.ascii	"s16\000"
 872 039d 07       		.byte	0x7
 873 039e 0E01     		.2byte	0x10e
 874 03a0 3F020000 		.4byte	0x23f
 875 03a4 00       		.byte	0
 876 03a5 0B       		.uleb128 0xb
 877 03a6 73313700 		.ascii	"s17\000"
 878 03aa 07       		.byte	0x7
 879 03ab 0F01     		.2byte	0x10f
 880 03ad 3F020000 		.4byte	0x23f
 881 03b1 04       		.byte	0x4
 882 03b2 0B       		.uleb128 0xb
 883 03b3 73313800 		.ascii	"s18\000"
 884 03b7 07       		.byte	0x7
 885 03b8 1001     		.2byte	0x110
 886 03ba 3F020000 		.4byte	0x23f
 887 03be 08       		.byte	0x8
 888 03bf 0B       		.uleb128 0xb
 889 03c0 73313900 		.ascii	"s19\000"
 890 03c4 07       		.byte	0x7
 891 03c5 1101     		.2byte	0x111
 892 03c7 3F020000 		.4byte	0x23f
 893 03cb 0C       		.byte	0xc
 894 03cc 0B       		.uleb128 0xb
 895 03cd 73323000 		.ascii	"s20\000"
 896 03d1 07       		.byte	0x7
 897 03d2 1201     		.2byte	0x112
 898 03d4 3F020000 		.4byte	0x23f
 899 03d8 10       		.byte	0x10
 900 03d9 0B       		.uleb128 0xb
 901 03da 73323100 		.ascii	"s21\000"
 902 03de 07       		.byte	0x7
 903 03df 1301     		.2byte	0x113
 904 03e1 3F020000 		.4byte	0x23f
 905 03e5 14       		.byte	0x14
 906 03e6 0B       		.uleb128 0xb
 907 03e7 73323200 		.ascii	"s22\000"
 908 03eb 07       		.byte	0x7
 909 03ec 1401     		.2byte	0x114
 910 03ee 3F020000 		.4byte	0x23f
 911 03f2 18       		.byte	0x18
 912 03f3 0B       		.uleb128 0xb
ARM GAS  /tmp/ccLjyTS3.s 			page 17


 913 03f4 73323300 		.ascii	"s23\000"
 914 03f8 07       		.byte	0x7
 915 03f9 1501     		.2byte	0x115
 916 03fb 3F020000 		.4byte	0x23f
 917 03ff 1C       		.byte	0x1c
 918 0400 0B       		.uleb128 0xb
 919 0401 73323400 		.ascii	"s24\000"
 920 0405 07       		.byte	0x7
 921 0406 1601     		.2byte	0x116
 922 0408 3F020000 		.4byte	0x23f
 923 040c 20       		.byte	0x20
 924 040d 0B       		.uleb128 0xb
 925 040e 73323500 		.ascii	"s25\000"
 926 0412 07       		.byte	0x7
 927 0413 1701     		.2byte	0x117
 928 0415 3F020000 		.4byte	0x23f
 929 0419 24       		.byte	0x24
 930 041a 0B       		.uleb128 0xb
 931 041b 73323600 		.ascii	"s26\000"
 932 041f 07       		.byte	0x7
 933 0420 1801     		.2byte	0x118
 934 0422 3F020000 		.4byte	0x23f
 935 0426 28       		.byte	0x28
 936 0427 0B       		.uleb128 0xb
 937 0428 73323700 		.ascii	"s27\000"
 938 042c 07       		.byte	0x7
 939 042d 1901     		.2byte	0x119
 940 042f 3F020000 		.4byte	0x23f
 941 0433 2C       		.byte	0x2c
 942 0434 0B       		.uleb128 0xb
 943 0435 73323800 		.ascii	"s28\000"
 944 0439 07       		.byte	0x7
 945 043a 1A01     		.2byte	0x11a
 946 043c 3F020000 		.4byte	0x23f
 947 0440 30       		.byte	0x30
 948 0441 0B       		.uleb128 0xb
 949 0442 73323900 		.ascii	"s29\000"
 950 0446 07       		.byte	0x7
 951 0447 1B01     		.2byte	0x11b
 952 0449 3F020000 		.4byte	0x23f
 953 044d 34       		.byte	0x34
 954 044e 0B       		.uleb128 0xb
 955 044f 73333000 		.ascii	"s30\000"
 956 0453 07       		.byte	0x7
 957 0454 1C01     		.2byte	0x11c
 958 0456 3F020000 		.4byte	0x23f
 959 045a 38       		.byte	0x38
 960 045b 0B       		.uleb128 0xb
 961 045c 73333100 		.ascii	"s31\000"
 962 0460 07       		.byte	0x7
 963 0461 1D01     		.2byte	0x11d
 964 0463 3F020000 		.4byte	0x23f
 965 0467 3C       		.byte	0x3c
 966 0468 0B       		.uleb128 0xb
 967 0469 723400   		.ascii	"r4\000"
 968 046c 07       		.byte	0x7
 969 046d 1F01     		.2byte	0x11f
ARM GAS  /tmp/ccLjyTS3.s 			page 18


 970 046f 3F020000 		.4byte	0x23f
 971 0473 40       		.byte	0x40
 972 0474 0B       		.uleb128 0xb
 973 0475 723500   		.ascii	"r5\000"
 974 0478 07       		.byte	0x7
 975 0479 2001     		.2byte	0x120
 976 047b 3F020000 		.4byte	0x23f
 977 047f 44       		.byte	0x44
 978 0480 0B       		.uleb128 0xb
 979 0481 723600   		.ascii	"r6\000"
 980 0484 07       		.byte	0x7
 981 0485 2101     		.2byte	0x121
 982 0487 3F020000 		.4byte	0x23f
 983 048b 48       		.byte	0x48
 984 048c 0B       		.uleb128 0xb
 985 048d 723700   		.ascii	"r7\000"
 986 0490 07       		.byte	0x7
 987 0491 2201     		.2byte	0x122
 988 0493 3F020000 		.4byte	0x23f
 989 0497 4C       		.byte	0x4c
 990 0498 0B       		.uleb128 0xb
 991 0499 723800   		.ascii	"r8\000"
 992 049c 07       		.byte	0x7
 993 049d 2301     		.2byte	0x123
 994 049f 3F020000 		.4byte	0x23f
 995 04a3 50       		.byte	0x50
 996 04a4 0B       		.uleb128 0xb
 997 04a5 723900   		.ascii	"r9\000"
 998 04a8 07       		.byte	0x7
 999 04a9 2401     		.2byte	0x124
 1000 04ab 3F020000 		.4byte	0x23f
 1001 04af 54       		.byte	0x54
 1002 04b0 0B       		.uleb128 0xb
 1003 04b1 72313000 		.ascii	"r10\000"
 1004 04b5 07       		.byte	0x7
 1005 04b6 2501     		.2byte	0x125
 1006 04b8 3F020000 		.4byte	0x23f
 1007 04bc 58       		.byte	0x58
 1008 04bd 0B       		.uleb128 0xb
 1009 04be 72313100 		.ascii	"r11\000"
 1010 04c2 07       		.byte	0x7
 1011 04c3 2601     		.2byte	0x126
 1012 04c5 3F020000 		.4byte	0x23f
 1013 04c9 5C       		.byte	0x5c
 1014 04ca 0B       		.uleb128 0xb
 1015 04cb 6C7200   		.ascii	"lr\000"
 1016 04ce 07       		.byte	0x7
 1017 04cf 2701     		.2byte	0x127
 1018 04d1 3F020000 		.4byte	0x23f
 1019 04d5 60       		.byte	0x60
 1020 04d6 00       		.byte	0
 1021 04d7 0D       		.uleb128 0xd
 1022 04d8 72010000 		.4byte	.LASF50
 1023 04dc 04       		.byte	0x4
 1024 04dd 07       		.byte	0x7
 1025 04de 3101     		.2byte	0x131
 1026 04e0 F2040000 		.4byte	0x4f2
ARM GAS  /tmp/ccLjyTS3.s 			page 19


 1027 04e4 0B       		.uleb128 0xb
 1028 04e5 72313300 		.ascii	"r13\000"
 1029 04e9 07       		.byte	0x7
 1030 04ea 3201     		.2byte	0x132
 1031 04ec F2040000 		.4byte	0x4f2
 1032 04f0 00       		.byte	0
 1033 04f1 00       		.byte	0
 1034 04f2 09       		.uleb128 0x9
 1035 04f3 04       		.byte	0x4
 1036 04f4 8B030000 		.4byte	0x38b
 1037 04f8 04       		.uleb128 0x4
 1038 04f9 72030000 		.4byte	.LASF51
 1039 04fd 08       		.byte	0x8
 1040 04fe 3A       		.byte	0x3a
 1041 04ff 03050000 		.4byte	0x503
 1042 0503 0E       		.uleb128 0xe
 1043 0504 9E000000 		.4byte	0x9e
 1044 0508 03       		.uleb128 0x3
 1045 0509 04       		.byte	0x4
 1046 050a 07       		.byte	0x7
 1047 050b 69020000 		.4byte	.LASF52
 1048 050f 08       		.uleb128 0x8
 1049 0510 8C       		.byte	0x8c
 1050 0511 08       		.byte	0x8
 1051 0512 89       		.byte	0x89
 1052 0513 14060000 		.4byte	0x614
 1053 0517 06       		.uleb128 0x6
 1054 0518 5E000000 		.4byte	.LASF53
 1055 051c 08       		.byte	0x8
 1056 051d 8A       		.byte	0x8a
 1057 051e F8040000 		.4byte	0x4f8
 1058 0522 00       		.byte	0
 1059 0523 06       		.uleb128 0x6
 1060 0524 8D010000 		.4byte	.LASF54
 1061 0528 08       		.byte	0x8
 1062 0529 8B       		.byte	0x8b
 1063 052a F8040000 		.4byte	0x4f8
 1064 052e 04       		.byte	0x4
 1065 052f 06       		.uleb128 0x6
 1066 0530 57010000 		.4byte	.LASF55
 1067 0534 08       		.byte	0x8
 1068 0535 8C       		.byte	0x8c
 1069 0536 F8040000 		.4byte	0x4f8
 1070 053a 08       		.byte	0x8
 1071 053b 06       		.uleb128 0x6
 1072 053c 98010000 		.4byte	.LASF56
 1073 0540 08       		.byte	0x8
 1074 0541 8D       		.byte	0x8d
 1075 0542 F8040000 		.4byte	0x4f8
 1076 0546 0C       		.byte	0xc
 1077 0547 07       		.uleb128 0x7
 1078 0548 53435200 		.ascii	"SCR\000"
 1079 054c 08       		.byte	0x8
 1080 054d 8E       		.byte	0x8e
 1081 054e F8040000 		.4byte	0x4f8
 1082 0552 10       		.byte	0x10
 1083 0553 07       		.uleb128 0x7
ARM GAS  /tmp/ccLjyTS3.s 			page 20


 1084 0554 43435200 		.ascii	"CCR\000"
 1085 0558 08       		.byte	0x8
 1086 0559 8F       		.byte	0x8f
 1087 055a F8040000 		.4byte	0x4f8
 1088 055e 14       		.byte	0x14
 1089 055f 06       		.uleb128 0x6
 1090 0560 A7030000 		.4byte	.LASF57
 1091 0564 08       		.byte	0x8
 1092 0565 90       		.byte	0x90
 1093 0566 24060000 		.4byte	0x624
 1094 056a 18       		.byte	0x18
 1095 056b 06       		.uleb128 0x6
 1096 056c E0020000 		.4byte	.LASF58
 1097 0570 08       		.byte	0x8
 1098 0571 91       		.byte	0x91
 1099 0572 F8040000 		.4byte	0x4f8
 1100 0576 24       		.byte	0x24
 1101 0577 06       		.uleb128 0x6
 1102 0578 72020000 		.4byte	.LASF59
 1103 057c 08       		.byte	0x8
 1104 057d 92       		.byte	0x92
 1105 057e F8040000 		.4byte	0x4f8
 1106 0582 28       		.byte	0x28
 1107 0583 06       		.uleb128 0x6
 1108 0584 26050000 		.4byte	.LASF60
 1109 0588 08       		.byte	0x8
 1110 0589 93       		.byte	0x93
 1111 058a F8040000 		.4byte	0x4f8
 1112 058e 2C       		.byte	0x2c
 1113 058f 06       		.uleb128 0x6
 1114 0590 9E010000 		.4byte	.LASF61
 1115 0594 08       		.byte	0x8
 1116 0595 94       		.byte	0x94
 1117 0596 F8040000 		.4byte	0x4f8
 1118 059a 30       		.byte	0x30
 1119 059b 06       		.uleb128 0x6
 1120 059c AB010000 		.4byte	.LASF62
 1121 05a0 08       		.byte	0x8
 1122 05a1 95       		.byte	0x95
 1123 05a2 F8040000 		.4byte	0x4f8
 1124 05a6 34       		.byte	0x34
 1125 05a7 06       		.uleb128 0x6
 1126 05a8 BE000000 		.4byte	.LASF63
 1127 05ac 08       		.byte	0x8
 1128 05ad 96       		.byte	0x96
 1129 05ae F8040000 		.4byte	0x4f8
 1130 05b2 38       		.byte	0x38
 1131 05b3 06       		.uleb128 0x6
 1132 05b4 CC000000 		.4byte	.LASF64
 1133 05b8 08       		.byte	0x8
 1134 05b9 97       		.byte	0x97
 1135 05ba F8040000 		.4byte	0x4f8
 1136 05be 3C       		.byte	0x3c
 1137 05bf 07       		.uleb128 0x7
 1138 05c0 50465200 		.ascii	"PFR\000"
 1139 05c4 08       		.byte	0x8
 1140 05c5 98       		.byte	0x98
ARM GAS  /tmp/ccLjyTS3.s 			page 21


 1141 05c6 39060000 		.4byte	0x639
 1142 05ca 40       		.byte	0x40
 1143 05cb 07       		.uleb128 0x7
 1144 05cc 44465200 		.ascii	"DFR\000"
 1145 05d0 08       		.byte	0x8
 1146 05d1 99       		.byte	0x99
 1147 05d2 F8040000 		.4byte	0x4f8
 1148 05d6 48       		.byte	0x48
 1149 05d7 07       		.uleb128 0x7
 1150 05d8 41445200 		.ascii	"ADR\000"
 1151 05dc 08       		.byte	0x8
 1152 05dd 9A       		.byte	0x9a
 1153 05de F8040000 		.4byte	0x4f8
 1154 05e2 4C       		.byte	0x4c
 1155 05e3 06       		.uleb128 0x6
 1156 05e4 F4040000 		.4byte	.LASF65
 1157 05e8 08       		.byte	0x8
 1158 05e9 9B       		.byte	0x9b
 1159 05ea 4E060000 		.4byte	0x64e
 1160 05ee 50       		.byte	0x50
 1161 05ef 07       		.uleb128 0x7
 1162 05f0 53415200 		.ascii	"SAR\000"
 1163 05f4 08       		.byte	0x8
 1164 05f5 9C       		.byte	0x9c
 1165 05f6 63060000 		.4byte	0x663
 1166 05fa 60       		.byte	0x60
 1167 05fb 06       		.uleb128 0x6
 1168 05fc 65030000 		.4byte	.LASF66
 1169 0600 08       		.byte	0x8
 1170 0601 9D       		.byte	0x9d
 1171 0602 68060000 		.4byte	0x668
 1172 0606 74       		.byte	0x74
 1173 0607 06       		.uleb128 0x6
 1174 0608 20050000 		.4byte	.LASF67
 1175 060c 08       		.byte	0x8
 1176 060d 9E       		.byte	0x9e
 1177 060e F8040000 		.4byte	0x4f8
 1178 0612 88       		.byte	0x88
 1179 0613 00       		.byte	0
 1180 0614 0F       		.uleb128 0xf
 1181 0615 F8040000 		.4byte	0x4f8
 1182 0619 24060000 		.4byte	0x624
 1183 061d 10       		.uleb128 0x10
 1184 061e 08050000 		.4byte	0x508
 1185 0622 02       		.byte	0x2
 1186 0623 00       		.byte	0
 1187 0624 0E       		.uleb128 0xe
 1188 0625 14060000 		.4byte	0x614
 1189 0629 0F       		.uleb128 0xf
 1190 062a F8040000 		.4byte	0x4f8
 1191 062e 39060000 		.4byte	0x639
 1192 0632 10       		.uleb128 0x10
 1193 0633 08050000 		.4byte	0x508
 1194 0637 01       		.byte	0x1
 1195 0638 00       		.byte	0
 1196 0639 0E       		.uleb128 0xe
 1197 063a 29060000 		.4byte	0x629
ARM GAS  /tmp/ccLjyTS3.s 			page 22


 1198 063e 0F       		.uleb128 0xf
 1199 063f F8040000 		.4byte	0x4f8
 1200 0643 4E060000 		.4byte	0x64e
 1201 0647 10       		.uleb128 0x10
 1202 0648 08050000 		.4byte	0x508
 1203 064c 03       		.byte	0x3
 1204 064d 00       		.byte	0
 1205 064e 0E       		.uleb128 0xe
 1206 064f 3E060000 		.4byte	0x63e
 1207 0653 0F       		.uleb128 0xf
 1208 0654 F8040000 		.4byte	0x4f8
 1209 0658 63060000 		.4byte	0x663
 1210 065c 10       		.uleb128 0x10
 1211 065d 08050000 		.4byte	0x508
 1212 0661 04       		.byte	0x4
 1213 0662 00       		.byte	0
 1214 0663 0E       		.uleb128 0xe
 1215 0664 53060000 		.4byte	0x653
 1216 0668 0E       		.uleb128 0xe
 1217 0669 53060000 		.4byte	0x653
 1218 066d 04       		.uleb128 0x4
 1219 066e 1E000000 		.4byte	.LASF68
 1220 0672 08       		.byte	0x8
 1221 0673 9F       		.byte	0x9f
 1222 0674 0F050000 		.4byte	0x50f
 1223 0678 08       		.uleb128 0x8
 1224 0679 18       		.byte	0x18
 1225 067a 08       		.byte	0x8
 1226 067b CC       		.byte	0xcc
 1227 067c C9060000 		.4byte	0x6c9
 1228 0680 06       		.uleb128 0x6
 1229 0681 65030000 		.4byte	.LASF66
 1230 0685 08       		.byte	0x8
 1231 0686 CD       		.byte	0xcd
 1232 0687 D9060000 		.4byte	0x6d9
 1233 068b 00       		.byte	0
 1234 068c 06       		.uleb128 0x6
 1235 068d 63020000 		.4byte	.LASF69
 1236 0691 08       		.byte	0x8
 1237 0692 CE       		.byte	0xce
 1238 0693 F8040000 		.4byte	0x4f8
 1239 0697 04       		.byte	0x4
 1240 0698 06       		.uleb128 0x6
 1241 0699 3C030000 		.4byte	.LASF70
 1242 069d 08       		.byte	0x8
 1243 069e CF       		.byte	0xcf
 1244 069f F8040000 		.4byte	0x4f8
 1245 06a3 08       		.byte	0x8
 1246 06a4 06       		.uleb128 0x6
 1247 06a5 0D000000 		.4byte	.LASF71
 1248 06a9 08       		.byte	0x8
 1249 06aa D0       		.byte	0xd0
 1250 06ab F8040000 		.4byte	0x4f8
 1251 06af 0C       		.byte	0xc
 1252 06b0 06       		.uleb128 0x6
 1253 06b1 A4020000 		.4byte	.LASF72
 1254 06b5 08       		.byte	0x8
ARM GAS  /tmp/ccLjyTS3.s 			page 23


 1255 06b6 D1       		.byte	0xd1
 1256 06b7 F8040000 		.4byte	0x4f8
 1257 06bb 10       		.byte	0x10
 1258 06bc 06       		.uleb128 0x6
 1259 06bd AA020000 		.4byte	.LASF73
 1260 06c1 08       		.byte	0x8
 1261 06c2 D2       		.byte	0xd2
 1262 06c3 F8040000 		.4byte	0x4f8
 1263 06c7 14       		.byte	0x14
 1264 06c8 00       		.byte	0
 1265 06c9 0F       		.uleb128 0xf
 1266 06ca F8040000 		.4byte	0x4f8
 1267 06ce D9060000 		.4byte	0x6d9
 1268 06d2 10       		.uleb128 0x10
 1269 06d3 08050000 		.4byte	0x508
 1270 06d7 00       		.byte	0
 1271 06d8 00       		.byte	0
 1272 06d9 0E       		.uleb128 0xe
 1273 06da C9060000 		.4byte	0x6c9
 1274 06de 04       		.uleb128 0x4
 1275 06df 02030000 		.4byte	.LASF74
 1276 06e3 08       		.byte	0x8
 1277 06e4 D3       		.byte	0xd3
 1278 06e5 78060000 		.4byte	0x678
 1279 06e9 0E       		.uleb128 0xe
 1280 06ea F2000000 		.4byte	0xf2
 1281 06ee 08       		.uleb128 0x8
 1282 06ef 1C       		.byte	0x1c
 1283 06f0 09       		.byte	0x9
 1284 06f1 5E       		.byte	0x5e
 1285 06f2 3F070000 		.4byte	0x73f
 1286 06f6 06       		.uleb128 0x6
 1287 06f7 5D030000 		.4byte	.LASF75
 1288 06fb 09       		.byte	0x9
 1289 06fc 5F       		.byte	0x5f
 1290 06fd 14020000 		.4byte	0x214
 1291 0701 00       		.byte	0
 1292 0702 06       		.uleb128 0x6
 1293 0703 19030000 		.4byte	.LASF76
 1294 0707 09       		.byte	0x9
 1295 0708 60       		.byte	0x60
 1296 0709 D1000000 		.4byte	0xd1
 1297 070d 08       		.byte	0x8
 1298 070e 06       		.uleb128 0x6
 1299 070f 7F020000 		.4byte	.LASF77
 1300 0713 09       		.byte	0x9
 1301 0714 62       		.byte	0x62
 1302 0715 D7040000 		.4byte	0x4d7
 1303 0719 0C       		.byte	0xc
 1304 071a 06       		.uleb128 0x6
 1305 071b A3010000 		.4byte	.LASF78
 1306 071f 09       		.byte	0x9
 1307 0720 65       		.byte	0x65
 1308 0721 0E020000 		.4byte	0x20e
 1309 0725 10       		.byte	0x10
 1310 0726 06       		.uleb128 0x6
 1311 0727 9C020000 		.4byte	.LASF79
ARM GAS  /tmp/ccLjyTS3.s 			page 24


 1312 072b 09       		.byte	0x9
 1313 072c 66       		.byte	0x66
 1314 072d 0E020000 		.4byte	0x20e
 1315 0731 14       		.byte	0x14
 1316 0732 06       		.uleb128 0x6
 1317 0733 92020000 		.4byte	.LASF80
 1318 0737 09       		.byte	0x9
 1319 0738 69       		.byte	0x69
 1320 0739 0E020000 		.4byte	0x20e
 1321 073d 18       		.byte	0x18
 1322 073e 00       		.byte	0
 1323 073f 04       		.uleb128 0x4
 1324 0740 EA040000 		.4byte	.LASF81
 1325 0744 09       		.byte	0x9
 1326 0745 6B       		.byte	0x6b
 1327 0746 EE060000 		.4byte	0x6ee
 1328 074a 05       		.uleb128 0x5
 1329 074b 5D020000 		.4byte	.LASF82
 1330 074f 10       		.byte	0x10
 1331 0750 0A       		.byte	0xa
 1332 0751 2C       		.byte	0x2c
 1333 0752 7B070000 		.4byte	0x77b
 1334 0756 06       		.uleb128 0x6
 1335 0757 85000000 		.4byte	.LASF83
 1336 075b 0A       		.byte	0xa
 1337 075c 2D       		.byte	0x2d
 1338 075d 14020000 		.4byte	0x214
 1339 0761 00       		.byte	0
 1340 0762 06       		.uleb128 0x6
 1341 0763 2B050000 		.4byte	.LASF84
 1342 0767 0A       		.byte	0xa
 1343 0768 2F       		.byte	0x2f
 1344 0769 0E020000 		.4byte	0x20e
 1345 076d 08       		.byte	0x8
 1346 076e 06       		.uleb128 0x6
 1347 076f 7A030000 		.4byte	.LASF85
 1348 0773 0A       		.byte	0xa
 1349 0774 31       		.byte	0x31
 1350 0775 7B070000 		.4byte	0x77b
 1351 0779 0C       		.byte	0xc
 1352 077a 00       		.byte	0
 1353 077b 09       		.uleb128 0x9
 1354 077c 04       		.byte	0x4
 1355 077d 4A070000 		.4byte	0x74a
 1356 0781 04       		.uleb128 0x4
 1357 0782 5D020000 		.4byte	.LASF82
 1358 0786 0A       		.byte	0xa
 1359 0787 33       		.byte	0x33
 1360 0788 4A070000 		.4byte	0x74a
 1361 078c 11       		.uleb128 0x11
 1362 078d 04       		.byte	0x4
 1363 078e 06       		.byte	0x6
 1364 078f 96       		.byte	0x96
 1365 0790 C1070000 		.4byte	0x7c1
 1366 0794 12       		.uleb128 0x12
 1367 0795 06000000 		.4byte	.LASF86
 1368 0799 06       		.byte	0x6
ARM GAS  /tmp/ccLjyTS3.s 			page 25


 1369 079a 9D       		.byte	0x9d
 1370 079b DC000000 		.4byte	0xdc
 1371 079f 12       		.uleb128 0x12
 1372 07a0 C3000000 		.4byte	.LASF87
 1373 07a4 06       		.byte	0x6
 1374 07a5 A4       		.byte	0xa4
 1375 07a6 DC000000 		.4byte	0xdc
 1376 07aa 12       		.uleb128 0x12
 1377 07ab 12050000 		.4byte	.LASF88
 1378 07af 06       		.byte	0x6
 1379 07b0 AB       		.byte	0xab
 1380 07b1 4A020000 		.4byte	0x24a
 1381 07b5 12       		.uleb128 0x12
 1382 07b6 20030000 		.4byte	.LASF89
 1383 07ba 06       		.byte	0x6
 1384 07bb B2       		.byte	0xb2
 1385 07bc E7000000 		.4byte	0xe7
 1386 07c0 00       		.byte	0
 1387 07c1 09       		.uleb128 0x9
 1388 07c2 04       		.byte	0x4
 1389 07c3 C7070000 		.4byte	0x7c7
 1390 07c7 13       		.uleb128 0x13
 1391 07c8 CC070000 		.4byte	0x7cc
 1392 07cc 03       		.uleb128 0x3
 1393 07cd 01       		.byte	0x1
 1394 07ce 08       		.byte	0x8
 1395 07cf 6D030000 		.4byte	.LASF90
 1396 07d3 09       		.uleb128 0x9
 1397 07d4 04       		.byte	0x4
 1398 07d5 81070000 		.4byte	0x781
 1399 07d9 14       		.uleb128 0x14
 1400 07da B1010000 		.4byte	.LASF98
 1401 07de 01       		.byte	0x1
 1402 07df 96       		.byte	0x96
 1403 07e0 01       		.byte	0x1
 1404 07e1 15080000 		.4byte	0x815
 1405 07e5 15       		.uleb128 0x15
 1406 07e6 F6070000 		.4byte	0x7f6
 1407 07ea 16       		.uleb128 0x16
 1408 07eb 746D7000 		.ascii	"tmp\000"
 1409 07ef 01       		.byte	0x1
 1410 07f0 98       		.byte	0x98
 1411 07f1 9E000000 		.4byte	0x9e
 1412 07f5 00       		.byte	0
 1413 07f6 15       		.uleb128 0x15
 1414 07f7 07080000 		.4byte	0x807
 1415 07fb 17       		.uleb128 0x17
 1416 07fc B0020000 		.4byte	.LASF91
 1417 0800 01       		.byte	0x1
 1418 0801 9A       		.byte	0x9a
 1419 0802 15080000 		.4byte	0x815
 1420 0806 00       		.byte	0
 1421 0807 18       		.uleb128 0x18
 1422 0808 16       		.uleb128 0x16
 1423 0809 746D7000 		.ascii	"tmp\000"
 1424 080d 01       		.byte	0x1
 1425 080e BE       		.byte	0xbe
ARM GAS  /tmp/ccLjyTS3.s 			page 26


 1426 080f 9E000000 		.4byte	0x9e
 1427 0813 00       		.byte	0
 1428 0814 00       		.byte	0
 1429 0815 09       		.uleb128 0x9
 1430 0816 04       		.byte	0x4
 1431 0817 4C020000 		.4byte	0x24c
 1432 081b 19       		.uleb128 0x19
 1433 081c 5C010000 		.4byte	.LASF92
 1434 0820 01       		.byte	0x1
 1435 0821 C8       		.byte	0xc8
 1436 0822 00000000 		.4byte	.LFB11
 1437 0826 06000000 		.4byte	.LFE11-.LFB11
 1438 082a 01       		.uleb128 0x1
 1439 082b 9C       		.byte	0x9c
 1440 082c 3A080000 		.4byte	0x83a
 1441 0830 1A       		.uleb128 0x1a
 1442 0831 04000000 		.4byte	.LVL0
 1443 0835 E5090000 		.4byte	0x9e5
 1444 0839 00       		.byte	0
 1445 083a 19       		.uleb128 0x19
 1446 083b A0000000 		.4byte	.LASF93
 1447 083f 01       		.byte	0x1
 1448 0840 41       		.byte	0x41
 1449 0841 00000000 		.4byte	.LFB8
 1450 0845 20000000 		.4byte	.LFE8-.LFB8
 1451 0849 01       		.uleb128 0x1
 1452 084a 9C       		.byte	0x9c
 1453 084b 76080000 		.4byte	0x876
 1454 084f 1B       		.uleb128 0x1b
 1455 0850 B0020000 		.4byte	.LASF91
 1456 0854 01       		.byte	0x1
 1457 0855 42       		.byte	0x42
 1458 0856 15080000 		.4byte	0x815
 1459 085a 00000000 		.4byte	.LLST0
 1460 085e 1C       		.uleb128 0x1c
 1461 085f 14000000 		.4byte	.LBB5
 1462 0863 0C000000 		.4byte	.LBE5-.LBB5
 1463 0867 1D       		.uleb128 0x1d
 1464 0868 746D7000 		.ascii	"tmp\000"
 1465 086c 01       		.byte	0x1
 1466 086d 52       		.byte	0x52
 1467 086e 9E000000 		.4byte	0x9e
 1468 0872 01       		.uleb128 0x1
 1469 0873 53       		.byte	0x53
 1470 0874 00       		.byte	0
 1471 0875 00       		.byte	0
 1472 0876 19       		.uleb128 0x19
 1473 0877 07050000 		.4byte	.LASF94
 1474 087b 01       		.byte	0x1
 1475 087c 78       		.byte	0x78
 1476 087d 00000000 		.4byte	.LFB9
 1477 0881 30000000 		.4byte	.LFE9-.LFB9
 1478 0885 01       		.uleb128 0x1
 1479 0886 9C       		.byte	0x9c
 1480 0887 D2080000 		.4byte	0x8d2
 1481 088b 1E       		.uleb128 0x1e
 1482 088c 14000000 		.4byte	.LVL4
ARM GAS  /tmp/ccLjyTS3.s 			page 27


 1483 0890 EC090000 		.4byte	0x9ec
 1484 0894 A3080000 		.4byte	0x8a3
 1485 0898 1F       		.uleb128 0x1f
 1486 0899 01       		.uleb128 0x1
 1487 089a 51       		.byte	0x51
 1488 089b 01       		.uleb128 0x1
 1489 089c 40       		.byte	0x40
 1490 089d 1F       		.uleb128 0x1f
 1491 089e 01       		.uleb128 0x1
 1492 089f 50       		.byte	0x50
 1493 08a0 01       		.uleb128 0x1
 1494 08a1 37       		.byte	0x37
 1495 08a2 00       		.byte	0
 1496 08a3 1E       		.uleb128 0x1e
 1497 08a4 1C000000 		.4byte	.LVL5
 1498 08a8 EC090000 		.4byte	0x9ec
 1499 08ac BC080000 		.4byte	0x8bc
 1500 08b0 1F       		.uleb128 0x1f
 1501 08b1 01       		.uleb128 0x1
 1502 08b2 51       		.byte	0x51
 1503 08b3 02       		.uleb128 0x2
 1504 08b4 08       		.byte	0x8
 1505 08b5 20       		.byte	0x20
 1506 08b6 1F       		.uleb128 0x1f
 1507 08b7 01       		.uleb128 0x1
 1508 08b8 50       		.byte	0x50
 1509 08b9 01       		.uleb128 0x1
 1510 08ba 3A       		.byte	0x3a
 1511 08bb 00       		.byte	0
 1512 08bc 20       		.uleb128 0x20
 1513 08bd 28000000 		.4byte	.LVL6
 1514 08c1 EC090000 		.4byte	0x9ec
 1515 08c5 1F       		.uleb128 0x1f
 1516 08c6 01       		.uleb128 0x1
 1517 08c7 51       		.byte	0x51
 1518 08c8 02       		.uleb128 0x2
 1519 08c9 08       		.byte	0x8
 1520 08ca 80       		.byte	0x80
 1521 08cb 1F       		.uleb128 0x1f
 1522 08cc 01       		.uleb128 0x1
 1523 08cd 50       		.byte	0x50
 1524 08ce 01       		.uleb128 0x1
 1525 08cf 3B       		.byte	0x3b
 1526 08d0 00       		.byte	0
 1527 08d1 00       		.byte	0
 1528 08d2 21       		.uleb128 0x21
 1529 08d3 D9070000 		.4byte	0x7d9
 1530 08d7 00000000 		.4byte	.LFB10
 1531 08db 84000000 		.4byte	.LFE10-.LFB10
 1532 08df 01       		.uleb128 0x1
 1533 08e0 9C       		.byte	0x9c
 1534 08e1 1F090000 		.4byte	0x91f
 1535 08e5 22       		.uleb128 0x22
 1536 08e6 00000000 		.4byte	.LBB14
 1537 08ea 06000000 		.4byte	.LBE14-.LBB14
 1538 08ee FA080000 		.4byte	0x8fa
 1539 08f2 23       		.uleb128 0x23
ARM GAS  /tmp/ccLjyTS3.s 			page 28


 1540 08f3 EA070000 		.4byte	0x7ea
 1541 08f7 01       		.uleb128 0x1
 1542 08f8 53       		.byte	0x53
 1543 08f9 00       		.byte	0
 1544 08fa 24       		.uleb128 0x24
 1545 08fb 00000000 		.4byte	.Ldebug_ranges0+0
 1546 08ff 0D090000 		.4byte	0x90d
 1547 0903 25       		.uleb128 0x25
 1548 0904 FB070000 		.4byte	0x7fb
 1549 0908 21000000 		.4byte	.LLST1
 1550 090c 00       		.byte	0
 1551 090d 1C       		.uleb128 0x1c
 1552 090e 50000000 		.4byte	.LBB18
 1553 0912 06000000 		.4byte	.LBE18-.LBB18
 1554 0916 23       		.uleb128 0x23
 1555 0917 08080000 		.4byte	0x808
 1556 091b 01       		.uleb128 0x1
 1557 091c 53       		.byte	0x53
 1558 091d 00       		.byte	0
 1559 091e 00       		.byte	0
 1560 091f 19       		.uleb128 0x19
 1561 0920 39000000 		.4byte	.LASF95
 1562 0924 01       		.byte	0x1
 1563 0925 2F       		.byte	0x2f
 1564 0926 00000000 		.4byte	.LFB7
 1565 092a 1A000000 		.4byte	.LFE7-.LFB7
 1566 092e 01       		.uleb128 0x1
 1567 092f 9C       		.byte	0x9c
 1568 0930 7D090000 		.4byte	0x97d
 1569 0934 22       		.uleb128 0x22
 1570 0935 02000000 		.4byte	.LBB20
 1571 0939 06000000 		.4byte	.LBE20-.LBB20
 1572 093d 4F090000 		.4byte	0x94f
 1573 0941 1D       		.uleb128 0x1d
 1574 0942 746D7000 		.ascii	"tmp\000"
 1575 0946 01       		.byte	0x1
 1576 0947 33       		.byte	0x33
 1577 0948 9E000000 		.4byte	0x9e
 1578 094c 01       		.uleb128 0x1
 1579 094d 53       		.byte	0x53
 1580 094e 00       		.byte	0
 1581 094f 22       		.uleb128 0x22
 1582 0950 0C000000 		.4byte	.LBB21
 1583 0954 06000000 		.4byte	.LBE21-.LBB21
 1584 0958 6A090000 		.4byte	0x96a
 1585 095c 1D       		.uleb128 0x1d
 1586 095d 746D7000 		.ascii	"tmp\000"
 1587 0961 01       		.byte	0x1
 1588 0962 35       		.byte	0x35
 1589 0963 9E000000 		.4byte	0x9e
 1590 0967 01       		.uleb128 0x1
 1591 0968 53       		.byte	0x53
 1592 0969 00       		.byte	0
 1593 096a 1A       		.uleb128 0x1a
 1594 096b 0C000000 		.4byte	.LVL12
 1595 096f 030A0000 		.4byte	0xa03
 1596 0973 26       		.uleb128 0x26
ARM GAS  /tmp/ccLjyTS3.s 			page 29


 1597 0974 1A000000 		.4byte	.LVL13
 1598 0978 D9070000 		.4byte	0x7d9
 1599 097c 00       		.byte	0
 1600 097d 19       		.uleb128 0x19
 1601 097e 38010000 		.4byte	.LASF96
 1602 0982 01       		.byte	0x1
 1603 0983 E5       		.byte	0xe5
 1604 0984 00000000 		.4byte	.LFB12
 1605 0988 18000000 		.4byte	.LFE12-.LFB12
 1606 098c 01       		.uleb128 0x1
 1607 098d 9C       		.byte	0x9c
 1608 098e AD090000 		.4byte	0x9ad
 1609 0992 27       		.uleb128 0x27
 1610 0993 6E747000 		.ascii	"ntp\000"
 1611 0997 01       		.byte	0x1
 1612 0998 E5       		.byte	0xe5
 1613 0999 0E020000 		.4byte	0x20e
 1614 099d 01       		.uleb128 0x1
 1615 099e 50       		.byte	0x50
 1616 099f 27       		.uleb128 0x27
 1617 09a0 6F747000 		.ascii	"otp\000"
 1618 09a4 01       		.byte	0x1
 1619 09a5 E5       		.byte	0xe5
 1620 09a6 0E020000 		.4byte	0x20e
 1621 09aa 01       		.uleb128 0x1
 1622 09ab 51       		.byte	0x51
 1623 09ac 00       		.byte	0
 1624 09ad 19       		.uleb128 0x19
 1625 09ae D7040000 		.4byte	.LASF97
 1626 09b2 01       		.byte	0x1
 1627 09b3 FC       		.byte	0xfc
 1628 09b4 00000000 		.4byte	.LFB13
 1629 09b8 10000000 		.4byte	.LFE13-.LFB13
 1630 09bc 01       		.uleb128 0x1
 1631 09bd 9C       		.byte	0x9c
 1632 09be DA090000 		.4byte	0x9da
 1633 09c2 1C       		.uleb128 0x1c
 1634 09c3 00000000 		.4byte	.LBB22
 1635 09c7 06000000 		.4byte	.LBE22-.LBB22
 1636 09cb 1D       		.uleb128 0x1d
 1637 09cc 746D7000 		.ascii	"tmp\000"
 1638 09d0 01       		.byte	0x1
 1639 09d1 FE       		.byte	0xfe
 1640 09d2 9E000000 		.4byte	0x9e
 1641 09d6 01       		.uleb128 0x1
 1642 09d7 53       		.byte	0x53
 1643 09d8 00       		.byte	0
 1644 09d9 00       		.byte	0
 1645 09da 28       		.uleb128 0x28
 1646 09db F9040000 		.4byte	.LASF104
 1647 09df 09       		.byte	0x9
 1648 09e0 6F       		.byte	0x6f
 1649 09e1 3F070000 		.4byte	0x73f
 1650 09e5 29       		.uleb128 0x29
 1651 09e6 02010000 		.4byte	.LASF100
 1652 09ea 09       		.byte	0x9
 1653 09eb A8       		.byte	0xa8
ARM GAS  /tmp/ccLjyTS3.s 			page 30


 1654 09ec 2A       		.uleb128 0x2a
 1655 09ed DC000000 		.4byte	.LASF99
 1656 09f1 08       		.byte	0x8
 1657 09f2 2501     		.2byte	0x125
 1658 09f4 030A0000 		.4byte	0xa03
 1659 09f8 2B       		.uleb128 0x2b
 1660 09f9 9E000000 		.4byte	0x9e
 1661 09fd 2B       		.uleb128 0x2b
 1662 09fe 9E000000 		.4byte	0x9e
 1663 0a02 00       		.byte	0
 1664 0a03 29       		.uleb128 0x29
 1665 0a04 26000000 		.4byte	.LASF101
 1666 0a08 0B       		.byte	0xb
 1667 0a09 F7       		.byte	0xf7
 1668 0a0a 00       		.byte	0
 1669              		.section	.debug_abbrev,"",%progbits
 1670              	.Ldebug_abbrev0:
 1671 0000 01       		.uleb128 0x1
 1672 0001 11       		.uleb128 0x11
 1673 0002 01       		.byte	0x1
 1674 0003 25       		.uleb128 0x25
 1675 0004 0E       		.uleb128 0xe
 1676 0005 13       		.uleb128 0x13
 1677 0006 0B       		.uleb128 0xb
 1678 0007 03       		.uleb128 0x3
 1679 0008 0E       		.uleb128 0xe
 1680 0009 55       		.uleb128 0x55
 1681 000a 17       		.uleb128 0x17
 1682 000b 11       		.uleb128 0x11
 1683 000c 01       		.uleb128 0x1
 1684 000d 10       		.uleb128 0x10
 1685 000e 17       		.uleb128 0x17
 1686 000f 00       		.byte	0
 1687 0010 00       		.byte	0
 1688 0011 02       		.uleb128 0x2
 1689 0012 24       		.uleb128 0x24
 1690 0013 00       		.byte	0
 1691 0014 0B       		.uleb128 0xb
 1692 0015 0B       		.uleb128 0xb
 1693 0016 3E       		.uleb128 0x3e
 1694 0017 0B       		.uleb128 0xb
 1695 0018 03       		.uleb128 0x3
 1696 0019 08       		.uleb128 0x8
 1697 001a 00       		.byte	0
 1698 001b 00       		.byte	0
 1699 001c 03       		.uleb128 0x3
 1700 001d 24       		.uleb128 0x24
 1701 001e 00       		.byte	0
 1702 001f 0B       		.uleb128 0xb
 1703 0020 0B       		.uleb128 0xb
 1704 0021 3E       		.uleb128 0x3e
 1705 0022 0B       		.uleb128 0xb
 1706 0023 03       		.uleb128 0x3
 1707 0024 0E       		.uleb128 0xe
 1708 0025 00       		.byte	0
 1709 0026 00       		.byte	0
 1710 0027 04       		.uleb128 0x4
ARM GAS  /tmp/ccLjyTS3.s 			page 31


 1711 0028 16       		.uleb128 0x16
 1712 0029 00       		.byte	0
 1713 002a 03       		.uleb128 0x3
 1714 002b 0E       		.uleb128 0xe
 1715 002c 3A       		.uleb128 0x3a
 1716 002d 0B       		.uleb128 0xb
 1717 002e 3B       		.uleb128 0x3b
 1718 002f 0B       		.uleb128 0xb
 1719 0030 49       		.uleb128 0x49
 1720 0031 13       		.uleb128 0x13
 1721 0032 00       		.byte	0
 1722 0033 00       		.byte	0
 1723 0034 05       		.uleb128 0x5
 1724 0035 13       		.uleb128 0x13
 1725 0036 01       		.byte	0x1
 1726 0037 03       		.uleb128 0x3
 1727 0038 0E       		.uleb128 0xe
 1728 0039 0B       		.uleb128 0xb
 1729 003a 0B       		.uleb128 0xb
 1730 003b 3A       		.uleb128 0x3a
 1731 003c 0B       		.uleb128 0xb
 1732 003d 3B       		.uleb128 0x3b
 1733 003e 0B       		.uleb128 0xb
 1734 003f 01       		.uleb128 0x1
 1735 0040 13       		.uleb128 0x13
 1736 0041 00       		.byte	0
 1737 0042 00       		.byte	0
 1738 0043 06       		.uleb128 0x6
 1739 0044 0D       		.uleb128 0xd
 1740 0045 00       		.byte	0
 1741 0046 03       		.uleb128 0x3
 1742 0047 0E       		.uleb128 0xe
 1743 0048 3A       		.uleb128 0x3a
 1744 0049 0B       		.uleb128 0xb
 1745 004a 3B       		.uleb128 0x3b
 1746 004b 0B       		.uleb128 0xb
 1747 004c 49       		.uleb128 0x49
 1748 004d 13       		.uleb128 0x13
 1749 004e 38       		.uleb128 0x38
 1750 004f 0B       		.uleb128 0xb
 1751 0050 00       		.byte	0
 1752 0051 00       		.byte	0
 1753 0052 07       		.uleb128 0x7
 1754 0053 0D       		.uleb128 0xd
 1755 0054 00       		.byte	0
 1756 0055 03       		.uleb128 0x3
 1757 0056 08       		.uleb128 0x8
 1758 0057 3A       		.uleb128 0x3a
 1759 0058 0B       		.uleb128 0xb
 1760 0059 3B       		.uleb128 0x3b
 1761 005a 0B       		.uleb128 0xb
 1762 005b 49       		.uleb128 0x49
 1763 005c 13       		.uleb128 0x13
 1764 005d 38       		.uleb128 0x38
 1765 005e 0B       		.uleb128 0xb
 1766 005f 00       		.byte	0
 1767 0060 00       		.byte	0
ARM GAS  /tmp/ccLjyTS3.s 			page 32


 1768 0061 08       		.uleb128 0x8
 1769 0062 13       		.uleb128 0x13
 1770 0063 01       		.byte	0x1
 1771 0064 0B       		.uleb128 0xb
 1772 0065 0B       		.uleb128 0xb
 1773 0066 3A       		.uleb128 0x3a
 1774 0067 0B       		.uleb128 0xb
 1775 0068 3B       		.uleb128 0x3b
 1776 0069 0B       		.uleb128 0xb
 1777 006a 01       		.uleb128 0x1
 1778 006b 13       		.uleb128 0x13
 1779 006c 00       		.byte	0
 1780 006d 00       		.byte	0
 1781 006e 09       		.uleb128 0x9
 1782 006f 0F       		.uleb128 0xf
 1783 0070 00       		.byte	0
 1784 0071 0B       		.uleb128 0xb
 1785 0072 0B       		.uleb128 0xb
 1786 0073 49       		.uleb128 0x49
 1787 0074 13       		.uleb128 0x13
 1788 0075 00       		.byte	0
 1789 0076 00       		.byte	0
 1790 0077 0A       		.uleb128 0xa
 1791 0078 0F       		.uleb128 0xf
 1792 0079 00       		.byte	0
 1793 007a 0B       		.uleb128 0xb
 1794 007b 0B       		.uleb128 0xb
 1795 007c 00       		.byte	0
 1796 007d 00       		.byte	0
 1797 007e 0B       		.uleb128 0xb
 1798 007f 0D       		.uleb128 0xd
 1799 0080 00       		.byte	0
 1800 0081 03       		.uleb128 0x3
 1801 0082 08       		.uleb128 0x8
 1802 0083 3A       		.uleb128 0x3a
 1803 0084 0B       		.uleb128 0xb
 1804 0085 3B       		.uleb128 0x3b
 1805 0086 05       		.uleb128 0x5
 1806 0087 49       		.uleb128 0x49
 1807 0088 13       		.uleb128 0x13
 1808 0089 38       		.uleb128 0x38
 1809 008a 0B       		.uleb128 0xb
 1810 008b 00       		.byte	0
 1811 008c 00       		.byte	0
 1812 008d 0C       		.uleb128 0xc
 1813 008e 0D       		.uleb128 0xd
 1814 008f 00       		.byte	0
 1815 0090 03       		.uleb128 0x3
 1816 0091 0E       		.uleb128 0xe
 1817 0092 3A       		.uleb128 0x3a
 1818 0093 0B       		.uleb128 0xb
 1819 0094 3B       		.uleb128 0x3b
 1820 0095 05       		.uleb128 0x5
 1821 0096 49       		.uleb128 0x49
 1822 0097 13       		.uleb128 0x13
 1823 0098 38       		.uleb128 0x38
 1824 0099 0B       		.uleb128 0xb
ARM GAS  /tmp/ccLjyTS3.s 			page 33


 1825 009a 00       		.byte	0
 1826 009b 00       		.byte	0
 1827 009c 0D       		.uleb128 0xd
 1828 009d 13       		.uleb128 0x13
 1829 009e 01       		.byte	0x1
 1830 009f 03       		.uleb128 0x3
 1831 00a0 0E       		.uleb128 0xe
 1832 00a1 0B       		.uleb128 0xb
 1833 00a2 0B       		.uleb128 0xb
 1834 00a3 3A       		.uleb128 0x3a
 1835 00a4 0B       		.uleb128 0xb
 1836 00a5 3B       		.uleb128 0x3b
 1837 00a6 05       		.uleb128 0x5
 1838 00a7 01       		.uleb128 0x1
 1839 00a8 13       		.uleb128 0x13
 1840 00a9 00       		.byte	0
 1841 00aa 00       		.byte	0
 1842 00ab 0E       		.uleb128 0xe
 1843 00ac 35       		.uleb128 0x35
 1844 00ad 00       		.byte	0
 1845 00ae 49       		.uleb128 0x49
 1846 00af 13       		.uleb128 0x13
 1847 00b0 00       		.byte	0
 1848 00b1 00       		.byte	0
 1849 00b2 0F       		.uleb128 0xf
 1850 00b3 01       		.uleb128 0x1
 1851 00b4 01       		.byte	0x1
 1852 00b5 49       		.uleb128 0x49
 1853 00b6 13       		.uleb128 0x13
 1854 00b7 01       		.uleb128 0x1
 1855 00b8 13       		.uleb128 0x13
 1856 00b9 00       		.byte	0
 1857 00ba 00       		.byte	0
 1858 00bb 10       		.uleb128 0x10
 1859 00bc 21       		.uleb128 0x21
 1860 00bd 00       		.byte	0
 1861 00be 49       		.uleb128 0x49
 1862 00bf 13       		.uleb128 0x13
 1863 00c0 2F       		.uleb128 0x2f
 1864 00c1 0B       		.uleb128 0xb
 1865 00c2 00       		.byte	0
 1866 00c3 00       		.byte	0
 1867 00c4 11       		.uleb128 0x11
 1868 00c5 17       		.uleb128 0x17
 1869 00c6 01       		.byte	0x1
 1870 00c7 0B       		.uleb128 0xb
 1871 00c8 0B       		.uleb128 0xb
 1872 00c9 3A       		.uleb128 0x3a
 1873 00ca 0B       		.uleb128 0xb
 1874 00cb 3B       		.uleb128 0x3b
 1875 00cc 0B       		.uleb128 0xb
 1876 00cd 01       		.uleb128 0x1
 1877 00ce 13       		.uleb128 0x13
 1878 00cf 00       		.byte	0
 1879 00d0 00       		.byte	0
 1880 00d1 12       		.uleb128 0x12
 1881 00d2 0D       		.uleb128 0xd
ARM GAS  /tmp/ccLjyTS3.s 			page 34


 1882 00d3 00       		.byte	0
 1883 00d4 03       		.uleb128 0x3
 1884 00d5 0E       		.uleb128 0xe
 1885 00d6 3A       		.uleb128 0x3a
 1886 00d7 0B       		.uleb128 0xb
 1887 00d8 3B       		.uleb128 0x3b
 1888 00d9 0B       		.uleb128 0xb
 1889 00da 49       		.uleb128 0x49
 1890 00db 13       		.uleb128 0x13
 1891 00dc 00       		.byte	0
 1892 00dd 00       		.byte	0
 1893 00de 13       		.uleb128 0x13
 1894 00df 26       		.uleb128 0x26
 1895 00e0 00       		.byte	0
 1896 00e1 49       		.uleb128 0x49
 1897 00e2 13       		.uleb128 0x13
 1898 00e3 00       		.byte	0
 1899 00e4 00       		.byte	0
 1900 00e5 14       		.uleb128 0x14
 1901 00e6 2E       		.uleb128 0x2e
 1902 00e7 01       		.byte	0x1
 1903 00e8 3F       		.uleb128 0x3f
 1904 00e9 19       		.uleb128 0x19
 1905 00ea 03       		.uleb128 0x3
 1906 00eb 0E       		.uleb128 0xe
 1907 00ec 3A       		.uleb128 0x3a
 1908 00ed 0B       		.uleb128 0xb
 1909 00ee 3B       		.uleb128 0x3b
 1910 00ef 0B       		.uleb128 0xb
 1911 00f0 27       		.uleb128 0x27
 1912 00f1 19       		.uleb128 0x19
 1913 00f2 20       		.uleb128 0x20
 1914 00f3 0B       		.uleb128 0xb
 1915 00f4 01       		.uleb128 0x1
 1916 00f5 13       		.uleb128 0x13
 1917 00f6 00       		.byte	0
 1918 00f7 00       		.byte	0
 1919 00f8 15       		.uleb128 0x15
 1920 00f9 0B       		.uleb128 0xb
 1921 00fa 01       		.byte	0x1
 1922 00fb 01       		.uleb128 0x1
 1923 00fc 13       		.uleb128 0x13
 1924 00fd 00       		.byte	0
 1925 00fe 00       		.byte	0
 1926 00ff 16       		.uleb128 0x16
 1927 0100 34       		.uleb128 0x34
 1928 0101 00       		.byte	0
 1929 0102 03       		.uleb128 0x3
 1930 0103 08       		.uleb128 0x8
 1931 0104 3A       		.uleb128 0x3a
 1932 0105 0B       		.uleb128 0xb
 1933 0106 3B       		.uleb128 0x3b
 1934 0107 0B       		.uleb128 0xb
 1935 0108 49       		.uleb128 0x49
 1936 0109 13       		.uleb128 0x13
 1937 010a 00       		.byte	0
 1938 010b 00       		.byte	0
ARM GAS  /tmp/ccLjyTS3.s 			page 35


 1939 010c 17       		.uleb128 0x17
 1940 010d 34       		.uleb128 0x34
 1941 010e 00       		.byte	0
 1942 010f 03       		.uleb128 0x3
 1943 0110 0E       		.uleb128 0xe
 1944 0111 3A       		.uleb128 0x3a
 1945 0112 0B       		.uleb128 0xb
 1946 0113 3B       		.uleb128 0x3b
 1947 0114 0B       		.uleb128 0xb
 1948 0115 49       		.uleb128 0x49
 1949 0116 13       		.uleb128 0x13
 1950 0117 00       		.byte	0
 1951 0118 00       		.byte	0
 1952 0119 18       		.uleb128 0x18
 1953 011a 0B       		.uleb128 0xb
 1954 011b 01       		.byte	0x1
 1955 011c 00       		.byte	0
 1956 011d 00       		.byte	0
 1957 011e 19       		.uleb128 0x19
 1958 011f 2E       		.uleb128 0x2e
 1959 0120 01       		.byte	0x1
 1960 0121 3F       		.uleb128 0x3f
 1961 0122 19       		.uleb128 0x19
 1962 0123 03       		.uleb128 0x3
 1963 0124 0E       		.uleb128 0xe
 1964 0125 3A       		.uleb128 0x3a
 1965 0126 0B       		.uleb128 0xb
 1966 0127 3B       		.uleb128 0x3b
 1967 0128 0B       		.uleb128 0xb
 1968 0129 27       		.uleb128 0x27
 1969 012a 19       		.uleb128 0x19
 1970 012b 11       		.uleb128 0x11
 1971 012c 01       		.uleb128 0x1
 1972 012d 12       		.uleb128 0x12
 1973 012e 06       		.uleb128 0x6
 1974 012f 40       		.uleb128 0x40
 1975 0130 18       		.uleb128 0x18
 1976 0131 9742     		.uleb128 0x2117
 1977 0133 19       		.uleb128 0x19
 1978 0134 01       		.uleb128 0x1
 1979 0135 13       		.uleb128 0x13
 1980 0136 00       		.byte	0
 1981 0137 00       		.byte	0
 1982 0138 1A       		.uleb128 0x1a
 1983 0139 898201   		.uleb128 0x4109
 1984 013c 00       		.byte	0
 1985 013d 11       		.uleb128 0x11
 1986 013e 01       		.uleb128 0x1
 1987 013f 31       		.uleb128 0x31
 1988 0140 13       		.uleb128 0x13
 1989 0141 00       		.byte	0
 1990 0142 00       		.byte	0
 1991 0143 1B       		.uleb128 0x1b
 1992 0144 34       		.uleb128 0x34
 1993 0145 00       		.byte	0
 1994 0146 03       		.uleb128 0x3
 1995 0147 0E       		.uleb128 0xe
ARM GAS  /tmp/ccLjyTS3.s 			page 36


 1996 0148 3A       		.uleb128 0x3a
 1997 0149 0B       		.uleb128 0xb
 1998 014a 3B       		.uleb128 0x3b
 1999 014b 0B       		.uleb128 0xb
 2000 014c 49       		.uleb128 0x49
 2001 014d 13       		.uleb128 0x13
 2002 014e 02       		.uleb128 0x2
 2003 014f 17       		.uleb128 0x17
 2004 0150 00       		.byte	0
 2005 0151 00       		.byte	0
 2006 0152 1C       		.uleb128 0x1c
 2007 0153 0B       		.uleb128 0xb
 2008 0154 01       		.byte	0x1
 2009 0155 11       		.uleb128 0x11
 2010 0156 01       		.uleb128 0x1
 2011 0157 12       		.uleb128 0x12
 2012 0158 06       		.uleb128 0x6
 2013 0159 00       		.byte	0
 2014 015a 00       		.byte	0
 2015 015b 1D       		.uleb128 0x1d
 2016 015c 34       		.uleb128 0x34
 2017 015d 00       		.byte	0
 2018 015e 03       		.uleb128 0x3
 2019 015f 08       		.uleb128 0x8
 2020 0160 3A       		.uleb128 0x3a
 2021 0161 0B       		.uleb128 0xb
 2022 0162 3B       		.uleb128 0x3b
 2023 0163 0B       		.uleb128 0xb
 2024 0164 49       		.uleb128 0x49
 2025 0165 13       		.uleb128 0x13
 2026 0166 02       		.uleb128 0x2
 2027 0167 18       		.uleb128 0x18
 2028 0168 00       		.byte	0
 2029 0169 00       		.byte	0
 2030 016a 1E       		.uleb128 0x1e
 2031 016b 898201   		.uleb128 0x4109
 2032 016e 01       		.byte	0x1
 2033 016f 11       		.uleb128 0x11
 2034 0170 01       		.uleb128 0x1
 2035 0171 31       		.uleb128 0x31
 2036 0172 13       		.uleb128 0x13
 2037 0173 01       		.uleb128 0x1
 2038 0174 13       		.uleb128 0x13
 2039 0175 00       		.byte	0
 2040 0176 00       		.byte	0
 2041 0177 1F       		.uleb128 0x1f
 2042 0178 8A8201   		.uleb128 0x410a
 2043 017b 00       		.byte	0
 2044 017c 02       		.uleb128 0x2
 2045 017d 18       		.uleb128 0x18
 2046 017e 9142     		.uleb128 0x2111
 2047 0180 18       		.uleb128 0x18
 2048 0181 00       		.byte	0
 2049 0182 00       		.byte	0
 2050 0183 20       		.uleb128 0x20
 2051 0184 898201   		.uleb128 0x4109
 2052 0187 01       		.byte	0x1
ARM GAS  /tmp/ccLjyTS3.s 			page 37


 2053 0188 11       		.uleb128 0x11
 2054 0189 01       		.uleb128 0x1
 2055 018a 9542     		.uleb128 0x2115
 2056 018c 19       		.uleb128 0x19
 2057 018d 31       		.uleb128 0x31
 2058 018e 13       		.uleb128 0x13
 2059 018f 00       		.byte	0
 2060 0190 00       		.byte	0
 2061 0191 21       		.uleb128 0x21
 2062 0192 2E       		.uleb128 0x2e
 2063 0193 01       		.byte	0x1
 2064 0194 31       		.uleb128 0x31
 2065 0195 13       		.uleb128 0x13
 2066 0196 11       		.uleb128 0x11
 2067 0197 01       		.uleb128 0x1
 2068 0198 12       		.uleb128 0x12
 2069 0199 06       		.uleb128 0x6
 2070 019a 40       		.uleb128 0x40
 2071 019b 18       		.uleb128 0x18
 2072 019c 9742     		.uleb128 0x2117
 2073 019e 19       		.uleb128 0x19
 2074 019f 01       		.uleb128 0x1
 2075 01a0 13       		.uleb128 0x13
 2076 01a1 00       		.byte	0
 2077 01a2 00       		.byte	0
 2078 01a3 22       		.uleb128 0x22
 2079 01a4 0B       		.uleb128 0xb
 2080 01a5 01       		.byte	0x1
 2081 01a6 11       		.uleb128 0x11
 2082 01a7 01       		.uleb128 0x1
 2083 01a8 12       		.uleb128 0x12
 2084 01a9 06       		.uleb128 0x6
 2085 01aa 01       		.uleb128 0x1
 2086 01ab 13       		.uleb128 0x13
 2087 01ac 00       		.byte	0
 2088 01ad 00       		.byte	0
 2089 01ae 23       		.uleb128 0x23
 2090 01af 34       		.uleb128 0x34
 2091 01b0 00       		.byte	0
 2092 01b1 31       		.uleb128 0x31
 2093 01b2 13       		.uleb128 0x13
 2094 01b3 02       		.uleb128 0x2
 2095 01b4 18       		.uleb128 0x18
 2096 01b5 00       		.byte	0
 2097 01b6 00       		.byte	0
 2098 01b7 24       		.uleb128 0x24
 2099 01b8 0B       		.uleb128 0xb
 2100 01b9 01       		.byte	0x1
 2101 01ba 55       		.uleb128 0x55
 2102 01bb 17       		.uleb128 0x17
 2103 01bc 01       		.uleb128 0x1
 2104 01bd 13       		.uleb128 0x13
 2105 01be 00       		.byte	0
 2106 01bf 00       		.byte	0
 2107 01c0 25       		.uleb128 0x25
 2108 01c1 34       		.uleb128 0x34
 2109 01c2 00       		.byte	0
ARM GAS  /tmp/ccLjyTS3.s 			page 38


 2110 01c3 31       		.uleb128 0x31
 2111 01c4 13       		.uleb128 0x13
 2112 01c5 02       		.uleb128 0x2
 2113 01c6 17       		.uleb128 0x17
 2114 01c7 00       		.byte	0
 2115 01c8 00       		.byte	0
 2116 01c9 26       		.uleb128 0x26
 2117 01ca 898201   		.uleb128 0x4109
 2118 01cd 00       		.byte	0
 2119 01ce 11       		.uleb128 0x11
 2120 01cf 01       		.uleb128 0x1
 2121 01d0 9542     		.uleb128 0x2115
 2122 01d2 19       		.uleb128 0x19
 2123 01d3 31       		.uleb128 0x31
 2124 01d4 13       		.uleb128 0x13
 2125 01d5 00       		.byte	0
 2126 01d6 00       		.byte	0
 2127 01d7 27       		.uleb128 0x27
 2128 01d8 05       		.uleb128 0x5
 2129 01d9 00       		.byte	0
 2130 01da 03       		.uleb128 0x3
 2131 01db 08       		.uleb128 0x8
 2132 01dc 3A       		.uleb128 0x3a
 2133 01dd 0B       		.uleb128 0xb
 2134 01de 3B       		.uleb128 0x3b
 2135 01df 0B       		.uleb128 0xb
 2136 01e0 49       		.uleb128 0x49
 2137 01e1 13       		.uleb128 0x13
 2138 01e2 02       		.uleb128 0x2
 2139 01e3 18       		.uleb128 0x18
 2140 01e4 00       		.byte	0
 2141 01e5 00       		.byte	0
 2142 01e6 28       		.uleb128 0x28
 2143 01e7 34       		.uleb128 0x34
 2144 01e8 00       		.byte	0
 2145 01e9 03       		.uleb128 0x3
 2146 01ea 0E       		.uleb128 0xe
 2147 01eb 3A       		.uleb128 0x3a
 2148 01ec 0B       		.uleb128 0xb
 2149 01ed 3B       		.uleb128 0x3b
 2150 01ee 0B       		.uleb128 0xb
 2151 01ef 49       		.uleb128 0x49
 2152 01f0 13       		.uleb128 0x13
 2153 01f1 3F       		.uleb128 0x3f
 2154 01f2 19       		.uleb128 0x19
 2155 01f3 3C       		.uleb128 0x3c
 2156 01f4 19       		.uleb128 0x19
 2157 01f5 00       		.byte	0
 2158 01f6 00       		.byte	0
 2159 01f7 29       		.uleb128 0x29
 2160 01f8 2E       		.uleb128 0x2e
 2161 01f9 00       		.byte	0
 2162 01fa 3F       		.uleb128 0x3f
 2163 01fb 19       		.uleb128 0x19
 2164 01fc 03       		.uleb128 0x3
 2165 01fd 0E       		.uleb128 0xe
 2166 01fe 3A       		.uleb128 0x3a
ARM GAS  /tmp/ccLjyTS3.s 			page 39


 2167 01ff 0B       		.uleb128 0xb
 2168 0200 3B       		.uleb128 0x3b
 2169 0201 0B       		.uleb128 0xb
 2170 0202 27       		.uleb128 0x27
 2171 0203 19       		.uleb128 0x19
 2172 0204 3C       		.uleb128 0x3c
 2173 0205 19       		.uleb128 0x19
 2174 0206 00       		.byte	0
 2175 0207 00       		.byte	0
 2176 0208 2A       		.uleb128 0x2a
 2177 0209 2E       		.uleb128 0x2e
 2178 020a 01       		.byte	0x1
 2179 020b 3F       		.uleb128 0x3f
 2180 020c 19       		.uleb128 0x19
 2181 020d 03       		.uleb128 0x3
 2182 020e 0E       		.uleb128 0xe
 2183 020f 3A       		.uleb128 0x3a
 2184 0210 0B       		.uleb128 0xb
 2185 0211 3B       		.uleb128 0x3b
 2186 0212 05       		.uleb128 0x5
 2187 0213 27       		.uleb128 0x27
 2188 0214 19       		.uleb128 0x19
 2189 0215 3C       		.uleb128 0x3c
 2190 0216 19       		.uleb128 0x19
 2191 0217 01       		.uleb128 0x1
 2192 0218 13       		.uleb128 0x13
 2193 0219 00       		.byte	0
 2194 021a 00       		.byte	0
 2195 021b 2B       		.uleb128 0x2b
 2196 021c 05       		.uleb128 0x5
 2197 021d 00       		.byte	0
 2198 021e 49       		.uleb128 0x49
 2199 021f 13       		.uleb128 0x13
 2200 0220 00       		.byte	0
 2201 0221 00       		.byte	0
 2202 0222 00       		.byte	0
 2203              		.section	.debug_loc,"",%progbits
 2204              	.Ldebug_loc0:
 2205              	.LLST0:
 2206 0000 0E000000 		.4byte	.LVL1
 2207 0004 10000000 		.4byte	.LVL2
 2208 0008 0400     		.2byte	0x4
 2209 000a 73       		.byte	0x73
 2210 000b E800     		.sleb128 104
 2211 000d 9F       		.byte	0x9f
 2212 000e 10000000 		.4byte	.LVL2
 2213 0012 16000000 		.4byte	.LVL3
 2214 0016 0100     		.2byte	0x1
 2215 0018 53       		.byte	0x53
 2216 0019 00000000 		.4byte	0
 2217 001d 00000000 		.4byte	0
 2218              	.LLST1:
 2219 0021 18000000 		.4byte	.LVL7
 2220 0025 2C000000 		.4byte	.LVL8
 2221 0029 0400     		.2byte	0x4
 2222 002b 73       		.byte	0x73
 2223 002c 987F     		.sleb128 -104
ARM GAS  /tmp/ccLjyTS3.s 			page 40


 2224 002e 9F       		.byte	0x9f
 2225 002f 2C000000 		.4byte	.LVL8
 2226 0033 34000000 		.4byte	.LVL9
 2227 0037 0100     		.2byte	0x1
 2228 0039 52       		.byte	0x52
 2229 003a 34000000 		.4byte	.LVL9
 2230 003e 50000000 		.4byte	.LVL10
 2231 0042 0400     		.2byte	0x4
 2232 0044 73       		.byte	0x73
 2233 0045 987F     		.sleb128 -104
 2234 0047 9F       		.byte	0x9f
 2235 0048 56000000 		.4byte	.LVL11
 2236 004c 84000000 		.4byte	.LFE10
 2237 0050 0400     		.2byte	0x4
 2238 0052 73       		.byte	0x73
 2239 0053 987F     		.sleb128 -104
 2240 0055 9F       		.byte	0x9f
 2241 0056 00000000 		.4byte	0
 2242 005a 00000000 		.4byte	0
 2243              		.section	.debug_aranges,"",%progbits
 2244 0000 4C000000 		.4byte	0x4c
 2245 0004 0200     		.2byte	0x2
 2246 0006 00000000 		.4byte	.Ldebug_info0
 2247 000a 04       		.byte	0x4
 2248 000b 00       		.byte	0
 2249 000c 0000     		.2byte	0
 2250 000e 0000     		.2byte	0
 2251 0010 00000000 		.4byte	.LFB11
 2252 0014 06000000 		.4byte	.LFE11-.LFB11
 2253 0018 00000000 		.4byte	.LFB8
 2254 001c 20000000 		.4byte	.LFE8-.LFB8
 2255 0020 00000000 		.4byte	.LFB9
 2256 0024 30000000 		.4byte	.LFE9-.LFB9
 2257 0028 00000000 		.4byte	.LFB10
 2258 002c 84000000 		.4byte	.LFE10-.LFB10
 2259 0030 00000000 		.4byte	.LFB7
 2260 0034 1A000000 		.4byte	.LFE7-.LFB7
 2261 0038 00000000 		.4byte	.LFB12
 2262 003c 18000000 		.4byte	.LFE12-.LFB12
 2263 0040 00000000 		.4byte	.LFB13
 2264 0044 10000000 		.4byte	.LFE13-.LFB13
 2265 0048 00000000 		.4byte	0
 2266 004c 00000000 		.4byte	0
 2267              		.section	.debug_ranges,"",%progbits
 2268              	.Ldebug_ranges0:
 2269 0000 10000000 		.4byte	.LBB16
 2270 0004 50000000 		.4byte	.LBE16
 2271 0008 56000000 		.4byte	.LBB17
 2272 000c 84000000 		.4byte	.LBE17
 2273 0010 00000000 		.4byte	0
 2274 0014 00000000 		.4byte	0
 2275 0018 00000000 		.4byte	.LFB11
 2276 001c 06000000 		.4byte	.LFE11
 2277 0020 00000000 		.4byte	.LFB8
 2278 0024 20000000 		.4byte	.LFE8
 2279 0028 00000000 		.4byte	.LFB9
 2280 002c 30000000 		.4byte	.LFE9
ARM GAS  /tmp/ccLjyTS3.s 			page 41


 2281 0030 00000000 		.4byte	.LFB10
 2282 0034 84000000 		.4byte	.LFE10
 2283 0038 00000000 		.4byte	.LFB7
 2284 003c 1A000000 		.4byte	.LFE7
 2285 0040 00000000 		.4byte	.LFB12
 2286 0044 18000000 		.4byte	.LFE12
 2287 0048 00000000 		.4byte	.LFB13
 2288 004c 10000000 		.4byte	.LFE13
 2289 0050 00000000 		.4byte	0
 2290 0054 00000000 		.4byte	0
 2291              		.section	.debug_line,"",%progbits
 2292              	.Ldebug_line0:
 2293 0000 6B030000 		.section	.debug_str,"MS",%progbits,1
 2293      0200C002 
 2293      00000201 
 2293      FB0E0D00 
 2293      01010101 
 2294              	.LASF37:
 2295 0000 705F6D73 		.ascii	"p_msg\000"
 2295      6700
 2296              	.LASF86:
 2297 0006 7264796D 		.ascii	"rdymsg\000"
 2297      736700
 2298              	.LASF71:
 2299 000d 46504453 		.ascii	"FPDSCR\000"
 2299      435200
 2300              	.LASF5:
 2301 0014 5F5F7569 		.ascii	"__uint8_t\000"
 2301      6E74385F 
 2301      7400
 2302              	.LASF68:
 2303 001e 434D785F 		.ascii	"CMx_SCB\000"
 2303      53434200 
 2304              	.LASF101:
 2305 0026 63685379 		.ascii	"chSysTimerHandlerI\000"
 2305      7354696D 
 2305      65724861 
 2305      6E646C65 
 2305      724900
 2306              	.LASF95:
 2307 0039 53797354 		.ascii	"SysTickVector\000"
 2307      69636B56 
 2307      6563746F 
 2307      7200
 2308              	.LASF11:
 2309 0047 6C6F6E67 		.ascii	"long long unsigned int\000"
 2309      206C6F6E 
 2309      6720756E 
 2309      7369676E 
 2309      65642069 
 2310              	.LASF53:
 2311 005e 43505549 		.ascii	"CPUID\000"
 2311      4400
 2312              	.LASF26:
 2313 0064 705F7072 		.ascii	"p_prio\000"
 2313      696F00
 2314              	.LASF10:
ARM GAS  /tmp/ccLjyTS3.s 			page 42


 2315 006b 6C6F6E67 		.ascii	"long long int\000"
 2315      206C6F6E 
 2315      6720696E 
 2315      7400
 2316              	.LASF1:
 2317 0079 7369676E 		.ascii	"signed char\000"
 2317      65642063 
 2317      68617200 
 2318              	.LASF83:
 2319 0085 6D5F7175 		.ascii	"m_queue\000"
 2319      65756500 
 2320              	.LASF18:
 2321 008d 74736C69 		.ascii	"tslices_t\000"
 2321      6365735F 
 2321      7400
 2322              	.LASF7:
 2323 0097 6C6F6E67 		.ascii	"long int\000"
 2323      20696E74 
 2323      00
 2324              	.LASF93:
 2325 00a0 53564361 		.ascii	"SVCallVector\000"
 2325      6C6C5665 
 2325      63746F72 
 2325      00
 2326              	.LASF17:
 2327 00ad 74737461 		.ascii	"tstate_t\000"
 2327      74655F74 
 2327      00
 2328              	.LASF28:
 2329 00b6 705F6E65 		.ascii	"p_newer\000"
 2329      77657200 
 2330              	.LASF63:
 2331 00be 42464152 		.ascii	"BFAR\000"
 2331      00
 2332              	.LASF87:
 2333 00c3 65786974 		.ascii	"exitcode\000"
 2333      636F6465 
 2333      00
 2334              	.LASF64:
 2335 00cc 41465352 		.ascii	"AFSR\000"
 2335      00
 2336              	.LASF8:
 2337 00d1 5F5F7569 		.ascii	"__uint32_t\000"
 2337      6E743332 
 2337      5F7400
 2338              	.LASF99:
 2339 00dc 6E766963 		.ascii	"nvicSetSystemHandlerPriority\000"
 2339      53657453 
 2339      79737465 
 2339      6D48616E 
 2339      646C6572 
 2340              	.LASF43:
 2341 00f9 72656761 		.ascii	"regarm_t\000"
 2341      726D5F74 
 2341      00
 2342              	.LASF100:
 2343 0102 63685363 		.ascii	"chSchDoReschedule\000"
ARM GAS  /tmp/ccLjyTS3.s 			page 43


 2343      68446F52 
 2343      65736368 
 2343      6564756C 
 2343      6500
 2344              	.LASF48:
 2345 0114 72657365 		.ascii	"reserved\000"
 2345      72766564 
 2345      00
 2346              	.LASF0:
 2347 011d 756E7369 		.ascii	"unsigned int\000"
 2347      676E6564 
 2347      20696E74 
 2347      00
 2348              	.LASF45:
 2349 012a 6C725F74 		.ascii	"lr_thd\000"
 2349      686400
 2350              	.LASF44:
 2351 0131 65787463 		.ascii	"extctx\000"
 2351      747800
 2352              	.LASF96:
 2353 0138 5F706F72 		.ascii	"_port_switch\000"
 2353      745F7377 
 2353      69746368 
 2353      00
 2354              	.LASF9:
 2355 0145 6C6F6E67 		.ascii	"long unsigned int\000"
 2355      20756E73 
 2355      69676E65 
 2355      6420696E 
 2355      7400
 2356              	.LASF55:
 2357 0157 56544F52 		.ascii	"VTOR\000"
 2357      00
 2358              	.LASF92:
 2359 015c 5F706F72 		.ascii	"_port_switch_from_isr\000"
 2359      745F7377 
 2359      69746368 
 2359      5F66726F 
 2359      6D5F6973 
 2360              	.LASF50:
 2361 0172 636F6E74 		.ascii	"context\000"
 2361      65787400 
 2362              	.LASF4:
 2363 017a 73686F72 		.ascii	"short unsigned int\000"
 2363      7420756E 
 2363      7369676E 
 2363      65642069 
 2363      6E7400
 2364              	.LASF54:
 2365 018d 49435352 		.ascii	"ICSR\000"
 2365      00
 2366              	.LASF20:
 2367 0192 6D73675F 		.ascii	"msg_t\000"
 2367      7400
 2368              	.LASF56:
 2369 0198 41495243 		.ascii	"AIRCR\000"
 2369      5200
ARM GAS  /tmp/ccLjyTS3.s 			page 44


 2370              	.LASF61:
 2371 019e 44465352 		.ascii	"DFSR\000"
 2371      00
 2372              	.LASF78:
 2373 01a3 725F6E65 		.ascii	"r_newer\000"
 2373      77657200 
 2374              	.LASF62:
 2375 01ab 4D4D4641 		.ascii	"MMFAR\000"
 2375      5200
 2376              	.LASF98:
 2377 01b1 5F706F72 		.ascii	"_port_irq_epilogue\000"
 2377      745F6972 
 2377      715F6570 
 2377      696C6F67 
 2377      756500
 2378              	.LASF16:
 2379 01c4 746D6F64 		.ascii	"tmode_t\000"
 2379      655F7400 
 2380              	.LASF103:
 2381 01cc 2F686F6D 		.ascii	"/home/sbcu/Dropbox/pcb-layouts/axo-on-discovery-boa"
 2381      652F7362 
 2381      63752F44 
 2381      726F7062 
 2381      6F782F70 
 2382 01ff 72642F61 		.ascii	"rd/axoloti/platform_linux/../chibios/os/ports/GCC/A"
 2382      786F6C6F 
 2382      74692F70 
 2382      6C617466 
 2382      6F726D5F 
 2383 0232 524D434D 		.ascii	"RMCMx/chcore_v7m.c\000"
 2383      782F6368 
 2383      636F7265 
 2383      5F76376D 
 2383      2E6300
 2384              	.LASF42:
 2385 0245 54687265 		.ascii	"ThreadsList\000"
 2385      6164734C 
 2385      69737400 
 2386              	.LASF21:
 2387 0251 6576656E 		.ascii	"eventmask_t\000"
 2387      746D6173 
 2387      6B5F7400 
 2388              	.LASF82:
 2389 025d 4D757465 		.ascii	"Mutex\000"
 2389      7800
 2390              	.LASF69:
 2391 0263 46504343 		.ascii	"FPCCR\000"
 2391      5200
 2392              	.LASF52:
 2393 0269 73697A65 		.ascii	"sizetype\000"
 2393      74797065 
 2393      00
 2394              	.LASF59:
 2395 0272 43465352 		.ascii	"CFSR\000"
 2395      00
 2396              	.LASF29:
 2397 0277 705F6F6C 		.ascii	"p_older\000"
ARM GAS  /tmp/ccLjyTS3.s 			page 45


 2397      64657200 
 2398              	.LASF77:
 2399 027f 725F6374 		.ascii	"r_ctx\000"
 2399      7800
 2400              	.LASF41:
 2401 0285 54687265 		.ascii	"ThreadsQueue\000"
 2401      61647351 
 2401      75657565 
 2401      00
 2402              	.LASF80:
 2403 0292 725F6375 		.ascii	"r_current\000"
 2403      7272656E 
 2403      7400
 2404              	.LASF79:
 2405 029c 725F6F6C 		.ascii	"r_older\000"
 2405      64657200 
 2406              	.LASF72:
 2407 02a4 4D564652 		.ascii	"MVFR0\000"
 2407      3000
 2408              	.LASF73:
 2409 02aa 4D564652 		.ascii	"MVFR1\000"
 2409      3100
 2410              	.LASF91:
 2411 02b0 63747870 		.ascii	"ctxp\000"
 2411      00
 2412              	.LASF25:
 2413 02b5 705F7072 		.ascii	"p_prev\000"
 2413      657600
 2414              	.LASF19:
 2415 02bc 74707269 		.ascii	"tprio_t\000"
 2415      6F5F7400 
 2416              	.LASF15:
 2417 02c4 5F426F6F 		.ascii	"_Bool\000"
 2417      6C00
 2418              	.LASF13:
 2419 02ca 696E7433 		.ascii	"int32_t\000"
 2419      325F7400 
 2420              	.LASF2:
 2421 02d2 756E7369 		.ascii	"unsigned char\000"
 2421      676E6564 
 2421      20636861 
 2421      7200
 2422              	.LASF58:
 2423 02e0 53484353 		.ascii	"SHCSR\000"
 2423      5200
 2424              	.LASF39:
 2425 02e6 705F6D74 		.ascii	"p_mtxlist\000"
 2425      786C6973 
 2425      7400
 2426              	.LASF3:
 2427 02f0 73686F72 		.ascii	"short int\000"
 2427      7420696E 
 2427      7400
 2428              	.LASF31:
 2429 02fa 705F7374 		.ascii	"p_state\000"
 2429      61746500 
 2430              	.LASF74:
ARM GAS  /tmp/ccLjyTS3.s 			page 46


 2431 0302 434D785F 		.ascii	"CMx_FPU\000"
 2431      46505500 
 2432              	.LASF33:
 2433 030a 705F7072 		.ascii	"p_preempt\000"
 2433      65656D70 
 2433      7400
 2434              	.LASF46:
 2435 0314 78707372 		.ascii	"xpsr\000"
 2435      00
 2436              	.LASF76:
 2437 0319 725F7072 		.ascii	"r_prio\000"
 2437      696F00
 2438              	.LASF89:
 2439 0320 65776D61 		.ascii	"ewmask\000"
 2439      736B00
 2440              	.LASF24:
 2441 0327 705F6E65 		.ascii	"p_next\000"
 2441      787400
 2442              	.LASF47:
 2443 032e 66707363 		.ascii	"fpscr\000"
 2443      7200
 2444              	.LASF32:
 2445 0334 705F666C 		.ascii	"p_flags\000"
 2445      61677300 
 2446              	.LASF70:
 2447 033c 46504341 		.ascii	"FPCAR\000"
 2447      5200
 2448              	.LASF23:
 2449 0342 54687265 		.ascii	"Thread\000"
 2449      616400
 2450              	.LASF38:
 2451 0349 705F6570 		.ascii	"p_epending\000"
 2451      656E6469 
 2451      6E6700
 2452              	.LASF14:
 2453 0354 75696E74 		.ascii	"uint32_t\000"
 2453      33325F74 
 2453      00
 2454              	.LASF75:
 2455 035d 725F7175 		.ascii	"r_queue\000"
 2455      65756500 
 2456              	.LASF66:
 2457 0365 756E7573 		.ascii	"unused1\000"
 2457      65643100 
 2458              	.LASF90:
 2459 036d 63686172 		.ascii	"char\000"
 2459      00
 2460              	.LASF51:
 2461 0372 494F5245 		.ascii	"IOREG32\000"
 2461      47333200 
 2462              	.LASF85:
 2463 037a 6D5F6E65 		.ascii	"m_next\000"
 2463      787400
 2464              	.LASF22:
 2465 0381 73797374 		.ascii	"systime_t\000"
 2465      696D655F 
 2465      7400
ARM GAS  /tmp/ccLjyTS3.s 			page 47


 2466              	.LASF40:
 2467 038b 705F7265 		.ascii	"p_realprio\000"
 2467      616C7072 
 2467      696F00
 2468              	.LASF6:
 2469 0396 5F5F696E 		.ascii	"__int32_t\000"
 2469      7433325F 
 2469      7400
 2470              	.LASF34:
 2471 03a0 705F7469 		.ascii	"p_time\000"
 2471      6D6500
 2472              	.LASF57:
 2473 03a7 53485052 		.ascii	"SHPR\000"
 2473      00
 2474              	.LASF49:
 2475 03ac 696E7463 		.ascii	"intctx\000"
 2475      747800
 2476              	.LASF36:
 2477 03b3 705F6D73 		.ascii	"p_msgqueue\000"
 2477      67717565 
 2477      756500
 2478              	.LASF102:
 2479 03be 474E5520 		.ascii	"GNU C 4.9.3 20150529 (release) [ARM/embedded-4_9-br"
 2479      4320342E 
 2479      392E3320 
 2479      32303135 
 2479      30353239 
 2480 03f1 616E6368 		.ascii	"anch revision 224288] -mcpu=cortex-m4 -mfloat-abi=h"
 2480      20726576 
 2480      6973696F 
 2480      6E203232 
 2480      34323838 
 2481 0424 61726420 		.ascii	"ard -mfpu=fpv4-sp-d16 -mno-thumb-interwork -mthumb "
 2481      2D6D6670 
 2481      753D6670 
 2481      76342D73 
 2481      702D6431 
 2482 0457 2D676764 		.ascii	"-ggdb -O2 -fomit-frame-pointer -falign-functions=16"
 2482      62202D4F 
 2482      32202D66 
 2482      6F6D6974 
 2482      2D667261 
 2483 048a 202D6666 		.ascii	" -ffunction-sections -fdata-sections -fno-common -f"
 2483      756E6374 
 2483      696F6E2D 
 2483      73656374 
 2483      696F6E73 
 2484 04bd 73696E67 		.ascii	"single-precision-constant\000"
 2484      6C652D70 
 2484      72656369 
 2484      73696F6E 
 2484      2D636F6E 
 2485              	.LASF97:
 2486 04d7 5F706F72 		.ascii	"_port_thread_start\000"
 2486      745F7468 
 2486      72656164 
 2486      5F737461 
ARM GAS  /tmp/ccLjyTS3.s 			page 48


 2486      727400
 2487              	.LASF81:
 2488 04ea 52656164 		.ascii	"ReadyList\000"
 2488      794C6973 
 2488      7400
 2489              	.LASF65:
 2490 04f4 4D4D4652 		.ascii	"MMFR\000"
 2490      00
 2491              	.LASF104:
 2492 04f9 726C6973 		.ascii	"rlist\000"
 2492      7400
 2493              	.LASF12:
 2494 04ff 75696E74 		.ascii	"uint8_t\000"
 2494      385F7400 
 2495              	.LASF94:
 2496 0507 5F706F72 		.ascii	"_port_init\000"
 2496      745F696E 
 2496      697400
 2497              	.LASF88:
 2498 0512 77746F62 		.ascii	"wtobjp\000"
 2498      6A7000
 2499              	.LASF30:
 2500 0519 705F6E61 		.ascii	"p_name\000"
 2500      6D6500
 2501              	.LASF67:
 2502 0520 43504143 		.ascii	"CPACR\000"
 2502      5200
 2503              	.LASF60:
 2504 0526 48465352 		.ascii	"HFSR\000"
 2504      00
 2505              	.LASF84:
 2506 052b 6D5F6F77 		.ascii	"m_owner\000"
 2506      6E657200 
 2507              	.LASF27:
 2508 0533 705F6374 		.ascii	"p_ctx\000"
 2508      7800
 2509              	.LASF35:
 2510 0539 705F7761 		.ascii	"p_waiting\000"
 2510      6974696E 
 2510      6700
 2511              		.ident	"GCC: (GNU Tools for ARM Embedded Processors) 4.9.3 20150529 (release) [ARM/embedded-4_9-br
ARM GAS  /tmp/ccLjyTS3.s 			page 49


DEFINED SYMBOLS
                            *ABS*:00000000 chcore_v7m.c
     /tmp/ccLjyTS3.s:21     .text._port_switch_from_isr:00000000 $t
     /tmp/ccLjyTS3.s:27     .text._port_switch_from_isr:00000000 _port_switch_from_isr
     /tmp/ccLjyTS3.s:40     .text._port_switch_from_isr:00000004 _port_exit_from_isr
     /tmp/ccLjyTS3.s:52     .text.SVCallVector:00000000 $t
     /tmp/ccLjyTS3.s:58     .text.SVCallVector:00000000 SVCallVector
     /tmp/ccLjyTS3.s:96     .text.SVCallVector:0000001c $d
     /tmp/ccLjyTS3.s:102    .text._port_init:00000000 $t
     /tmp/ccLjyTS3.s:108    .text._port_init:00000000 _port_init
     /tmp/ccLjyTS3.s:152    .text._port_init:00000028 $d
     /tmp/ccLjyTS3.s:158    .text._port_irq_epilogue:00000000 $t
     /tmp/ccLjyTS3.s:164    .text._port_irq_epilogue:00000000 _port_irq_epilogue
     /tmp/ccLjyTS3.s:266    .text._port_irq_epilogue:00000070 $d
     /tmp/ccLjyTS3.s:277    .text.SysTickVector:00000000 $t
     /tmp/ccLjyTS3.s:283    .text.SysTickVector:00000000 SysTickVector
     /tmp/ccLjyTS3.s:324    .text._port_switch:00000000 $t
     /tmp/ccLjyTS3.s:330    .text._port_switch:00000000 _port_switch
     /tmp/ccLjyTS3.s:365    .text._port_thread_start:00000000 $t
     /tmp/ccLjyTS3.s:371    .text._port_thread_start:00000000 _port_thread_start
                     .debug_frame:00000010 $d

UNDEFINED SYMBOLS
chSchDoReschedule
nvicSetSystemHandlerPriority
rlist
chSysTimerHandlerI
chThdExit
