ARM GAS  /tmp/ccLjyTS3.s 			page 1


   1              		.syntax unified
   2              		.cpu cortex-m4
   3              		.eabi_attribute 27, 1
   4              		.eabi_attribute 28, 1
   5              		.fpu fpv4-sp-d16
   6              		.eabi_attribute 20, 1
   7              		.eabi_attribute 21, 1
   8              		.eabi_attribute 23, 3
   9              		.eabi_attribute 24, 1
  10              		.eabi_attribute 25, 1
  11              		.eabi_attribute 26, 1
  12              		.eabi_attribute 30, 2
  13              		.eabi_attribute 34, 1
  14              		.eabi_attribute 18, 4
  15              		.thumb
  16              		.file	"chcore_v7m.c"
  17              		.text
  18              	.Ltext0:
  19              		.cfi_sections	.debug_frame
  20              		.section	.text._port_switch_from_isr,"ax",%progbits
  21              		.align	2
  22              		.p2align 4,,15
  23              		.global	_port_switch_from_isr
  24              		.thumb
  25              		.thumb_func
  26              		.type	_port_switch_from_isr, %function
  27              	_port_switch_from_isr:
  28              	.LFB11:
  29              		.file 1 "/home/sbcu/Dropbox/pcb-layouts/axo-on-discovery-board/axoloti/platform_linux/../chibios/o
  30              		.loc 1 200 0
  31              		.cfi_startproc
  32              		@ Naked Function: prologue and epilogue provided by programmer.
  33              		@ args = 0, pretend = 0, frame = 0
  34              		@ frame_needed = 0, uses_anonymous_args = 0
  35              		.loc 1 203 0
  36 0000 FFF7FEFF 		bl	chSchDoReschedule
  37              	.LVL0:
  38              		.loc 1 205 0
  39              	@ 205 "/home/sbcu/Dropbox/pcb-layouts/axo-on-discovery-board/axoloti/platform_linux/../chibios/os/p
  40              		_port_exit_from_isr:
  41              	@ 0 "" 2
  42              		.loc 1 207 0
  43              	@ 207 "/home/sbcu/Dropbox/pcb-layouts/axo-on-discovery-board/axoloti/platform_linux/../chibios/os/p
  44 0004 00DF     		svc     #0
  45              	@ 0 "" 2
  46              		.loc 1 214 0
  47              		.thumb
  48              		.cfi_endproc
  49              	.LFE11:
  50              		.size	_port_switch_from_isr, .-_port_switch_from_isr
  51 0006 00BF     		.section	.text.SVCallVector,"ax",%progbits
  52              		.align	2
  53              		.p2align 4,,15
  54              		.global	SVCallVector
  55              		.thumb
  56              		.thumb_func
  57              		.type	SVCallVector, %function
ARM GAS  /tmp/ccLjyTS3.s 			page 2


  58              	SVCallVector:
  59              	.LFB8:
  60              		.loc 1 65 0
  61              		.cfi_startproc
  62              		@ args = 0, pretend = 0, frame = 0
  63              		@ frame_needed = 0, uses_anonymous_args = 0
  64              		@ link register save eliminated.
  65              		.loc 1 70 0
  66 0000 064A     		ldr	r2, .L3
  67 0002 5368     		ldr	r3, [r2, #4]
  68 0004 23F00103 		bic	r3, r3, #1
  69 0008 5360     		str	r3, [r2, #4]
  70              		.loc 1 74 0
  71              	@ 74 "/home/sbcu/Dropbox/pcb-layouts/axo-on-discovery-board/axoloti/platform_linux/../chibios/os/po
  72 000a EFF30983 		mrs     r3, PSP
  73              	@ 0 "" 2
  74              	.LVL1:
  75              		.loc 1 78 0
  76              		.thumb
  77 000e 6833     		adds	r3, r3, #104
  78              	.LVL2:
  79              		.loc 1 81 0
  80              	@ 81 "/home/sbcu/Dropbox/pcb-layouts/axo-on-discovery-board/axoloti/platform_linux/../chibios/os/po
  81 0010 83F30988 		msr     PSP, r3
  82              	@ 0 "" 2
  83              		.thumb
  84              	.LBB5:
  85              		.loc 1 82 0
  86 0014 0023     		movs	r3, #0
  87              	.LVL3:
  88              	@ 82 "/home/sbcu/Dropbox/pcb-layouts/axo-on-discovery-board/axoloti/platform_linux/../chibios/os/po
  89 0016 83F31188 		msr     BASEPRI, r3
  90              	@ 0 "" 2
  91              		.thumb
  92 001a 7047     		bx	lr
  93              	.L4:
  94              		.align	2
  95              	.L3:
  96 001c 30EF00E0 		.word	-536809680
  97              	.LBE5:
  98              		.cfi_endproc
  99              	.LFE8:
 100              		.size	SVCallVector, .-SVCallVector
 101              		.section	.text._port_init,"ax",%progbits
 102              		.align	2
 103              		.p2align 4,,15
 104              		.global	_port_init
 105              		.thumb
 106              		.thumb_func
 107              		.type	_port_init, %function
 108              	_port_init:
 109              	.LFB9:
 110              		.loc 1 120 0
 111              		.cfi_startproc
 112              		@ args = 0, pretend = 0, frame = 0
 113              		@ frame_needed = 0, uses_anonymous_args = 0
 114 0000 08B5     		push	{r3, lr}
ARM GAS  /tmp/ccLjyTS3.s 			page 3


 115              		.cfi_def_cfa_offset 8
 116              		.cfi_offset 3, -8
 117              		.cfi_offset 14, -4
 118              		.loc 1 123 0
 119 0002 094B     		ldr	r3, .L7
 120              		.loc 1 124 0
 121 0004 094A     		ldr	r2, .L7+4
 122              		.loc 1 123 0
 123 0006 0021     		movs	r1, #0
 124 0008 9960     		str	r1, [r3, #8]
 125              		.loc 1 127 0
 126 000a 0720     		movs	r0, #7
 127              		.loc 1 124 0
 128 000c DA60     		str	r2, [r3, #12]
 129              		.loc 1 127 0
 130 000e 1021     		movs	r1, #16
 131 0010 FFF7FEFF 		bl	nvicSetSystemHandlerPriority
 132              	.LVL4:
 133              		.loc 1 129 0
 134 0014 0A20     		movs	r0, #10
 135 0016 2021     		movs	r1, #32
 136 0018 FFF7FEFF 		bl	nvicSetSystemHandlerPriority
 137              	.LVL5:
 138              		.loc 1 131 0
 139 001c 0B20     		movs	r0, #11
 140 001e 8021     		movs	r1, #128
 141              		.loc 1 133 0
 142 0020 BDE80840 		pop	{r3, lr}
 143              		.cfi_restore 14
 144              		.cfi_restore 3
 145              		.cfi_def_cfa_offset 0
 146              		.loc 1 131 0
 147 0024 FFF7FEBF 		b	nvicSetSystemHandlerPriority
 148              	.LVL6:
 149              	.L8:
 150              		.align	2
 151              	.L7:
 152 0028 00ED00E0 		.word	-536810240
 153 002c 0003FA05 		.word	100270848
 154              		.cfi_endproc
 155              	.LFE9:
 156              		.size	_port_init, .-_port_init
 157              		.section	.text._port_irq_epilogue,"ax",%progbits
 158              		.align	2
 159              		.p2align 4,,15
 160              		.global	_port_irq_epilogue
 161              		.thumb
 162              		.thumb_func
 163              		.type	_port_irq_epilogue, %function
 164              	_port_irq_epilogue:
 165              	.LFB10:
 166              		.loc 1 150 0
 167              		.cfi_startproc
 168              		@ args = 0, pretend = 0, frame = 0
 169              		@ frame_needed = 0, uses_anonymous_args = 0
 170              		@ link register save eliminated.
 171              	.LBB14:
ARM GAS  /tmp/ccLjyTS3.s 			page 4


 172              		.loc 1 152 0
 173 0000 2023     		movs	r3, #32
 174              	@ 152 "/home/sbcu/Dropbox/pcb-layouts/axo-on-discovery-board/axoloti/platform_linux/../chibios/os/p
 175 0002 83F31188 		msr     BASEPRI, r3
 176              	@ 0 "" 2
 177              		.thumb
 178              	.LBE14:
 179              		.loc 1 153 0
 180 0006 1A4B     		ldr	r3, .L17
 181 0008 5B68     		ldr	r3, [r3, #4]
 182 000a 13F40063 		ands	r3, r3, #2048
 183 000e 1FD0     		beq	.L10
 184              	.LBB15:
 185              	.LBB16:
 186              		.loc 1 159 0
 187              	@ 159 "/home/sbcu/Dropbox/pcb-layouts/axo-on-discovery-board/axoloti/platform_linux/../chibios/os/p
 188 0010 F1EE10FA 		vmrs    APSR_nzcv, FPSCR
 189              	@ 0 "" 2
 190              		.loc 1 163 0
 191              	@ 163 "/home/sbcu/Dropbox/pcb-layouts/axo-on-discovery-board/axoloti/platform_linux/../chibios/os/p
 192 0014 EFF30983 		mrs     r3, PSP
 193              	@ 0 "" 2
 194              	.LVL7:
 195              		.loc 1 170 0
 196              		.thumb
 197 0018 164A     		ldr	r2, .L17+4
 198              		.loc 1 168 0
 199 001a 4FF08071 		mov	r1, #16777216
 200              		.loc 1 170 0
 201 001e D268     		ldr	r2, [r2, #12]
 202 0020 43F8082C 		str	r2, [r3, #-8]
 203              		.loc 1 168 0
 204 0024 43F84C1C 		str	r1, [r3, #-76]
 205              		.loc 1 167 0
 206 0028 A3F16802 		sub	r2, r3, #104
 207              	.LVL8:
 208              		.loc 1 172 0
 209              	@ 172 "/home/sbcu/Dropbox/pcb-layouts/axo-on-discovery-board/axoloti/platform_linux/../chibios/os/p
 210 002c 82F30988 		msr     PSP, r2
 211              	@ 0 "" 2
 212              		.loc 1 176 0
 213              		.thumb
 214 0030 1149     		ldr	r1, .L17+8
 215 0032 8A69     		ldr	r2, [r1, #24]
 216              	.LVL9:
 217 0034 907F     		ldrb	r0, [r2, #30]	@ zero_extendqisi2
 218 0036 70B1     		cbz	r0, .L11
 219 0038 0868     		ldr	r0, [r1]
 220 003a 9168     		ldr	r1, [r2, #8]
 221 003c 8268     		ldr	r2, [r0, #8]
 222 003e 8A42     		cmp	r2, r1
 223 0040 94BF     		ite	ls
 224 0042 0022     		movls	r2, #0
 225 0044 0122     		movhi	r2, #1
 226 0046 7AB1     		cbz	r2, .L13
 227              	.L16:
 228              		.loc 1 178 0
ARM GAS  /tmp/ccLjyTS3.s 			page 5


 229 0048 0C4A     		ldr	r2, .L17+12
 230 004a 43F8502C 		str	r2, [r3, #-80]
 231 004e 7047     		bx	lr
 232              	.LVL10:
 233              	.L10:
 234              	.LBE16:
 235              	.LBE15:
 236              	.LBB18:
 237              		.loc 1 190 0
 238              	@ 190 "/home/sbcu/Dropbox/pcb-layouts/axo-on-discovery-board/axoloti/platform_linux/../chibios/os/p
 239 0050 83F31188 		msr     BASEPRI, r3
 240              	@ 0 "" 2
 241              		.thumb
 242 0054 7047     		bx	lr
 243              	.LVL11:
 244              	.L11:
 245              	.LBE18:
 246              	.LBB19:
 247              	.LBB17:
 248              		.loc 1 176 0
 249 0056 0868     		ldr	r0, [r1]
 250 0058 9168     		ldr	r1, [r2, #8]
 251 005a 8268     		ldr	r2, [r0, #8]
 252 005c 8A42     		cmp	r2, r1
 253 005e 34BF     		ite	cc
 254 0060 0022     		movcc	r2, #0
 255 0062 0122     		movcs	r2, #1
 256 0064 002A     		cmp	r2, #0
 257 0066 EFD1     		bne	.L16
 258              	.L13:
 259              		.loc 1 183 0
 260 0068 054A     		ldr	r2, .L17+16
 261 006a 43F8502C 		str	r2, [r3, #-80]
 262 006e 7047     		bx	lr
 263              	.L18:
 264              		.align	2
 265              	.L17:
 266 0070 00ED00E0 		.word	-536810240
 267 0074 30EF00E0 		.word	-536809680
 268 0078 00000000 		.word	rlist
 269 007c 00000000 		.word	_port_switch_from_isr
 270 0080 04000000 		.word	_port_exit_from_isr
 271              	.LBE17:
 272              	.LBE19:
 273              		.cfi_endproc
 274              	.LFE10:
 275              		.size	_port_irq_epilogue, .-_port_irq_epilogue
 276              		.section	.text.SysTickVector,"ax",%progbits
 277              		.align	2
 278              		.p2align 4,,15
 279              		.global	SysTickVector
 280              		.thumb
 281              		.thumb_func
 282              		.type	SysTickVector, %function
 283              	SysTickVector:
 284              	.LFB7:
 285              		.loc 1 47 0
ARM GAS  /tmp/ccLjyTS3.s 			page 6


 286              		.cfi_startproc
 287              		@ args = 0, pretend = 0, frame = 0
 288              		@ frame_needed = 0, uses_anonymous_args = 0
 289 0000 08B5     		push	{r3, lr}
 290              		.cfi_def_cfa_offset 8
 291              		.cfi_offset 3, -8
 292              		.cfi_offset 14, -4
 293              	.LBB20:
 294              		.loc 1 51 0
 295 0002 2023     		movs	r3, #32
 296              	@ 51 "/home/sbcu/Dropbox/pcb-layouts/axo-on-discovery-board/axoloti/platform_linux/../chibios/os/po
 297 0004 83F31188 		msr     BASEPRI, r3
 298              	@ 0 "" 2
 299              		.thumb
 300              	.LBE20:
 301              		.loc 1 52 0
 302 0008 FFF7FEFF 		bl	chSysTimerHandlerI
 303              	.LVL12:
 304              	.LBB21:
 305              		.loc 1 53 0
 306 000c 0023     		movs	r3, #0
 307              	@ 53 "/home/sbcu/Dropbox/pcb-layouts/axo-on-discovery-board/axoloti/platform_linux/../chibios/os/po
 308 000e 83F31188 		msr     BASEPRI, r3
 309              	@ 0 "" 2
 310              		.thumb
 311              	.LBE21:
 312              		.loc 1 56 0
 313 0012 BDE80840 		pop	{r3, lr}
 314              		.cfi_restore 14
 315              		.cfi_restore 3
 316              		.cfi_def_cfa_offset 0
 317              		.loc 1 55 0
 318 0016 FFF7FEBF 		b	_port_irq_epilogue
 319              	.LVL13:
 320              		.cfi_endproc
 321              	.LFE7:
 322              		.size	SysTickVector, .-SysTickVector
 323 001a 00BF     		.section	.text._port_switch,"ax",%progbits
 324              		.align	2
 325              		.p2align 4,,15
 326              		.global	_port_switch
 327              		.thumb
 328              		.thumb_func
 329              		.type	_port_switch, %function
 330              	_port_switch:
 331              	.LFB12:
 332              		.loc 1 229 0
 333              		.cfi_startproc
 334              		@ Naked Function: prologue and epilogue provided by programmer.
 335              		@ args = 0, pretend = 0, frame = 0
 336              		@ frame_needed = 0, uses_anonymous_args = 0
 337              	.LVL14:
 338              		.loc 1 231 0
 339              	@ 231 "/home/sbcu/Dropbox/pcb-layouts/axo-on-discovery-board/axoloti/platform_linux/../chibios/os/p
 340 0000 2DE9F04F 		push    {r4, r5, r6, r7, r8, r9, r10, r11, lr}
 341              	@ 0 "" 2
 342              		.loc 1 234 0
ARM GAS  /tmp/ccLjyTS3.s 			page 7


 343              	@ 234 "/home/sbcu/Dropbox/pcb-layouts/axo-on-discovery-board/axoloti/platform_linux/../chibios/os/p
 344 0004 2DED108A 		vpush   {s16-s31}
 345              	@ 0 "" 2
 346              		.loc 1 237 0
 347              	@ 237 "/home/sbcu/Dropbox/pcb-layouts/axo-on-discovery-board/axoloti/platform_linux/../chibios/os/p
 348 0008 C1F80CD0 		str     sp, [r1, #12]                          
 349 000c D0F80CD0 		ldr     sp, [r0, #12]
 350              	@ 0 "" 2
 351              		.loc 1 241 0
 352              	@ 241 "/home/sbcu/Dropbox/pcb-layouts/axo-on-discovery-board/axoloti/platform_linux/../chibios/os/p
 353 0010 BDEC108A 		vpop    {s16-s31}
 354              	@ 0 "" 2
 355              		.loc 1 243 0
 356              	@ 243 "/home/sbcu/Dropbox/pcb-layouts/axo-on-discovery-board/axoloti/platform_linux/../chibios/os/p
 357 0014 BDE8F08F 		pop     {r4, r5, r6, r7, r8, r9, r10, r11, pc}
 358              	@ 0 "" 2
 359              		.loc 1 245 0
 360              		.thumb
 361              		.cfi_endproc
 362              	.LFE12:
 363              		.size	_port_switch, .-_port_switch
 364              		.section	.text._port_thread_start,"ax",%progbits
 365              		.align	2
 366              		.p2align 4,,15
 367              		.global	_port_thread_start
 368              		.thumb
 369              		.thumb_func
 370              		.type	_port_thread_start, %function
 371              	_port_thread_start:
 372              	.LFB13:
 373              		.loc 1 252 0
 374              		.cfi_startproc
 375              		@ args = 0, pretend = 0, frame = 0
 376              		@ frame_needed = 0, uses_anonymous_args = 0
 377              		@ link register save eliminated.
 378              	.LBB22:
 379              		.loc 1 254 0
 380 0000 0023     		movs	r3, #0
 381              	@ 254 "/home/sbcu/Dropbox/pcb-layouts/axo-on-discovery-board/axoloti/platform_linux/../chibios/os/p
 382 0002 83F31188 		msr     BASEPRI, r3
 383              	@ 0 "" 2
 384              		.thumb
 385              	.LBE22:
 386              		.loc 1 255 0
 387              	@ 255 "/home/sbcu/Dropbox/pcb-layouts/axo-on-discovery-board/axoloti/platform_linux/../chibios/os/p
 388 0006 2846     		mov     r0, r5                                 
 389 0008 A047     		blx     r4                                     
 390 000a FFF7FEFF 		bl      chThdExit
 391              	@ 0 "" 2
 392              		.thumb
 393 000e 7047     		bx	lr
 394              		.cfi_endproc
 395              	.LFE13:
 396              		.size	_port_thread_start, .-_port_thread_start
 397              		.text
 398              	.Letext0:
 399              		.file 2 "/home/sbcu/Dropbox/pcb-layouts/axo-on-discovery-board/axoloti/platform_linux/arm-none-eab
ARM GAS  /tmp/ccLjyTS3.s 			page 8


 400              		.file 3 "/home/sbcu/Dropbox/pcb-layouts/axo-on-discovery-board/axoloti/platform_linux/arm-none-eab
 401              		.file 4 "/home/sbcu/Dropbox/pcb-layouts/axo-on-discovery-board/axoloti/platform_linux/../chibios/o
 402              		.file 5 "/home/sbcu/Dropbox/pcb-layouts/axo-on-discovery-board/axoloti/platform_linux/../chibios/o
 403              		.file 6 "/home/sbcu/Dropbox/pcb-layouts/axo-on-discovery-board/axoloti/platform_linux/../chibios/o
 404              		.file 7 "/home/sbcu/Dropbox/pcb-layouts/axo-on-discovery-board/axoloti/platform_linux/../chibios/o
 405              		.file 8 "/home/sbcu/Dropbox/pcb-layouts/axo-on-discovery-board/axoloti/platform_linux/../chibios/o
 406              		.file 9 "/home/sbcu/Dropbox/pcb-layouts/axo-on-discovery-board/axoloti/platform_linux/../chibios/o
 407              		.file 10 "/home/sbcu/Dropbox/pcb-layouts/axo-on-discovery-board/axoloti/platform_linux/../chibios/
 408              		.file 11 "/home/sbcu/Dropbox/pcb-layouts/axo-on-discovery-board/axoloti/platform_linux/../chibios/