ARM GAS  /tmp/cclVUpo1.s 			page 1


   1              		.syntax unified
   2              		.cpu cortex-m4
   3              		.eabi_attribute 27, 1
   4              		.eabi_attribute 28, 1
   5              		.fpu fpv4-sp-d16
   6              		.eabi_attribute 20, 1
   7              		.eabi_attribute 21, 1
   8              		.eabi_attribute 23, 3
   9              		.eabi_attribute 24, 1
  10              		.eabi_attribute 25, 1
  11              		.eabi_attribute 26, 1
  12              		.eabi_attribute 30, 2
  13              		.eabi_attribute 34, 1
  14              		.eabi_attribute 18, 4
  15              		.thumb
  16              		.file	"chmsg.c"
  17              		.text
  18              	.Ltext0:
  19              		.cfi_sections	.debug_frame
  20              		.section	.text.chMsgSend,"ax",%progbits
  21              		.align	2
  22              		.p2align 4,,15
  23              		.global	chMsgSend
  24              		.thumb
  25              		.thumb_func
  26              		.type	chMsgSend, %function
  27              	chMsgSend:
  28              	.LFB7:
  29              		.file 1 "/home/sbcu/Dropbox/pcb-layouts/axo-on-discovery-board/axoloti/platform_linux/../chibios/o
  30              		.loc 1 75 0
  31              		.cfi_startproc
  32              		@ args = 0, pretend = 0, frame = 0
  33              		@ frame_needed = 0, uses_anonymous_args = 0
  34              	.LVL0:
  35              		.loc 1 76 0
  36 0000 0E4B     		ldr	r3, .L6
  37              		.loc 1 75 0
  38 0002 70B5     		push	{r4, r5, r6, lr}
  39              		.cfi_def_cfa_offset 16
  40              		.cfi_offset 4, -16
  41              		.cfi_offset 5, -12
  42              		.cfi_offset 6, -8
  43              		.cfi_offset 14, -4
  44              		.loc 1 76 0
  45 0004 9C69     		ldr	r4, [r3, #24]
  46              	.LVL1:
  47              	.LBB10:
  48              		.loc 1 80 0
  49 0006 2023     		movs	r3, #32
  50              	@ 80 "/home/sbcu/Dropbox/pcb-layouts/axo-on-discovery-board/axoloti/platform_linux/../chibios/os/ke
  51 0008 83F31188 		msr     BASEPRI, r3
  52              	@ 0 "" 2
  53              		.thumb
  54              	.LBE10:
  55              		.loc 1 82 0
  56 000c 00F12C05 		add	r5, r0, #44
  57              		.loc 1 84 0
ARM GAS  /tmp/cclVUpo1.s 			page 2


  58 0010 067F     		ldrb	r6, [r0, #28]	@ zero_extendqisi2
  59              		.loc 1 82 0
  60 0012 6562     		str	r5, [r4, #36]
  61              	.LVL2:
  62              	.LBB11:
  63              	.LBB12:
  64              		.file 2 "/home/sbcu/Dropbox/pcb-layouts/axo-on-discovery-board/axoloti/platform_linux/../chibios/o
  65              		.loc 2 55 0
  66 0014 036B     		ldr	r3, [r0, #48]
  67 0016 6360     		str	r3, [r4, #4]
  68              	.LBE12:
  69              	.LBE11:
  70              		.loc 1 84 0
  71 0018 0C2E     		cmp	r6, #12
  72              		.loc 1 81 0
  73 001a 6163     		str	r1, [r4, #52]
  74              	.LBB14:
  75              	.LBB13:
  76              		.loc 2 54 0
  77 001c 2560     		str	r5, [r4]
  78              		.loc 2 56 0
  79 001e 0463     		str	r4, [r0, #48]
  80 0020 1C60     		str	r4, [r3]
  81              	.LBE13:
  82              	.LBE14:
  83              		.loc 1 84 0
  84 0022 07D0     		beq	.L5
  85              	.LVL3:
  86              	.L2:
  87              		.loc 1 86 0
  88 0024 0A20     		movs	r0, #10
  89 0026 FFF7FEFF 		bl	chSchGoSleepS
  90              	.LVL4:
  91              		.loc 1 87 0
  92 002a 606A     		ldr	r0, [r4, #36]
  93              	.LVL5:
  94              	.LBB15:
  95              		.loc 1 88 0
  96 002c 0023     		movs	r3, #0
  97              	@ 88 "/home/sbcu/Dropbox/pcb-layouts/axo-on-discovery-board/axoloti/platform_linux/../chibios/os/ke
  98 002e 83F31188 		msr     BASEPRI, r3
  99              	@ 0 "" 2
 100              		.thumb
 101              	.LBE15:
 102              		.loc 1 90 0
 103 0032 70BD     		pop	{r4, r5, r6, pc}
 104              	.LVL6:
 105              	.L5:
 106              		.loc 1 85 0
 107 0034 FFF7FEFF 		bl	chSchReadyI
 108              	.LVL7:
 109 0038 F4E7     		b	.L2
 110              	.L7:
 111 003a 00BF     		.align	2
 112              	.L6:
 113 003c 00000000 		.word	rlist
 114              		.cfi_endproc
ARM GAS  /tmp/cclVUpo1.s 			page 3


 115              	.LFE7:
 116              		.size	chMsgSend, .-chMsgSend
 117              		.section	.text.chMsgWait,"ax",%progbits
 118              		.align	2
 119              		.p2align 4,,15
 120              		.global	chMsgWait
 121              		.thumb
 122              		.thumb_func
 123              		.type	chMsgWait, %function
 124              	chMsgWait:
 125              	.LFB8:
 126              		.loc 1 106 0
 127              		.cfi_startproc
 128              		@ args = 0, pretend = 0, frame = 0
 129              		@ frame_needed = 0, uses_anonymous_args = 0
 130 0000 10B5     		push	{r4, lr}
 131              		.cfi_def_cfa_offset 8
 132              		.cfi_offset 4, -8
 133              		.cfi_offset 14, -4
 134              	.LBB16:
 135              		.loc 1 109 0
 136 0002 2023     		movs	r3, #32
 137              	@ 109 "/home/sbcu/Dropbox/pcb-layouts/axo-on-discovery-board/axoloti/platform_linux/../chibios/os/k
 138 0004 83F31188 		msr     BASEPRI, r3
 139              	@ 0 "" 2
 140              		.thumb
 141              	.LBE16:
 142              		.loc 1 110 0
 143 0008 0B4C     		ldr	r4, .L12
 144 000a A269     		ldr	r2, [r4, #24]
 145 000c 1346     		mov	r3, r2
 146 000e 53F82C0F 		ldr	r0, [r3, #44]!
 147 0012 9842     		cmp	r0, r3
 148 0014 08D0     		beq	.L11
 149              	.L9:
 150              	.LVL8:
 151              	.LBB17:
 152              	.LBB18:
 153              		.loc 2 62 0
 154 0016 0168     		ldr	r1, [r0]
 155 0018 D162     		str	r1, [r2, #44]
 156              	.LBE18:
 157              	.LBE17:
 158              		.loc 1 113 0
 159 001a 0B22     		movs	r2, #11
 160              	.LBB20:
 161              	.LBB19:
 162              		.loc 2 62 0
 163 001c 4B60     		str	r3, [r1, #4]
 164              	.LBE19:
 165              	.LBE20:
 166              	.LBB21:
 167              		.loc 1 114 0
 168 001e 0023     		movs	r3, #0
 169              	.LVL9:
 170              	.LBE21:
 171              		.loc 1 113 0
ARM GAS  /tmp/cclVUpo1.s 			page 4


 172 0020 0277     		strb	r2, [r0, #28]
 173              	.LBB22:
 174              		.loc 1 114 0
 175              	@ 114 "/home/sbcu/Dropbox/pcb-layouts/axo-on-discovery-board/axoloti/platform_linux/../chibios/os/k
 176 0022 83F31188 		msr     BASEPRI, r3
 177              	@ 0 "" 2
 178              		.thumb
 179              	.LBE22:
 180              		.loc 1 116 0
 181 0026 10BD     		pop	{r4, pc}
 182              	.LVL10:
 183              	.L11:
 184              		.loc 1 111 0
 185 0028 0C20     		movs	r0, #12
 186 002a FFF7FEFF 		bl	chSchGoSleepS
 187              	.LVL11:
 188 002e A269     		ldr	r2, [r4, #24]
 189 0030 D06A     		ldr	r0, [r2, #44]
 190 0032 02F12C03 		add	r3, r2, #44
 191 0036 EEE7     		b	.L9
 192              	.L13:
 193              		.align	2
 194              	.L12:
 195 0038 00000000 		.word	rlist
 196              		.cfi_endproc
 197              	.LFE8:
 198              		.size	chMsgWait, .-chMsgWait
 199              		.section	.text.chMsgRelease,"ax",%progbits
 200              		.align	2
 201              		.p2align 4,,15
 202              		.global	chMsgRelease
 203              		.thumb
 204              		.thumb_func
 205              		.type	chMsgRelease, %function
 206              	chMsgRelease:
 207              	.LFB9:
 208              		.loc 1 128 0
 209              		.cfi_startproc
 210              		@ args = 0, pretend = 0, frame = 0
 211              		@ frame_needed = 0, uses_anonymous_args = 0
 212              	.LVL12:
 213 0000 08B5     		push	{r3, lr}
 214              		.cfi_def_cfa_offset 8
 215              		.cfi_offset 3, -8
 216              		.cfi_offset 14, -4
 217              	.LBB23:
 218              		.loc 1 130 0
 219 0002 2023     		movs	r3, #32
 220              	@ 130 "/home/sbcu/Dropbox/pcb-layouts/axo-on-discovery-board/axoloti/platform_linux/../chibios/os/k
 221 0004 83F31188 		msr     BASEPRI, r3
 222              	@ 0 "" 2
 223              		.thumb
 224              	.LBE23:
 225              		.loc 1 133 0
 226 0008 FFF7FEFF 		bl	chSchWakeupS
 227              	.LVL13:
 228              	.LBB24:
ARM GAS  /tmp/cclVUpo1.s 			page 5


 229              		.loc 1 134 0
 230 000c 0023     		movs	r3, #0
 231              	@ 134 "/home/sbcu/Dropbox/pcb-layouts/axo-on-discovery-board/axoloti/platform_linux/../chibios/os/k
 232 000e 83F31188 		msr     BASEPRI, r3
 233              	@ 0 "" 2
 234              		.thumb
 235 0012 08BD     		pop	{r3, pc}
 236              	.LBE24:
 237              		.cfi_endproc
 238              	.LFE9:
 239              		.size	chMsgRelease, .-chMsgRelease
 240              		.text
 241              	.Letext0:
 242              		.file 3 "/home/sbcu/Dropbox/pcb-layouts/axo-on-discovery-board/axoloti/platform_linux/arm-none-eab
 243              		.file 4 "/home/sbcu/Dropbox/pcb-layouts/axo-on-discovery-board/axoloti/platform_linux/arm-none-eab
 244              		.file 5 "/home/sbcu/Dropbox/pcb-layouts/axo-on-discovery-board/axoloti/platform_linux/../chibios/o
 245              		.file 6 "/home/sbcu/Dropbox/pcb-layouts/axo-on-discovery-board/axoloti/platform_linux/../chibios/o
 246              		.file 7 "/home/sbcu/Dropbox/pcb-layouts/axo-on-discovery-board/axoloti/platform_linux/../chibios/o
 247              		.file 8 "/home/sbcu/Dropbox/pcb-layouts/axo-on-discovery-board/axoloti/platform_linux/../chibios/o
 248              		.file 9 "/home/sbcu/Dropbox/pcb-layouts/axo-on-discovery-board/axoloti/platform_linux/../chibios/o
 249              		.file 10 "/home/sbcu/Dropbox/pcb-layouts/axo-on-discovery-board/axoloti/platform_linux/../chibios/