ARM GAS  /tmp/ccki0zeP.s 			page 1


   1              		.syntax unified
   2              		.cpu cortex-m4
   3              		.eabi_attribute 27, 1
   4              		.eabi_attribute 28, 1
   5              		.fpu fpv4-sp-d16
   6              		.eabi_attribute 20, 1
   7              		.eabi_attribute 21, 1
   8              		.eabi_attribute 23, 3
   9              		.eabi_attribute 24, 1
  10              		.eabi_attribute 25, 1
  11              		.eabi_attribute 26, 1
  12              		.eabi_attribute 30, 2
  13              		.eabi_attribute 34, 1
  14              		.eabi_attribute 18, 4
  15              		.thumb
  16              		.file	"chprintf.c"
  17              		.text
  18              	.Ltext0:
  19              		.cfi_sections	.debug_frame
  20              		.section	.text.long_to_string_with_divisor.constprop.0,"ax",%progbits
  21              		.align	2
  22              		.p2align 4,,15
  23              		.thumb
  24              		.thumb_func
  25              		.type	long_to_string_with_divisor.constprop.0, %function
  26              	long_to_string_with_divisor.constprop.0:
  27              	.LFB12:
  28              		.file 1 "/d_drive/axoloti/platform_linux/../chibios/os/various/chprintf.c"
  29              		.loc 1 37 0
  30              		.cfi_startproc
  31              		@ args = 0, pretend = 0, frame = 0
  32              		@ frame_needed = 0, uses_anonymous_args = 0
  33              		@ link register save eliminated.
  34              	.LVL0:
  35 0000 F0B4     		push	{r4, r5, r6, r7}
  36              		.cfi_def_cfa_offset 16
  37              		.cfi_offset 4, -16
  38              		.cfi_offset 5, -12
  39              		.cfi_offset 6, -8
  40              		.cfi_offset 7, -4
  41              		.loc 1 52 0
  42 0002 00F10B07 		add	r7, r0, #11
  43              	.LVL1:
  44 0006 3C46     		mov	r4, r7
  45 0008 0D46     		mov	r5, r1
  46              	.LVL2:
  47              	.L3:
  48              		.loc 1 54 0
  49 000a B1FBF2F6 		udiv	r6, r1, r2
  50 000e 02FB1611 		mls	r1, r2, r6, r1
  51              	.LVL3:
  52              		.loc 1 55 0
  53 0012 01F13003 		add	r3, r1, #48
  54              	.LVL4:
  55              		.loc 1 56 0
  56 0016 392B     		cmp	r3, #57
  57              		.loc 1 57 0
ARM GAS  /tmp/ccki0zeP.s 			page 2


  58 0018 C8BF     		it	gt
  59 001a 01F13703 		addgt	r3, r1, #55
  60              	.LVL5:
  61              		.loc 1 58 0
  62 001e DBB2     		uxtb	r3, r3
  63              	.LVL6:
  64 0020 04F8013D 		strb	r3, [r4, #-1]!
  65              	.LVL7:
  66              		.loc 1 60 0
  67 0024 B5FBF2F5 		udiv	r5, r5, r2
  68              	.LVL8:
  69              		.loc 1 59 0
  70 0028 3146     		mov	r1, r6
  71              	.LVL9:
  72              		.loc 1 60 0
  73 002a 002D     		cmp	r5, #0
  74 002c EDD1     		bne	.L3
  75              	.LVL10:
  76              		.loc 1 62 0
  77 002e 3A1B     		subs	r2, r7, r4
  78              	.LVL11:
  79 0030 0244     		add	r2, r2, r0
  80 0032 01E0     		b	.L5
  81              	.LVL12:
  82              	.L10:
  83 0034 14F8013F 		ldrb	r3, [r4, #1]!	@ zero_extendqisi2
  84              	.LVL13:
  85              	.L5:
  86              		.loc 1 64 0
  87 0038 00F8013B 		strb	r3, [r0], #1
  88              	.LVL14:
  89              		.loc 1 65 0
  90 003c 9042     		cmp	r0, r2
  91 003e F9D1     		bne	.L10
  92              		.loc 1 68 0
  93 0040 F0BC     		pop	{r4, r5, r6, r7}
  94              		.cfi_restore 7
  95              		.cfi_restore 6
  96              		.cfi_restore 5
  97              		.cfi_restore 4
  98              		.cfi_def_cfa_offset 0
  99              	.LVL15:
 100 0042 7047     		bx	lr
 101              		.cfi_endproc
 102              	.LFE12:
 103              		.size	long_to_string_with_divisor.constprop.0, .-long_to_string_with_divisor.constprop.0
 104              		.section	.text.chvprintf,"ax",%progbits
 105              		.align	2
 106              		.p2align 4,,15
 107              		.global	chvprintf
 108              		.thumb
 109              		.thumb_func
 110              		.type	chvprintf, %function
 111              	chvprintf:
 112              	.LFB10:
 113              		.loc 1 112 0
 114              		.cfi_startproc
ARM GAS  /tmp/ccki0zeP.s 			page 3


 115              		@ args = 0, pretend = 0, frame = 24
 116              		@ frame_needed = 0, uses_anonymous_args = 0
 117              	.LVL16:
 118 0000 2DE9F04F 		push	{r4, r5, r6, r7, r8, r9, r10, fp, lr}
 119              		.cfi_def_cfa_offset 36
 120              		.cfi_offset 4, -36
 121              		.cfi_offset 5, -32
 122              		.cfi_offset 6, -28
 123              		.cfi_offset 7, -24
 124              		.cfi_offset 8, -20
 125              		.cfi_offset 9, -16
 126              		.cfi_offset 10, -12
 127              		.cfi_offset 11, -8
 128              		.cfi_offset 14, -4
 129 0004 87B0     		sub	sp, sp, #28
 130              		.cfi_def_cfa_offset 64
 131 0006 0DF10C09 		add	r9, sp, #12
 132 000a 0DF10D03 		add	r3, sp, #13
 133 000e C9EB0303 		rsb	r3, r9, r3
 134              		.loc 1 112 0
 135 0012 8346     		mov	fp, r0
 136 0014 0C46     		mov	r4, r1
 137 0016 1646     		mov	r6, r2
 138 0018 0193     		str	r3, [sp, #4]
 139              	.LVL17:
 140              	.L12:
 141              		.loc 1 125 0
 142 001a 2178     		ldrb	r1, [r4]	@ zero_extendqisi2
 143 001c 651C     		adds	r5, r4, #1
 144              	.LVL18:
 145              		.loc 1 126 0
 146 001e 59B1     		cbz	r1, .L11
 147              	.L94:
 148              		.loc 1 128 0
 149 0020 2529     		cmp	r1, #37
 150 0022 0CD0     		beq	.L14
 151              		.loc 1 129 0
 152 0024 DBF80020 		ldr	r2, [fp]
 153              	.LVL19:
 154              		.loc 1 125 0
 155 0028 2C46     		mov	r4, r5
 156              		.loc 1 129 0
 157 002a 9268     		ldr	r2, [r2, #8]
 158 002c 5846     		mov	r0, fp
 159 002e 9047     		blx	r2
 160              	.LVL20:
 161              		.loc 1 125 0
 162 0030 2178     		ldrb	r1, [r4]	@ zero_extendqisi2
 163 0032 651C     		adds	r5, r4, #1
 164              	.LVL21:
 165              		.loc 1 126 0
 166 0034 0029     		cmp	r1, #0
 167 0036 F3D1     		bne	.L94
 168              	.LVL22:
 169              	.L11:
 170              		.loc 1 261 0
 171 0038 07B0     		add	sp, sp, #28
ARM GAS  /tmp/ccki0zeP.s 			page 4


 172              		.cfi_remember_state
 173              		.cfi_def_cfa_offset 36
 174              		@ sp needed
 175 003a BDE8F08F 		pop	{r4, r5, r6, r7, r8, r9, r10, fp, pc}
 176              	.LVL23:
 177              	.L14:
 178              		.cfi_restore_state
 179              		.loc 1 135 0
 180 003e 6178     		ldrb	r1, [r4, #1]	@ zero_extendqisi2
 181              	.LVL24:
 182 0040 2D29     		cmp	r1, #45
 183 0042 03BF     		ittte	eq
 184 0044 A178     		ldrbeq	r1, [r4, #2]	@ zero_extendqisi2
 185              		.loc 1 136 0
 186 0046 A51C     		addeq	r5, r4, #2
 187              	.LVL25:
 188              		.loc 1 137 0
 189 0048 4FF0010A 		moveq	r10, #1
 190              		.loc 1 134 0
 191 004c 4FF0000A 		movne	r10, #0
 192              	.LVL26:
 193              		.loc 1 140 0
 194 0050 2E29     		cmp	r1, #46
 195 0052 00F0FD80 		beq	.L17
 196              		.loc 1 140 0 is_stmt 0 discriminator 1
 197 0056 3029     		cmp	r1, #48
 198 0058 00F0FA80 		beq	.L17
 199              		.loc 1 139 0 is_stmt 1
 200 005c 4FF02008 		mov	r8, #32
 201              	.LVL27:
 202              	.L18:
 203 0060 681C     		adds	r0, r5, #1
 204              		.loc 1 144 0
 205 0062 0025     		movs	r5, #0
 206              	.LVL28:
 207 0064 05E0     		b	.L21
 208              	.LVL29:
 209              	.L95:
 210              		.loc 1 150 0
 211 0066 3278     		ldrb	r2, [r6]	@ zero_extendqisi2
 212              	.LVL30:
 213 0068 0436     		adds	r6, r6, #4
 214              	.LVL31:
 215              	.L19:
 216 006a 2178     		ldrb	r1, [r4]	@ zero_extendqisi2
 217              		.loc 1 153 0
 218 006c 02EB4705 		add	r5, r2, r7, lsl #1
 219              	.LVL32:
 220 0070 0130     		adds	r0, r0, #1
 221              	.LVL33:
 222              	.L21:
 223              		.loc 1 147 0
 224 0072 A1F13002 		sub	r2, r1, #48
 225              	.LVL34:
 226 0076 D2B2     		uxtb	r2, r2
 227 0078 092A     		cmp	r2, #9
 228              		.loc 1 146 0
ARM GAS  /tmp/ccki0zeP.s 			page 5


 229 007a 0446     		mov	r4, r0
 230              	.LVL35:
 231              		.loc 1 153 0
 232 007c 05EB8507 		add	r7, r5, r5, lsl #2
 233              		.loc 1 147 0
 234 0080 F3D9     		bls	.L19
 235              		.loc 1 149 0
 236 0082 2A29     		cmp	r1, #42
 237 0084 EFD0     		beq	.L95
 238              	.LVL36:
 239              		.loc 1 156 0
 240 0086 2E29     		cmp	r1, #46
 241 0088 4FF00000 		mov	r0, #0
 242              	.LVL37:
 243 008c 29D0     		beq	.L24
 244              	.LVL38:
 245              		.loc 1 170 0
 246 008e 01F0DF02 		and	r2, r1, #223
 247 0092 4C2A     		cmp	r2, #76
 248 0094 34D0     		beq	.L96
 249              	.L86:
 250              		.loc 1 179 0
 251 0096 A1F14402 		sub	r2, r1, #68
 252 009a 342A     		cmp	r2, #52
 253 009c 00F2D180 		bhi	.L27
 254 00a0 DFE802F0 		tbb	[pc, r2]
 255              	.L36:
 256 00a4 BC       		.byte	(.L44-.L36)/2
 257 00a5 CF       		.byte	(.L27-.L36)/2
 258 00a6 CF       		.byte	(.L27-.L36)/2
 259 00a7 CF       		.byte	(.L27-.L36)/2
 260 00a8 CF       		.byte	(.L27-.L36)/2
 261 00a9 BC       		.byte	(.L44-.L36)/2
 262 00aa CF       		.byte	(.L27-.L36)/2
 263 00ab CF       		.byte	(.L27-.L36)/2
 264 00ac CF       		.byte	(.L27-.L36)/2
 265 00ad CF       		.byte	(.L27-.L36)/2
 266 00ae CF       		.byte	(.L27-.L36)/2
 267 00af B1       		.byte	(.L30-.L36)/2
 268 00b0 CF       		.byte	(.L27-.L36)/2
 269 00b1 CF       		.byte	(.L27-.L36)/2
 270 00b2 CF       		.byte	(.L27-.L36)/2
 271 00b3 CF       		.byte	(.L27-.L36)/2
 272 00b4 CF       		.byte	(.L27-.L36)/2
 273 00b5 CA       		.byte	(.L31-.L36)/2
 274 00b6 CF       		.byte	(.L27-.L36)/2
 275 00b7 CF       		.byte	(.L27-.L36)/2
 276 00b8 CC       		.byte	(.L69-.L36)/2
 277 00b9 CF       		.byte	(.L27-.L36)/2
 278 00ba CF       		.byte	(.L27-.L36)/2
 279 00bb CF       		.byte	(.L27-.L36)/2
 280 00bc CF       		.byte	(.L27-.L36)/2
 281 00bd CF       		.byte	(.L27-.L36)/2
 282 00be CF       		.byte	(.L27-.L36)/2
 283 00bf CF       		.byte	(.L27-.L36)/2
 284 00c0 CF       		.byte	(.L27-.L36)/2
 285 00c1 CF       		.byte	(.L27-.L36)/2
ARM GAS  /tmp/ccki0zeP.s 			page 6


 286 00c2 CF       		.byte	(.L27-.L36)/2
 287 00c3 82       		.byte	(.L33-.L36)/2
 288 00c4 BC       		.byte	(.L44-.L36)/2
 289 00c5 CF       		.byte	(.L27-.L36)/2
 290 00c6 CF       		.byte	(.L27-.L36)/2
 291 00c7 CF       		.byte	(.L27-.L36)/2
 292 00c8 CF       		.byte	(.L27-.L36)/2
 293 00c9 BC       		.byte	(.L44-.L36)/2
 294 00ca CF       		.byte	(.L27-.L36)/2
 295 00cb CF       		.byte	(.L27-.L36)/2
 296 00cc CF       		.byte	(.L27-.L36)/2
 297 00cd CF       		.byte	(.L27-.L36)/2
 298 00ce CF       		.byte	(.L27-.L36)/2
 299 00cf B1       		.byte	(.L30-.L36)/2
 300 00d0 CF       		.byte	(.L27-.L36)/2
 301 00d1 CF       		.byte	(.L27-.L36)/2
 302 00d2 CF       		.byte	(.L27-.L36)/2
 303 00d3 55       		.byte	(.L34-.L36)/2
 304 00d4 CF       		.byte	(.L27-.L36)/2
 305 00d5 CA       		.byte	(.L31-.L36)/2
 306 00d6 CF       		.byte	(.L27-.L36)/2
 307 00d7 CF       		.byte	(.L27-.L36)/2
 308 00d8 CC       		.byte	(.L69-.L36)/2
 309              	.LVL39:
 310 00d9 00       		.p2align 1
 311              	.L97:
 312              		.loc 1 162 0
 313 00da 3278     		ldrb	r2, [r6]	@ zero_extendqisi2
 314              	.LVL40:
 315 00dc 0436     		adds	r6, r6, #4
 316              	.LVL41:
 317              	.L23:
 318              		.loc 1 166 0
 319 00de 02EB4700 		add	r0, r2, r7, lsl #1
 320              	.LVL42:
 321              	.L24:
 322              		.loc 1 158 0
 323 00e2 14F8011B 		ldrb	r1, [r4], #1	@ zero_extendqisi2
 324              	.LVL43:
 325              		.loc 1 159 0
 326 00e6 A1F13002 		sub	r2, r1, #48
 327 00ea D2B2     		uxtb	r2, r2
 328 00ec 092A     		cmp	r2, #9
 329              		.loc 1 165 0
 330 00ee 00EB8007 		add	r7, r0, r0, lsl #2
 331              		.loc 1 159 0
 332 00f2 F4D9     		bls	.L23
 333              		.loc 1 161 0
 334 00f4 2A29     		cmp	r1, #42
 335 00f6 F0D0     		beq	.L97
 336              	.LVL44:
 337              		.loc 1 170 0
 338 00f8 01F0DF02 		and	r2, r1, #223
 339 00fc 4C2A     		cmp	r2, #76
 340 00fe CAD1     		bne	.L86
 341              	.L96:
 342              	.LVL45:
ARM GAS  /tmp/ccki0zeP.s 			page 7


 343              		.loc 1 172 0
 344 0100 2278     		ldrb	r2, [r4]	@ zero_extendqisi2
 345 0102 002A     		cmp	r2, #0
 346 0104 00F09D80 		beq	.L27
 347              		.loc 1 179 0
 348 0108 A2F14401 		sub	r1, r2, #68
 349              	.LVL46:
 350              		.loc 1 173 0
 351 010c 0134     		adds	r4, r4, #1
 352              	.LVL47:
 353              		.loc 1 179 0
 354 010e 3429     		cmp	r1, #52
 355 0110 00F29680 		bhi	.L66
 356 0114 DFE801F0 		tbb	[pc, r1]
 357              	.L29:
 358 0118 82       		.byte	(.L44-.L29)/2
 359 0119 94       		.byte	(.L66-.L29)/2
 360 011a 94       		.byte	(.L66-.L29)/2
 361 011b 94       		.byte	(.L66-.L29)/2
 362 011c 94       		.byte	(.L66-.L29)/2
 363 011d 82       		.byte	(.L44-.L29)/2
 364 011e 94       		.byte	(.L66-.L29)/2
 365 011f 94       		.byte	(.L66-.L29)/2
 366 0120 94       		.byte	(.L66-.L29)/2
 367 0121 94       		.byte	(.L66-.L29)/2
 368 0122 94       		.byte	(.L66-.L29)/2
 369 0123 77       		.byte	(.L30-.L29)/2
 370 0124 94       		.byte	(.L66-.L29)/2
 371 0125 94       		.byte	(.L66-.L29)/2
 372 0126 94       		.byte	(.L66-.L29)/2
 373 0127 94       		.byte	(.L66-.L29)/2
 374 0128 94       		.byte	(.L66-.L29)/2
 375 0129 90       		.byte	(.L31-.L29)/2
 376 012a 94       		.byte	(.L66-.L29)/2
 377 012b 94       		.byte	(.L66-.L29)/2
 378 012c 92       		.byte	(.L69-.L29)/2
 379 012d 94       		.byte	(.L66-.L29)/2
 380 012e 94       		.byte	(.L66-.L29)/2
 381 012f 94       		.byte	(.L66-.L29)/2
 382 0130 94       		.byte	(.L66-.L29)/2
 383 0131 94       		.byte	(.L66-.L29)/2
 384 0132 94       		.byte	(.L66-.L29)/2
 385 0133 94       		.byte	(.L66-.L29)/2
 386 0134 94       		.byte	(.L66-.L29)/2
 387 0135 94       		.byte	(.L66-.L29)/2
 388 0136 94       		.byte	(.L66-.L29)/2
 389 0137 48       		.byte	(.L33-.L29)/2
 390 0138 82       		.byte	(.L44-.L29)/2
 391 0139 94       		.byte	(.L66-.L29)/2
 392 013a 94       		.byte	(.L66-.L29)/2
 393 013b 94       		.byte	(.L66-.L29)/2
 394 013c 94       		.byte	(.L66-.L29)/2
 395 013d 82       		.byte	(.L44-.L29)/2
 396 013e 94       		.byte	(.L66-.L29)/2
 397 013f 94       		.byte	(.L66-.L29)/2
 398 0140 94       		.byte	(.L66-.L29)/2
 399 0141 94       		.byte	(.L66-.L29)/2
ARM GAS  /tmp/ccki0zeP.s 			page 8


 400 0142 94       		.byte	(.L66-.L29)/2
 401 0143 77       		.byte	(.L30-.L29)/2
 402 0144 94       		.byte	(.L66-.L29)/2
 403 0145 94       		.byte	(.L66-.L29)/2
 404 0146 94       		.byte	(.L66-.L29)/2
 405 0147 1B       		.byte	(.L34-.L29)/2
 406 0148 94       		.byte	(.L66-.L29)/2
 407 0149 90       		.byte	(.L31-.L29)/2
 408 014a 94       		.byte	(.L66-.L29)/2
 409 014b 94       		.byte	(.L66-.L29)/2
 410 014c 92       		.byte	(.L69-.L29)/2
 411              	.LVL48:
 412 014d 00       		.p2align 1
 413              	.L34:
 414              		.loc 1 186 0
 415 014e 3768     		ldr	r7, [r6]
 416              		.loc 1 187 0
 417 0150 544A     		ldr	r2, .L102
 418 0152 002F     		cmp	r7, #0
 419 0154 08BF     		it	eq
 420 0156 1746     		moveq	r7, r2
 421              		.loc 1 186 0
 422 0158 0436     		adds	r6, r6, #4
 423              	.LVL49:
 424              		.loc 1 190 0
 425 015a 3A78     		ldrb	r2, [r7]	@ zero_extendqisi2
 426              		.loc 1 188 0
 427 015c 0028     		cmp	r0, #0
 428 015e 7CD0     		beq	.L40
 429              	.LVL50:
 430              		.loc 1 190 0 discriminator 1
 431 0160 002A     		cmp	r2, #0
 432 0162 7ED0     		beq	.L41
 433              		.loc 1 190 0 is_stmt 0
 434 0164 0138     		subs	r0, r0, #1
 435              	.LVL51:
 436              	.L58:
 437              		.loc 1 190 0 discriminator 4
 438 0166 3A46     		mov	r2, r7
 439 0168 01E0     		b	.L43
 440              	.LVL52:
 441              	.L98:
 442              		.loc 1 190 0 discriminator 3
 443 016a 0138     		subs	r0, r0, #1
 444              	.LVL53:
 445 016c 03D4     		bmi	.L90
 446              	.LVL54:
 447              	.L43:
 448              		.loc 1 190 0 discriminator 4
 449 016e 12F8011F 		ldrb	r1, [r2, #1]!	@ zero_extendqisi2
 450              	.LVL55:
 451 0172 0029     		cmp	r1, #0
 452 0174 F9D1     		bne	.L98
 453              	.LVL56:
 454              	.L90:
 455 0176 D01B     		subs	r0, r2, r7
 456              		.loc 1 240 0 is_stmt 1
ARM GAS  /tmp/ccki0zeP.s 			page 9


 457 0178 2D1A     		subs	r5, r5, r0
 458              	.LVL57:
 459 017a 421E     		subs	r2, r0, #1
 460              	.LVL58:
 461              		.loc 1 185 0
 462 017c 4FF02008 		mov	r8, #32
 463              	.LVL59:
 464 0180 25EAE575 		bic	r5, r5, r5, asr #31
 465              	.LVL60:
 466              		.loc 1 242 0
 467 0184 BAF1000F 		cmp	r10, #0
 468 0188 1ED0     		beq	.L99
 469              	.L49:
 470              	.LVL61:
 471              		.loc 1 253 0
 472 018a B2F1000A 		subs	r10, r2, #0
 473              	.LVL62:
 474 018e 2DDA     		bge	.L55
 475              	.LVL63:
 476              	.L54:
 477              		.loc 1 256 0
 478 0190 002D     		cmp	r5, #0
 479 0192 3FF442AF 		beq	.L12
 480              	.L56:
 481              		.loc 1 257 0
 482 0196 DBF80020 		ldr	r2, [fp]
 483 019a 5846     		mov	r0, fp
 484 019c 9268     		ldr	r2, [r2, #8]
 485 019e 4146     		mov	r1, r8
 486 01a0 9047     		blx	r2
 487              	.LVL64:
 488              		.loc 1 256 0
 489 01a2 013D     		subs	r5, r5, #1
 490              	.LVL65:
 491 01a4 F7D1     		bne	.L56
 492 01a6 38E7     		b	.L12
 493              	.LVL66:
 494              	.L33:
 495 01a8 019B     		ldr	r3, [sp, #4]
 496              		.loc 1 182 0
 497 01aa 3268     		ldr	r2, [r6]
 498 01ac 8DF80C20 		strb	r2, [sp, #12]
 499 01b0 0436     		adds	r6, r6, #4
 500 01b2 1846     		mov	r0, r3
 501              	.LVL67:
 502 01b4 5A1E     		subs	r2, r3, #1
 503              		.loc 1 181 0
 504 01b6 4FF02008 		mov	r8, #32
 505              		.loc 1 133 0
 506 01ba 4F46     		mov	r7, r9
 507              	.LVL68:
 508              	.L38:
 509              		.loc 1 240 0
 510 01bc 2D1A     		subs	r5, r5, r0
 511              	.LVL69:
 512 01be 25EAE575 		bic	r5, r5, r5, asr #31
 513              	.LVL70:
ARM GAS  /tmp/ccki0zeP.s 			page 10


 514              		.loc 1 242 0
 515 01c2 BAF1000F 		cmp	r10, #0
 516 01c6 E0D1     		bne	.L49
 517              	.L99:
 518 01c8 9246     		mov	r10, r2
 519              	.LVL71:
 520              	.L60:
 521              		.loc 1 243 0
 522 01ca 6D42     		negs	r5, r5
 523              	.LVL72:
 524              		.loc 1 244 0
 525 01cc 55B1     		cbz	r5, .L50
 526              		.loc 1 245 0
 527 01ce 3978     		ldrb	r1, [r7]	@ zero_extendqisi2
 528 01d0 2D29     		cmp	r1, #45
 529 01d2 50D0     		beq	.L100
 530              	.LVL73:
 531              	.L52:
 532              		.loc 1 250 0 discriminator 1
 533 01d4 DBF80010 		ldr	r1, [fp]
 534 01d8 5846     		mov	r0, fp
 535 01da 8B68     		ldr	r3, [r1, #8]
 536 01dc 4146     		mov	r1, r8
 537 01de 9847     		blx	r3
 538              	.LVL74:
 539              		.loc 1 251 0 discriminator 1
 540 01e0 0135     		adds	r5, r5, #1
 541              	.LVL75:
 542 01e2 F7D1     		bne	.L52
 543              	.L50:
 544              	.LVL76:
 545              		.loc 1 253 0
 546 01e4 BAF1000F 		cmp	r10, #0
 547 01e8 FFF617AF 		blt	.L12
 548              	.LVL77:
 549              	.L55:
 550              		.loc 1 254 0
 551 01ec DBF80000 		ldr	r0, [fp]
 552 01f0 17F8011B 		ldrb	r1, [r7], #1	@ zero_extendqisi2
 553              	.LVL78:
 554 01f4 8368     		ldr	r3, [r0, #8]
 555              		.loc 1 253 0
 556 01f6 0AF1FF3A 		add	r10, r10, #-1
 557              	.LVL79:
 558              		.loc 1 254 0
 559 01fa 5846     		mov	r0, fp
 560 01fc 9847     		blx	r3
 561              	.LVL80:
 562              		.loc 1 253 0
 563 01fe BAF1FF3F 		cmp	r10, #-1
 564 0202 F3D1     		bne	.L55
 565 0204 C4E7     		b	.L54
 566              	.LVL81:
 567              	.L30:
 568 0206 0822     		movs	r2, #8
 569              	.LVL82:
 570              	.L91:
ARM GAS  /tmp/ccki0zeP.s 			page 11


 571              		.loc 1 232 0
 572 0208 3168     		ldr	r1, [r6]
 573              	.LVL83:
 574              	.LBB6:
 575              	.LBB7:
 576              		.loc 1 72 0
 577 020a 4846     		mov	r0, r9
 578              	.LVL84:
 579 020c FFF7FEFF 		bl	long_to_string_with_divisor.constprop.0
 580              	.LVL85:
 581 0210 C9EB0000 		rsb	r0, r9, r0
 582              	.LBE7:
 583              	.LBE6:
 584              		.loc 1 232 0
 585 0214 0436     		adds	r6, r6, #4
 586              	.LVL86:
 587 0216 421E     		subs	r2, r0, #1
 588              		.loc 1 133 0
 589 0218 4F46     		mov	r7, r9
 590              		.loc 1 234 0
 591 021a CFE7     		b	.L38
 592              	.LVL87:
 593              	.L44:
 594              		.loc 1 200 0
 595 021c 3168     		ldr	r1, [r6]
 596              	.LVL88:
 597              		.loc 1 201 0
 598 021e 0029     		cmp	r1, #0
 599              		.loc 1 200 0
 600 0220 06F10406 		add	r6, r6, #4
 601              		.loc 1 201 0
 602 0224 33DB     		blt	.L101
 603              		.loc 1 132 0
 604 0226 4846     		mov	r0, r9
 605              	.LVL89:
 606              	.L46:
 607              	.LBB8:
 608              	.LBB9:
 609              		.loc 1 72 0
 610 0228 0A22     		movs	r2, #10
 611 022a FFF7FEFF 		bl	long_to_string_with_divisor.constprop.0
 612              	.LVL90:
 613 022e C9EB0000 		rsb	r0, r9, r0
 614 0232 421E     		subs	r2, r0, #1
 615              	.LBE9:
 616              	.LBE8:
 617              		.loc 1 133 0
 618 0234 4F46     		mov	r7, r9
 619              		.loc 1 206 0
 620 0236 C1E7     		b	.L38
 621              	.LVL91:
 622              	.L31:
 623              		.loc 1 224 0
 624 0238 0A22     		movs	r2, #10
 625 023a E5E7     		b	.L91
 626              	.LVL92:
 627              	.L69:
ARM GAS  /tmp/ccki0zeP.s 			page 12


 628              	.L37:
 629              		.loc 1 179 0
 630 023c 1022     		movs	r2, #16
 631 023e E3E7     		b	.L91
 632              	.LVL93:
 633              	.L66:
 634 0240 1146     		mov	r1, r2
 635              	.LVL94:
 636              	.L27:
 637 0242 019B     		ldr	r3, [sp, #4]
 638              		.loc 1 236 0
 639 0244 8DF80C10 		strb	r1, [sp, #12]
 640 0248 1846     		mov	r0, r3
 641              	.LVL95:
 642 024a 5A1E     		subs	r2, r3, #1
 643              		.loc 1 133 0
 644 024c 4F46     		mov	r7, r9
 645              		.loc 1 237 0
 646 024e B5E7     		b	.L38
 647              	.LVL96:
 648              	.L17:
 649 0250 6978     		ldrb	r1, [r5, #1]	@ zero_extendqisi2
 650              		.loc 1 142 0
 651 0252 4FF03008 		mov	r8, #48
 652              		.loc 1 141 0
 653 0256 0135     		adds	r5, r5, #1
 654              	.LVL97:
 655 0258 02E7     		b	.L18
 656              	.LVL98:
 657              	.L40:
 658              		.loc 1 190 0
 659 025a 47F6FE70 		movw	r0, #32766
 660 025e 002A     		cmp	r2, #0
 661 0260 81D1     		bne	.L58
 662              	.LVL99:
 663              	.L41:
 664 0262 25EAE575 		bic	r5, r5, r5, asr #31
 665              	.LVL100:
 666              		.loc 1 242 0
 667 0266 BAF1000F 		cmp	r10, #0
 668 026a 17D1     		bne	.L72
 669 026c 4FF0FF3A 		mov	r10, #-1
 670              	.LVL101:
 671 0270 4FF02008 		mov	r8, #32
 672 0274 A9E7     		b	.L60
 673              	.LVL102:
 674              	.L100:
 675              		.loc 1 245 0 discriminator 1
 676 0276 B8F1300F 		cmp	r8, #48
 677 027a ABD1     		bne	.L52
 678              		.loc 1 246 0
 679 027c DBF80000 		ldr	r0, [fp]
 680 0280 8368     		ldr	r3, [r0, #8]
 681 0282 5846     		mov	r0, fp
 682 0284 9847     		blx	r3
 683              	.LVL103:
 684 0286 0137     		adds	r7, r7, #1
ARM GAS  /tmp/ccki0zeP.s 			page 13


 685              	.LVL104:
 686 0288 0AF1FF3A 		add	r10, r10, #-1
 687              	.LVL105:
 688 028c A2E7     		b	.L52
 689              	.LVL106:
 690              	.L101:
 691              		.loc 1 202 0
 692 028e 2D22     		movs	r2, #45
 693              		.loc 1 203 0
 694 0290 4942     		negs	r1, r1
 695              	.LVL107:
 696              		.loc 1 202 0
 697 0292 8DF80C20 		strb	r2, [sp, #12]
 698 0296 0DF10D00 		add	r0, sp, #13
 699              	.LVL108:
 700 029a C5E7     		b	.L46
 701              	.LVL109:
 702              	.L72:
 703              		.loc 1 242 0
 704 029c 4FF02008 		mov	r8, #32
 705 02a0 76E7     		b	.L54
 706              	.L103:
 707 02a2 00BF     		.align	2
 708              	.L102:
 709 02a4 00000000 		.word	.LC0
 710              		.cfi_endproc
 711              	.LFE10:
 712              		.size	chvprintf, .-chvprintf
 713              		.section	.text.chsnprintf,"ax",%progbits
 714              		.align	2
 715              		.p2align 4,,15
 716              		.global	chsnprintf
 717              		.thumb
 718              		.thumb_func
 719              		.type	chsnprintf, %function
 720              	chsnprintf:
 721              	.LFB11:
 722              		.loc 1 288 0
 723              		.cfi_startproc
 724              		@ args = 4, pretend = 8, frame = 24
 725              		@ frame_needed = 0, uses_anonymous_args = 1
 726              	.LVL110:
 727 0000 0CB4     		push	{r2, r3}
 728              		.cfi_def_cfa_offset 8
 729              		.cfi_offset 2, -8
 730              		.cfi_offset 3, -4
 731 0002 70B5     		push	{r4, r5, r6, lr}
 732              		.cfi_def_cfa_offset 24
 733              		.cfi_offset 4, -24
 734              		.cfi_offset 5, -20
 735              		.cfi_offset 6, -16
 736              		.cfi_offset 14, -12
 737 0004 86B0     		sub	sp, sp, #24
 738              		.cfi_def_cfa_offset 48
 739              		.loc 1 288 0
 740 0006 0AAC     		add	r4, sp, #40
 741 0008 0546     		mov	r5, r0
ARM GAS  /tmp/ccki0zeP.s 			page 14


 742 000a 54F8046B 		ldr	r6, [r4], #4
 743              		.loc 1 295 0
 744 000e 4A1E     		subs	r2, r1, #1
 745 0010 0023     		movs	r3, #0
 746 0012 0146     		mov	r1, r0
 747              	.LVL111:
 748 0014 01A8     		add	r0, sp, #4
 749              	.LVL112:
 750 0016 FFF7FEFF 		bl	msObjectInit
 751              	.LVL113:
 752              		.loc 1 300 0
 753 001a 01A8     		add	r0, sp, #4
 754              	.LVL114:
 755 001c 3146     		mov	r1, r6
 756 001e 2246     		mov	r2, r4
 757              		.loc 1 299 0
 758 0020 0094     		str	r4, [sp]
 759              		.loc 1 300 0
 760 0022 FFF7FEFF 		bl	chvprintf
 761              	.LVL115:
 762              		.loc 1 304 0
 763 0026 0498     		ldr	r0, [sp, #16]
 764 0028 0023     		movs	r3, #0
 765 002a 2B54     		strb	r3, [r5, r0]
 766              		.loc 1 306 0
 767 002c 06B0     		add	sp, sp, #24
 768              		.cfi_def_cfa_offset 24
 769              		@ sp needed
 770 002e BDE87040 		pop	{r4, r5, r6, lr}
 771              		.cfi_restore 14
 772              		.cfi_restore 6
 773              		.cfi_restore 5
 774              		.cfi_restore 4
 775              		.cfi_def_cfa_offset 8
 776              	.LVL116:
 777 0032 02B0     		add	sp, sp, #8
 778              		.cfi_restore 3
 779              		.cfi_restore 2
 780              		.cfi_def_cfa_offset 0
 781 0034 7047     		bx	lr
 782              		.cfi_endproc
 783              	.LFE11:
 784              		.size	chsnprintf, .-chsnprintf
 785              		.section	.rodata.str1.4,"aMS",%progbits,1
 786              		.align	2
 787              	.LC0:
 788 0000 286E756C 		.ascii	"(null)\000"
 788      6C2900
 789              		.text
 790              	.Letext0:
 791              		.file 2 "/d_drive/axoloti/platform_linux/lib/gcc/arm-none-eabi/4.9.3/include/stddef.h"
 792              		.file 3 "/d_drive/axoloti/platform_linux/arm-none-eabi/include/machine/_default_types.h"
 793              		.file 4 "/d_drive/axoloti/platform_linux/arm-none-eabi/include/sys/_stdint.h"
 794              		.file 5 "/d_drive/axoloti/platform_linux/../chibios/os/ports/GCC/ARMCMx/chtypes.h"
 795              		.file 6 "/d_drive/axoloti/platform_linux/../chibios/os/kernel/include/chstreams.h"
 796              		.file 7 "/d_drive/axoloti/platform_linux/lib/gcc/arm-none-eabi/4.9.3/include/stdarg.h"
 797              		.file 8 "<built-in>"
ARM GAS  /tmp/ccki0zeP.s 			page 15


 798              		.file 9 "/d_drive/axoloti/platform_linux/../chibios/os/various/memstreams.h"