ARM GAS  /tmp/ccsd5mUt.s 			page 1


   1              		.syntax unified
   2              		.cpu cortex-m4
   3              		.eabi_attribute 27, 1
   4              		.eabi_attribute 28, 1
   5              		.fpu fpv4-sp-d16
   6              		.eabi_attribute 20, 1
   7              		.eabi_attribute 21, 1
   8              		.eabi_attribute 23, 3
   9              		.eabi_attribute 24, 1
  10              		.eabi_attribute 25, 1
  11              		.eabi_attribute 26, 1
  12              		.eabi_attribute 30, 2
  13              		.eabi_attribute 34, 1
  14              		.eabi_attribute 18, 4
  15              		.thumb
  16              		.file	"chqueues.c"
  17              		.text
  18              	.Ltext0:
  19              		.cfi_sections	.debug_frame
  20              		.section	.text.qwait,"ax",%progbits
  21              		.align	2
  22              		.p2align 4,,15
  23              		.thumb
  24              		.thumb_func
  25              		.type	qwait, %function
  26              	qwait:
  27              	.LFB7:
  28              		.file 1 "/d_drive/axoloti/platform_linux/../chibios/os/kernel/src/chqueues.c"
  29              		.loc 1 70 0
  30              		.cfi_startproc
  31              		@ args = 0, pretend = 0, frame = 0
  32              		@ frame_needed = 0, uses_anonymous_args = 0
  33              		@ link register save eliminated.
  34              	.LVL0:
  35              		.loc 1 72 0
  36 0000 71B1     		cbz	r1, .L2
  37              		.loc 1 74 0
  38 0002 094B     		ldr	r3, .L5
  39 0004 9B69     		ldr	r3, [r3, #24]
  40              		.loc 1 70 0
  41 0006 10B4     		push	{r4}
  42              		.cfi_def_cfa_offset 4
  43              		.cfi_offset 4, -4
  44              		.loc 1 74 0
  45 0008 5862     		str	r0, [r3, #36]
  46              	.LVL1:
  47              	.LBB12:
  48              	.LBB13:
  49              		.file 2 "/d_drive/axoloti/platform_linux/../chibios/os/kernel/include/chinline.h"
  50              		.loc 2 55 0
  51 000a 4468     		ldr	r4, [r0, #4]
  52 000c 0246     		mov	r2, r0
  53 000e 83E81400 		stmia	r3, {r2, r4}
  54              	.LBE13:
  55              	.LBE12:
  56              		.loc 1 76 0
  57 0012 0D20     		movs	r0, #13
ARM GAS  /tmp/ccsd5mUt.s 			page 2


  58              	.LVL2:
  59              	.LBB15:
  60              	.LBB14:
  61              		.loc 2 56 0
  62 0014 5360     		str	r3, [r2, #4]
  63 0016 2360     		str	r3, [r4]
  64              	.LBE14:
  65              	.LBE15:
  66              		.loc 1 77 0
  67 0018 5DF8044B 		ldr	r4, [sp], #4
  68              		.cfi_restore 4
  69              		.cfi_def_cfa_offset 0
  70              		.loc 1 76 0
  71 001c FFF7FEBF 		b	chSchGoSleepTimeoutS
  72              	.LVL3:
  73              	.L2:
  74              		.loc 1 77 0
  75 0020 4FF0FF30 		mov	r0, #-1
  76              	.LVL4:
  77 0024 7047     		bx	lr
  78              	.L6:
  79 0026 00BF     		.align	2
  80              	.L5:
  81 0028 00000000 		.word	rlist
  82              		.cfi_endproc
  83              	.LFE7:
  84              		.size	qwait, .-qwait
  85              		.section	.text.chIQInit,"ax",%progbits
  86              		.align	2
  87              		.p2align 4,,15
  88              		.global	chIQInit
  89              		.thumb
  90              		.thumb_func
  91              		.type	chIQInit, %function
  92              	chIQInit:
  93              	.LFB8:
  94              		.loc 1 96 0
  95              		.cfi_startproc
  96              		@ args = 4, pretend = 0, frame = 0
  97              		@ frame_needed = 0, uses_anonymous_args = 0
  98              		@ link register save eliminated.
  99              	.LVL5:
 100 0000 30B4     		push	{r4, r5}
 101              		.cfi_def_cfa_offset 8
 102              		.cfi_offset 4, -8
 103              		.cfi_offset 5, -4
 104              		.loc 1 96 0
 105 0002 029C     		ldr	r4, [sp, #8]
 106              		.loc 1 103 0
 107 0004 0462     		str	r4, [r0, #32]
 108              		.loc 1 99 0
 109 0006 0025     		movs	r5, #0
 110              		.loc 1 101 0
 111 0008 0A44     		add	r2, r2, r1
 112              	.LVL6:
 113              		.loc 1 99 0
 114 000a 8560     		str	r5, [r0, #8]
ARM GAS  /tmp/ccsd5mUt.s 			page 3


 115              		.loc 1 101 0
 116 000c 0261     		str	r2, [r0, #16]
 117              		.loc 1 98 0
 118 000e 4060     		str	r0, [r0, #4]
 119 0010 0060     		str	r0, [r0]
 120              		.loc 1 100 0
 121 0012 4161     		str	r1, [r0, #20]
 122 0014 8161     		str	r1, [r0, #24]
 123 0016 C160     		str	r1, [r0, #12]
 124              		.loc 1 102 0
 125 0018 C361     		str	r3, [r0, #28]
 126              		.loc 1 104 0
 127 001a 30BC     		pop	{r4, r5}
 128              		.cfi_restore 5
 129              		.cfi_restore 4
 130              		.cfi_def_cfa_offset 0
 131              	.LVL7:
 132 001c 7047     		bx	lr
 133              		.cfi_endproc
 134              	.LFE8:
 135              		.size	chIQInit, .-chIQInit
 136 001e 00BF     		.section	.text.chIQResetI,"ax",%progbits
 137              		.align	2
 138              		.p2align 4,,15
 139              		.global	chIQResetI
 140              		.thumb
 141              		.thumb_func
 142              		.type	chIQResetI, %function
 143              	chIQResetI:
 144              	.LFB9:
 145              		.loc 1 117 0
 146              		.cfi_startproc
 147              		@ args = 0, pretend = 0, frame = 0
 148              		@ frame_needed = 0, uses_anonymous_args = 0
 149              	.LVL8:
 150 0000 38B5     		push	{r3, r4, r5, lr}
 151              		.cfi_def_cfa_offset 16
 152              		.cfi_offset 3, -16
 153              		.cfi_offset 4, -12
 154              		.cfi_offset 5, -8
 155              		.cfi_offset 14, -4
 156              		.loc 1 117 0
 157 0002 0446     		mov	r4, r0
 158              		.loc 1 123 0
 159 0004 0068     		ldr	r0, [r0]
 160              	.LVL9:
 161              		.loc 1 121 0
 162 0006 E368     		ldr	r3, [r4, #12]
 163 0008 6361     		str	r3, [r4, #20]
 164              		.loc 1 122 0
 165 000a 0022     		movs	r2, #0
 166              		.loc 1 123 0
 167 000c A042     		cmp	r0, r4
 168              		.loc 1 122 0
 169 000e A260     		str	r2, [r4, #8]
 170              		.loc 1 121 0
 171 0010 A361     		str	r3, [r4, #24]
ARM GAS  /tmp/ccsd5mUt.s 			page 4


 172              		.loc 1 123 0
 173 0012 0AD0     		beq	.L9
 174              		.loc 1 124 0
 175 0014 6FF00105 		mvn	r5, #1
 176              	.L11:
 177              	.LVL10:
 178              	.LBB16:
 179              	.LBB17:
 180              		.loc 2 62 0
 181 0018 0368     		ldr	r3, [r0]
 182 001a 2360     		str	r3, [r4]
 183 001c 5C60     		str	r4, [r3, #4]
 184              	.LBE17:
 185              	.LBE16:
 186              		.loc 1 124 0
 187 001e FFF7FEFF 		bl	chSchReadyI
 188              	.LVL11:
 189 0022 4562     		str	r5, [r0, #36]
 190              		.loc 1 123 0
 191 0024 2068     		ldr	r0, [r4]
 192 0026 A042     		cmp	r0, r4
 193 0028 F6D1     		bne	.L11
 194              	.LVL12:
 195              	.L9:
 196 002a 38BD     		pop	{r3, r4, r5, pc}
 197              		.cfi_endproc
 198              	.LFE9:
 199              		.size	chIQResetI, .-chIQResetI
 200              		.section	.text.chIQPutI,"ax",%progbits
 201              		.align	2
 202              		.p2align 4,,15
 203              		.global	chIQPutI
 204              		.thumb
 205              		.thumb_func
 206              		.type	chIQPutI, %function
 207              	chIQPutI:
 208              	.LFB10:
 209              		.loc 1 140 0
 210              		.cfi_startproc
 211              		@ args = 0, pretend = 0, frame = 0
 212              		@ frame_needed = 0, uses_anonymous_args = 0
 213              	.LVL13:
 214 0000 0346     		mov	r3, r0
 215              		.loc 1 144 0
 216 0002 4069     		ldr	r0, [r0, #20]
 217              	.LVL14:
 218 0004 9A69     		ldr	r2, [r3, #24]
 219 0006 9042     		cmp	r0, r2
 220              		.loc 1 140 0
 221 0008 10B5     		push	{r4, lr}
 222              		.cfi_def_cfa_offset 8
 223              		.cfi_offset 4, -8
 224              		.cfi_offset 14, -4
 225              		.loc 1 144 0
 226 000a 9A68     		ldr	r2, [r3, #8]
 227 000c 1BD0     		beq	.L25
 228              	.L18:
ARM GAS  /tmp/ccsd5mUt.s 			page 5


 229              		.loc 1 147 0
 230 000e 0132     		adds	r2, r2, #1
 231              		.loc 1 148 0
 232 0010 441C     		adds	r4, r0, #1
 233              		.loc 1 147 0
 234 0012 9A60     		str	r2, [r3, #8]
 235              		.loc 1 148 0
 236 0014 5C61     		str	r4, [r3, #20]
 237 0016 0170     		strb	r1, [r0]
 238              		.loc 1 149 0
 239 0018 5969     		ldr	r1, [r3, #20]
 240              	.LVL15:
 241 001a 1A69     		ldr	r2, [r3, #16]
 242 001c 9142     		cmp	r1, r2
 243 001e 0BD2     		bcs	.L19
 244              		.loc 1 152 0
 245 0020 1868     		ldr	r0, [r3]
 246              	.LVL16:
 247 0022 9842     		cmp	r0, r3
 248 0024 0DD0     		beq	.L22
 249              	.LVL17:
 250              	.L26:
 251              	.LBB18:
 252              	.LBB19:
 253              		.loc 2 62 0
 254 0026 0268     		ldr	r2, [r0]
 255 0028 1A60     		str	r2, [r3]
 256 002a 5360     		str	r3, [r2, #4]
 257              	.LBE19:
 258              	.LBE18:
 259              		.loc 1 153 0
 260 002c FFF7FEFF 		bl	chSchReadyI
 261              	.LVL18:
 262 0030 0023     		movs	r3, #0
 263 0032 4362     		str	r3, [r0, #36]
 264              		.loc 1 155 0
 265 0034 1846     		mov	r0, r3
 266 0036 10BD     		pop	{r4, pc}
 267              	.LVL19:
 268              	.L19:
 269              		.loc 1 152 0
 270 0038 1868     		ldr	r0, [r3]
 271              	.LVL20:
 272              		.loc 1 150 0
 273 003a DA68     		ldr	r2, [r3, #12]
 274 003c 5A61     		str	r2, [r3, #20]
 275              	.LVL21:
 276              		.loc 1 152 0
 277 003e 9842     		cmp	r0, r3
 278 0040 F1D1     		bne	.L26
 279              	.L22:
 280              		.loc 1 155 0
 281 0042 0020     		movs	r0, #0
 282 0044 10BD     		pop	{r4, pc}
 283              	.LVL22:
 284              	.L25:
 285              		.loc 1 144 0 discriminator 1
ARM GAS  /tmp/ccsd5mUt.s 			page 6


 286 0046 002A     		cmp	r2, #0
 287 0048 E1D0     		beq	.L18
 288              		.loc 1 145 0
 289 004a 6FF00300 		mvn	r0, #3
 290 004e 10BD     		pop	{r4, pc}
 291              		.cfi_endproc
 292              	.LFE10:
 293              		.size	chIQPutI, .-chIQPutI
 294              		.section	.text.chIQGetTimeout,"ax",%progbits
 295              		.align	2
 296              		.p2align 4,,15
 297              		.global	chIQGetTimeout
 298              		.thumb
 299              		.thumb_func
 300              		.type	chIQGetTimeout, %function
 301              	chIQGetTimeout:
 302              	.LFB11:
 303              		.loc 1 178 0
 304              		.cfi_startproc
 305              		@ args = 0, pretend = 0, frame = 0
 306              		@ frame_needed = 0, uses_anonymous_args = 0
 307              	.LVL23:
 308 0000 70B5     		push	{r4, r5, r6, lr}
 309              		.cfi_def_cfa_offset 16
 310              		.cfi_offset 4, -16
 311              		.cfi_offset 5, -12
 312              		.cfi_offset 6, -8
 313              		.cfi_offset 14, -4
 314              	.LBB20:
 315              		.loc 1 181 0
 316 0002 2023     		movs	r3, #32
 317              	.LBE20:
 318              		.loc 1 178 0
 319 0004 0E46     		mov	r6, r1
 320 0006 0446     		mov	r4, r0
 321              	.LBB21:
 322              		.loc 1 181 0
 323              	@ 181 "/d_drive/axoloti/platform_linux/../chibios/os/kernel/src/chqueues.c" 1
 324 0008 83F31188 		msr     BASEPRI, r3
 325              	@ 0 "" 2
 326              		.thumb
 327              	.LBE21:
 328              		.loc 1 182 0
 329 000c C369     		ldr	r3, [r0, #28]
 330 000e 2BB1     		cbz	r3, .L29
 331              		.loc 1 183 0
 332 0010 9847     		blx	r3
 333              	.LVL24:
 334 0012 03E0     		b	.L29
 335              	.LVL25:
 336              	.L31:
 337              	.LBB22:
 338              		.loc 1 187 0
 339 0014 FFF7FEFF 		bl	qwait
 340              	.LVL26:
 341 0018 0028     		cmp	r0, #0
 342 001a 15DB     		blt	.L38
ARM GAS  /tmp/ccsd5mUt.s 			page 7


 343              	.LVL27:
 344              	.L29:
 345              	.LBE22:
 346              		.loc 1 185 0
 347 001c A568     		ldr	r5, [r4, #8]
 348              	.LBB24:
 349              		.loc 1 187 0
 350 001e 2046     		mov	r0, r4
 351 0020 3146     		mov	r1, r6
 352              	.LBE24:
 353              		.loc 1 185 0
 354 0022 002D     		cmp	r5, #0
 355 0024 F6D0     		beq	.L31
 356              	.LVL28:
 357              		.loc 1 194 0
 358 0026 A269     		ldr	r2, [r4, #24]
 359              		.loc 1 195 0
 360 0028 2169     		ldr	r1, [r4, #16]
 361              	.LVL29:
 362              		.loc 1 194 0
 363 002a 531C     		adds	r3, r2, #1
 364              		.loc 1 195 0
 365 002c 8B42     		cmp	r3, r1
 366              		.loc 1 193 0
 367 002e 05F1FF35 		add	r5, r5, #-1
 368              		.loc 1 194 0
 369 0032 A361     		str	r3, [r4, #24]
 370              		.loc 1 193 0
 371 0034 A560     		str	r5, [r4, #8]
 372              		.loc 1 196 0
 373 0036 28BF     		it	cs
 374 0038 E368     		ldrcs	r3, [r4, #12]
 375              		.loc 1 194 0
 376 003a 1078     		ldrb	r0, [r2]	@ zero_extendqisi2
 377              	.LVL30:
 378              		.loc 1 196 0
 379 003c 28BF     		it	cs
 380 003e A361     		strcs	r3, [r4, #24]
 381              	.LBB25:
 382              		.loc 1 198 0
 383 0040 0023     		movs	r3, #0
 384              	@ 198 "/d_drive/axoloti/platform_linux/../chibios/os/kernel/src/chqueues.c" 1
 385 0042 83F31188 		msr     BASEPRI, r3
 386              	@ 0 "" 2
 387              		.thumb
 388              	.LBE25:
 389              		.loc 1 200 0
 390 0046 70BD     		pop	{r4, r5, r6, pc}
 391              	.LVL31:
 392              	.L38:
 393              	.LBB26:
 394              	.LBB23:
 395              		.loc 1 188 0
 396 0048 2B46     		mov	r3, r5
 397              	@ 188 "/d_drive/axoloti/platform_linux/../chibios/os/kernel/src/chqueues.c" 1
 398 004a 83F31188 		msr     BASEPRI, r3
 399              	@ 0 "" 2
ARM GAS  /tmp/ccsd5mUt.s 			page 8


 400              		.thumb
 401              	.LBE23:
 402              		.loc 1 189 0
 403 004e 70BD     		pop	{r4, r5, r6, pc}
 404              	.LBE26:
 405              		.cfi_endproc
 406              	.LFE11:
 407              		.size	chIQGetTimeout, .-chIQGetTimeout
 408              		.section	.text.chIQReadTimeout,"ax",%progbits
 409              		.align	2
 410              		.p2align 4,,15
 411              		.global	chIQReadTimeout
 412              		.thumb
 413              		.thumb_func
 414              		.type	chIQReadTimeout, %function
 415              	chIQReadTimeout:
 416              	.LFB12:
 417              		.loc 1 227 0
 418              		.cfi_startproc
 419              		@ args = 0, pretend = 0, frame = 0
 420              		@ frame_needed = 0, uses_anonymous_args = 0
 421              	.LVL32:
 422 0000 2DE9F047 		push	{r4, r5, r6, r7, r8, r9, r10, lr}
 423              		.cfi_def_cfa_offset 32
 424              		.cfi_offset 4, -32
 425              		.cfi_offset 5, -28
 426              		.cfi_offset 6, -24
 427              		.cfi_offset 7, -20
 428              		.cfi_offset 8, -16
 429              		.cfi_offset 9, -12
 430              		.cfi_offset 10, -8
 431              		.cfi_offset 14, -4
 432              		.loc 1 227 0
 433 0004 1E46     		mov	r6, r3
 434 0006 0446     		mov	r4, r0
 435 0008 8946     		mov	r9, r1
 436 000a 9246     		mov	r10, r2
 437              		.loc 1 228 0
 438 000c D0F81C80 		ldr	r8, [r0, #28]
 439              	.LVL33:
 440              	.LBB27:
 441              		.loc 1 233 0
 442 0010 2023     		movs	r3, #32
 443              	.LVL34:
 444              	@ 233 "/d_drive/axoloti/platform_linux/../chibios/os/kernel/src/chqueues.c" 1
 445 0012 83F31188 		msr     BASEPRI, r3
 446              	@ 0 "" 2
 447              		.thumb
 448              	.LBE27:
 449              		.loc 1 229 0
 450 0016 0027     		movs	r7, #0
 451              	.LVL35:
 452              	.L45:
 453              		.loc 1 235 0
 454 0018 B8F1000F 		cmp	r8, #0
 455 001c 05D0     		beq	.L41
 456              		.loc 1 236 0
ARM GAS  /tmp/ccsd5mUt.s 			page 9


 457 001e 2046     		mov	r0, r4
 458              	.LVL36:
 459 0020 C047     		blx	r8
 460              	.LVL37:
 461 0022 02E0     		b	.L41
 462              	.LVL38:
 463              	.L43:
 464              		.loc 1 239 0
 465 0024 FFF7FEFF 		bl	qwait
 466              	.LVL39:
 467 0028 E0B9     		cbnz	r0, .L52
 468              	.L41:
 469              		.loc 1 238 0
 470 002a A568     		ldr	r5, [r4, #8]
 471              		.loc 1 239 0
 472 002c 2046     		mov	r0, r4
 473 002e 3146     		mov	r1, r6
 474              		.loc 1 238 0
 475 0030 002D     		cmp	r5, #0
 476 0032 F7D0     		beq	.L43
 477              	.LVL40:
 478              		.loc 1 246 0
 479 0034 A369     		ldr	r3, [r4, #24]
 480              		.loc 1 245 0
 481 0036 013D     		subs	r5, r5, #1
 482              		.loc 1 246 0
 483 0038 5A1C     		adds	r2, r3, #1
 484 003a A261     		str	r2, [r4, #24]
 485              		.loc 1 245 0
 486 003c A560     		str	r5, [r4, #8]
 487              		.loc 1 246 0
 488 003e 1B78     		ldrb	r3, [r3]	@ zero_extendqisi2
 489 0040 09F8013B 		strb	r3, [r9], #1
 490              	.LVL41:
 491              		.loc 1 247 0
 492 0044 2369     		ldr	r3, [r4, #16]
 493 0046 A269     		ldr	r2, [r4, #24]
 494 0048 9A42     		cmp	r2, r3
 495              		.loc 1 248 0
 496 004a 24BF     		itt	cs
 497 004c E368     		ldrcs	r3, [r4, #12]
 498 004e A361     		strcs	r3, [r4, #24]
 499              	.LBB28:
 500              		.loc 1 250 0
 501 0050 0023     		movs	r3, #0
 502              	@ 250 "/d_drive/axoloti/platform_linux/../chibios/os/kernel/src/chqueues.c" 1
 503 0052 83F31188 		msr     BASEPRI, r3
 504              	@ 0 "" 2
 505              		.thumb
 506              	.LBE28:
 507              		.loc 1 251 0
 508 0056 0137     		adds	r7, r7, #1
 509              	.LVL42:
 510              		.loc 1 252 0
 511 0058 BA45     		cmp	r10, r7
 512 005a 06D0     		beq	.L42
 513              	.LBB29:
ARM GAS  /tmp/ccsd5mUt.s 			page 10


 514              		.loc 1 255 0
 515 005c 2023     		movs	r3, #32
 516              	@ 255 "/d_drive/axoloti/platform_linux/../chibios/os/kernel/src/chqueues.c" 1
 517 005e 83F31188 		msr     BASEPRI, r3
 518              	@ 0 "" 2
 519              		.thumb
 520              	.LBE29:
 521              		.loc 1 256 0
 522 0062 D9E7     		b	.L45
 523              	.LVL43:
 524              	.L52:
 525              	.LBB30:
 526              		.loc 1 240 0
 527 0064 2B46     		mov	r3, r5
 528              	@ 240 "/d_drive/axoloti/platform_linux/../chibios/os/kernel/src/chqueues.c" 1
 529 0066 83F31188 		msr     BASEPRI, r3
 530              	@ 0 "" 2
 531              	.LVL44:
 532              		.thumb
 533              	.L42:
 534              	.LBE30:
 535              		.loc 1 257 0
 536 006a 3846     		mov	r0, r7
 537 006c BDE8F087 		pop	{r4, r5, r6, r7, r8, r9, r10, pc}
 538              		.cfi_endproc
 539              	.LFE12:
 540              		.size	chIQReadTimeout, .-chIQReadTimeout
 541              		.section	.text.chOQInit,"ax",%progbits
 542              		.align	2
 543              		.p2align 4,,15
 544              		.global	chOQInit
 545              		.thumb
 546              		.thumb_func
 547              		.type	chOQInit, %function
 548              	chOQInit:
 549              	.LFB13:
 550              		.loc 1 276 0
 551              		.cfi_startproc
 552              		@ args = 4, pretend = 0, frame = 0
 553              		@ frame_needed = 0, uses_anonymous_args = 0
 554              		@ link register save eliminated.
 555              	.LVL45:
 556 0000 30B4     		push	{r4, r5}
 557              		.cfi_def_cfa_offset 8
 558              		.cfi_offset 4, -8
 559              		.cfi_offset 5, -4
 560              		.loc 1 276 0
 561 0002 029C     		ldr	r4, [sp, #8]
 562              		.loc 1 283 0
 563 0004 0462     		str	r4, [r0, #32]
 564              		.loc 1 281 0
 565 0006 8D18     		adds	r5, r1, r2
 566 0008 0561     		str	r5, [r0, #16]
 567              		.loc 1 278 0
 568 000a 4060     		str	r0, [r0, #4]
 569 000c 0060     		str	r0, [r0]
 570              		.loc 1 279 0
ARM GAS  /tmp/ccsd5mUt.s 			page 11


 571 000e 8260     		str	r2, [r0, #8]
 572              		.loc 1 280 0
 573 0010 4161     		str	r1, [r0, #20]
 574 0012 8161     		str	r1, [r0, #24]
 575 0014 C160     		str	r1, [r0, #12]
 576              		.loc 1 282 0
 577 0016 C361     		str	r3, [r0, #28]
 578              		.loc 1 284 0
 579 0018 30BC     		pop	{r4, r5}
 580              		.cfi_restore 5
 581              		.cfi_restore 4
 582              		.cfi_def_cfa_offset 0
 583              	.LVL46:
 584 001a 7047     		bx	lr
 585              		.cfi_endproc
 586              	.LFE13:
 587              		.size	chOQInit, .-chOQInit
 588              		.section	.text.chOQResetI,"ax",%progbits
 589              		.align	2
 590              		.p2align 4,,15
 591              		.global	chOQResetI
 592              		.thumb
 593              		.thumb_func
 594              		.type	chOQResetI, %function
 595              	chOQResetI:
 596              	.LFB14:
 597              		.loc 1 297 0
 598              		.cfi_startproc
 599              		@ args = 0, pretend = 0, frame = 0
 600              		@ frame_needed = 0, uses_anonymous_args = 0
 601              	.LVL47:
 602 0000 38B5     		push	{r3, r4, r5, lr}
 603              		.cfi_def_cfa_offset 16
 604              		.cfi_offset 3, -16
 605              		.cfi_offset 4, -12
 606              		.cfi_offset 5, -8
 607              		.cfi_offset 14, -4
 608              		.loc 1 301 0
 609 0002 C268     		ldr	r2, [r0, #12]
 610              		.loc 1 302 0
 611 0004 0369     		ldr	r3, [r0, #16]
 612              		.loc 1 297 0
 613 0006 0446     		mov	r4, r0
 614              		.loc 1 303 0
 615 0008 0068     		ldr	r0, [r0]
 616              	.LVL48:
 617              		.loc 1 301 0
 618 000a 6261     		str	r2, [r4, #20]
 619              		.loc 1 302 0
 620 000c 9B1A     		subs	r3, r3, r2
 621              		.loc 1 303 0
 622 000e A042     		cmp	r0, r4
 623              		.loc 1 301 0
 624 0010 A261     		str	r2, [r4, #24]
 625              		.loc 1 302 0
 626 0012 A360     		str	r3, [r4, #8]
 627              		.loc 1 303 0
ARM GAS  /tmp/ccsd5mUt.s 			page 12


 628 0014 0AD0     		beq	.L55
 629              		.loc 1 304 0
 630 0016 6FF00105 		mvn	r5, #1
 631              	.L57:
 632              	.LVL49:
 633              	.LBB31:
 634              	.LBB32:
 635              		.loc 2 62 0
 636 001a 0368     		ldr	r3, [r0]
 637 001c 2360     		str	r3, [r4]
 638 001e 5C60     		str	r4, [r3, #4]
 639              	.LBE32:
 640              	.LBE31:
 641              		.loc 1 304 0
 642 0020 FFF7FEFF 		bl	chSchReadyI
 643              	.LVL50:
 644 0024 4562     		str	r5, [r0, #36]
 645              		.loc 1 303 0
 646 0026 2068     		ldr	r0, [r4]
 647 0028 A042     		cmp	r0, r4
 648 002a F6D1     		bne	.L57
 649              	.LVL51:
 650              	.L55:
 651 002c 38BD     		pop	{r3, r4, r5, pc}
 652              		.cfi_endproc
 653              	.LFE14:
 654              		.size	chOQResetI, .-chOQResetI
 655 002e 00BF     		.section	.text.chOQPutTimeout,"ax",%progbits
 656              		.align	2
 657              		.p2align 4,,15
 658              		.global	chOQPutTimeout
 659              		.thumb
 660              		.thumb_func
 661              		.type	chOQPutTimeout, %function
 662              	chOQPutTimeout:
 663              	.LFB15:
 664              		.loc 1 329 0
 665              		.cfi_startproc
 666              		@ args = 0, pretend = 0, frame = 0
 667              		@ frame_needed = 0, uses_anonymous_args = 0
 668              	.LVL52:
 669 0000 F8B5     		push	{r3, r4, r5, r6, r7, lr}
 670              		.cfi_def_cfa_offset 24
 671              		.cfi_offset 3, -24
 672              		.cfi_offset 4, -20
 673              		.cfi_offset 5, -16
 674              		.cfi_offset 6, -12
 675              		.cfi_offset 7, -8
 676              		.cfi_offset 14, -4
 677              		.loc 1 329 0
 678 0002 0446     		mov	r4, r0
 679 0004 0F46     		mov	r7, r1
 680 0006 1646     		mov	r6, r2
 681              	.LBB33:
 682              		.loc 1 331 0
 683 0008 2023     		movs	r3, #32
 684              	@ 331 "/d_drive/axoloti/platform_linux/../chibios/os/kernel/src/chqueues.c" 1
ARM GAS  /tmp/ccsd5mUt.s 			page 13


 685 000a 83F31188 		msr     BASEPRI, r3
 686              	@ 0 "" 2
 687              		.thumb
 688              	.LBE33:
 689              		.loc 1 332 0
 690 000e 03E0     		b	.L62
 691              	.LVL53:
 692              	.L64:
 693              	.LBB34:
 694              		.loc 1 335 0
 695 0010 FFF7FEFF 		bl	qwait
 696              	.LVL54:
 697 0014 0028     		cmp	r0, #0
 698 0016 19DB     		blt	.L72
 699              	.LVL55:
 700              	.L62:
 701              	.LBE34:
 702              		.loc 1 332 0
 703 0018 A568     		ldr	r5, [r4, #8]
 704              	.LBB36:
 705              		.loc 1 335 0
 706 001a 2046     		mov	r0, r4
 707 001c 3146     		mov	r1, r6
 708              	.LBE36:
 709              		.loc 1 332 0
 710 001e 002D     		cmp	r5, #0
 711 0020 F6D0     		beq	.L64
 712              	.LVL56:
 713              		.loc 1 342 0
 714 0022 6369     		ldr	r3, [r4, #20]
 715              		.loc 1 341 0
 716 0024 013D     		subs	r5, r5, #1
 717              		.loc 1 342 0
 718 0026 5A1C     		adds	r2, r3, #1
 719 0028 6261     		str	r2, [r4, #20]
 720              		.loc 1 341 0
 721 002a A560     		str	r5, [r4, #8]
 722              		.loc 1 342 0
 723 002c 1F70     		strb	r7, [r3]
 724              		.loc 1 343 0
 725 002e 2369     		ldr	r3, [r4, #16]
 726 0030 6269     		ldr	r2, [r4, #20]
 727 0032 9A42     		cmp	r2, r3
 728              		.loc 1 344 0
 729 0034 24BF     		itt	cs
 730 0036 E368     		ldrcs	r3, [r4, #12]
 731 0038 6361     		strcs	r3, [r4, #20]
 732              		.loc 1 346 0
 733 003a E369     		ldr	r3, [r4, #28]
 734 003c 0BB1     		cbz	r3, .L66
 735              		.loc 1 347 0
 736 003e 2046     		mov	r0, r4
 737              	.LVL57:
 738 0040 9847     		blx	r3
 739              	.LVL58:
 740              	.L66:
 741              	.LBB37:
ARM GAS  /tmp/ccsd5mUt.s 			page 14


 742              		.loc 1 349 0
 743 0042 0023     		movs	r3, #0
 744              	@ 349 "/d_drive/axoloti/platform_linux/../chibios/os/kernel/src/chqueues.c" 1
 745 0044 83F31188 		msr     BASEPRI, r3
 746              	@ 0 "" 2
 747              		.thumb
 748              	.LBE37:
 749              		.loc 1 350 0
 750 0048 1846     		mov	r0, r3
 751              		.loc 1 351 0
 752 004a F8BD     		pop	{r3, r4, r5, r6, r7, pc}
 753              	.LVL59:
 754              	.L72:
 755              	.LBB38:
 756              	.LBB35:
 757              		.loc 1 336 0
 758 004c 2B46     		mov	r3, r5
 759              	@ 336 "/d_drive/axoloti/platform_linux/../chibios/os/kernel/src/chqueues.c" 1
 760 004e 83F31188 		msr     BASEPRI, r3
 761              	@ 0 "" 2
 762              		.thumb
 763              	.LBE35:
 764              		.loc 1 337 0
 765 0052 F8BD     		pop	{r3, r4, r5, r6, r7, pc}
 766              	.LBE38:
 767              		.cfi_endproc
 768              	.LFE15:
 769              		.size	chOQPutTimeout, .-chOQPutTimeout
 770              		.section	.text.chOQGetI,"ax",%progbits
 771              		.align	2
 772              		.p2align 4,,15
 773              		.global	chOQGetI
 774              		.thumb
 775              		.thumb_func
 776              		.type	chOQGetI, %function
 777              	chOQGetI:
 778              	.LFB16:
 779              		.loc 1 363 0
 780              		.cfi_startproc
 781              		@ args = 0, pretend = 0, frame = 0
 782              		@ frame_needed = 0, uses_anonymous_args = 0
 783              	.LVL60:
 784 0000 38B5     		push	{r3, r4, r5, lr}
 785              		.cfi_def_cfa_offset 16
 786              		.cfi_offset 3, -16
 787              		.cfi_offset 4, -12
 788              		.cfi_offset 5, -8
 789              		.cfi_offset 14, -4
 790              		.loc 1 368 0
 791 0002 8269     		ldr	r2, [r0, #24]
 792 0004 4369     		ldr	r3, [r0, #20]
 793 0006 9342     		cmp	r3, r2
 794 0008 8368     		ldr	r3, [r0, #8]
 795 000a 18D0     		beq	.L83
 796              	.L76:
 797              		.loc 1 373 0
 798 000c 0569     		ldr	r5, [r0, #16]
ARM GAS  /tmp/ccsd5mUt.s 			page 15


 799              		.loc 1 372 0
 800 000e 511C     		adds	r1, r2, #1
 801              		.loc 1 371 0
 802 0010 0133     		adds	r3, r3, #1
 803 0012 8360     		str	r3, [r0, #8]
 804              		.loc 1 372 0
 805 0014 8161     		str	r1, [r0, #24]
 806              		.loc 1 373 0
 807 0016 A942     		cmp	r1, r5
 808              		.loc 1 372 0
 809 0018 1478     		ldrb	r4, [r2]	@ zero_extendqisi2
 810              	.LVL61:
 811              		.loc 1 373 0
 812 001a 0DD2     		bcs	.L78
 813              	.L79:
 814              		.loc 1 376 0
 815 001c 0268     		ldr	r2, [r0]
 816 001e 8242     		cmp	r2, r0
 817 0020 08D0     		beq	.L77
 818              	.LBB39:
 819              	.LBB40:
 820              		.loc 2 62 0
 821 0022 1168     		ldr	r1, [r2]
 822 0024 0160     		str	r1, [r0]
 823 0026 0346     		mov	r3, r0
 824              	.LVL62:
 825 0028 4B60     		str	r3, [r1, #4]
 826              	.LBE40:
 827              	.LBE39:
 828              		.loc 1 377 0
 829 002a 1046     		mov	r0, r2
 830              	.LVL63:
 831 002c FFF7FEFF 		bl	chSchReadyI
 832              	.LVL64:
 833 0030 0023     		movs	r3, #0
 834 0032 4362     		str	r3, [r0, #36]
 835              	.LVL65:
 836              	.L77:
 837              		.loc 1 379 0
 838 0034 2046     		mov	r0, r4
 839 0036 38BD     		pop	{r3, r4, r5, pc}
 840              	.LVL66:
 841              	.L78:
 842              		.loc 1 374 0
 843 0038 C368     		ldr	r3, [r0, #12]
 844 003a 8361     		str	r3, [r0, #24]
 845 003c EEE7     		b	.L79
 846              	.LVL67:
 847              	.L83:
 848              		.loc 1 368 0 discriminator 1
 849 003e 002B     		cmp	r3, #0
 850 0040 E4D0     		beq	.L76
 851              		.loc 1 369 0
 852 0042 6FF00200 		mvn	r0, #2
 853              	.LVL68:
 854 0046 38BD     		pop	{r3, r4, r5, pc}
 855              		.cfi_endproc
ARM GAS  /tmp/ccsd5mUt.s 			page 16


 856              	.LFE16:
 857              		.size	chOQGetI, .-chOQGetI
 858              		.section	.text.chOQWriteTimeout,"ax",%progbits
 859              		.align	2
 860              		.p2align 4,,15
 861              		.global	chOQWriteTimeout
 862              		.thumb
 863              		.thumb_func
 864              		.type	chOQWriteTimeout, %function
 865              	chOQWriteTimeout:
 866              	.LFB17:
 867              		.loc 1 407 0
 868              		.cfi_startproc
 869              		@ args = 0, pretend = 0, frame = 0
 870              		@ frame_needed = 0, uses_anonymous_args = 0
 871              	.LVL69:
 872 0000 2DE9F84F 		push	{r3, r4, r5, r6, r7, r8, r9, r10, fp, lr}
 873              		.cfi_def_cfa_offset 40
 874              		.cfi_offset 3, -40
 875              		.cfi_offset 4, -36
 876              		.cfi_offset 5, -32
 877              		.cfi_offset 6, -28
 878              		.cfi_offset 7, -24
 879              		.cfi_offset 8, -20
 880              		.cfi_offset 9, -16
 881              		.cfi_offset 10, -12
 882              		.cfi_offset 11, -8
 883              		.cfi_offset 14, -4
 884              		.loc 1 407 0
 885 0004 9A46     		mov	r10, r3
 886 0006 0446     		mov	r4, r0
 887 0008 0E46     		mov	r6, r1
 888 000a 1746     		mov	r7, r2
 889              		.loc 1 408 0
 890 000c D0F81C90 		ldr	r9, [r0, #28]
 891              	.LVL70:
 892              	.LBB41:
 893              		.loc 1 413 0
 894 0010 2023     		movs	r3, #32
 895              	.LVL71:
 896              	@ 413 "/d_drive/axoloti/platform_linux/../chibios/os/kernel/src/chqueues.c" 1
 897 0012 83F31188 		msr     BASEPRI, r3
 898              	@ 0 "" 2
 899              		.thumb
 900              	.LBE41:
 901              		.loc 1 409 0
 902 0016 4FF00008 		mov	r8, #0
 903              	.LVL72:
 904              	.L85:
 905              		.loc 1 415 0
 906 001a A568     		ldr	r5, [r4, #8]
 907              		.loc 1 422 0
 908 001c 06F1010B 		add	fp, r6, #1
 909              	.LVL73:
 910              		.loc 1 421 0
 911 0020 6A1E     		subs	r2, r5, #1
 912              		.loc 1 427 0
ARM GAS  /tmp/ccsd5mUt.s 			page 17


 913 0022 2046     		mov	r0, r4
 914              		.loc 1 415 0
 915 0024 0DB3     		cbz	r5, .L88
 916              	.LVL74:
 917              	.L101:
 918              		.loc 1 422 0
 919 0026 6369     		ldr	r3, [r4, #20]
 920              		.loc 1 421 0
 921 0028 A260     		str	r2, [r4, #8]
 922              		.loc 1 422 0
 923 002a 5A1C     		adds	r2, r3, #1
 924 002c 6261     		str	r2, [r4, #20]
 925 002e 3278     		ldrb	r2, [r6]	@ zero_extendqisi2
 926 0030 1A70     		strb	r2, [r3]
 927              		.loc 1 423 0
 928 0032 2369     		ldr	r3, [r4, #16]
 929 0034 6269     		ldr	r2, [r4, #20]
 930 0036 9A42     		cmp	r2, r3
 931              		.loc 1 424 0
 932 0038 24BF     		itt	cs
 933 003a E368     		ldrcs	r3, [r4, #12]
 934 003c 6361     		strcs	r3, [r4, #20]
 935              		.loc 1 426 0
 936 003e B9F1000F 		cmp	r9, #0
 937 0042 00D0     		beq	.L90
 938              		.loc 1 427 0
 939 0044 C847     		blx	r9
 940              	.LVL75:
 941              	.L90:
 942              	.LBB42:
 943              		.loc 1 429 0
 944 0046 0023     		movs	r3, #0
 945              	@ 429 "/d_drive/axoloti/platform_linux/../chibios/os/kernel/src/chqueues.c" 1
 946 0048 83F31188 		msr     BASEPRI, r3
 947              	@ 0 "" 2
 948              		.thumb
 949              	.LBE42:
 950              		.loc 1 431 0
 951 004c 013F     		subs	r7, r7, #1
 952              	.LVL76:
 953              		.loc 1 430 0
 954 004e 08F10108 		add	r8, r8, #1
 955              	.LVL77:
 956              		.loc 1 431 0
 957 0052 13D0     		beq	.L87
 958              	.LBB43:
 959              		.loc 1 433 0
 960 0054 2023     		movs	r3, #32
 961              	@ 433 "/d_drive/axoloti/platform_linux/../chibios/os/kernel/src/chqueues.c" 1
 962 0056 83F31188 		msr     BASEPRI, r3
 963              	@ 0 "" 2
 964              		.thumb
 965              	.LBE43:
 966              		.loc 1 415 0
 967 005a A568     		ldr	r5, [r4, #8]
 968              		.loc 1 422 0
 969 005c 5E46     		mov	r6, fp
ARM GAS  /tmp/ccsd5mUt.s 			page 18


 970              	.LVL78:
 971              		.loc 1 421 0
 972 005e 6A1E     		subs	r2, r5, #1
 973              		.loc 1 422 0
 974 0060 06F1010B 		add	fp, r6, #1
 975              	.LVL79:
 976              		.loc 1 427 0
 977 0064 2046     		mov	r0, r4
 978              		.loc 1 415 0
 979 0066 002D     		cmp	r5, #0
 980 0068 DDD1     		bne	.L101
 981              	.LVL80:
 982              	.L88:
 983              		.loc 1 416 0
 984 006a 2046     		mov	r0, r4
 985              	.LVL81:
 986 006c 5146     		mov	r1, r10
 987 006e FFF7FEFF 		bl	qwait
 988              	.LVL82:
 989 0072 0028     		cmp	r0, #0
 990 0074 D1D0     		beq	.L85
 991              	.LBB44:
 992              		.loc 1 417 0
 993 0076 2B46     		mov	r3, r5
 994              	@ 417 "/d_drive/axoloti/platform_linux/../chibios/os/kernel/src/chqueues.c" 1
 995 0078 83F31188 		msr     BASEPRI, r3
 996              	@ 0 "" 2
 997              	.LVL83:
 998              		.thumb
 999              	.L87:
 1000              	.LBE44:
 1001              		.loc 1 435 0
 1002 007c 4046     		mov	r0, r8
 1003 007e BDE8F88F 		pop	{r3, r4, r5, r6, r7, r8, r9, r10, fp, pc}
 1004              		.cfi_endproc
 1005              	.LFE17:
 1006              		.size	chOQWriteTimeout, .-chOQWriteTimeout
 1007 0082 00BF     		.text
 1008              	.Letext0:
 1009              		.file 3 "/d_drive/axoloti/platform_linux/lib/gcc/arm-none-eabi/4.9.3/include/stddef.h"
 1010              		.file 4 "/d_drive/axoloti/platform_linux/arm-none-eabi/include/machine/_default_types.h"
 1011              		.file 5 "/d_drive/axoloti/platform_linux/arm-none-eabi/include/sys/_stdint.h"
 1012              		.file 6 "/d_drive/axoloti/platform_linux/../chibios/os/ports/GCC/ARMCMx/chtypes.h"
 1013              		.file 7 "/d_drive/axoloti/platform_linux/../chibios/os/kernel/include/chlists.h"
 1014              		.file 8 "/d_drive/axoloti/platform_linux/../chibios/os/kernel/include/chthreads.h"
 1015              		.file 9 "/d_drive/axoloti/platform_linux/../chibios/os/ports/GCC/ARMCMx/chcore_v7m.h"
 1016              		.file 10 "/d_drive/axoloti/platform_linux/../chibios/os/kernel/include/chschd.h"
 1017              		.file 11 "/d_drive/axoloti/platform_linux/../chibios/os/kernel/include/chmtx.h"
 1018              		.file 12 "/d_drive/axoloti/platform_linux/../chibios/os/kernel/include/chqueues.h"
 1019              		.section	.debug_info,"",%progbits
 1020              	.Ldebug_info0:
 1021 0000 580C0000 		.4byte	0xc58
 1022 0004 0400     		.2byte	0x4
 1023 0006 00000000 		.4byte	.Ldebug_abbrev0
 1024 000a 04       		.byte	0x4
 1025 000b 01       		.uleb128 0x1
 1026 000c 6C030000 		.4byte	.LASF92
ARM GAS  /tmp/ccsd5mUt.s 			page 19


 1027 0010 01       		.byte	0x1
 1028 0011 B9020000 		.4byte	.LASF93
 1029 0015 70000000 		.4byte	.Ldebug_ranges0+0x70
 1030 0019 00000000 		.4byte	0
 1031 001d 00000000 		.4byte	.Ldebug_line0
 1032 0021 02       		.uleb128 0x2
 1033 0022 04       		.byte	0x4
 1034 0023 05       		.byte	0x5
 1035 0024 696E7400 		.ascii	"int\000"
 1036 0028 03       		.uleb128 0x3
 1037 0029 21000000 		.4byte	.LASF2
 1038 002d 03       		.byte	0x3
 1039 002e D4       		.byte	0xd4
 1040 002f 33000000 		.4byte	0x33
 1041 0033 04       		.uleb128 0x4
 1042 0034 04       		.byte	0x4
 1043 0035 07       		.byte	0x7
 1044 0036 2D010000 		.4byte	.LASF0
 1045 003a 04       		.uleb128 0x4
 1046 003b 01       		.byte	0x1
 1047 003c 06       		.byte	0x6
 1048 003d A5000000 		.4byte	.LASF1
 1049 0041 03       		.uleb128 0x3
 1050 0042 44000000 		.4byte	.LASF3
 1051 0046 04       		.byte	0x4
 1052 0047 1D       		.byte	0x1d
 1053 0048 4C000000 		.4byte	0x4c
 1054 004c 04       		.uleb128 0x4
 1055 004d 01       		.byte	0x1
 1056 004e 08       		.byte	0x8
 1057 004f 48020000 		.4byte	.LASF4
 1058 0053 04       		.uleb128 0x4
 1059 0054 02       		.byte	0x2
 1060 0055 05       		.byte	0x5
 1061 0056 60020000 		.4byte	.LASF5
 1062 005a 04       		.uleb128 0x4
 1063 005b 02       		.byte	0x2
 1064 005c 07       		.byte	0x7
 1065 005d 64010000 		.4byte	.LASF6
 1066 0061 03       		.uleb128 0x3
 1067 0062 3E030000 		.4byte	.LASF7
 1068 0066 04       		.byte	0x4
 1069 0067 3F       		.byte	0x3f
 1070 0068 6C000000 		.4byte	0x6c
 1071 006c 04       		.uleb128 0x4
 1072 006d 04       		.byte	0x4
 1073 006e 05       		.byte	0x5
 1074 006f D0000000 		.4byte	.LASF8
 1075 0073 03       		.uleb128 0x3
 1076 0074 FC000000 		.4byte	.LASF9
 1077 0078 04       		.byte	0x4
 1078 0079 41       		.byte	0x41
 1079 007a 7E000000 		.4byte	0x7e
 1080 007e 04       		.uleb128 0x4
 1081 007f 04       		.byte	0x4
 1082 0080 07       		.byte	0x7
 1083 0081 45010000 		.4byte	.LASF10
ARM GAS  /tmp/ccsd5mUt.s 			page 20


 1084 0085 04       		.uleb128 0x4
 1085 0086 08       		.byte	0x8
 1086 0087 05       		.byte	0x5
 1087 0088 97000000 		.4byte	.LASF11
 1088 008c 04       		.uleb128 0x4
 1089 008d 08       		.byte	0x8
 1090 008e 07       		.byte	0x7
 1091 008f 5E000000 		.4byte	.LASF12
 1092 0093 03       		.uleb128 0x3
 1093 0094 A4040000 		.4byte	.LASF13
 1094 0098 05       		.byte	0x5
 1095 0099 14       		.byte	0x14
 1096 009a 41000000 		.4byte	0x41
 1097 009e 03       		.uleb128 0x3
 1098 009f 40020000 		.4byte	.LASF14
 1099 00a3 05       		.byte	0x5
 1100 00a4 1F       		.byte	0x1f
 1101 00a5 61000000 		.4byte	0x61
 1102 00a9 03       		.uleb128 0x3
 1103 00aa B0020000 		.4byte	.LASF15
 1104 00ae 05       		.byte	0x5
 1105 00af 20       		.byte	0x20
 1106 00b0 73000000 		.4byte	0x73
 1107 00b4 03       		.uleb128 0x3
 1108 00b5 B1000000 		.4byte	.LASF16
 1109 00b9 06       		.byte	0x6
 1110 00ba 2B       		.byte	0x2b
 1111 00bb BF000000 		.4byte	0xbf
 1112 00bf 04       		.uleb128 0x4
 1113 00c0 01       		.byte	0x1
 1114 00c1 02       		.byte	0x2
 1115 00c2 3A020000 		.4byte	.LASF17
 1116 00c6 03       		.uleb128 0x3
 1117 00c7 85010000 		.4byte	.LASF18
 1118 00cb 06       		.byte	0x6
 1119 00cc 2C       		.byte	0x2c
 1120 00cd 93000000 		.4byte	0x93
 1121 00d1 03       		.uleb128 0x3
 1122 00d2 D9000000 		.4byte	.LASF19
 1123 00d6 06       		.byte	0x6
 1124 00d7 2D       		.byte	0x2d
 1125 00d8 93000000 		.4byte	0x93
 1126 00dc 03       		.uleb128 0x3
 1127 00dd C0000000 		.4byte	.LASF20
 1128 00e1 06       		.byte	0x6
 1129 00e2 2F       		.byte	0x2f
 1130 00e3 93000000 		.4byte	0x93
 1131 00e7 03       		.uleb128 0x3
 1132 00e8 2A020000 		.4byte	.LASF21
 1133 00ec 06       		.byte	0x6
 1134 00ed 30       		.byte	0x30
 1135 00ee A9000000 		.4byte	0xa9
 1136 00f2 03       		.uleb128 0x3
 1137 00f3 77010000 		.4byte	.LASF22
 1138 00f7 06       		.byte	0x6
 1139 00f8 31       		.byte	0x31
 1140 00f9 9E000000 		.4byte	0x9e
ARM GAS  /tmp/ccsd5mUt.s 			page 21


 1141 00fd 03       		.uleb128 0x3
 1142 00fe 99010000 		.4byte	.LASF23
 1143 0102 06       		.byte	0x6
 1144 0103 33       		.byte	0x33
 1145 0104 A9000000 		.4byte	0xa9
 1146 0108 03       		.uleb128 0x3
 1147 0109 29030000 		.4byte	.LASF24
 1148 010d 06       		.byte	0x6
 1149 010e 35       		.byte	0x35
 1150 010f A9000000 		.4byte	0xa9
 1151 0113 03       		.uleb128 0x3
 1152 0114 9E020000 		.4byte	.LASF25
 1153 0118 07       		.byte	0x7
 1154 0119 2A       		.byte	0x2a
 1155 011a 1E010000 		.4byte	0x11e
 1156 011e 05       		.uleb128 0x5
 1157 011f 9E020000 		.4byte	.LASF25
 1158 0123 44       		.byte	0x44
 1159 0124 08       		.byte	0x8
 1160 0125 5E       		.byte	0x5e
 1161 0126 03020000 		.4byte	0x203
 1162 012a 06       		.uleb128 0x6
 1163 012b 8A020000 		.4byte	.LASF26
 1164 012f 08       		.byte	0x8
 1165 0130 5F       		.byte	0x5f
 1166 0131 24020000 		.4byte	0x224
 1167 0135 00       		.byte	0
 1168 0136 06       		.uleb128 0x6
 1169 0137 23020000 		.4byte	.LASF27
 1170 013b 08       		.byte	0x8
 1171 013c 61       		.byte	0x61
 1172 013d 24020000 		.4byte	0x224
 1173 0141 04       		.byte	0x4
 1174 0142 06       		.uleb128 0x6
 1175 0143 86000000 		.4byte	.LASF28
 1176 0147 08       		.byte	0x8
 1177 0148 63       		.byte	0x63
 1178 0149 E7000000 		.4byte	0xe7
 1179 014d 08       		.byte	0x8
 1180 014e 06       		.uleb128 0x6
 1181 014f DE040000 		.4byte	.LASF29
 1182 0153 08       		.byte	0x8
 1183 0154 64       		.byte	0x64
 1184 0155 AE030000 		.4byte	0x3ae
 1185 0159 0C       		.byte	0xc
 1186 015a 06       		.uleb128 0x6
 1187 015b EB000000 		.4byte	.LASF30
 1188 015f 08       		.byte	0x8
 1189 0160 66       		.byte	0x66
 1190 0161 24020000 		.4byte	0x224
 1191 0165 10       		.byte	0x10
 1192 0166 06       		.uleb128 0x6
 1193 0167 DF010000 		.4byte	.LASF31
 1194 016b 08       		.byte	0x8
 1195 016c 67       		.byte	0x67
 1196 016d 24020000 		.4byte	0x224
 1197 0171 14       		.byte	0x14
ARM GAS  /tmp/ccsd5mUt.s 			page 22


 1198 0172 06       		.uleb128 0x6
 1199 0173 B3040000 		.4byte	.LASF32
 1200 0177 08       		.byte	0x8
 1201 0178 6E       		.byte	0x6e
 1202 0179 AE040000 		.4byte	0x4ae
 1203 017d 18       		.byte	0x18
 1204 017e 06       		.uleb128 0x6
 1205 017f 6A020000 		.4byte	.LASF33
 1206 0183 08       		.byte	0x8
 1207 0184 79       		.byte	0x79
 1208 0185 D1000000 		.4byte	0xd1
 1209 0189 1C       		.byte	0x1c
 1210 018a 06       		.uleb128 0x6
 1211 018b 96020000 		.4byte	.LASF34
 1212 018f 08       		.byte	0x8
 1213 0190 7D       		.byte	0x7d
 1214 0191 C6000000 		.4byte	0xc6
 1215 0195 1D       		.byte	0x1d
 1216 0196 06       		.uleb128 0x6
 1217 0197 72020000 		.4byte	.LASF35
 1218 019b 08       		.byte	0x8
 1219 019c 88       		.byte	0x88
 1220 019d DC000000 		.4byte	0xdc
 1221 01a1 1E       		.byte	0x1e
 1222 01a2 06       		.uleb128 0x6
 1223 01a3 53030000 		.4byte	.LASF36
 1224 01a7 08       		.byte	0x8
 1225 01a8 8F       		.byte	0x8f
 1226 01a9 D6030000 		.4byte	0x3d6
 1227 01ad 20       		.byte	0x20
 1228 01ae 07       		.uleb128 0x7
 1229 01af 705F7500 		.ascii	"p_u\000"
 1230 01b3 08       		.byte	0x8
 1231 01b4 B4       		.byte	0xb4
 1232 01b5 79040000 		.4byte	0x479
 1233 01b9 24       		.byte	0x24
 1234 01ba 06       		.uleb128 0x6
 1235 01bb E4040000 		.4byte	.LASF37
 1236 01bf 08       		.byte	0x8
 1237 01c0 B9       		.byte	0xb9
 1238 01c1 4A020000 		.4byte	0x24a
 1239 01c5 28       		.byte	0x28
 1240 01c6 06       		.uleb128 0x6
 1241 01c7 61030000 		.4byte	.LASF38
 1242 01cb 08       		.byte	0x8
 1243 01cc BF       		.byte	0xbf
 1244 01cd 2A020000 		.4byte	0x22a
 1245 01d1 2C       		.byte	0x2c
 1246 01d2 06       		.uleb128 0x6
 1247 01d3 09000000 		.4byte	.LASF39
 1248 01d7 08       		.byte	0x8
 1249 01d8 C3       		.byte	0xc3
 1250 01d9 F2000000 		.4byte	0xf2
 1251 01dd 34       		.byte	0x34
 1252 01de 06       		.uleb128 0x6
 1253 01df A5020000 		.4byte	.LASF40
 1254 01e3 08       		.byte	0x8
ARM GAS  /tmp/ccsd5mUt.s 			page 23


 1255 01e4 C9       		.byte	0xc9
 1256 01e5 FD000000 		.4byte	0xfd
 1257 01e9 38       		.byte	0x38
 1258 01ea 06       		.uleb128 0x6
 1259 01eb 56020000 		.4byte	.LASF41
 1260 01ef 08       		.byte	0x8
 1261 01f0 D0       		.byte	0xd0
 1262 01f1 C0040000 		.4byte	0x4c0
 1263 01f5 3C       		.byte	0x3c
 1264 01f6 06       		.uleb128 0x6
 1265 01f7 33030000 		.4byte	.LASF42
 1266 01fb 08       		.byte	0x8
 1267 01fc D4       		.byte	0xd4
 1268 01fd E7000000 		.4byte	0xe7
 1269 0201 40       		.byte	0x40
 1270 0202 00       		.byte	0
 1271 0203 08       		.uleb128 0x8
 1272 0204 08       		.byte	0x8
 1273 0205 07       		.byte	0x7
 1274 0206 61       		.byte	0x61
 1275 0207 24020000 		.4byte	0x224
 1276 020b 06       		.uleb128 0x6
 1277 020c 8A020000 		.4byte	.LASF26
 1278 0210 07       		.byte	0x7
 1279 0211 62       		.byte	0x62
 1280 0212 24020000 		.4byte	0x224
 1281 0216 00       		.byte	0
 1282 0217 06       		.uleb128 0x6
 1283 0218 23020000 		.4byte	.LASF27
 1284 021c 07       		.byte	0x7
 1285 021d 64       		.byte	0x64
 1286 021e 24020000 		.4byte	0x224
 1287 0222 04       		.byte	0x4
 1288 0223 00       		.byte	0
 1289 0224 09       		.uleb128 0x9
 1290 0225 04       		.byte	0x4
 1291 0226 13010000 		.4byte	0x113
 1292 022a 03       		.uleb128 0x3
 1293 022b F5010000 		.4byte	.LASF43
 1294 022f 07       		.byte	0x7
 1295 0230 66       		.byte	0x66
 1296 0231 03020000 		.4byte	0x203
 1297 0235 08       		.uleb128 0x8
 1298 0236 04       		.byte	0x4
 1299 0237 07       		.byte	0x7
 1300 0238 6B       		.byte	0x6b
 1301 0239 4A020000 		.4byte	0x24a
 1302 023d 06       		.uleb128 0x6
 1303 023e 8A020000 		.4byte	.LASF26
 1304 0242 07       		.byte	0x7
 1305 0243 6D       		.byte	0x6d
 1306 0244 24020000 		.4byte	0x224
 1307 0248 00       		.byte	0
 1308 0249 00       		.byte	0
 1309 024a 03       		.uleb128 0x3
 1310 024b 8D010000 		.4byte	.LASF44
 1311 024f 07       		.byte	0x7
ARM GAS  /tmp/ccsd5mUt.s 			page 24


 1312 0250 70       		.byte	0x70
 1313 0251 35020000 		.4byte	0x235
 1314 0255 03       		.uleb128 0x3
 1315 0256 07010000 		.4byte	.LASF45
 1316 025a 09       		.byte	0x9
 1317 025b E5       		.byte	0xe5
 1318 025c 60020000 		.4byte	0x260
 1319 0260 0A       		.uleb128 0xa
 1320 0261 04       		.byte	0x4
 1321 0262 0B       		.uleb128 0xb
 1322 0263 5A030000 		.4byte	.LASF46
 1323 0267 64       		.byte	0x64
 1324 0268 09       		.byte	0x9
 1325 0269 0C01     		.2byte	0x10c
 1326 026b AE030000 		.4byte	0x3ae
 1327 026f 0C       		.uleb128 0xc
 1328 0270 73313600 		.ascii	"s16\000"
 1329 0274 09       		.byte	0x9
 1330 0275 0E01     		.2byte	0x10e
 1331 0277 55020000 		.4byte	0x255
 1332 027b 00       		.byte	0
 1333 027c 0C       		.uleb128 0xc
 1334 027d 73313700 		.ascii	"s17\000"
 1335 0281 09       		.byte	0x9
 1336 0282 0F01     		.2byte	0x10f
 1337 0284 55020000 		.4byte	0x255
 1338 0288 04       		.byte	0x4
 1339 0289 0C       		.uleb128 0xc
 1340 028a 73313800 		.ascii	"s18\000"
 1341 028e 09       		.byte	0x9
 1342 028f 1001     		.2byte	0x110
 1343 0291 55020000 		.4byte	0x255
 1344 0295 08       		.byte	0x8
 1345 0296 0C       		.uleb128 0xc
 1346 0297 73313900 		.ascii	"s19\000"
 1347 029b 09       		.byte	0x9
 1348 029c 1101     		.2byte	0x111
 1349 029e 55020000 		.4byte	0x255
 1350 02a2 0C       		.byte	0xc
 1351 02a3 0C       		.uleb128 0xc
 1352 02a4 73323000 		.ascii	"s20\000"
 1353 02a8 09       		.byte	0x9
 1354 02a9 1201     		.2byte	0x112
 1355 02ab 55020000 		.4byte	0x255
 1356 02af 10       		.byte	0x10
 1357 02b0 0C       		.uleb128 0xc
 1358 02b1 73323100 		.ascii	"s21\000"
 1359 02b5 09       		.byte	0x9
 1360 02b6 1301     		.2byte	0x113
 1361 02b8 55020000 		.4byte	0x255
 1362 02bc 14       		.byte	0x14
 1363 02bd 0C       		.uleb128 0xc
 1364 02be 73323200 		.ascii	"s22\000"
 1365 02c2 09       		.byte	0x9
 1366 02c3 1401     		.2byte	0x114
 1367 02c5 55020000 		.4byte	0x255
 1368 02c9 18       		.byte	0x18
ARM GAS  /tmp/ccsd5mUt.s 			page 25


 1369 02ca 0C       		.uleb128 0xc
 1370 02cb 73323300 		.ascii	"s23\000"
 1371 02cf 09       		.byte	0x9
 1372 02d0 1501     		.2byte	0x115
 1373 02d2 55020000 		.4byte	0x255
 1374 02d6 1C       		.byte	0x1c
 1375 02d7 0C       		.uleb128 0xc
 1376 02d8 73323400 		.ascii	"s24\000"
 1377 02dc 09       		.byte	0x9
 1378 02dd 1601     		.2byte	0x116
 1379 02df 55020000 		.4byte	0x255
 1380 02e3 20       		.byte	0x20
 1381 02e4 0C       		.uleb128 0xc
 1382 02e5 73323500 		.ascii	"s25\000"
 1383 02e9 09       		.byte	0x9
 1384 02ea 1701     		.2byte	0x117
 1385 02ec 55020000 		.4byte	0x255
 1386 02f0 24       		.byte	0x24
 1387 02f1 0C       		.uleb128 0xc
 1388 02f2 73323600 		.ascii	"s26\000"
 1389 02f6 09       		.byte	0x9
 1390 02f7 1801     		.2byte	0x118
 1391 02f9 55020000 		.4byte	0x255
 1392 02fd 28       		.byte	0x28
 1393 02fe 0C       		.uleb128 0xc
 1394 02ff 73323700 		.ascii	"s27\000"
 1395 0303 09       		.byte	0x9
 1396 0304 1901     		.2byte	0x119
 1397 0306 55020000 		.4byte	0x255
 1398 030a 2C       		.byte	0x2c
 1399 030b 0C       		.uleb128 0xc
 1400 030c 73323800 		.ascii	"s28\000"
 1401 0310 09       		.byte	0x9
 1402 0311 1A01     		.2byte	0x11a
 1403 0313 55020000 		.4byte	0x255
 1404 0317 30       		.byte	0x30
 1405 0318 0C       		.uleb128 0xc
 1406 0319 73323900 		.ascii	"s29\000"
 1407 031d 09       		.byte	0x9
 1408 031e 1B01     		.2byte	0x11b
 1409 0320 55020000 		.4byte	0x255
 1410 0324 34       		.byte	0x34
 1411 0325 0C       		.uleb128 0xc
 1412 0326 73333000 		.ascii	"s30\000"
 1413 032a 09       		.byte	0x9
 1414 032b 1C01     		.2byte	0x11c
 1415 032d 55020000 		.4byte	0x255
 1416 0331 38       		.byte	0x38
 1417 0332 0C       		.uleb128 0xc
 1418 0333 73333100 		.ascii	"s31\000"
 1419 0337 09       		.byte	0x9
 1420 0338 1D01     		.2byte	0x11d
 1421 033a 55020000 		.4byte	0x255
 1422 033e 3C       		.byte	0x3c
 1423 033f 0C       		.uleb128 0xc
 1424 0340 723400   		.ascii	"r4\000"
 1425 0343 09       		.byte	0x9
ARM GAS  /tmp/ccsd5mUt.s 			page 26


 1426 0344 1F01     		.2byte	0x11f
 1427 0346 55020000 		.4byte	0x255
 1428 034a 40       		.byte	0x40
 1429 034b 0C       		.uleb128 0xc
 1430 034c 723500   		.ascii	"r5\000"
 1431 034f 09       		.byte	0x9
 1432 0350 2001     		.2byte	0x120
 1433 0352 55020000 		.4byte	0x255
 1434 0356 44       		.byte	0x44
 1435 0357 0C       		.uleb128 0xc
 1436 0358 723600   		.ascii	"r6\000"
 1437 035b 09       		.byte	0x9
 1438 035c 2101     		.2byte	0x121
 1439 035e 55020000 		.4byte	0x255
 1440 0362 48       		.byte	0x48
 1441 0363 0C       		.uleb128 0xc
 1442 0364 723700   		.ascii	"r7\000"
 1443 0367 09       		.byte	0x9
 1444 0368 2201     		.2byte	0x122
 1445 036a 55020000 		.4byte	0x255
 1446 036e 4C       		.byte	0x4c
 1447 036f 0C       		.uleb128 0xc
 1448 0370 723800   		.ascii	"r8\000"
 1449 0373 09       		.byte	0x9
 1450 0374 2301     		.2byte	0x123
 1451 0376 55020000 		.4byte	0x255
 1452 037a 50       		.byte	0x50
 1453 037b 0C       		.uleb128 0xc
 1454 037c 723900   		.ascii	"r9\000"
 1455 037f 09       		.byte	0x9
 1456 0380 2401     		.2byte	0x124
 1457 0382 55020000 		.4byte	0x255
 1458 0386 54       		.byte	0x54
 1459 0387 0C       		.uleb128 0xc
 1460 0388 72313000 		.ascii	"r10\000"
 1461 038c 09       		.byte	0x9
 1462 038d 2501     		.2byte	0x125
 1463 038f 55020000 		.4byte	0x255
 1464 0393 58       		.byte	0x58
 1465 0394 0C       		.uleb128 0xc
 1466 0395 72313100 		.ascii	"r11\000"
 1467 0399 09       		.byte	0x9
 1468 039a 2601     		.2byte	0x126
 1469 039c 55020000 		.4byte	0x255
 1470 03a0 5C       		.byte	0x5c
 1471 03a1 0C       		.uleb128 0xc
 1472 03a2 6C7200   		.ascii	"lr\000"
 1473 03a5 09       		.byte	0x9
 1474 03a6 2701     		.2byte	0x127
 1475 03a8 55020000 		.4byte	0x255
 1476 03ac 60       		.byte	0x60
 1477 03ad 00       		.byte	0
 1478 03ae 0B       		.uleb128 0xb
 1479 03af 57010000 		.4byte	.LASF47
 1480 03b3 04       		.byte	0x4
 1481 03b4 09       		.byte	0x9
 1482 03b5 3101     		.2byte	0x131
ARM GAS  /tmp/ccsd5mUt.s 			page 27


 1483 03b7 C9030000 		.4byte	0x3c9
 1484 03bb 0C       		.uleb128 0xc
 1485 03bc 72313300 		.ascii	"r13\000"
 1486 03c0 09       		.byte	0x9
 1487 03c1 3201     		.2byte	0x132
 1488 03c3 C9030000 		.4byte	0x3c9
 1489 03c7 00       		.byte	0
 1490 03c8 00       		.byte	0
 1491 03c9 09       		.uleb128 0x9
 1492 03ca 04       		.byte	0x4
 1493 03cb 62020000 		.4byte	0x262
 1494 03cf 04       		.uleb128 0x4
 1495 03d0 04       		.byte	0x4
 1496 03d1 07       		.byte	0x7
 1497 03d2 CC010000 		.4byte	.LASF48
 1498 03d6 0D       		.uleb128 0xd
 1499 03d7 08010000 		.4byte	0x108
 1500 03db 08       		.uleb128 0x8
 1501 03dc 1C       		.byte	0x1c
 1502 03dd 0A       		.byte	0xa
 1503 03de 5E       		.byte	0x5e
 1504 03df 2C040000 		.4byte	0x42c
 1505 03e3 06       		.uleb128 0x6
 1506 03e4 FD020000 		.4byte	.LASF49
 1507 03e8 0A       		.byte	0xa
 1508 03e9 5F       		.byte	0x5f
 1509 03ea 2A020000 		.4byte	0x22a
 1510 03ee 00       		.byte	0
 1511 03ef 06       		.uleb128 0x6
 1512 03f0 7C020000 		.4byte	.LASF50
 1513 03f4 0A       		.byte	0xa
 1514 03f5 60       		.byte	0x60
 1515 03f6 E7000000 		.4byte	0xe7
 1516 03fa 08       		.byte	0x8
 1517 03fb 06       		.uleb128 0x6
 1518 03fc EF010000 		.4byte	.LASF51
 1519 0400 0A       		.byte	0xa
 1520 0401 62       		.byte	0x62
 1521 0402 AE030000 		.4byte	0x3ae
 1522 0406 0C       		.byte	0xc
 1523 0407 06       		.uleb128 0x6
 1524 0408 7D010000 		.4byte	.LASF52
 1525 040c 0A       		.byte	0xa
 1526 040d 65       		.byte	0x65
 1527 040e 24020000 		.4byte	0x224
 1528 0412 10       		.byte	0x10
 1529 0413 06       		.uleb128 0x6
 1530 0414 11020000 		.4byte	.LASF53
 1531 0418 0A       		.byte	0xa
 1532 0419 66       		.byte	0x66
 1533 041a 24020000 		.4byte	0x224
 1534 041e 14       		.byte	0x14
 1535 041f 06       		.uleb128 0x6
 1536 0420 07020000 		.4byte	.LASF54
 1537 0424 0A       		.byte	0xa
 1538 0425 69       		.byte	0x69
 1539 0426 24020000 		.4byte	0x224
ARM GAS  /tmp/ccsd5mUt.s 			page 28


 1540 042a 18       		.byte	0x18
 1541 042b 00       		.byte	0
 1542 042c 03       		.uleb128 0x3
 1543 042d 8B040000 		.4byte	.LASF55
 1544 0431 0A       		.byte	0xa
 1545 0432 6B       		.byte	0x6b
 1546 0433 DB030000 		.4byte	0x3db
 1547 0437 05       		.uleb128 0x5
 1548 0438 B0010000 		.4byte	.LASF56
 1549 043c 10       		.byte	0x10
 1550 043d 0B       		.byte	0xb
 1551 043e 2C       		.byte	0x2c
 1552 043f 68040000 		.4byte	0x468
 1553 0443 06       		.uleb128 0x6
 1554 0444 B8000000 		.4byte	.LASF57
 1555 0448 0B       		.byte	0xb
 1556 0449 2D       		.byte	0x2d
 1557 044a 2A020000 		.4byte	0x22a
 1558 044e 00       		.byte	0
 1559 044f 06       		.uleb128 0x6
 1560 0450 D6040000 		.4byte	.LASF58
 1561 0454 0B       		.byte	0xb
 1562 0455 2F       		.byte	0x2f
 1563 0456 24020000 		.4byte	0x224
 1564 045a 08       		.byte	0x8
 1565 045b 06       		.uleb128 0x6
 1566 045c 22030000 		.4byte	.LASF59
 1567 0460 0B       		.byte	0xb
 1568 0461 31       		.byte	0x31
 1569 0462 68040000 		.4byte	0x468
 1570 0466 0C       		.byte	0xc
 1571 0467 00       		.byte	0
 1572 0468 09       		.uleb128 0x9
 1573 0469 04       		.byte	0x4
 1574 046a 37040000 		.4byte	0x437
 1575 046e 03       		.uleb128 0x3
 1576 046f B0010000 		.4byte	.LASF56
 1577 0473 0B       		.byte	0xb
 1578 0474 33       		.byte	0x33
 1579 0475 37040000 		.4byte	0x437
 1580 0479 0E       		.uleb128 0xe
 1581 047a 04       		.byte	0x4
 1582 047b 08       		.byte	0x8
 1583 047c 96       		.byte	0x96
 1584 047d AE040000 		.4byte	0x4ae
 1585 0481 0F       		.uleb128 0xf
 1586 0482 28000000 		.4byte	.LASF60
 1587 0486 08       		.byte	0x8
 1588 0487 9D       		.byte	0x9d
 1589 0488 F2000000 		.4byte	0xf2
 1590 048c 0F       		.uleb128 0xf
 1591 048d F3000000 		.4byte	.LASF61
 1592 0491 08       		.byte	0x8
 1593 0492 A4       		.byte	0xa4
 1594 0493 F2000000 		.4byte	0xf2
 1595 0497 0F       		.uleb128 0xf
 1596 0498 AC040000 		.4byte	.LASF62
ARM GAS  /tmp/ccsd5mUt.s 			page 29


 1597 049c 08       		.byte	0x8
 1598 049d AB       		.byte	0xab
 1599 049e 60020000 		.4byte	0x260
 1600 04a2 0F       		.uleb128 0xf
 1601 04a3 83020000 		.4byte	.LASF63
 1602 04a7 08       		.byte	0x8
 1603 04a8 B2       		.byte	0xb2
 1604 04a9 FD000000 		.4byte	0xfd
 1605 04ad 00       		.byte	0
 1606 04ae 09       		.uleb128 0x9
 1607 04af 04       		.byte	0x4
 1608 04b0 B4040000 		.4byte	0x4b4
 1609 04b4 10       		.uleb128 0x10
 1610 04b5 B9040000 		.4byte	0x4b9
 1611 04b9 04       		.uleb128 0x4
 1612 04ba 01       		.byte	0x1
 1613 04bb 08       		.byte	0x8
 1614 04bc 05030000 		.4byte	.LASF64
 1615 04c0 09       		.uleb128 0x9
 1616 04c1 04       		.byte	0x4
 1617 04c2 6E040000 		.4byte	0x46e
 1618 04c6 03       		.uleb128 0x3
 1619 04c7 B6010000 		.4byte	.LASF65
 1620 04cb 0C       		.byte	0xc
 1621 04cc 37       		.byte	0x37
 1622 04cd D1040000 		.4byte	0x4d1
 1623 04d1 05       		.uleb128 0x5
 1624 04d2 B6010000 		.4byte	.LASF65
 1625 04d6 24       		.byte	0x24
 1626 04d7 0C       		.byte	0xc
 1627 04d8 45       		.byte	0x45
 1628 04d9 3E050000 		.4byte	0x53e
 1629 04dd 06       		.uleb128 0x6
 1630 04de 8D000000 		.4byte	.LASF66
 1631 04e2 0C       		.byte	0xc
 1632 04e3 46       		.byte	0x46
 1633 04e4 2A020000 		.4byte	0x22a
 1634 04e8 00       		.byte	0
 1635 04e9 06       		.uleb128 0x6
 1636 04ea D5010000 		.4byte	.LASF67
 1637 04ee 0C       		.byte	0xc
 1638 04ef 47       		.byte	0x47
 1639 04f0 28000000 		.4byte	0x28
 1640 04f4 08       		.byte	0x8
 1641 04f5 06       		.uleb128 0x6
 1642 04f6 C3010000 		.4byte	.LASF68
 1643 04fa 0C       		.byte	0xc
 1644 04fb 48       		.byte	0x48
 1645 04fc 60050000 		.4byte	0x560
 1646 0500 0C       		.byte	0xc
 1647 0501 06       		.uleb128 0x6
 1648 0502 85040000 		.4byte	.LASF69
 1649 0506 0C       		.byte	0xc
 1650 0507 49       		.byte	0x49
 1651 0508 60050000 		.4byte	0x560
 1652 050c 10       		.byte	0x10
 1653 050d 06       		.uleb128 0x6
ARM GAS  /tmp/ccsd5mUt.s 			page 30


 1654 050e E7010000 		.4byte	.LASF70
 1655 0512 0C       		.byte	0xc
 1656 0513 4B       		.byte	0x4b
 1657 0514 60050000 		.4byte	0x560
 1658 0518 14       		.byte	0x14
 1659 0519 06       		.uleb128 0x6
 1660 051a 32020000 		.4byte	.LASF71
 1661 051e 0C       		.byte	0xc
 1662 051f 4C       		.byte	0x4c
 1663 0520 60050000 		.4byte	0x560
 1664 0524 18       		.byte	0x18
 1665 0525 06       		.uleb128 0x6
 1666 0526 95040000 		.4byte	.LASF72
 1667 052a 0C       		.byte	0xc
 1668 052b 4D       		.byte	0x4d
 1669 052c 3E050000 		.4byte	0x53e
 1670 0530 1C       		.byte	0x1c
 1671 0531 06       		.uleb128 0x6
 1672 0532 CF040000 		.4byte	.LASF73
 1673 0536 0C       		.byte	0xc
 1674 0537 4E       		.byte	0x4e
 1675 0538 60020000 		.4byte	0x260
 1676 053c 20       		.byte	0x20
 1677 053d 00       		.byte	0
 1678 053e 03       		.uleb128 0x3
 1679 053f 19020000 		.4byte	.LASF74
 1680 0543 0C       		.byte	0xc
 1681 0544 3A       		.byte	0x3a
 1682 0545 49050000 		.4byte	0x549
 1683 0549 09       		.uleb128 0x9
 1684 054a 04       		.byte	0x4
 1685 054b 4F050000 		.4byte	0x54f
 1686 054f 11       		.uleb128 0x11
 1687 0550 5A050000 		.4byte	0x55a
 1688 0554 12       		.uleb128 0x12
 1689 0555 5A050000 		.4byte	0x55a
 1690 0559 00       		.byte	0
 1691 055a 09       		.uleb128 0x9
 1692 055b 04       		.byte	0x4
 1693 055c C6040000 		.4byte	0x4c6
 1694 0560 09       		.uleb128 0x9
 1695 0561 04       		.byte	0x4
 1696 0562 93000000 		.4byte	0x93
 1697 0566 03       		.uleb128 0x3
 1698 0567 A5010000 		.4byte	.LASF75
 1699 056b 0C       		.byte	0xc
 1700 056c 82       		.byte	0x82
 1701 056d C6040000 		.4byte	0x4c6
 1702 0571 03       		.uleb128 0x3
 1703 0572 38000000 		.4byte	.LASF76
 1704 0576 0C       		.byte	0xc
 1705 0577 F5       		.byte	0xf5
 1706 0578 C6040000 		.4byte	0x4c6
 1707 057c 09       		.uleb128 0x9
 1708 057d 04       		.byte	0x4
 1709 057e 82050000 		.4byte	0x582
 1710 0582 10       		.uleb128 0x10
ARM GAS  /tmp/ccsd5mUt.s 			page 31


 1711 0583 93000000 		.4byte	0x93
 1712 0587 13       		.uleb128 0x13
 1713 0588 0F000000 		.4byte	.LASF94
 1714 058c 02       		.byte	0x2
 1715 058d 34       		.byte	0x34
 1716 058e 03       		.byte	0x3
 1717 058f A9050000 		.4byte	0x5a9
 1718 0593 14       		.uleb128 0x14
 1719 0594 747000   		.ascii	"tp\000"
 1720 0597 02       		.byte	0x2
 1721 0598 34       		.byte	0x34
 1722 0599 24020000 		.4byte	0x224
 1723 059d 14       		.uleb128 0x14
 1724 059e 74717000 		.ascii	"tqp\000"
 1725 05a2 02       		.byte	0x2
 1726 05a3 34       		.byte	0x34
 1727 05a4 A9050000 		.4byte	0x5a9
 1728 05a8 00       		.byte	0
 1729 05a9 09       		.uleb128 0x9
 1730 05aa 04       		.byte	0x4
 1731 05ab 2A020000 		.4byte	0x22a
 1732 05af 15       		.uleb128 0x15
 1733 05b0 0A030000 		.4byte	.LASF95
 1734 05b4 02       		.byte	0x2
 1735 05b5 3B       		.byte	0x3b
 1736 05b6 24020000 		.4byte	0x224
 1737 05ba 03       		.byte	0x3
 1738 05bb D5050000 		.4byte	0x5d5
 1739 05bf 14       		.uleb128 0x14
 1740 05c0 74717000 		.ascii	"tqp\000"
 1741 05c4 02       		.byte	0x2
 1742 05c5 3B       		.byte	0x3b
 1743 05c6 A9050000 		.4byte	0x5a9
 1744 05ca 16       		.uleb128 0x16
 1745 05cb 747000   		.ascii	"tp\000"
 1746 05ce 02       		.byte	0x2
 1747 05cf 3C       		.byte	0x3c
 1748 05d0 24020000 		.4byte	0x224
 1749 05d4 00       		.byte	0
 1750 05d5 17       		.uleb128 0x17
 1751 05d6 CA000000 		.4byte	.LASF96
 1752 05da 01       		.byte	0x1
 1753 05db 46       		.byte	0x46
 1754 05dc F2000000 		.4byte	0xf2
 1755 05e0 00000000 		.4byte	.LFB7
 1756 05e4 2C000000 		.4byte	.LFE7-.LFB7
 1757 05e8 01       		.uleb128 0x1
 1758 05e9 9C       		.byte	0x9c
 1759 05ea 48060000 		.4byte	0x648
 1760 05ee 18       		.uleb128 0x18
 1761 05ef 717000   		.ascii	"qp\000"
 1762 05f2 01       		.byte	0x1
 1763 05f3 46       		.byte	0x46
 1764 05f4 5A050000 		.4byte	0x55a
 1765 05f8 00000000 		.4byte	.LLST0
 1766 05fc 19       		.uleb128 0x19
 1767 05fd 02020000 		.4byte	.LASF77
ARM GAS  /tmp/ccsd5mUt.s 			page 32


 1768 0601 01       		.byte	0x1
 1769 0602 46       		.byte	0x46
 1770 0603 08010000 		.4byte	0x108
 1771 0607 45000000 		.4byte	.LLST1
 1772 060b 1A       		.uleb128 0x1a
 1773 060c 87050000 		.4byte	0x587
 1774 0610 0A000000 		.4byte	.LBB12
 1775 0614 00000000 		.4byte	.Ldebug_ranges0+0
 1776 0618 01       		.byte	0x1
 1777 0619 4B       		.byte	0x4b
 1778 061a 31060000 		.4byte	0x631
 1779 061e 1B       		.uleb128 0x1b
 1780 061f 9D050000 		.4byte	0x59d
 1781 0623 71000000 		.4byte	.LLST2
 1782 0627 1B       		.uleb128 0x1b
 1783 0628 93050000 		.4byte	0x593
 1784 062c 9D000000 		.4byte	.LLST3
 1785 0630 00       		.byte	0
 1786 0631 1C       		.uleb128 0x1c
 1787 0632 20000000 		.4byte	.LVL3
 1788 0636 300C0000 		.4byte	0xc30
 1789 063a 1D       		.uleb128 0x1d
 1790 063b 01       		.uleb128 0x1
 1791 063c 51       		.byte	0x51
 1792 063d 03       		.uleb128 0x3
 1793 063e F3       		.byte	0xf3
 1794 063f 01       		.uleb128 0x1
 1795 0640 51       		.byte	0x51
 1796 0641 1D       		.uleb128 0x1d
 1797 0642 01       		.uleb128 0x1
 1798 0643 50       		.byte	0x50
 1799 0644 01       		.uleb128 0x1
 1800 0645 3D       		.byte	0x3d
 1801 0646 00       		.byte	0
 1802 0647 00       		.byte	0
 1803 0648 1E       		.uleb128 0x1e
 1804 0649 2F000000 		.4byte	.LASF81
 1805 064d 01       		.byte	0x1
 1806 064e 5F       		.byte	0x5f
 1807 064f 00000000 		.4byte	.LFB8
 1808 0653 1E000000 		.4byte	.LFE8-.LFB8
 1809 0657 01       		.uleb128 0x1
 1810 0658 9C       		.byte	0x9c
 1811 0659 A2060000 		.4byte	0x6a2
 1812 065d 1F       		.uleb128 0x1f
 1813 065e 69717000 		.ascii	"iqp\000"
 1814 0662 01       		.byte	0x1
 1815 0663 5F       		.byte	0x5f
 1816 0664 A2060000 		.4byte	0x6a2
 1817 0668 01       		.uleb128 0x1
 1818 0669 50       		.byte	0x50
 1819 066a 1F       		.uleb128 0x1f
 1820 066b 627000   		.ascii	"bp\000"
 1821 066e 01       		.byte	0x1
 1822 066f 5F       		.byte	0x5f
 1823 0670 60050000 		.4byte	0x560
 1824 0674 01       		.uleb128 0x1
ARM GAS  /tmp/ccsd5mUt.s 			page 33


 1825 0675 51       		.byte	0x51
 1826 0676 19       		.uleb128 0x19
 1827 0677 5F010000 		.4byte	.LASF78
 1828 067b 01       		.byte	0x1
 1829 067c 5F       		.byte	0x5f
 1830 067d 28000000 		.4byte	0x28
 1831 0681 B0000000 		.4byte	.LLST4
 1832 0685 20       		.uleb128 0x20
 1833 0686 91020000 		.4byte	.LASF79
 1834 068a 01       		.byte	0x1
 1835 068b 5F       		.byte	0x5f
 1836 068c 3E050000 		.4byte	0x53e
 1837 0690 01       		.uleb128 0x1
 1838 0691 53       		.byte	0x53
 1839 0692 19       		.uleb128 0x19
 1840 0693 10010000 		.4byte	.LASF80
 1841 0697 01       		.byte	0x1
 1842 0698 60       		.byte	0x60
 1843 0699 60020000 		.4byte	0x260
 1844 069d D1000000 		.4byte	.LLST5
 1845 06a1 00       		.byte	0
 1846 06a2 09       		.uleb128 0x9
 1847 06a3 04       		.byte	0x4
 1848 06a4 66050000 		.4byte	0x566
 1849 06a8 1E       		.uleb128 0x1e
 1850 06a9 3A010000 		.4byte	.LASF82
 1851 06ad 01       		.byte	0x1
 1852 06ae 75       		.byte	0x75
 1853 06af 00000000 		.4byte	.LFB9
 1854 06b3 2C000000 		.4byte	.LFE9-.LFB9
 1855 06b7 01       		.uleb128 0x1
 1856 06b8 9C       		.byte	0x9c
 1857 06b9 06070000 		.4byte	0x706
 1858 06bd 18       		.uleb128 0x18
 1859 06be 69717000 		.ascii	"iqp\000"
 1860 06c2 01       		.byte	0x1
 1861 06c3 75       		.byte	0x75
 1862 06c4 A2060000 		.4byte	0x6a2
 1863 06c8 F1000000 		.4byte	.LLST6
 1864 06cc 21       		.uleb128 0x21
 1865 06cd AF050000 		.4byte	0x5af
 1866 06d1 18000000 		.4byte	.LBB16
 1867 06d5 06000000 		.4byte	.LBE16-.LBB16
 1868 06d9 01       		.byte	0x1
 1869 06da 7C       		.byte	0x7c
 1870 06db FC060000 		.4byte	0x6fc
 1871 06df 1B       		.uleb128 0x1b
 1872 06e0 BF050000 		.4byte	0x5bf
 1873 06e4 0F010000 		.4byte	.LLST7
 1874 06e8 22       		.uleb128 0x22
 1875 06e9 18000000 		.4byte	.LBB17
 1876 06ed 06000000 		.4byte	.LBE17-.LBB17
 1877 06f1 23       		.uleb128 0x23
 1878 06f2 CA050000 		.4byte	0x5ca
 1879 06f6 22010000 		.4byte	.LLST8
 1880 06fa 00       		.byte	0
 1881 06fb 00       		.byte	0
ARM GAS  /tmp/ccsd5mUt.s 			page 34


 1882 06fc 24       		.uleb128 0x24
 1883 06fd 22000000 		.4byte	.LVL11
 1884 0701 4A0C0000 		.4byte	0xc4a
 1885 0705 00       		.byte	0
 1886 0706 25       		.uleb128 0x25
 1887 0707 24010000 		.4byte	.LASF83
 1888 070b 01       		.byte	0x1
 1889 070c 8C       		.byte	0x8c
 1890 070d F2000000 		.4byte	0xf2
 1891 0711 00000000 		.4byte	.LFB10
 1892 0715 50000000 		.4byte	.LFE10-.LFB10
 1893 0719 01       		.uleb128 0x1
 1894 071a 9C       		.byte	0x9c
 1895 071b 75070000 		.4byte	0x775
 1896 071f 18       		.uleb128 0x18
 1897 0720 69717000 		.ascii	"iqp\000"
 1898 0724 01       		.byte	0x1
 1899 0725 8C       		.byte	0x8c
 1900 0726 A2060000 		.4byte	0x6a2
 1901 072a 35010000 		.4byte	.LLST9
 1902 072e 18       		.uleb128 0x18
 1903 072f 6200     		.ascii	"b\000"
 1904 0731 01       		.byte	0x1
 1905 0732 8C       		.byte	0x8c
 1906 0733 93000000 		.4byte	0x93
 1907 0737 6C010000 		.4byte	.LLST10
 1908 073b 21       		.uleb128 0x21
 1909 073c AF050000 		.4byte	0x5af
 1910 0740 26000000 		.4byte	.LBB18
 1911 0744 06000000 		.4byte	.LBE18-.LBB18
 1912 0748 01       		.byte	0x1
 1913 0749 99       		.byte	0x99
 1914 074a 6B070000 		.4byte	0x76b
 1915 074e 1B       		.uleb128 0x1b
 1916 074f BF050000 		.4byte	0x5bf
 1917 0753 D6010000 		.4byte	.LLST11
 1918 0757 22       		.uleb128 0x22
 1919 0758 26000000 		.4byte	.LBB19
 1920 075c 06000000 		.4byte	.LBE19-.LBB19
 1921 0760 23       		.uleb128 0x23
 1922 0761 CA050000 		.4byte	0x5ca
 1923 0765 F7010000 		.4byte	.LLST12
 1924 0769 00       		.byte	0
 1925 076a 00       		.byte	0
 1926 076b 24       		.uleb128 0x24
 1927 076c 30000000 		.4byte	.LVL18
 1928 0770 4A0C0000 		.4byte	0xc4a
 1929 0774 00       		.byte	0
 1930 0775 25       		.uleb128 0x25
 1931 0776 EE040000 		.4byte	.LASF84
 1932 077a 01       		.byte	0x1
 1933 077b B2       		.byte	0xb2
 1934 077c F2000000 		.4byte	0xf2
 1935 0780 00000000 		.4byte	.LFB11
 1936 0784 50000000 		.4byte	.LFE11-.LFB11
 1937 0788 01       		.uleb128 0x1
 1938 0789 9C       		.byte	0x9c
ARM GAS  /tmp/ccsd5mUt.s 			page 35


 1939 078a 35080000 		.4byte	0x835
 1940 078e 18       		.uleb128 0x18
 1941 078f 69717000 		.ascii	"iqp\000"
 1942 0793 01       		.byte	0x1
 1943 0794 B2       		.byte	0xb2
 1944 0795 A2060000 		.4byte	0x6a2
 1945 0799 0A020000 		.4byte	.LLST13
 1946 079d 19       		.uleb128 0x19
 1947 079e 02020000 		.4byte	.LASF77
 1948 07a2 01       		.byte	0x1
 1949 07a3 B2       		.byte	0xb2
 1950 07a4 08010000 		.4byte	0x108
 1951 07a8 54020000 		.4byte	.LLST14
 1952 07ac 26       		.uleb128 0x26
 1953 07ad 6200     		.ascii	"b\000"
 1954 07af 01       		.byte	0x1
 1955 07b0 B3       		.byte	0xb3
 1956 07b1 93000000 		.4byte	0x93
 1957 07b5 9E020000 		.4byte	.LLST15
 1958 07b9 27       		.uleb128 0x27
 1959 07ba 18000000 		.4byte	.Ldebug_ranges0+0x18
 1960 07be D0070000 		.4byte	0x7d0
 1961 07c2 28       		.uleb128 0x28
 1962 07c3 746D7000 		.ascii	"tmp\000"
 1963 07c7 01       		.byte	0x1
 1964 07c8 B5       		.byte	0xb5
 1965 07c9 A9000000 		.4byte	0xa9
 1966 07cd 01       		.uleb128 0x1
 1967 07ce 53       		.byte	0x53
 1968 07cf 00       		.byte	0
 1969 07d0 27       		.uleb128 0x27
 1970 07d1 30000000 		.4byte	.Ldebug_ranges0+0x30
 1971 07d5 0D080000 		.4byte	0x80d
 1972 07d9 26       		.uleb128 0x26
 1973 07da 6D736700 		.ascii	"msg\000"
 1974 07de 01       		.byte	0x1
 1975 07df BA       		.byte	0xba
 1976 07e0 F2000000 		.4byte	0xf2
 1977 07e4 B1020000 		.4byte	.LLST16
 1978 07e8 29       		.uleb128 0x29
 1979 07e9 48000000 		.4byte	.LBB23
 1980 07ed 06000000 		.4byte	.LBE23-.LBB23
 1981 07f1 03080000 		.4byte	0x803
 1982 07f5 28       		.uleb128 0x28
 1983 07f6 746D7000 		.ascii	"tmp\000"
 1984 07fa 01       		.byte	0x1
 1985 07fb BC       		.byte	0xbc
 1986 07fc A9000000 		.4byte	0xa9
 1987 0800 01       		.uleb128 0x1
 1988 0801 53       		.byte	0x53
 1989 0802 00       		.byte	0
 1990 0803 24       		.uleb128 0x24
 1991 0804 18000000 		.4byte	.LVL26
 1992 0808 D5050000 		.4byte	0x5d5
 1993 080c 00       		.byte	0
 1994 080d 29       		.uleb128 0x29
 1995 080e 40000000 		.4byte	.LBB25
ARM GAS  /tmp/ccsd5mUt.s 			page 36


 1996 0812 06000000 		.4byte	.LBE25-.LBB25
 1997 0816 28080000 		.4byte	0x828
 1998 081a 28       		.uleb128 0x28
 1999 081b 746D7000 		.ascii	"tmp\000"
 2000 081f 01       		.byte	0x1
 2001 0820 C6       		.byte	0xc6
 2002 0821 A9000000 		.4byte	0xa9
 2003 0825 01       		.uleb128 0x1
 2004 0826 53       		.byte	0x53
 2005 0827 00       		.byte	0
 2006 0828 2A       		.uleb128 0x2a
 2007 0829 12000000 		.4byte	.LVL24
 2008 082d 1D       		.uleb128 0x1d
 2009 082e 01       		.uleb128 0x1
 2010 082f 50       		.byte	0x50
 2011 0830 02       		.uleb128 0x2
 2012 0831 74       		.byte	0x74
 2013 0832 00       		.sleb128 0
 2014 0833 00       		.byte	0
 2015 0834 00       		.byte	0
 2016 0835 25       		.uleb128 0x25
 2017 0836 4E000000 		.4byte	.LASF85
 2018 083a 01       		.byte	0x1
 2019 083b E2       		.byte	0xe2
 2020 083c 28000000 		.4byte	0x28
 2021 0840 00000000 		.4byte	.LFB12
 2022 0844 70000000 		.4byte	.LFE12-.LFB12
 2023 0848 01       		.uleb128 0x1
 2024 0849 9C       		.byte	0x9c
 2025 084a 27090000 		.4byte	0x927
 2026 084e 18       		.uleb128 0x18
 2027 084f 69717000 		.ascii	"iqp\000"
 2028 0853 01       		.byte	0x1
 2029 0854 E2       		.byte	0xe2
 2030 0855 A2060000 		.4byte	0x6a2
 2031 0859 CF020000 		.4byte	.LLST17
 2032 085d 18       		.uleb128 0x18
 2033 085e 627000   		.ascii	"bp\000"
 2034 0861 01       		.byte	0x1
 2035 0862 E2       		.byte	0xe2
 2036 0863 60050000 		.4byte	0x560
 2037 0867 19030000 		.4byte	.LLST18
 2038 086b 18       		.uleb128 0x18
 2039 086c 6E00     		.ascii	"n\000"
 2040 086e 01       		.byte	0x1
 2041 086f E3       		.byte	0xe3
 2042 0870 28000000 		.4byte	0x28
 2043 0874 4F030000 		.4byte	.LLST19
 2044 0878 19       		.uleb128 0x19
 2045 0879 02020000 		.4byte	.LASF77
 2046 087d 01       		.byte	0x1
 2047 087e E3       		.byte	0xe3
 2048 087f 08010000 		.4byte	0x108
 2049 0883 72030000 		.4byte	.LLST20
 2050 0887 28       		.uleb128 0x28
 2051 0888 6E667900 		.ascii	"nfy\000"
 2052 088c 01       		.byte	0x1
ARM GAS  /tmp/ccsd5mUt.s 			page 37


 2053 088d E4       		.byte	0xe4
 2054 088e 3E050000 		.4byte	0x53e
 2055 0892 01       		.uleb128 0x1
 2056 0893 58       		.byte	0x58
 2057 0894 26       		.uleb128 0x26
 2058 0895 7200     		.ascii	"r\000"
 2059 0897 01       		.byte	0x1
 2060 0898 E5       		.byte	0xe5
 2061 0899 28000000 		.4byte	0x28
 2062 089d BC030000 		.4byte	.LLST21
 2063 08a1 29       		.uleb128 0x29
 2064 08a2 10000000 		.4byte	.LBB27
 2065 08a6 06000000 		.4byte	.LBE27-.LBB27
 2066 08aa BC080000 		.4byte	0x8bc
 2067 08ae 28       		.uleb128 0x28
 2068 08af 746D7000 		.ascii	"tmp\000"
 2069 08b3 01       		.byte	0x1
 2070 08b4 E9       		.byte	0xe9
 2071 08b5 A9000000 		.4byte	0xa9
 2072 08b9 01       		.uleb128 0x1
 2073 08ba 53       		.byte	0x53
 2074 08bb 00       		.byte	0
 2075 08bc 29       		.uleb128 0x29
 2076 08bd 50000000 		.4byte	.LBB28
 2077 08c1 06000000 		.4byte	.LBE28-.LBB28
 2078 08c5 D7080000 		.4byte	0x8d7
 2079 08c9 28       		.uleb128 0x28
 2080 08ca 746D7000 		.ascii	"tmp\000"
 2081 08ce 01       		.byte	0x1
 2082 08cf FA       		.byte	0xfa
 2083 08d0 A9000000 		.4byte	0xa9
 2084 08d4 01       		.uleb128 0x1
 2085 08d5 53       		.byte	0x53
 2086 08d6 00       		.byte	0
 2087 08d7 29       		.uleb128 0x29
 2088 08d8 5C000000 		.4byte	.LBB29
 2089 08dc 06000000 		.4byte	.LBE29-.LBB29
 2090 08e0 F2080000 		.4byte	0x8f2
 2091 08e4 28       		.uleb128 0x28
 2092 08e5 746D7000 		.ascii	"tmp\000"
 2093 08e9 01       		.byte	0x1
 2094 08ea FF       		.byte	0xff
 2095 08eb A9000000 		.4byte	0xa9
 2096 08ef 01       		.uleb128 0x1
 2097 08f0 53       		.byte	0x53
 2098 08f1 00       		.byte	0
 2099 08f2 29       		.uleb128 0x29
 2100 08f3 64000000 		.4byte	.LBB30
 2101 08f7 06000000 		.4byte	.LBE30-.LBB30
 2102 08fb 0D090000 		.4byte	0x90d
 2103 08ff 28       		.uleb128 0x28
 2104 0900 746D7000 		.ascii	"tmp\000"
 2105 0904 01       		.byte	0x1
 2106 0905 F0       		.byte	0xf0
 2107 0906 A9000000 		.4byte	0xa9
 2108 090a 01       		.uleb128 0x1
 2109 090b 53       		.byte	0x53
ARM GAS  /tmp/ccsd5mUt.s 			page 38


 2110 090c 00       		.byte	0
 2111 090d 2B       		.uleb128 0x2b
 2112 090e 22000000 		.4byte	.LVL37
 2113 0912 1D090000 		.4byte	0x91d
 2114 0916 1D       		.uleb128 0x1d
 2115 0917 01       		.uleb128 0x1
 2116 0918 50       		.byte	0x50
 2117 0919 02       		.uleb128 0x2
 2118 091a 74       		.byte	0x74
 2119 091b 00       		.sleb128 0
 2120 091c 00       		.byte	0
 2121 091d 24       		.uleb128 0x24
 2122 091e 28000000 		.4byte	.LVL39
 2123 0922 D5050000 		.4byte	0x5d5
 2124 0926 00       		.byte	0
 2125 0927 2C       		.uleb128 0x2c
 2126 0928 00000000 		.4byte	.LASF86
 2127 092c 01       		.byte	0x1
 2128 092d 1301     		.2byte	0x113
 2129 092f 00000000 		.4byte	.LFB13
 2130 0933 1C000000 		.4byte	.LFE13-.LFB13
 2131 0937 01       		.uleb128 0x1
 2132 0938 9C       		.byte	0x9c
 2133 0939 85090000 		.4byte	0x985
 2134 093d 2D       		.uleb128 0x2d
 2135 093e 6F717000 		.ascii	"oqp\000"
 2136 0942 01       		.byte	0x1
 2137 0943 1301     		.2byte	0x113
 2138 0945 85090000 		.4byte	0x985
 2139 0949 01       		.uleb128 0x1
 2140 094a 50       		.byte	0x50
 2141 094b 2D       		.uleb128 0x2d
 2142 094c 627000   		.ascii	"bp\000"
 2143 094f 01       		.byte	0x1
 2144 0950 1301     		.2byte	0x113
 2145 0952 60050000 		.4byte	0x560
 2146 0956 01       		.uleb128 0x1
 2147 0957 51       		.byte	0x51
 2148 0958 2E       		.uleb128 0x2e
 2149 0959 5F010000 		.4byte	.LASF78
 2150 095d 01       		.byte	0x1
 2151 095e 1301     		.2byte	0x113
 2152 0960 28000000 		.4byte	0x28
 2153 0964 01       		.uleb128 0x1
 2154 0965 52       		.byte	0x52
 2155 0966 2E       		.uleb128 0x2e
 2156 0967 1C000000 		.4byte	.LASF87
 2157 096b 01       		.byte	0x1
 2158 096c 1301     		.2byte	0x113
 2159 096e 3E050000 		.4byte	0x53e
 2160 0972 01       		.uleb128 0x1
 2161 0973 53       		.byte	0x53
 2162 0974 2F       		.uleb128 0x2f
 2163 0975 10010000 		.4byte	.LASF80
 2164 0979 01       		.byte	0x1
 2165 097a 1401     		.2byte	0x114
 2166 097c 60020000 		.4byte	0x260
ARM GAS  /tmp/ccsd5mUt.s 			page 39


 2167 0980 DB030000 		.4byte	.LLST22
 2168 0984 00       		.byte	0
 2169 0985 09       		.uleb128 0x9
 2170 0986 04       		.byte	0x4
 2171 0987 71050000 		.4byte	0x571
 2172 098b 2C       		.uleb128 0x2c
 2173 098c 48030000 		.4byte	.LASF88
 2174 0990 01       		.byte	0x1
 2175 0991 2901     		.2byte	0x129
 2176 0993 00000000 		.4byte	.LFB14
 2177 0997 2E000000 		.4byte	.LFE14-.LFB14
 2178 099b 01       		.uleb128 0x1
 2179 099c 9C       		.byte	0x9c
 2180 099d EC090000 		.4byte	0x9ec
 2181 09a1 30       		.uleb128 0x30
 2182 09a2 6F717000 		.ascii	"oqp\000"
 2183 09a6 01       		.byte	0x1
 2184 09a7 2901     		.2byte	0x129
 2185 09a9 85090000 		.4byte	0x985
 2186 09ad FB030000 		.4byte	.LLST23
 2187 09b1 31       		.uleb128 0x31
 2188 09b2 AF050000 		.4byte	0x5af
 2189 09b6 1A000000 		.4byte	.LBB31
 2190 09ba 06000000 		.4byte	.LBE31-.LBB31
 2191 09be 01       		.byte	0x1
 2192 09bf 3001     		.2byte	0x130
 2193 09c1 E2090000 		.4byte	0x9e2
 2194 09c5 1B       		.uleb128 0x1b
 2195 09c6 BF050000 		.4byte	0x5bf
 2196 09ca 19040000 		.4byte	.LLST24
 2197 09ce 22       		.uleb128 0x22
 2198 09cf 1A000000 		.4byte	.LBB32
 2199 09d3 06000000 		.4byte	.LBE32-.LBB32
 2200 09d7 23       		.uleb128 0x23
 2201 09d8 CA050000 		.4byte	0x5ca
 2202 09dc 2C040000 		.4byte	.LLST25
 2203 09e0 00       		.byte	0
 2204 09e1 00       		.byte	0
 2205 09e2 24       		.uleb128 0x24
 2206 09e3 24000000 		.4byte	.LVL50
 2207 09e7 4A0C0000 		.4byte	0xc4a
 2208 09eb 00       		.byte	0
 2209 09ec 32       		.uleb128 0x32
 2210 09ed 15010000 		.4byte	.LASF89
 2211 09f1 01       		.byte	0x1
 2212 09f2 4901     		.2byte	0x149
 2213 09f4 F2000000 		.4byte	0xf2
 2214 09f8 00000000 		.4byte	.LFB15
 2215 09fc 54000000 		.4byte	.LFE15-.LFB15
 2216 0a00 01       		.uleb128 0x1
 2217 0a01 9C       		.byte	0x9c
 2218 0a02 B80A0000 		.4byte	0xab8
 2219 0a06 30       		.uleb128 0x30
 2220 0a07 6F717000 		.ascii	"oqp\000"
 2221 0a0b 01       		.byte	0x1
 2222 0a0c 4901     		.2byte	0x149
 2223 0a0e 85090000 		.4byte	0x985
ARM GAS  /tmp/ccsd5mUt.s 			page 40


 2224 0a12 3F040000 		.4byte	.LLST26
 2225 0a16 30       		.uleb128 0x30
 2226 0a17 6200     		.ascii	"b\000"
 2227 0a19 01       		.byte	0x1
 2228 0a1a 4901     		.2byte	0x149
 2229 0a1c 93000000 		.4byte	0x93
 2230 0a20 73040000 		.4byte	.LLST27
 2231 0a24 2F       		.uleb128 0x2f
 2232 0a25 02020000 		.4byte	.LASF77
 2233 0a29 01       		.byte	0x1
 2234 0a2a 4901     		.2byte	0x149
 2235 0a2c 08010000 		.4byte	0x108
 2236 0a30 94040000 		.4byte	.LLST28
 2237 0a34 29       		.uleb128 0x29
 2238 0a35 08000000 		.4byte	.LBB33
 2239 0a39 06000000 		.4byte	.LBE33-.LBB33
 2240 0a3d 500A0000 		.4byte	0xa50
 2241 0a41 33       		.uleb128 0x33
 2242 0a42 746D7000 		.ascii	"tmp\000"
 2243 0a46 01       		.byte	0x1
 2244 0a47 4B01     		.2byte	0x14b
 2245 0a49 A9000000 		.4byte	0xa9
 2246 0a4d 01       		.uleb128 0x1
 2247 0a4e 53       		.byte	0x53
 2248 0a4f 00       		.byte	0
 2249 0a50 27       		.uleb128 0x27
 2250 0a51 50000000 		.4byte	.Ldebug_ranges0+0x50
 2251 0a55 8F0A0000 		.4byte	0xa8f
 2252 0a59 34       		.uleb128 0x34
 2253 0a5a 6D736700 		.ascii	"msg\000"
 2254 0a5e 01       		.byte	0x1
 2255 0a5f 4D01     		.2byte	0x14d
 2256 0a61 F2000000 		.4byte	0xf2
 2257 0a65 D3040000 		.4byte	.LLST29
 2258 0a69 29       		.uleb128 0x29
 2259 0a6a 4C000000 		.4byte	.LBB35
 2260 0a6e 06000000 		.4byte	.LBE35-.LBB35
 2261 0a72 850A0000 		.4byte	0xa85
 2262 0a76 33       		.uleb128 0x33
 2263 0a77 746D7000 		.ascii	"tmp\000"
 2264 0a7b 01       		.byte	0x1
 2265 0a7c 5001     		.2byte	0x150
 2266 0a7e A9000000 		.4byte	0xa9
 2267 0a82 01       		.uleb128 0x1
 2268 0a83 53       		.byte	0x53
 2269 0a84 00       		.byte	0
 2270 0a85 24       		.uleb128 0x24
 2271 0a86 14000000 		.4byte	.LVL54
 2272 0a8a D5050000 		.4byte	0x5d5
 2273 0a8e 00       		.byte	0
 2274 0a8f 29       		.uleb128 0x29
 2275 0a90 42000000 		.4byte	.LBB37
 2276 0a94 06000000 		.4byte	.LBE37-.LBB37
 2277 0a98 AB0A0000 		.4byte	0xaab
 2278 0a9c 33       		.uleb128 0x33
 2279 0a9d 746D7000 		.ascii	"tmp\000"
 2280 0aa1 01       		.byte	0x1
ARM GAS  /tmp/ccsd5mUt.s 			page 41


 2281 0aa2 5D01     		.2byte	0x15d
 2282 0aa4 A9000000 		.4byte	0xa9
 2283 0aa8 01       		.uleb128 0x1
 2284 0aa9 53       		.byte	0x53
 2285 0aaa 00       		.byte	0
 2286 0aab 2A       		.uleb128 0x2a
 2287 0aac 42000000 		.4byte	.LVL58
 2288 0ab0 1D       		.uleb128 0x1d
 2289 0ab1 01       		.uleb128 0x1
 2290 0ab2 50       		.byte	0x50
 2291 0ab3 02       		.uleb128 0x2
 2292 0ab4 74       		.byte	0x74
 2293 0ab5 00       		.sleb128 0
 2294 0ab6 00       		.byte	0
 2295 0ab7 00       		.byte	0
 2296 0ab8 32       		.uleb128 0x32
 2297 0ab9 E2000000 		.4byte	.LASF90
 2298 0abd 01       		.byte	0x1
 2299 0abe 6B01     		.2byte	0x16b
 2300 0ac0 F2000000 		.4byte	0xf2
 2301 0ac4 00000000 		.4byte	.LFB16
 2302 0ac8 48000000 		.4byte	.LFE16-.LFB16
 2303 0acc 01       		.uleb128 0x1
 2304 0acd 9C       		.byte	0x9c
 2305 0ace 2B0B0000 		.4byte	0xb2b
 2306 0ad2 30       		.uleb128 0x30
 2307 0ad3 6F717000 		.ascii	"oqp\000"
 2308 0ad7 01       		.byte	0x1
 2309 0ad8 6B01     		.2byte	0x16b
 2310 0ada 85090000 		.4byte	0x985
 2311 0ade F1040000 		.4byte	.LLST30
 2312 0ae2 34       		.uleb128 0x34
 2313 0ae3 6200     		.ascii	"b\000"
 2314 0ae5 01       		.byte	0x1
 2315 0ae6 6C01     		.2byte	0x16c
 2316 0ae8 93000000 		.4byte	0x93
 2317 0aec 36050000 		.4byte	.LLST31
 2318 0af0 31       		.uleb128 0x31
 2319 0af1 AF050000 		.4byte	0x5af
 2320 0af5 22000000 		.4byte	.LBB39
 2321 0af9 08000000 		.4byte	.LBE39-.LBB39
 2322 0afd 01       		.byte	0x1
 2323 0afe 7901     		.2byte	0x179
 2324 0b00 210B0000 		.4byte	0xb21
 2325 0b04 1B       		.uleb128 0x1b
 2326 0b05 BF050000 		.4byte	0x5bf
 2327 0b09 49050000 		.4byte	.LLST32
 2328 0b0d 22       		.uleb128 0x22
 2329 0b0e 22000000 		.4byte	.LBB40
 2330 0b12 08000000 		.4byte	.LBE40-.LBB40
 2331 0b16 23       		.uleb128 0x23
 2332 0b17 CA050000 		.4byte	0x5ca
 2333 0b1b 6A050000 		.4byte	.LLST33
 2334 0b1f 00       		.byte	0
 2335 0b20 00       		.byte	0
 2336 0b21 24       		.uleb128 0x24
 2337 0b22 30000000 		.4byte	.LVL64
ARM GAS  /tmp/ccsd5mUt.s 			page 42


 2338 0b26 4A0C0000 		.4byte	0xc4a
 2339 0b2a 00       		.byte	0
 2340 0b2b 35       		.uleb128 0x35
 2341 0b2c 75000000 		.4byte	.LASF91
 2342 0b30 01       		.byte	0x1
 2343 0b31 9601     		.2byte	0x196
 2344 0b33 28000000 		.4byte	0x28
 2345 0b37 00000000 		.4byte	.LFB17
 2346 0b3b 82000000 		.4byte	.LFE17-.LFB17
 2347 0b3f 01       		.uleb128 0x1
 2348 0b40 9C       		.byte	0x9c
 2349 0b41 250C0000 		.4byte	0xc25
 2350 0b45 30       		.uleb128 0x30
 2351 0b46 6F717000 		.ascii	"oqp\000"
 2352 0b4a 01       		.byte	0x1
 2353 0b4b 9601     		.2byte	0x196
 2354 0b4d 85090000 		.4byte	0x985
 2355 0b51 7D050000 		.4byte	.LLST34
 2356 0b55 30       		.uleb128 0x30
 2357 0b56 627000   		.ascii	"bp\000"
 2358 0b59 01       		.byte	0x1
 2359 0b5a 9601     		.2byte	0x196
 2360 0b5c 7C050000 		.4byte	0x57c
 2361 0b60 C7050000 		.4byte	.LLST35
 2362 0b64 30       		.uleb128 0x30
 2363 0b65 6E00     		.ascii	"n\000"
 2364 0b67 01       		.byte	0x1
 2365 0b68 9701     		.2byte	0x197
 2366 0b6a 28000000 		.4byte	0x28
 2367 0b6e 06060000 		.4byte	.LLST36
 2368 0b72 2F       		.uleb128 0x2f
 2369 0b73 02020000 		.4byte	.LASF77
 2370 0b77 01       		.byte	0x1
 2371 0b78 9701     		.2byte	0x197
 2372 0b7a 08010000 		.4byte	0x108
 2373 0b7e 3C060000 		.4byte	.LLST37
 2374 0b82 33       		.uleb128 0x33
 2375 0b83 6E667900 		.ascii	"nfy\000"
 2376 0b87 01       		.byte	0x1
 2377 0b88 9801     		.2byte	0x198
 2378 0b8a 3E050000 		.4byte	0x53e
 2379 0b8e 01       		.uleb128 0x1
 2380 0b8f 59       		.byte	0x59
 2381 0b90 34       		.uleb128 0x34
 2382 0b91 7700     		.ascii	"w\000"
 2383 0b93 01       		.byte	0x1
 2384 0b94 9901     		.2byte	0x199
 2385 0b96 28000000 		.4byte	0x28
 2386 0b9a 5A060000 		.4byte	.LLST38
 2387 0b9e 29       		.uleb128 0x29
 2388 0b9f 10000000 		.4byte	.LBB41
 2389 0ba3 06000000 		.4byte	.LBE41-.LBB41
 2390 0ba7 BA0B0000 		.4byte	0xbba
 2391 0bab 33       		.uleb128 0x33
 2392 0bac 746D7000 		.ascii	"tmp\000"
 2393 0bb0 01       		.byte	0x1
 2394 0bb1 9D01     		.2byte	0x19d
ARM GAS  /tmp/ccsd5mUt.s 			page 43


 2395 0bb3 A9000000 		.4byte	0xa9
 2396 0bb7 01       		.uleb128 0x1
 2397 0bb8 53       		.byte	0x53
 2398 0bb9 00       		.byte	0
 2399 0bba 29       		.uleb128 0x29
 2400 0bbb 46000000 		.4byte	.LBB42
 2401 0bbf 06000000 		.4byte	.LBE42-.LBB42
 2402 0bc3 D60B0000 		.4byte	0xbd6
 2403 0bc7 33       		.uleb128 0x33
 2404 0bc8 746D7000 		.ascii	"tmp\000"
 2405 0bcc 01       		.byte	0x1
 2406 0bcd AD01     		.2byte	0x1ad
 2407 0bcf A9000000 		.4byte	0xa9
 2408 0bd3 01       		.uleb128 0x1
 2409 0bd4 53       		.byte	0x53
 2410 0bd5 00       		.byte	0
 2411 0bd6 29       		.uleb128 0x29
 2412 0bd7 54000000 		.4byte	.LBB43
 2413 0bdb 06000000 		.4byte	.LBE43-.LBB43
 2414 0bdf F20B0000 		.4byte	0xbf2
 2415 0be3 33       		.uleb128 0x33
 2416 0be4 746D7000 		.ascii	"tmp\000"
 2417 0be8 01       		.byte	0x1
 2418 0be9 B101     		.2byte	0x1b1
 2419 0beb A9000000 		.4byte	0xa9
 2420 0bef 01       		.uleb128 0x1
 2421 0bf0 53       		.byte	0x53
 2422 0bf1 00       		.byte	0
 2423 0bf2 29       		.uleb128 0x29
 2424 0bf3 76000000 		.4byte	.LBB44
 2425 0bf7 06000000 		.4byte	.LBE44-.LBB44
 2426 0bfb 0E0C0000 		.4byte	0xc0e
 2427 0bff 33       		.uleb128 0x33
 2428 0c00 746D7000 		.ascii	"tmp\000"
 2429 0c04 01       		.byte	0x1
 2430 0c05 A101     		.2byte	0x1a1
 2431 0c07 A9000000 		.4byte	0xa9
 2432 0c0b 01       		.uleb128 0x1
 2433 0c0c 53       		.byte	0x53
 2434 0c0d 00       		.byte	0
 2435 0c0e 36       		.uleb128 0x36
 2436 0c0f 72000000 		.4byte	.LVL82
 2437 0c13 D5050000 		.4byte	0x5d5
 2438 0c17 1D       		.uleb128 0x1d
 2439 0c18 01       		.uleb128 0x1
 2440 0c19 51       		.byte	0x51
 2441 0c1a 02       		.uleb128 0x2
 2442 0c1b 7A       		.byte	0x7a
 2443 0c1c 00       		.sleb128 0
 2444 0c1d 1D       		.uleb128 0x1d
 2445 0c1e 01       		.uleb128 0x1
 2446 0c1f 50       		.byte	0x50
 2447 0c20 02       		.uleb128 0x2
 2448 0c21 74       		.byte	0x74
 2449 0c22 00       		.sleb128 0
 2450 0c23 00       		.byte	0
 2451 0c24 00       		.byte	0
ARM GAS  /tmp/ccsd5mUt.s 			page 44


 2452 0c25 37       		.uleb128 0x37
 2453 0c26 9E040000 		.4byte	.LASF97
 2454 0c2a 0A       		.byte	0xa
 2455 0c2b 6F       		.byte	0x6f
 2456 0c2c 2C040000 		.4byte	0x42c
 2457 0c30 38       		.uleb128 0x38
 2458 0c31 BA040000 		.4byte	.LASF98
 2459 0c35 0A       		.byte	0xa
 2460 0c36 96       		.byte	0x96
 2461 0c37 F2000000 		.4byte	0xf2
 2462 0c3b 4A0C0000 		.4byte	0xc4a
 2463 0c3f 12       		.uleb128 0x12
 2464 0c40 D1000000 		.4byte	0xd1
 2465 0c44 12       		.uleb128 0x12
 2466 0c45 08010000 		.4byte	0x108
 2467 0c49 00       		.byte	0
 2468 0c4a 39       		.uleb128 0x39
 2469 0c4b 16030000 		.4byte	.LASF99
 2470 0c4f 0A       		.byte	0xa
 2471 0c50 90       		.byte	0x90
 2472 0c51 24020000 		.4byte	0x224
 2473 0c55 12       		.uleb128 0x12
 2474 0c56 24020000 		.4byte	0x224
 2475 0c5a 00       		.byte	0
 2476 0c5b 00       		.byte	0
 2477              		.section	.debug_abbrev,"",%progbits
 2478              	.Ldebug_abbrev0:
 2479 0000 01       		.uleb128 0x1
 2480 0001 11       		.uleb128 0x11
 2481 0002 01       		.byte	0x1
 2482 0003 25       		.uleb128 0x25
 2483 0004 0E       		.uleb128 0xe
 2484 0005 13       		.uleb128 0x13
 2485 0006 0B       		.uleb128 0xb
 2486 0007 03       		.uleb128 0x3
 2487 0008 0E       		.uleb128 0xe
 2488 0009 55       		.uleb128 0x55
 2489 000a 17       		.uleb128 0x17
 2490 000b 11       		.uleb128 0x11
 2491 000c 01       		.uleb128 0x1
 2492 000d 10       		.uleb128 0x10
 2493 000e 17       		.uleb128 0x17
 2494 000f 00       		.byte	0
 2495 0010 00       		.byte	0
 2496 0011 02       		.uleb128 0x2
 2497 0012 24       		.uleb128 0x24
 2498 0013 00       		.byte	0
 2499 0014 0B       		.uleb128 0xb
 2500 0015 0B       		.uleb128 0xb
 2501 0016 3E       		.uleb128 0x3e
 2502 0017 0B       		.uleb128 0xb
 2503 0018 03       		.uleb128 0x3
 2504 0019 08       		.uleb128 0x8
 2505 001a 00       		.byte	0
 2506 001b 00       		.byte	0
 2507 001c 03       		.uleb128 0x3
 2508 001d 16       		.uleb128 0x16
ARM GAS  /tmp/ccsd5mUt.s 			page 45


 2509 001e 00       		.byte	0
 2510 001f 03       		.uleb128 0x3
 2511 0020 0E       		.uleb128 0xe
 2512 0021 3A       		.uleb128 0x3a
 2513 0022 0B       		.uleb128 0xb
 2514 0023 3B       		.uleb128 0x3b
 2515 0024 0B       		.uleb128 0xb
 2516 0025 49       		.uleb128 0x49
 2517 0026 13       		.uleb128 0x13
 2518 0027 00       		.byte	0
 2519 0028 00       		.byte	0
 2520 0029 04       		.uleb128 0x4
 2521 002a 24       		.uleb128 0x24
 2522 002b 00       		.byte	0
 2523 002c 0B       		.uleb128 0xb
 2524 002d 0B       		.uleb128 0xb
 2525 002e 3E       		.uleb128 0x3e
 2526 002f 0B       		.uleb128 0xb
 2527 0030 03       		.uleb128 0x3
 2528 0031 0E       		.uleb128 0xe
 2529 0032 00       		.byte	0
 2530 0033 00       		.byte	0
 2531 0034 05       		.uleb128 0x5
 2532 0035 13       		.uleb128 0x13
 2533 0036 01       		.byte	0x1
 2534 0037 03       		.uleb128 0x3
 2535 0038 0E       		.uleb128 0xe
 2536 0039 0B       		.uleb128 0xb
 2537 003a 0B       		.uleb128 0xb
 2538 003b 3A       		.uleb128 0x3a
 2539 003c 0B       		.uleb128 0xb
 2540 003d 3B       		.uleb128 0x3b
 2541 003e 0B       		.uleb128 0xb
 2542 003f 01       		.uleb128 0x1
 2543 0040 13       		.uleb128 0x13
 2544 0041 00       		.byte	0
 2545 0042 00       		.byte	0
 2546 0043 06       		.uleb128 0x6
 2547 0044 0D       		.uleb128 0xd
 2548 0045 00       		.byte	0
 2549 0046 03       		.uleb128 0x3
 2550 0047 0E       		.uleb128 0xe
 2551 0048 3A       		.uleb128 0x3a
 2552 0049 0B       		.uleb128 0xb
 2553 004a 3B       		.uleb128 0x3b
 2554 004b 0B       		.uleb128 0xb
 2555 004c 49       		.uleb128 0x49
 2556 004d 13       		.uleb128 0x13
 2557 004e 38       		.uleb128 0x38
 2558 004f 0B       		.uleb128 0xb
 2559 0050 00       		.byte	0
 2560 0051 00       		.byte	0
 2561 0052 07       		.uleb128 0x7
 2562 0053 0D       		.uleb128 0xd
 2563 0054 00       		.byte	0
 2564 0055 03       		.uleb128 0x3
 2565 0056 08       		.uleb128 0x8
ARM GAS  /tmp/ccsd5mUt.s 			page 46


 2566 0057 3A       		.uleb128 0x3a
 2567 0058 0B       		.uleb128 0xb
 2568 0059 3B       		.uleb128 0x3b
 2569 005a 0B       		.uleb128 0xb
 2570 005b 49       		.uleb128 0x49
 2571 005c 13       		.uleb128 0x13
 2572 005d 38       		.uleb128 0x38
 2573 005e 0B       		.uleb128 0xb
 2574 005f 00       		.byte	0
 2575 0060 00       		.byte	0
 2576 0061 08       		.uleb128 0x8
 2577 0062 13       		.uleb128 0x13
 2578 0063 01       		.byte	0x1
 2579 0064 0B       		.uleb128 0xb
 2580 0065 0B       		.uleb128 0xb
 2581 0066 3A       		.uleb128 0x3a
 2582 0067 0B       		.uleb128 0xb
 2583 0068 3B       		.uleb128 0x3b
 2584 0069 0B       		.uleb128 0xb
 2585 006a 01       		.uleb128 0x1
 2586 006b 13       		.uleb128 0x13
 2587 006c 00       		.byte	0
 2588 006d 00       		.byte	0
 2589 006e 09       		.uleb128 0x9
 2590 006f 0F       		.uleb128 0xf
 2591 0070 00       		.byte	0
 2592 0071 0B       		.uleb128 0xb
 2593 0072 0B       		.uleb128 0xb
 2594 0073 49       		.uleb128 0x49
 2595 0074 13       		.uleb128 0x13
 2596 0075 00       		.byte	0
 2597 0076 00       		.byte	0
 2598 0077 0A       		.uleb128 0xa
 2599 0078 0F       		.uleb128 0xf
 2600 0079 00       		.byte	0
 2601 007a 0B       		.uleb128 0xb
 2602 007b 0B       		.uleb128 0xb
 2603 007c 00       		.byte	0
 2604 007d 00       		.byte	0
 2605 007e 0B       		.uleb128 0xb
 2606 007f 13       		.uleb128 0x13
 2607 0080 01       		.byte	0x1
 2608 0081 03       		.uleb128 0x3
 2609 0082 0E       		.uleb128 0xe
 2610 0083 0B       		.uleb128 0xb
 2611 0084 0B       		.uleb128 0xb
 2612 0085 3A       		.uleb128 0x3a
 2613 0086 0B       		.uleb128 0xb
 2614 0087 3B       		.uleb128 0x3b
 2615 0088 05       		.uleb128 0x5
 2616 0089 01       		.uleb128 0x1
 2617 008a 13       		.uleb128 0x13
 2618 008b 00       		.byte	0
 2619 008c 00       		.byte	0
 2620 008d 0C       		.uleb128 0xc
 2621 008e 0D       		.uleb128 0xd
 2622 008f 00       		.byte	0
ARM GAS  /tmp/ccsd5mUt.s 			page 47


 2623 0090 03       		.uleb128 0x3
 2624 0091 08       		.uleb128 0x8
 2625 0092 3A       		.uleb128 0x3a
 2626 0093 0B       		.uleb128 0xb
 2627 0094 3B       		.uleb128 0x3b
 2628 0095 05       		.uleb128 0x5
 2629 0096 49       		.uleb128 0x49
 2630 0097 13       		.uleb128 0x13
 2631 0098 38       		.uleb128 0x38
 2632 0099 0B       		.uleb128 0xb
 2633 009a 00       		.byte	0
 2634 009b 00       		.byte	0
 2635 009c 0D       		.uleb128 0xd
 2636 009d 35       		.uleb128 0x35
 2637 009e 00       		.byte	0
 2638 009f 49       		.uleb128 0x49
 2639 00a0 13       		.uleb128 0x13
 2640 00a1 00       		.byte	0
 2641 00a2 00       		.byte	0
 2642 00a3 0E       		.uleb128 0xe
 2643 00a4 17       		.uleb128 0x17
 2644 00a5 01       		.byte	0x1
 2645 00a6 0B       		.uleb128 0xb
 2646 00a7 0B       		.uleb128 0xb
 2647 00a8 3A       		.uleb128 0x3a
 2648 00a9 0B       		.uleb128 0xb
 2649 00aa 3B       		.uleb128 0x3b
 2650 00ab 0B       		.uleb128 0xb
 2651 00ac 01       		.uleb128 0x1
 2652 00ad 13       		.uleb128 0x13
 2653 00ae 00       		.byte	0
 2654 00af 00       		.byte	0
 2655 00b0 0F       		.uleb128 0xf
 2656 00b1 0D       		.uleb128 0xd
 2657 00b2 00       		.byte	0
 2658 00b3 03       		.uleb128 0x3
 2659 00b4 0E       		.uleb128 0xe
 2660 00b5 3A       		.uleb128 0x3a
 2661 00b6 0B       		.uleb128 0xb
 2662 00b7 3B       		.uleb128 0x3b
 2663 00b8 0B       		.uleb128 0xb
 2664 00b9 49       		.uleb128 0x49
 2665 00ba 13       		.uleb128 0x13
 2666 00bb 00       		.byte	0
 2667 00bc 00       		.byte	0
 2668 00bd 10       		.uleb128 0x10
 2669 00be 26       		.uleb128 0x26
 2670 00bf 00       		.byte	0
 2671 00c0 49       		.uleb128 0x49
 2672 00c1 13       		.uleb128 0x13
 2673 00c2 00       		.byte	0
 2674 00c3 00       		.byte	0
 2675 00c4 11       		.uleb128 0x11
 2676 00c5 15       		.uleb128 0x15
 2677 00c6 01       		.byte	0x1
 2678 00c7 27       		.uleb128 0x27
 2679 00c8 19       		.uleb128 0x19
ARM GAS  /tmp/ccsd5mUt.s 			page 48


 2680 00c9 01       		.uleb128 0x1
 2681 00ca 13       		.uleb128 0x13
 2682 00cb 00       		.byte	0
 2683 00cc 00       		.byte	0
 2684 00cd 12       		.uleb128 0x12
 2685 00ce 05       		.uleb128 0x5
 2686 00cf 00       		.byte	0
 2687 00d0 49       		.uleb128 0x49
 2688 00d1 13       		.uleb128 0x13
 2689 00d2 00       		.byte	0
 2690 00d3 00       		.byte	0
 2691 00d4 13       		.uleb128 0x13
 2692 00d5 2E       		.uleb128 0x2e
 2693 00d6 01       		.byte	0x1
 2694 00d7 03       		.uleb128 0x3
 2695 00d8 0E       		.uleb128 0xe
 2696 00d9 3A       		.uleb128 0x3a
 2697 00da 0B       		.uleb128 0xb
 2698 00db 3B       		.uleb128 0x3b
 2699 00dc 0B       		.uleb128 0xb
 2700 00dd 27       		.uleb128 0x27
 2701 00de 19       		.uleb128 0x19
 2702 00df 20       		.uleb128 0x20
 2703 00e0 0B       		.uleb128 0xb
 2704 00e1 01       		.uleb128 0x1
 2705 00e2 13       		.uleb128 0x13
 2706 00e3 00       		.byte	0
 2707 00e4 00       		.byte	0
 2708 00e5 14       		.uleb128 0x14
 2709 00e6 05       		.uleb128 0x5
 2710 00e7 00       		.byte	0
 2711 00e8 03       		.uleb128 0x3
 2712 00e9 08       		.uleb128 0x8
 2713 00ea 3A       		.uleb128 0x3a
 2714 00eb 0B       		.uleb128 0xb
 2715 00ec 3B       		.uleb128 0x3b
 2716 00ed 0B       		.uleb128 0xb
 2717 00ee 49       		.uleb128 0x49
 2718 00ef 13       		.uleb128 0x13
 2719 00f0 00       		.byte	0
 2720 00f1 00       		.byte	0
 2721 00f2 15       		.uleb128 0x15
 2722 00f3 2E       		.uleb128 0x2e
 2723 00f4 01       		.byte	0x1
 2724 00f5 03       		.uleb128 0x3
 2725 00f6 0E       		.uleb128 0xe
 2726 00f7 3A       		.uleb128 0x3a
 2727 00f8 0B       		.uleb128 0xb
 2728 00f9 3B       		.uleb128 0x3b
 2729 00fa 0B       		.uleb128 0xb
 2730 00fb 27       		.uleb128 0x27
 2731 00fc 19       		.uleb128 0x19
 2732 00fd 49       		.uleb128 0x49
 2733 00fe 13       		.uleb128 0x13
 2734 00ff 20       		.uleb128 0x20
 2735 0100 0B       		.uleb128 0xb
 2736 0101 01       		.uleb128 0x1
ARM GAS  /tmp/ccsd5mUt.s 			page 49


 2737 0102 13       		.uleb128 0x13
 2738 0103 00       		.byte	0
 2739 0104 00       		.byte	0
 2740 0105 16       		.uleb128 0x16
 2741 0106 34       		.uleb128 0x34
 2742 0107 00       		.byte	0
 2743 0108 03       		.uleb128 0x3
 2744 0109 08       		.uleb128 0x8
 2745 010a 3A       		.uleb128 0x3a
 2746 010b 0B       		.uleb128 0xb
 2747 010c 3B       		.uleb128 0x3b
 2748 010d 0B       		.uleb128 0xb
 2749 010e 49       		.uleb128 0x49
 2750 010f 13       		.uleb128 0x13
 2751 0110 00       		.byte	0
 2752 0111 00       		.byte	0
 2753 0112 17       		.uleb128 0x17
 2754 0113 2E       		.uleb128 0x2e
 2755 0114 01       		.byte	0x1
 2756 0115 03       		.uleb128 0x3
 2757 0116 0E       		.uleb128 0xe
 2758 0117 3A       		.uleb128 0x3a
 2759 0118 0B       		.uleb128 0xb
 2760 0119 3B       		.uleb128 0x3b
 2761 011a 0B       		.uleb128 0xb
 2762 011b 27       		.uleb128 0x27
 2763 011c 19       		.uleb128 0x19
 2764 011d 49       		.uleb128 0x49
 2765 011e 13       		.uleb128 0x13
 2766 011f 11       		.uleb128 0x11
 2767 0120 01       		.uleb128 0x1
 2768 0121 12       		.uleb128 0x12
 2769 0122 06       		.uleb128 0x6
 2770 0123 40       		.uleb128 0x40
 2771 0124 18       		.uleb128 0x18
 2772 0125 9742     		.uleb128 0x2117
 2773 0127 19       		.uleb128 0x19
 2774 0128 01       		.uleb128 0x1
 2775 0129 13       		.uleb128 0x13
 2776 012a 00       		.byte	0
 2777 012b 00       		.byte	0
 2778 012c 18       		.uleb128 0x18
 2779 012d 05       		.uleb128 0x5
 2780 012e 00       		.byte	0
 2781 012f 03       		.uleb128 0x3
 2782 0130 08       		.uleb128 0x8
 2783 0131 3A       		.uleb128 0x3a
 2784 0132 0B       		.uleb128 0xb
 2785 0133 3B       		.uleb128 0x3b
 2786 0134 0B       		.uleb128 0xb
 2787 0135 49       		.uleb128 0x49
 2788 0136 13       		.uleb128 0x13
 2789 0137 02       		.uleb128 0x2
 2790 0138 17       		.uleb128 0x17
 2791 0139 00       		.byte	0
 2792 013a 00       		.byte	0
 2793 013b 19       		.uleb128 0x19
ARM GAS  /tmp/ccsd5mUt.s 			page 50


 2794 013c 05       		.uleb128 0x5
 2795 013d 00       		.byte	0
 2796 013e 03       		.uleb128 0x3
 2797 013f 0E       		.uleb128 0xe
 2798 0140 3A       		.uleb128 0x3a
 2799 0141 0B       		.uleb128 0xb
 2800 0142 3B       		.uleb128 0x3b
 2801 0143 0B       		.uleb128 0xb
 2802 0144 49       		.uleb128 0x49
 2803 0145 13       		.uleb128 0x13
 2804 0146 02       		.uleb128 0x2
 2805 0147 17       		.uleb128 0x17
 2806 0148 00       		.byte	0
 2807 0149 00       		.byte	0
 2808 014a 1A       		.uleb128 0x1a
 2809 014b 1D       		.uleb128 0x1d
 2810 014c 01       		.byte	0x1
 2811 014d 31       		.uleb128 0x31
 2812 014e 13       		.uleb128 0x13
 2813 014f 52       		.uleb128 0x52
 2814 0150 01       		.uleb128 0x1
 2815 0151 55       		.uleb128 0x55
 2816 0152 17       		.uleb128 0x17
 2817 0153 58       		.uleb128 0x58
 2818 0154 0B       		.uleb128 0xb
 2819 0155 59       		.uleb128 0x59
 2820 0156 0B       		.uleb128 0xb
 2821 0157 01       		.uleb128 0x1
 2822 0158 13       		.uleb128 0x13
 2823 0159 00       		.byte	0
 2824 015a 00       		.byte	0
 2825 015b 1B       		.uleb128 0x1b
 2826 015c 05       		.uleb128 0x5
 2827 015d 00       		.byte	0
 2828 015e 31       		.uleb128 0x31
 2829 015f 13       		.uleb128 0x13
 2830 0160 02       		.uleb128 0x2
 2831 0161 17       		.uleb128 0x17
 2832 0162 00       		.byte	0
 2833 0163 00       		.byte	0
 2834 0164 1C       		.uleb128 0x1c
 2835 0165 898201   		.uleb128 0x4109
 2836 0168 01       		.byte	0x1
 2837 0169 11       		.uleb128 0x11
 2838 016a 01       		.uleb128 0x1
 2839 016b 9542     		.uleb128 0x2115
 2840 016d 19       		.uleb128 0x19
 2841 016e 31       		.uleb128 0x31
 2842 016f 13       		.uleb128 0x13
 2843 0170 00       		.byte	0
 2844 0171 00       		.byte	0
 2845 0172 1D       		.uleb128 0x1d
 2846 0173 8A8201   		.uleb128 0x410a
 2847 0176 00       		.byte	0
 2848 0177 02       		.uleb128 0x2
 2849 0178 18       		.uleb128 0x18
 2850 0179 9142     		.uleb128 0x2111
ARM GAS  /tmp/ccsd5mUt.s 			page 51


 2851 017b 18       		.uleb128 0x18
 2852 017c 00       		.byte	0
 2853 017d 00       		.byte	0
 2854 017e 1E       		.uleb128 0x1e
 2855 017f 2E       		.uleb128 0x2e
 2856 0180 01       		.byte	0x1
 2857 0181 3F       		.uleb128 0x3f
 2858 0182 19       		.uleb128 0x19
 2859 0183 03       		.uleb128 0x3
 2860 0184 0E       		.uleb128 0xe
 2861 0185 3A       		.uleb128 0x3a
 2862 0186 0B       		.uleb128 0xb
 2863 0187 3B       		.uleb128 0x3b
 2864 0188 0B       		.uleb128 0xb
 2865 0189 27       		.uleb128 0x27
 2866 018a 19       		.uleb128 0x19
 2867 018b 11       		.uleb128 0x11
 2868 018c 01       		.uleb128 0x1
 2869 018d 12       		.uleb128 0x12
 2870 018e 06       		.uleb128 0x6
 2871 018f 40       		.uleb128 0x40
 2872 0190 18       		.uleb128 0x18
 2873 0191 9742     		.uleb128 0x2117
 2874 0193 19       		.uleb128 0x19
 2875 0194 01       		.uleb128 0x1
 2876 0195 13       		.uleb128 0x13
 2877 0196 00       		.byte	0
 2878 0197 00       		.byte	0
 2879 0198 1F       		.uleb128 0x1f
 2880 0199 05       		.uleb128 0x5
 2881 019a 00       		.byte	0
 2882 019b 03       		.uleb128 0x3
 2883 019c 08       		.uleb128 0x8
 2884 019d 3A       		.uleb128 0x3a
 2885 019e 0B       		.uleb128 0xb
 2886 019f 3B       		.uleb128 0x3b
 2887 01a0 0B       		.uleb128 0xb
 2888 01a1 49       		.uleb128 0x49
 2889 01a2 13       		.uleb128 0x13
 2890 01a3 02       		.uleb128 0x2
 2891 01a4 18       		.uleb128 0x18
 2892 01a5 00       		.byte	0
 2893 01a6 00       		.byte	0
 2894 01a7 20       		.uleb128 0x20
 2895 01a8 05       		.uleb128 0x5
 2896 01a9 00       		.byte	0
 2897 01aa 03       		.uleb128 0x3
 2898 01ab 0E       		.uleb128 0xe
 2899 01ac 3A       		.uleb128 0x3a
 2900 01ad 0B       		.uleb128 0xb
 2901 01ae 3B       		.uleb128 0x3b
 2902 01af 0B       		.uleb128 0xb
 2903 01b0 49       		.uleb128 0x49
 2904 01b1 13       		.uleb128 0x13
 2905 01b2 02       		.uleb128 0x2
 2906 01b3 18       		.uleb128 0x18
 2907 01b4 00       		.byte	0
ARM GAS  /tmp/ccsd5mUt.s 			page 52


 2908 01b5 00       		.byte	0
 2909 01b6 21       		.uleb128 0x21
 2910 01b7 1D       		.uleb128 0x1d
 2911 01b8 01       		.byte	0x1
 2912 01b9 31       		.uleb128 0x31
 2913 01ba 13       		.uleb128 0x13
 2914 01bb 11       		.uleb128 0x11
 2915 01bc 01       		.uleb128 0x1
 2916 01bd 12       		.uleb128 0x12
 2917 01be 06       		.uleb128 0x6
 2918 01bf 58       		.uleb128 0x58
 2919 01c0 0B       		.uleb128 0xb
 2920 01c1 59       		.uleb128 0x59
 2921 01c2 0B       		.uleb128 0xb
 2922 01c3 01       		.uleb128 0x1
 2923 01c4 13       		.uleb128 0x13
 2924 01c5 00       		.byte	0
 2925 01c6 00       		.byte	0
 2926 01c7 22       		.uleb128 0x22
 2927 01c8 0B       		.uleb128 0xb
 2928 01c9 01       		.byte	0x1
 2929 01ca 11       		.uleb128 0x11
 2930 01cb 01       		.uleb128 0x1
 2931 01cc 12       		.uleb128 0x12
 2932 01cd 06       		.uleb128 0x6
 2933 01ce 00       		.byte	0
 2934 01cf 00       		.byte	0
 2935 01d0 23       		.uleb128 0x23
 2936 01d1 34       		.uleb128 0x34
 2937 01d2 00       		.byte	0
 2938 01d3 31       		.uleb128 0x31
 2939 01d4 13       		.uleb128 0x13
 2940 01d5 02       		.uleb128 0x2
 2941 01d6 17       		.uleb128 0x17
 2942 01d7 00       		.byte	0
 2943 01d8 00       		.byte	0
 2944 01d9 24       		.uleb128 0x24
 2945 01da 898201   		.uleb128 0x4109
 2946 01dd 00       		.byte	0
 2947 01de 11       		.uleb128 0x11
 2948 01df 01       		.uleb128 0x1
 2949 01e0 31       		.uleb128 0x31
 2950 01e1 13       		.uleb128 0x13
 2951 01e2 00       		.byte	0
 2952 01e3 00       		.byte	0
 2953 01e4 25       		.uleb128 0x25
 2954 01e5 2E       		.uleb128 0x2e
 2955 01e6 01       		.byte	0x1
 2956 01e7 3F       		.uleb128 0x3f
 2957 01e8 19       		.uleb128 0x19
 2958 01e9 03       		.uleb128 0x3
 2959 01ea 0E       		.uleb128 0xe
 2960 01eb 3A       		.uleb128 0x3a
 2961 01ec 0B       		.uleb128 0xb
 2962 01ed 3B       		.uleb128 0x3b
 2963 01ee 0B       		.uleb128 0xb
 2964 01ef 27       		.uleb128 0x27
ARM GAS  /tmp/ccsd5mUt.s 			page 53


 2965 01f0 19       		.uleb128 0x19
 2966 01f1 49       		.uleb128 0x49
 2967 01f2 13       		.uleb128 0x13
 2968 01f3 11       		.uleb128 0x11
 2969 01f4 01       		.uleb128 0x1
 2970 01f5 12       		.uleb128 0x12
 2971 01f6 06       		.uleb128 0x6
 2972 01f7 40       		.uleb128 0x40
 2973 01f8 18       		.uleb128 0x18
 2974 01f9 9742     		.uleb128 0x2117
 2975 01fb 19       		.uleb128 0x19
 2976 01fc 01       		.uleb128 0x1
 2977 01fd 13       		.uleb128 0x13
 2978 01fe 00       		.byte	0
 2979 01ff 00       		.byte	0
 2980 0200 26       		.uleb128 0x26
 2981 0201 34       		.uleb128 0x34
 2982 0202 00       		.byte	0
 2983 0203 03       		.uleb128 0x3
 2984 0204 08       		.uleb128 0x8
 2985 0205 3A       		.uleb128 0x3a
 2986 0206 0B       		.uleb128 0xb
 2987 0207 3B       		.uleb128 0x3b
 2988 0208 0B       		.uleb128 0xb
 2989 0209 49       		.uleb128 0x49
 2990 020a 13       		.uleb128 0x13
 2991 020b 02       		.uleb128 0x2
 2992 020c 17       		.uleb128 0x17
 2993 020d 00       		.byte	0
 2994 020e 00       		.byte	0
 2995 020f 27       		.uleb128 0x27
 2996 0210 0B       		.uleb128 0xb
 2997 0211 01       		.byte	0x1
 2998 0212 55       		.uleb128 0x55
 2999 0213 17       		.uleb128 0x17
 3000 0214 01       		.uleb128 0x1
 3001 0215 13       		.uleb128 0x13
 3002 0216 00       		.byte	0
 3003 0217 00       		.byte	0
 3004 0218 28       		.uleb128 0x28
 3005 0219 34       		.uleb128 0x34
 3006 021a 00       		.byte	0
 3007 021b 03       		.uleb128 0x3
 3008 021c 08       		.uleb128 0x8
 3009 021d 3A       		.uleb128 0x3a
 3010 021e 0B       		.uleb128 0xb
 3011 021f 3B       		.uleb128 0x3b
 3012 0220 0B       		.uleb128 0xb
 3013 0221 49       		.uleb128 0x49
 3014 0222 13       		.uleb128 0x13
 3015 0223 02       		.uleb128 0x2
 3016 0224 18       		.uleb128 0x18
 3017 0225 00       		.byte	0
 3018 0226 00       		.byte	0
 3019 0227 29       		.uleb128 0x29
 3020 0228 0B       		.uleb128 0xb
 3021 0229 01       		.byte	0x1
ARM GAS  /tmp/ccsd5mUt.s 			page 54


 3022 022a 11       		.uleb128 0x11
 3023 022b 01       		.uleb128 0x1
 3024 022c 12       		.uleb128 0x12
 3025 022d 06       		.uleb128 0x6
 3026 022e 01       		.uleb128 0x1
 3027 022f 13       		.uleb128 0x13
 3028 0230 00       		.byte	0
 3029 0231 00       		.byte	0
 3030 0232 2A       		.uleb128 0x2a
 3031 0233 898201   		.uleb128 0x4109
 3032 0236 01       		.byte	0x1
 3033 0237 11       		.uleb128 0x11
 3034 0238 01       		.uleb128 0x1
 3035 0239 00       		.byte	0
 3036 023a 00       		.byte	0
 3037 023b 2B       		.uleb128 0x2b
 3038 023c 898201   		.uleb128 0x4109
 3039 023f 01       		.byte	0x1
 3040 0240 11       		.uleb128 0x11
 3041 0241 01       		.uleb128 0x1
 3042 0242 01       		.uleb128 0x1
 3043 0243 13       		.uleb128 0x13
 3044 0244 00       		.byte	0
 3045 0245 00       		.byte	0
 3046 0246 2C       		.uleb128 0x2c
 3047 0247 2E       		.uleb128 0x2e
 3048 0248 01       		.byte	0x1
 3049 0249 3F       		.uleb128 0x3f
 3050 024a 19       		.uleb128 0x19
 3051 024b 03       		.uleb128 0x3
 3052 024c 0E       		.uleb128 0xe
 3053 024d 3A       		.uleb128 0x3a
 3054 024e 0B       		.uleb128 0xb
 3055 024f 3B       		.uleb128 0x3b
 3056 0250 05       		.uleb128 0x5
 3057 0251 27       		.uleb128 0x27
 3058 0252 19       		.uleb128 0x19
 3059 0253 11       		.uleb128 0x11
 3060 0254 01       		.uleb128 0x1
 3061 0255 12       		.uleb128 0x12
 3062 0256 06       		.uleb128 0x6
 3063 0257 40       		.uleb128 0x40
 3064 0258 18       		.uleb128 0x18
 3065 0259 9742     		.uleb128 0x2117
 3066 025b 19       		.uleb128 0x19
 3067 025c 01       		.uleb128 0x1
 3068 025d 13       		.uleb128 0x13
 3069 025e 00       		.byte	0
 3070 025f 00       		.byte	0
 3071 0260 2D       		.uleb128 0x2d
 3072 0261 05       		.uleb128 0x5
 3073 0262 00       		.byte	0
 3074 0263 03       		.uleb128 0x3
 3075 0264 08       		.uleb128 0x8
 3076 0265 3A       		.uleb128 0x3a
 3077 0266 0B       		.uleb128 0xb
 3078 0267 3B       		.uleb128 0x3b
ARM GAS  /tmp/ccsd5mUt.s 			page 55


 3079 0268 05       		.uleb128 0x5
 3080 0269 49       		.uleb128 0x49
 3081 026a 13       		.uleb128 0x13
 3082 026b 02       		.uleb128 0x2
 3083 026c 18       		.uleb128 0x18
 3084 026d 00       		.byte	0
 3085 026e 00       		.byte	0
 3086 026f 2E       		.uleb128 0x2e
 3087 0270 05       		.uleb128 0x5
 3088 0271 00       		.byte	0
 3089 0272 03       		.uleb128 0x3
 3090 0273 0E       		.uleb128 0xe
 3091 0274 3A       		.uleb128 0x3a
 3092 0275 0B       		.uleb128 0xb
 3093 0276 3B       		.uleb128 0x3b
 3094 0277 05       		.uleb128 0x5
 3095 0278 49       		.uleb128 0x49
 3096 0279 13       		.uleb128 0x13
 3097 027a 02       		.uleb128 0x2
 3098 027b 18       		.uleb128 0x18
 3099 027c 00       		.byte	0
 3100 027d 00       		.byte	0
 3101 027e 2F       		.uleb128 0x2f
 3102 027f 05       		.uleb128 0x5
 3103 0280 00       		.byte	0
 3104 0281 03       		.uleb128 0x3
 3105 0282 0E       		.uleb128 0xe
 3106 0283 3A       		.uleb128 0x3a
 3107 0284 0B       		.uleb128 0xb
 3108 0285 3B       		.uleb128 0x3b
 3109 0286 05       		.uleb128 0x5
 3110 0287 49       		.uleb128 0x49
 3111 0288 13       		.uleb128 0x13
 3112 0289 02       		.uleb128 0x2
 3113 028a 17       		.uleb128 0x17
 3114 028b 00       		.byte	0
 3115 028c 00       		.byte	0
 3116 028d 30       		.uleb128 0x30
 3117 028e 05       		.uleb128 0x5
 3118 028f 00       		.byte	0
 3119 0290 03       		.uleb128 0x3
 3120 0291 08       		.uleb128 0x8
 3121 0292 3A       		.uleb128 0x3a
 3122 0293 0B       		.uleb128 0xb
 3123 0294 3B       		.uleb128 0x3b
 3124 0295 05       		.uleb128 0x5
 3125 0296 49       		.uleb128 0x49
 3126 0297 13       		.uleb128 0x13
 3127 0298 02       		.uleb128 0x2
 3128 0299 17       		.uleb128 0x17
 3129 029a 00       		.byte	0
 3130 029b 00       		.byte	0
 3131 029c 31       		.uleb128 0x31
 3132 029d 1D       		.uleb128 0x1d
 3133 029e 01       		.byte	0x1
 3134 029f 31       		.uleb128 0x31
 3135 02a0 13       		.uleb128 0x13
ARM GAS  /tmp/ccsd5mUt.s 			page 56


 3136 02a1 11       		.uleb128 0x11
 3137 02a2 01       		.uleb128 0x1
 3138 02a3 12       		.uleb128 0x12
 3139 02a4 06       		.uleb128 0x6
 3140 02a5 58       		.uleb128 0x58
 3141 02a6 0B       		.uleb128 0xb
 3142 02a7 59       		.uleb128 0x59
 3143 02a8 05       		.uleb128 0x5
 3144 02a9 01       		.uleb128 0x1
 3145 02aa 13       		.uleb128 0x13
 3146 02ab 00       		.byte	0
 3147 02ac 00       		.byte	0
 3148 02ad 32       		.uleb128 0x32
 3149 02ae 2E       		.uleb128 0x2e
 3150 02af 01       		.byte	0x1
 3151 02b0 3F       		.uleb128 0x3f
 3152 02b1 19       		.uleb128 0x19
 3153 02b2 03       		.uleb128 0x3
 3154 02b3 0E       		.uleb128 0xe
 3155 02b4 3A       		.uleb128 0x3a
 3156 02b5 0B       		.uleb128 0xb
 3157 02b6 3B       		.uleb128 0x3b
 3158 02b7 05       		.uleb128 0x5
 3159 02b8 27       		.uleb128 0x27
 3160 02b9 19       		.uleb128 0x19
 3161 02ba 49       		.uleb128 0x49
 3162 02bb 13       		.uleb128 0x13
 3163 02bc 11       		.uleb128 0x11
 3164 02bd 01       		.uleb128 0x1
 3165 02be 12       		.uleb128 0x12
 3166 02bf 06       		.uleb128 0x6
 3167 02c0 40       		.uleb128 0x40
 3168 02c1 18       		.uleb128 0x18
 3169 02c2 9742     		.uleb128 0x2117
 3170 02c4 19       		.uleb128 0x19
 3171 02c5 01       		.uleb128 0x1
 3172 02c6 13       		.uleb128 0x13
 3173 02c7 00       		.byte	0
 3174 02c8 00       		.byte	0
 3175 02c9 33       		.uleb128 0x33
 3176 02ca 34       		.uleb128 0x34
 3177 02cb 00       		.byte	0
 3178 02cc 03       		.uleb128 0x3
 3179 02cd 08       		.uleb128 0x8
 3180 02ce 3A       		.uleb128 0x3a
 3181 02cf 0B       		.uleb128 0xb
 3182 02d0 3B       		.uleb128 0x3b
 3183 02d1 05       		.uleb128 0x5
 3184 02d2 49       		.uleb128 0x49
 3185 02d3 13       		.uleb128 0x13
 3186 02d4 02       		.uleb128 0x2
 3187 02d5 18       		.uleb128 0x18
 3188 02d6 00       		.byte	0
 3189 02d7 00       		.byte	0
 3190 02d8 34       		.uleb128 0x34
 3191 02d9 34       		.uleb128 0x34
 3192 02da 00       		.byte	0
ARM GAS  /tmp/ccsd5mUt.s 			page 57


 3193 02db 03       		.uleb128 0x3
 3194 02dc 08       		.uleb128 0x8
 3195 02dd 3A       		.uleb128 0x3a
 3196 02de 0B       		.uleb128 0xb
 3197 02df 3B       		.uleb128 0x3b
 3198 02e0 05       		.uleb128 0x5
 3199 02e1 49       		.uleb128 0x49
 3200 02e2 13       		.uleb128 0x13
 3201 02e3 02       		.uleb128 0x2
 3202 02e4 17       		.uleb128 0x17
 3203 02e5 00       		.byte	0
 3204 02e6 00       		.byte	0
 3205 02e7 35       		.uleb128 0x35
 3206 02e8 2E       		.uleb128 0x2e
 3207 02e9 01       		.byte	0x1
 3208 02ea 3F       		.uleb128 0x3f
 3209 02eb 19       		.uleb128 0x19
 3210 02ec 03       		.uleb128 0x3
 3211 02ed 0E       		.uleb128 0xe
 3212 02ee 3A       		.uleb128 0x3a
 3213 02ef 0B       		.uleb128 0xb
 3214 02f0 3B       		.uleb128 0x3b
 3215 02f1 05       		.uleb128 0x5
 3216 02f2 27       		.uleb128 0x27
 3217 02f3 19       		.uleb128 0x19
 3218 02f4 49       		.uleb128 0x49
 3219 02f5 13       		.uleb128 0x13
 3220 02f6 11       		.uleb128 0x11
 3221 02f7 01       		.uleb128 0x1
 3222 02f8 12       		.uleb128 0x12
 3223 02f9 06       		.uleb128 0x6
 3224 02fa 40       		.uleb128 0x40
 3225 02fb 18       		.uleb128 0x18
 3226 02fc 9642     		.uleb128 0x2116
 3227 02fe 19       		.uleb128 0x19
 3228 02ff 01       		.uleb128 0x1
 3229 0300 13       		.uleb128 0x13
 3230 0301 00       		.byte	0
 3231 0302 00       		.byte	0
 3232 0303 36       		.uleb128 0x36
 3233 0304 898201   		.uleb128 0x4109
 3234 0307 01       		.byte	0x1
 3235 0308 11       		.uleb128 0x11
 3236 0309 01       		.uleb128 0x1
 3237 030a 31       		.uleb128 0x31
 3238 030b 13       		.uleb128 0x13
 3239 030c 00       		.byte	0
 3240 030d 00       		.byte	0
 3241 030e 37       		.uleb128 0x37
 3242 030f 34       		.uleb128 0x34
 3243 0310 00       		.byte	0
 3244 0311 03       		.uleb128 0x3
 3245 0312 0E       		.uleb128 0xe
 3246 0313 3A       		.uleb128 0x3a
 3247 0314 0B       		.uleb128 0xb
 3248 0315 3B       		.uleb128 0x3b
 3249 0316 0B       		.uleb128 0xb
ARM GAS  /tmp/ccsd5mUt.s 			page 58


 3250 0317 49       		.uleb128 0x49
 3251 0318 13       		.uleb128 0x13
 3252 0319 3F       		.uleb128 0x3f
 3253 031a 19       		.uleb128 0x19
 3254 031b 3C       		.uleb128 0x3c
 3255 031c 19       		.uleb128 0x19
 3256 031d 00       		.byte	0
 3257 031e 00       		.byte	0
 3258 031f 38       		.uleb128 0x38
 3259 0320 2E       		.uleb128 0x2e
 3260 0321 01       		.byte	0x1
 3261 0322 3F       		.uleb128 0x3f
 3262 0323 19       		.uleb128 0x19
 3263 0324 03       		.uleb128 0x3
 3264 0325 0E       		.uleb128 0xe
 3265 0326 3A       		.uleb128 0x3a
 3266 0327 0B       		.uleb128 0xb
 3267 0328 3B       		.uleb128 0x3b
 3268 0329 0B       		.uleb128 0xb
 3269 032a 27       		.uleb128 0x27
 3270 032b 19       		.uleb128 0x19
 3271 032c 49       		.uleb128 0x49
 3272 032d 13       		.uleb128 0x13
 3273 032e 3C       		.uleb128 0x3c
 3274 032f 19       		.uleb128 0x19
 3275 0330 01       		.uleb128 0x1
 3276 0331 13       		.uleb128 0x13
 3277 0332 00       		.byte	0
 3278 0333 00       		.byte	0
 3279 0334 39       		.uleb128 0x39
 3280 0335 2E       		.uleb128 0x2e
 3281 0336 01       		.byte	0x1
 3282 0337 3F       		.uleb128 0x3f
 3283 0338 19       		.uleb128 0x19
 3284 0339 03       		.uleb128 0x3
 3285 033a 0E       		.uleb128 0xe
 3286 033b 3A       		.uleb128 0x3a
 3287 033c 0B       		.uleb128 0xb
 3288 033d 3B       		.uleb128 0x3b
 3289 033e 0B       		.uleb128 0xb
 3290 033f 27       		.uleb128 0x27
 3291 0340 19       		.uleb128 0x19
 3292 0341 49       		.uleb128 0x49
 3293 0342 13       		.uleb128 0x13
 3294 0343 3C       		.uleb128 0x3c
 3295 0344 19       		.uleb128 0x19
 3296 0345 00       		.byte	0
 3297 0346 00       		.byte	0
 3298 0347 00       		.byte	0
 3299              		.section	.debug_loc,"",%progbits
 3300              	.Ldebug_loc0:
 3301              	.LLST0:
 3302 0000 00000000 		.4byte	.LVL0
 3303 0004 14000000 		.4byte	.LVL2
 3304 0008 0100     		.2byte	0x1
 3305 000a 50       		.byte	0x50
 3306 000b 14000000 		.4byte	.LVL2
ARM GAS  /tmp/ccsd5mUt.s 			page 59


 3307 000f 1F000000 		.4byte	.LVL3-1
 3308 0013 0100     		.2byte	0x1
 3309 0015 52       		.byte	0x52
 3310 0016 1F000000 		.4byte	.LVL3-1
 3311 001a 20000000 		.4byte	.LVL3
 3312 001e 0400     		.2byte	0x4
 3313 0020 F3       		.byte	0xf3
 3314 0021 01       		.uleb128 0x1
 3315 0022 50       		.byte	0x50
 3316 0023 9F       		.byte	0x9f
 3317 0024 20000000 		.4byte	.LVL3
 3318 0028 24000000 		.4byte	.LVL4
 3319 002c 0100     		.2byte	0x1
 3320 002e 50       		.byte	0x50
 3321 002f 24000000 		.4byte	.LVL4
 3322 0033 2C000000 		.4byte	.LFE7
 3323 0037 0400     		.2byte	0x4
 3324 0039 F3       		.byte	0xf3
 3325 003a 01       		.uleb128 0x1
 3326 003b 50       		.byte	0x50
 3327 003c 9F       		.byte	0x9f
 3328 003d 00000000 		.4byte	0
 3329 0041 00000000 		.4byte	0
 3330              	.LLST1:
 3331 0045 00000000 		.4byte	.LVL0
 3332 0049 1F000000 		.4byte	.LVL3-1
 3333 004d 0100     		.2byte	0x1
 3334 004f 51       		.byte	0x51
 3335 0050 1F000000 		.4byte	.LVL3-1
 3336 0054 20000000 		.4byte	.LVL3
 3337 0058 0400     		.2byte	0x4
 3338 005a F3       		.byte	0xf3
 3339 005b 01       		.uleb128 0x1
 3340 005c 51       		.byte	0x51
 3341 005d 9F       		.byte	0x9f
 3342 005e 20000000 		.4byte	.LVL3
 3343 0062 2C000000 		.4byte	.LFE7
 3344 0066 0100     		.2byte	0x1
 3345 0068 51       		.byte	0x51
 3346 0069 00000000 		.4byte	0
 3347 006d 00000000 		.4byte	0
 3348              	.LLST2:
 3349 0071 0A000000 		.4byte	.LVL1
 3350 0075 14000000 		.4byte	.LVL2
 3351 0079 0100     		.2byte	0x1
 3352 007b 50       		.byte	0x50
 3353 007c 14000000 		.4byte	.LVL2
 3354 0080 1F000000 		.4byte	.LVL3-1
 3355 0084 0100     		.2byte	0x1
 3356 0086 52       		.byte	0x52
 3357 0087 1F000000 		.4byte	.LVL3-1
 3358 008b 20000000 		.4byte	.LVL3
 3359 008f 0400     		.2byte	0x4
 3360 0091 F3       		.byte	0xf3
 3361 0092 01       		.uleb128 0x1
 3362 0093 50       		.byte	0x50
 3363 0094 9F       		.byte	0x9f
ARM GAS  /tmp/ccsd5mUt.s 			page 60


 3364 0095 00000000 		.4byte	0
 3365 0099 00000000 		.4byte	0
 3366              	.LLST3:
 3367 009d 0A000000 		.4byte	.LVL1
 3368 00a1 1F000000 		.4byte	.LVL3-1
 3369 00a5 0100     		.2byte	0x1
 3370 00a7 53       		.byte	0x53
 3371 00a8 00000000 		.4byte	0
 3372 00ac 00000000 		.4byte	0
 3373              	.LLST4:
 3374 00b0 00000000 		.4byte	.LVL5
 3375 00b4 0A000000 		.4byte	.LVL6
 3376 00b8 0100     		.2byte	0x1
 3377 00ba 52       		.byte	0x52
 3378 00bb 0A000000 		.4byte	.LVL6
 3379 00bf 1E000000 		.4byte	.LFE8
 3380 00c3 0400     		.2byte	0x4
 3381 00c5 F3       		.byte	0xf3
 3382 00c6 01       		.uleb128 0x1
 3383 00c7 52       		.byte	0x52
 3384 00c8 9F       		.byte	0x9f
 3385 00c9 00000000 		.4byte	0
 3386 00cd 00000000 		.4byte	0
 3387              	.LLST5:
 3388 00d1 00000000 		.4byte	.LVL5
 3389 00d5 1C000000 		.4byte	.LVL7
 3390 00d9 0200     		.2byte	0x2
 3391 00db 91       		.byte	0x91
 3392 00dc 00       		.sleb128 0
 3393 00dd 1C000000 		.4byte	.LVL7
 3394 00e1 1E000000 		.4byte	.LFE8
 3395 00e5 0200     		.2byte	0x2
 3396 00e7 7D       		.byte	0x7d
 3397 00e8 00       		.sleb128 0
 3398 00e9 00000000 		.4byte	0
 3399 00ed 00000000 		.4byte	0
 3400              	.LLST6:
 3401 00f1 00000000 		.4byte	.LVL8
 3402 00f5 06000000 		.4byte	.LVL9
 3403 00f9 0100     		.2byte	0x1
 3404 00fb 50       		.byte	0x50
 3405 00fc 06000000 		.4byte	.LVL9
 3406 0100 2C000000 		.4byte	.LFE9
 3407 0104 0100     		.2byte	0x1
 3408 0106 54       		.byte	0x54
 3409 0107 00000000 		.4byte	0
 3410 010b 00000000 		.4byte	0
 3411              	.LLST7:
 3412 010f 18000000 		.4byte	.LVL10
 3413 0113 2A000000 		.4byte	.LVL12
 3414 0117 0100     		.2byte	0x1
 3415 0119 54       		.byte	0x54
 3416 011a 00000000 		.4byte	0
 3417 011e 00000000 		.4byte	0
 3418              	.LLST8:
 3419 0122 18000000 		.4byte	.LVL10
 3420 0126 21000000 		.4byte	.LVL11-1
ARM GAS  /tmp/ccsd5mUt.s 			page 61


 3421 012a 0100     		.2byte	0x1
 3422 012c 50       		.byte	0x50
 3423 012d 00000000 		.4byte	0
 3424 0131 00000000 		.4byte	0
 3425              	.LLST9:
 3426 0135 00000000 		.4byte	.LVL13
 3427 0139 04000000 		.4byte	.LVL14
 3428 013d 0100     		.2byte	0x1
 3429 013f 50       		.byte	0x50
 3430 0140 04000000 		.4byte	.LVL14
 3431 0144 2F000000 		.4byte	.LVL18-1
 3432 0148 0100     		.2byte	0x1
 3433 014a 53       		.byte	0x53
 3434 014b 2F000000 		.4byte	.LVL18-1
 3435 014f 38000000 		.4byte	.LVL19
 3436 0153 0400     		.2byte	0x4
 3437 0155 F3       		.byte	0xf3
 3438 0156 01       		.uleb128 0x1
 3439 0157 50       		.byte	0x50
 3440 0158 9F       		.byte	0x9f
 3441 0159 38000000 		.4byte	.LVL19
 3442 015d 50000000 		.4byte	.LFE10
 3443 0161 0100     		.2byte	0x1
 3444 0163 53       		.byte	0x53
 3445 0164 00000000 		.4byte	0
 3446 0168 00000000 		.4byte	0
 3447              	.LLST10:
 3448 016c 00000000 		.4byte	.LVL13
 3449 0170 1A000000 		.4byte	.LVL15
 3450 0174 0100     		.2byte	0x1
 3451 0176 51       		.byte	0x51
 3452 0177 1A000000 		.4byte	.LVL15
 3453 017b 22000000 		.4byte	.LVL16
 3454 017f 0200     		.2byte	0x2
 3455 0181 70       		.byte	0x70
 3456 0182 00       		.sleb128 0
 3457 0183 22000000 		.4byte	.LVL16
 3458 0187 26000000 		.4byte	.LVL17
 3459 018b 0200     		.2byte	0x2
 3460 018d 74       		.byte	0x74
 3461 018e 7F       		.sleb128 -1
 3462 018f 26000000 		.4byte	.LVL17
 3463 0193 38000000 		.4byte	.LVL19
 3464 0197 0400     		.2byte	0x4
 3465 0199 F3       		.byte	0xf3
 3466 019a 01       		.uleb128 0x1
 3467 019b 51       		.byte	0x51
 3468 019c 9F       		.byte	0x9f
 3469 019d 38000000 		.4byte	.LVL19
 3470 01a1 3A000000 		.4byte	.LVL20
 3471 01a5 0200     		.2byte	0x2
 3472 01a7 70       		.byte	0x70
 3473 01a8 00       		.sleb128 0
 3474 01a9 3A000000 		.4byte	.LVL20
 3475 01ad 3E000000 		.4byte	.LVL21
 3476 01b1 0200     		.2byte	0x2
 3477 01b3 74       		.byte	0x74
ARM GAS  /tmp/ccsd5mUt.s 			page 62


 3478 01b4 7F       		.sleb128 -1
 3479 01b5 3E000000 		.4byte	.LVL21
 3480 01b9 46000000 		.4byte	.LVL22
 3481 01bd 0400     		.2byte	0x4
 3482 01bf F3       		.byte	0xf3
 3483 01c0 01       		.uleb128 0x1
 3484 01c1 51       		.byte	0x51
 3485 01c2 9F       		.byte	0x9f
 3486 01c3 46000000 		.4byte	.LVL22
 3487 01c7 50000000 		.4byte	.LFE10
 3488 01cb 0100     		.2byte	0x1
 3489 01cd 51       		.byte	0x51
 3490 01ce 00000000 		.4byte	0
 3491 01d2 00000000 		.4byte	0
 3492              	.LLST11:
 3493 01d6 26000000 		.4byte	.LVL17
 3494 01da 2F000000 		.4byte	.LVL18-1
 3495 01de 0100     		.2byte	0x1
 3496 01e0 53       		.byte	0x53
 3497 01e1 2F000000 		.4byte	.LVL18-1
 3498 01e5 38000000 		.4byte	.LVL19
 3499 01e9 0400     		.2byte	0x4
 3500 01eb F3       		.byte	0xf3
 3501 01ec 01       		.uleb128 0x1
 3502 01ed 50       		.byte	0x50
 3503 01ee 9F       		.byte	0x9f
 3504 01ef 00000000 		.4byte	0
 3505 01f3 00000000 		.4byte	0
 3506              	.LLST12:
 3507 01f7 26000000 		.4byte	.LVL17
 3508 01fb 2F000000 		.4byte	.LVL18-1
 3509 01ff 0100     		.2byte	0x1
 3510 0201 50       		.byte	0x50
 3511 0202 00000000 		.4byte	0
 3512 0206 00000000 		.4byte	0
 3513              	.LLST13:
 3514 020a 00000000 		.4byte	.LVL23
 3515 020e 11000000 		.4byte	.LVL24-1
 3516 0212 0100     		.2byte	0x1
 3517 0214 50       		.byte	0x50
 3518 0215 11000000 		.4byte	.LVL24-1
 3519 0219 14000000 		.4byte	.LVL25
 3520 021d 0100     		.2byte	0x1
 3521 021f 54       		.byte	0x54
 3522 0220 14000000 		.4byte	.LVL25
 3523 0224 17000000 		.4byte	.LVL26-1
 3524 0228 0100     		.2byte	0x1
 3525 022a 50       		.byte	0x50
 3526 022b 17000000 		.4byte	.LVL26-1
 3527 022f 26000000 		.4byte	.LVL28
 3528 0233 0100     		.2byte	0x1
 3529 0235 54       		.byte	0x54
 3530 0236 26000000 		.4byte	.LVL28
 3531 023a 3C000000 		.4byte	.LVL30
 3532 023e 0100     		.2byte	0x1
 3533 0240 50       		.byte	0x50
 3534 0241 3C000000 		.4byte	.LVL30
ARM GAS  /tmp/ccsd5mUt.s 			page 63


 3535 0245 50000000 		.4byte	.LFE11
 3536 0249 0100     		.2byte	0x1
 3537 024b 54       		.byte	0x54
 3538 024c 00000000 		.4byte	0
 3539 0250 00000000 		.4byte	0
 3540              	.LLST14:
 3541 0254 00000000 		.4byte	.LVL23
 3542 0258 11000000 		.4byte	.LVL24-1
 3543 025c 0100     		.2byte	0x1
 3544 025e 51       		.byte	0x51
 3545 025f 11000000 		.4byte	.LVL24-1
 3546 0263 14000000 		.4byte	.LVL25
 3547 0267 0100     		.2byte	0x1
 3548 0269 56       		.byte	0x56
 3549 026a 14000000 		.4byte	.LVL25
 3550 026e 17000000 		.4byte	.LVL26-1
 3551 0272 0100     		.2byte	0x1
 3552 0274 51       		.byte	0x51
 3553 0275 17000000 		.4byte	.LVL26-1
 3554 0279 26000000 		.4byte	.LVL28
 3555 027d 0100     		.2byte	0x1
 3556 027f 56       		.byte	0x56
 3557 0280 26000000 		.4byte	.LVL28
 3558 0284 2A000000 		.4byte	.LVL29
 3559 0288 0100     		.2byte	0x1
 3560 028a 51       		.byte	0x51
 3561 028b 2A000000 		.4byte	.LVL29
 3562 028f 50000000 		.4byte	.LFE11
 3563 0293 0100     		.2byte	0x1
 3564 0295 56       		.byte	0x56
 3565 0296 00000000 		.4byte	0
 3566 029a 00000000 		.4byte	0
 3567              	.LLST15:
 3568 029e 3C000000 		.4byte	.LVL30
 3569 02a2 48000000 		.4byte	.LVL31
 3570 02a6 0100     		.2byte	0x1
 3571 02a8 50       		.byte	0x50
 3572 02a9 00000000 		.4byte	0
 3573 02ad 00000000 		.4byte	0
 3574              	.LLST16:
 3575 02b1 18000000 		.4byte	.LVL26
 3576 02b5 1C000000 		.4byte	.LVL27
 3577 02b9 0100     		.2byte	0x1
 3578 02bb 50       		.byte	0x50
 3579 02bc 48000000 		.4byte	.LVL31
 3580 02c0 50000000 		.4byte	.LFE11
 3581 02c4 0100     		.2byte	0x1
 3582 02c6 50       		.byte	0x50
 3583 02c7 00000000 		.4byte	0
 3584 02cb 00000000 		.4byte	0
 3585              	.LLST17:
 3586 02cf 00000000 		.4byte	.LVL32
 3587 02d3 20000000 		.4byte	.LVL36
 3588 02d7 0100     		.2byte	0x1
 3589 02d9 50       		.byte	0x50
 3590 02da 20000000 		.4byte	.LVL36
 3591 02de 24000000 		.4byte	.LVL38
ARM GAS  /tmp/ccsd5mUt.s 			page 64


 3592 02e2 0100     		.2byte	0x1
 3593 02e4 54       		.byte	0x54
 3594 02e5 24000000 		.4byte	.LVL38
 3595 02e9 27000000 		.4byte	.LVL39-1
 3596 02ed 0100     		.2byte	0x1
 3597 02ef 50       		.byte	0x50
 3598 02f0 27000000 		.4byte	.LVL39-1
 3599 02f4 34000000 		.4byte	.LVL40
 3600 02f8 0100     		.2byte	0x1
 3601 02fa 54       		.byte	0x54
 3602 02fb 34000000 		.4byte	.LVL40
 3603 02ff 64000000 		.4byte	.LVL43
 3604 0303 0100     		.2byte	0x1
 3605 0305 50       		.byte	0x50
 3606 0306 64000000 		.4byte	.LVL43
 3607 030a 70000000 		.4byte	.LFE12
 3608 030e 0100     		.2byte	0x1
 3609 0310 54       		.byte	0x54
 3610 0311 00000000 		.4byte	0
 3611 0315 00000000 		.4byte	0
 3612              	.LLST18:
 3613 0319 00000000 		.4byte	.LVL32
 3614 031d 18000000 		.4byte	.LVL35
 3615 0321 0100     		.2byte	0x1
 3616 0323 51       		.byte	0x51
 3617 0324 18000000 		.4byte	.LVL35
 3618 0328 44000000 		.4byte	.LVL41
 3619 032c 0100     		.2byte	0x1
 3620 032e 59       		.byte	0x59
 3621 032f 44000000 		.4byte	.LVL41
 3622 0333 64000000 		.4byte	.LVL43
 3623 0337 0300     		.2byte	0x3
 3624 0339 79       		.byte	0x79
 3625 033a 7F       		.sleb128 -1
 3626 033b 9F       		.byte	0x9f
 3627 033c 64000000 		.4byte	.LVL43
 3628 0340 6A000000 		.4byte	.LVL44
 3629 0344 0100     		.2byte	0x1
 3630 0346 59       		.byte	0x59
 3631 0347 00000000 		.4byte	0
 3632 034b 00000000 		.4byte	0
 3633              	.LLST19:
 3634 034f 00000000 		.4byte	.LVL32
 3635 0353 18000000 		.4byte	.LVL35
 3636 0357 0100     		.2byte	0x1
 3637 0359 52       		.byte	0x52
 3638 035a 58000000 		.4byte	.LVL42
 3639 035e 64000000 		.4byte	.LVL43
 3640 0362 0600     		.2byte	0x6
 3641 0364 7A       		.byte	0x7a
 3642 0365 00       		.sleb128 0
 3643 0366 77       		.byte	0x77
 3644 0367 00       		.sleb128 0
 3645 0368 1C       		.byte	0x1c
 3646 0369 9F       		.byte	0x9f
 3647 036a 00000000 		.4byte	0
 3648 036e 00000000 		.4byte	0
ARM GAS  /tmp/ccsd5mUt.s 			page 65


 3649              	.LLST20:
 3650 0372 00000000 		.4byte	.LVL32
 3651 0376 12000000 		.4byte	.LVL34
 3652 037a 0100     		.2byte	0x1
 3653 037c 53       		.byte	0x53
 3654 037d 12000000 		.4byte	.LVL34
 3655 0381 24000000 		.4byte	.LVL38
 3656 0385 0100     		.2byte	0x1
 3657 0387 56       		.byte	0x56
 3658 0388 24000000 		.4byte	.LVL38
 3659 038c 27000000 		.4byte	.LVL39-1
 3660 0390 0100     		.2byte	0x1
 3661 0392 51       		.byte	0x51
 3662 0393 27000000 		.4byte	.LVL39-1
 3663 0397 34000000 		.4byte	.LVL40
 3664 039b 0100     		.2byte	0x1
 3665 039d 56       		.byte	0x56
 3666 039e 34000000 		.4byte	.LVL40
 3667 03a2 64000000 		.4byte	.LVL43
 3668 03a6 0100     		.2byte	0x1
 3669 03a8 51       		.byte	0x51
 3670 03a9 64000000 		.4byte	.LVL43
 3671 03ad 70000000 		.4byte	.LFE12
 3672 03b1 0100     		.2byte	0x1
 3673 03b3 56       		.byte	0x56
 3674 03b4 00000000 		.4byte	0
 3675 03b8 00000000 		.4byte	0
 3676              	.LLST21:
 3677 03bc 10000000 		.4byte	.LVL33
 3678 03c0 18000000 		.4byte	.LVL35
 3679 03c4 0200     		.2byte	0x2
 3680 03c6 30       		.byte	0x30
 3681 03c7 9F       		.byte	0x9f
 3682 03c8 18000000 		.4byte	.LVL35
 3683 03cc 70000000 		.4byte	.LFE12
 3684 03d0 0100     		.2byte	0x1
 3685 03d2 57       		.byte	0x57
 3686 03d3 00000000 		.4byte	0
 3687 03d7 00000000 		.4byte	0
 3688              	.LLST22:
 3689 03db 00000000 		.4byte	.LVL45
 3690 03df 1A000000 		.4byte	.LVL46
 3691 03e3 0200     		.2byte	0x2
 3692 03e5 91       		.byte	0x91
 3693 03e6 00       		.sleb128 0
 3694 03e7 1A000000 		.4byte	.LVL46
 3695 03eb 1C000000 		.4byte	.LFE13
 3696 03ef 0200     		.2byte	0x2
 3697 03f1 7D       		.byte	0x7d
 3698 03f2 00       		.sleb128 0
 3699 03f3 00000000 		.4byte	0
 3700 03f7 00000000 		.4byte	0
 3701              	.LLST23:
 3702 03fb 00000000 		.4byte	.LVL47
 3703 03ff 0A000000 		.4byte	.LVL48
 3704 0403 0100     		.2byte	0x1
 3705 0405 50       		.byte	0x50
ARM GAS  /tmp/ccsd5mUt.s 			page 66


 3706 0406 0A000000 		.4byte	.LVL48
 3707 040a 2E000000 		.4byte	.LFE14
 3708 040e 0100     		.2byte	0x1
 3709 0410 54       		.byte	0x54
 3710 0411 00000000 		.4byte	0
 3711 0415 00000000 		.4byte	0
 3712              	.LLST24:
 3713 0419 1A000000 		.4byte	.LVL49
 3714 041d 2C000000 		.4byte	.LVL51
 3715 0421 0100     		.2byte	0x1
 3716 0423 54       		.byte	0x54
 3717 0424 00000000 		.4byte	0
 3718 0428 00000000 		.4byte	0
 3719              	.LLST25:
 3720 042c 1A000000 		.4byte	.LVL49
 3721 0430 23000000 		.4byte	.LVL50-1
 3722 0434 0100     		.2byte	0x1
 3723 0436 50       		.byte	0x50
 3724 0437 00000000 		.4byte	0
 3725 043b 00000000 		.4byte	0
 3726              	.LLST26:
 3727 043f 00000000 		.4byte	.LVL52
 3728 0443 13000000 		.4byte	.LVL54-1
 3729 0447 0100     		.2byte	0x1
 3730 0449 50       		.byte	0x50
 3731 044a 13000000 		.4byte	.LVL54-1
 3732 044e 22000000 		.4byte	.LVL56
 3733 0452 0100     		.2byte	0x1
 3734 0454 54       		.byte	0x54
 3735 0455 22000000 		.4byte	.LVL56
 3736 0459 40000000 		.4byte	.LVL57
 3737 045d 0100     		.2byte	0x1
 3738 045f 50       		.byte	0x50
 3739 0460 40000000 		.4byte	.LVL57
 3740 0464 54000000 		.4byte	.LFE15
 3741 0468 0100     		.2byte	0x1
 3742 046a 54       		.byte	0x54
 3743 046b 00000000 		.4byte	0
 3744 046f 00000000 		.4byte	0
 3745              	.LLST27:
 3746 0473 00000000 		.4byte	.LVL52
 3747 0477 10000000 		.4byte	.LVL53
 3748 047b 0100     		.2byte	0x1
 3749 047d 51       		.byte	0x51
 3750 047e 10000000 		.4byte	.LVL53
 3751 0482 54000000 		.4byte	.LFE15
 3752 0486 0400     		.2byte	0x4
 3753 0488 F3       		.byte	0xf3
 3754 0489 01       		.uleb128 0x1
 3755 048a 51       		.byte	0x51
 3756 048b 9F       		.byte	0x9f
 3757 048c 00000000 		.4byte	0
 3758 0490 00000000 		.4byte	0
 3759              	.LLST28:
 3760 0494 00000000 		.4byte	.LVL52
 3761 0498 10000000 		.4byte	.LVL53
 3762 049c 0100     		.2byte	0x1
ARM GAS  /tmp/ccsd5mUt.s 			page 67


 3763 049e 52       		.byte	0x52
 3764 049f 10000000 		.4byte	.LVL53
 3765 04a3 13000000 		.4byte	.LVL54-1
 3766 04a7 0100     		.2byte	0x1
 3767 04a9 51       		.byte	0x51
 3768 04aa 13000000 		.4byte	.LVL54-1
 3769 04ae 22000000 		.4byte	.LVL56
 3770 04b2 0100     		.2byte	0x1
 3771 04b4 56       		.byte	0x56
 3772 04b5 22000000 		.4byte	.LVL56
 3773 04b9 41000000 		.4byte	.LVL58-1
 3774 04bd 0100     		.2byte	0x1
 3775 04bf 51       		.byte	0x51
 3776 04c0 41000000 		.4byte	.LVL58-1
 3777 04c4 54000000 		.4byte	.LFE15
 3778 04c8 0100     		.2byte	0x1
 3779 04ca 56       		.byte	0x56
 3780 04cb 00000000 		.4byte	0
 3781 04cf 00000000 		.4byte	0
 3782              	.LLST29:
 3783 04d3 14000000 		.4byte	.LVL54
 3784 04d7 18000000 		.4byte	.LVL55
 3785 04db 0100     		.2byte	0x1
 3786 04dd 50       		.byte	0x50
 3787 04de 4C000000 		.4byte	.LVL59
 3788 04e2 54000000 		.4byte	.LFE15
 3789 04e6 0100     		.2byte	0x1
 3790 04e8 50       		.byte	0x50
 3791 04e9 00000000 		.4byte	0
 3792 04ed 00000000 		.4byte	0
 3793              	.LLST30:
 3794 04f1 00000000 		.4byte	.LVL60
 3795 04f5 2C000000 		.4byte	.LVL63
 3796 04f9 0100     		.2byte	0x1
 3797 04fb 50       		.byte	0x50
 3798 04fc 2C000000 		.4byte	.LVL63
 3799 0500 2F000000 		.4byte	.LVL64-1
 3800 0504 0100     		.2byte	0x1
 3801 0506 53       		.byte	0x53
 3802 0507 2F000000 		.4byte	.LVL64-1
 3803 050b 38000000 		.4byte	.LVL66
 3804 050f 0400     		.2byte	0x4
 3805 0511 F3       		.byte	0xf3
 3806 0512 01       		.uleb128 0x1
 3807 0513 50       		.byte	0x50
 3808 0514 9F       		.byte	0x9f
 3809 0515 38000000 		.4byte	.LVL66
 3810 0519 46000000 		.4byte	.LVL68
 3811 051d 0100     		.2byte	0x1
 3812 051f 50       		.byte	0x50
 3813 0520 46000000 		.4byte	.LVL68
 3814 0524 48000000 		.4byte	.LFE16
 3815 0528 0400     		.2byte	0x4
 3816 052a F3       		.byte	0xf3
 3817 052b 01       		.uleb128 0x1
 3818 052c 50       		.byte	0x50
 3819 052d 9F       		.byte	0x9f
ARM GAS  /tmp/ccsd5mUt.s 			page 68


 3820 052e 00000000 		.4byte	0
 3821 0532 00000000 		.4byte	0
 3822              	.LLST31:
 3823 0536 1A000000 		.4byte	.LVL61
 3824 053a 3E000000 		.4byte	.LVL67
 3825 053e 0100     		.2byte	0x1
 3826 0540 54       		.byte	0x54
 3827 0541 00000000 		.4byte	0
 3828 0545 00000000 		.4byte	0
 3829              	.LLST32:
 3830 0549 28000000 		.4byte	.LVL62
 3831 054d 2F000000 		.4byte	.LVL64-1
 3832 0551 0100     		.2byte	0x1
 3833 0553 53       		.byte	0x53
 3834 0554 2F000000 		.4byte	.LVL64-1
 3835 0558 34000000 		.4byte	.LVL65
 3836 055c 0400     		.2byte	0x4
 3837 055e F3       		.byte	0xf3
 3838 055f 01       		.uleb128 0x1
 3839 0560 50       		.byte	0x50
 3840 0561 9F       		.byte	0x9f
 3841 0562 00000000 		.4byte	0
 3842 0566 00000000 		.4byte	0
 3843              	.LLST33:
 3844 056a 28000000 		.4byte	.LVL62
 3845 056e 2F000000 		.4byte	.LVL64-1
 3846 0572 0100     		.2byte	0x1
 3847 0574 52       		.byte	0x52
 3848 0575 00000000 		.4byte	0
 3849 0579 00000000 		.4byte	0
 3850              	.LLST34:
 3851 057d 00000000 		.4byte	.LVL69
 3852 0581 1A000000 		.4byte	.LVL72
 3853 0585 0100     		.2byte	0x1
 3854 0587 50       		.byte	0x50
 3855 0588 1A000000 		.4byte	.LVL72
 3856 058c 26000000 		.4byte	.LVL74
 3857 0590 0100     		.2byte	0x1
 3858 0592 54       		.byte	0x54
 3859 0593 26000000 		.4byte	.LVL74
 3860 0597 45000000 		.4byte	.LVL75-1
 3861 059b 0100     		.2byte	0x1
 3862 059d 50       		.byte	0x50
 3863 059e 45000000 		.4byte	.LVL75-1
 3864 05a2 6A000000 		.4byte	.LVL80
 3865 05a6 0100     		.2byte	0x1
 3866 05a8 54       		.byte	0x54
 3867 05a9 6A000000 		.4byte	.LVL80
 3868 05ad 6C000000 		.4byte	.LVL81
 3869 05b1 0100     		.2byte	0x1
 3870 05b3 50       		.byte	0x50
 3871 05b4 6C000000 		.4byte	.LVL81
 3872 05b8 82000000 		.4byte	.LFE17
 3873 05bc 0100     		.2byte	0x1
 3874 05be 54       		.byte	0x54
 3875 05bf 00000000 		.4byte	0
 3876 05c3 00000000 		.4byte	0
ARM GAS  /tmp/ccsd5mUt.s 			page 69


 3877              	.LLST35:
 3878 05c7 00000000 		.4byte	.LVL69
 3879 05cb 1A000000 		.4byte	.LVL72
 3880 05cf 0100     		.2byte	0x1
 3881 05d1 51       		.byte	0x51
 3882 05d2 1A000000 		.4byte	.LVL72
 3883 05d6 20000000 		.4byte	.LVL73
 3884 05da 0100     		.2byte	0x1
 3885 05dc 56       		.byte	0x56
 3886 05dd 20000000 		.4byte	.LVL73
 3887 05e1 5E000000 		.4byte	.LVL78
 3888 05e5 0100     		.2byte	0x1
 3889 05e7 5B       		.byte	0x5b
 3890 05e8 5E000000 		.4byte	.LVL78
 3891 05ec 64000000 		.4byte	.LVL79
 3892 05f0 0100     		.2byte	0x1
 3893 05f2 56       		.byte	0x56
 3894 05f3 64000000 		.4byte	.LVL79
 3895 05f7 82000000 		.4byte	.LFE17
 3896 05fb 0100     		.2byte	0x1
 3897 05fd 5B       		.byte	0x5b
 3898 05fe 00000000 		.4byte	0
 3899 0602 00000000 		.4byte	0
 3900              	.LLST36:
 3901 0606 00000000 		.4byte	.LVL69
 3902 060a 1A000000 		.4byte	.LVL72
 3903 060e 0100     		.2byte	0x1
 3904 0610 52       		.byte	0x52
 3905 0611 1A000000 		.4byte	.LVL72
 3906 0615 4E000000 		.4byte	.LVL76
 3907 0619 0100     		.2byte	0x1
 3908 061b 57       		.byte	0x57
 3909 061c 4E000000 		.4byte	.LVL76
 3910 0620 52000000 		.4byte	.LVL77
 3911 0624 0300     		.2byte	0x3
 3912 0626 77       		.byte	0x77
 3913 0627 01       		.sleb128 1
 3914 0628 9F       		.byte	0x9f
 3915 0629 5E000000 		.4byte	.LVL78
 3916 062d 7C000000 		.4byte	.LVL83
 3917 0631 0100     		.2byte	0x1
 3918 0633 57       		.byte	0x57
 3919 0634 00000000 		.4byte	0
 3920 0638 00000000 		.4byte	0
 3921              	.LLST37:
 3922 063c 00000000 		.4byte	.LVL69
 3923 0640 12000000 		.4byte	.LVL71
 3924 0644 0100     		.2byte	0x1
 3925 0646 53       		.byte	0x53
 3926 0647 12000000 		.4byte	.LVL71
 3927 064b 82000000 		.4byte	.LFE17
 3928 064f 0100     		.2byte	0x1
 3929 0651 5A       		.byte	0x5a
 3930 0652 00000000 		.4byte	0
 3931 0656 00000000 		.4byte	0
 3932              	.LLST38:
 3933 065a 10000000 		.4byte	.LVL70
ARM GAS  /tmp/ccsd5mUt.s 			page 70


 3934 065e 1A000000 		.4byte	.LVL72
 3935 0662 0200     		.2byte	0x2
 3936 0664 30       		.byte	0x30
 3937 0665 9F       		.byte	0x9f
 3938 0666 1A000000 		.4byte	.LVL72
 3939 066a 82000000 		.4byte	.LFE17
 3940 066e 0100     		.2byte	0x1
 3941 0670 58       		.byte	0x58
 3942 0671 00000000 		.4byte	0
 3943 0675 00000000 		.4byte	0
 3944              		.section	.debug_aranges,"",%progbits
 3945 0000 6C000000 		.4byte	0x6c
 3946 0004 0200     		.2byte	0x2
 3947 0006 00000000 		.4byte	.Ldebug_info0
 3948 000a 04       		.byte	0x4
 3949 000b 00       		.byte	0
 3950 000c 0000     		.2byte	0
 3951 000e 0000     		.2byte	0
 3952 0010 00000000 		.4byte	.LFB7
 3953 0014 2C000000 		.4byte	.LFE7-.LFB7
 3954 0018 00000000 		.4byte	.LFB8
 3955 001c 1E000000 		.4byte	.LFE8-.LFB8
 3956 0020 00000000 		.4byte	.LFB9
 3957 0024 2C000000 		.4byte	.LFE9-.LFB9
 3958 0028 00000000 		.4byte	.LFB10
 3959 002c 50000000 		.4byte	.LFE10-.LFB10
 3960 0030 00000000 		.4byte	.LFB11
 3961 0034 50000000 		.4byte	.LFE11-.LFB11
 3962 0038 00000000 		.4byte	.LFB12
 3963 003c 70000000 		.4byte	.LFE12-.LFB12
 3964 0040 00000000 		.4byte	.LFB13
 3965 0044 1C000000 		.4byte	.LFE13-.LFB13
 3966 0048 00000000 		.4byte	.LFB14
 3967 004c 2E000000 		.4byte	.LFE14-.LFB14
 3968 0050 00000000 		.4byte	.LFB15
 3969 0054 54000000 		.4byte	.LFE15-.LFB15
 3970 0058 00000000 		.4byte	.LFB16
 3971 005c 48000000 		.4byte	.LFE16-.LFB16
 3972 0060 00000000 		.4byte	.LFB17
 3973 0064 82000000 		.4byte	.LFE17-.LFB17
 3974 0068 00000000 		.4byte	0
 3975 006c 00000000 		.4byte	0
 3976              		.section	.debug_ranges,"",%progbits
 3977              	.Ldebug_ranges0:
 3978 0000 0A000000 		.4byte	.LBB12
 3979 0004 12000000 		.4byte	.LBE12
 3980 0008 14000000 		.4byte	.LBB15
 3981 000c 18000000 		.4byte	.LBE15
 3982 0010 00000000 		.4byte	0
 3983 0014 00000000 		.4byte	0
 3984 0018 02000000 		.4byte	.LBB20
 3985 001c 04000000 		.4byte	.LBE20
 3986 0020 08000000 		.4byte	.LBB21
 3987 0024 0C000000 		.4byte	.LBE21
 3988 0028 00000000 		.4byte	0
 3989 002c 00000000 		.4byte	0
 3990 0030 14000000 		.4byte	.LBB22
ARM GAS  /tmp/ccsd5mUt.s 			page 71


 3991 0034 1C000000 		.4byte	.LBE22
 3992 0038 1E000000 		.4byte	.LBB24
 3993 003c 22000000 		.4byte	.LBE24
 3994 0040 48000000 		.4byte	.LBB26
 3995 0044 50000000 		.4byte	.LBE26
 3996 0048 00000000 		.4byte	0
 3997 004c 00000000 		.4byte	0
 3998 0050 10000000 		.4byte	.LBB34
 3999 0054 18000000 		.4byte	.LBE34
 4000 0058 1A000000 		.4byte	.LBB36
 4001 005c 1E000000 		.4byte	.LBE36
 4002 0060 4C000000 		.4byte	.LBB38
 4003 0064 54000000 		.4byte	.LBE38
 4004 0068 00000000 		.4byte	0
 4005 006c 00000000 		.4byte	0
 4006 0070 00000000 		.4byte	.LFB7
 4007 0074 2C000000 		.4byte	.LFE7
 4008 0078 00000000 		.4byte	.LFB8
 4009 007c 1E000000 		.4byte	.LFE8
 4010 0080 00000000 		.4byte	.LFB9
 4011 0084 2C000000 		.4byte	.LFE9
 4012 0088 00000000 		.4byte	.LFB10
 4013 008c 50000000 		.4byte	.LFE10
 4014 0090 00000000 		.4byte	.LFB11
 4015 0094 50000000 		.4byte	.LFE11
 4016 0098 00000000 		.4byte	.LFB12
 4017 009c 70000000 		.4byte	.LFE12
 4018 00a0 00000000 		.4byte	.LFB13
 4019 00a4 1C000000 		.4byte	.LFE13
 4020 00a8 00000000 		.4byte	.LFB14
 4021 00ac 2E000000 		.4byte	.LFE14
 4022 00b0 00000000 		.4byte	.LFB15
 4023 00b4 54000000 		.4byte	.LFE15
 4024 00b8 00000000 		.4byte	.LFB16
 4025 00bc 48000000 		.4byte	.LFE16
 4026 00c0 00000000 		.4byte	.LFB17
 4027 00c4 82000000 		.4byte	.LFE17
 4028 00c8 00000000 		.4byte	0
 4029 00cc 00000000 		.4byte	0
 4030              		.section	.debug_line,"",%progbits
 4031              	.Ldebug_line0:
 4032 0000 F0030000 		.section	.debug_str,"MS",%progbits,1
 4032      02002B02 
 4032      00000201 
 4032      FB0E0D00 
 4032      01010101 
 4033              	.LASF86:
 4034 0000 63684F51 		.ascii	"chOQInit\000"
 4034      496E6974 
 4034      00
 4035              	.LASF39:
 4036 0009 705F6D73 		.ascii	"p_msg\000"
 4036      6700
 4037              	.LASF94:
 4038 000f 71756575 		.ascii	"queue_insert\000"
 4038      655F696E 
 4038      73657274 
ARM GAS  /tmp/ccsd5mUt.s 			page 72


 4038      00
 4039              	.LASF87:
 4040 001c 6F6E6679 		.ascii	"onfy\000"
 4040      00
 4041              	.LASF2:
 4042 0021 73697A65 		.ascii	"size_t\000"
 4042      5F7400
 4043              	.LASF60:
 4044 0028 7264796D 		.ascii	"rdymsg\000"
 4044      736700
 4045              	.LASF81:
 4046 002f 63684951 		.ascii	"chIQInit\000"
 4046      496E6974 
 4046      00
 4047              	.LASF76:
 4048 0038 4F757470 		.ascii	"OutputQueue\000"
 4048      75745175 
 4048      65756500 
 4049              	.LASF3:
 4050 0044 5F5F7569 		.ascii	"__uint8_t\000"
 4050      6E74385F 
 4050      7400
 4051              	.LASF85:
 4052 004e 63684951 		.ascii	"chIQReadTimeout\000"
 4052      52656164 
 4052      54696D65 
 4052      6F757400 
 4053              	.LASF12:
 4054 005e 6C6F6E67 		.ascii	"long long unsigned int\000"
 4054      206C6F6E 
 4054      6720756E 
 4054      7369676E 
 4054      65642069 
 4055              	.LASF91:
 4056 0075 63684F51 		.ascii	"chOQWriteTimeout\000"
 4056      57726974 
 4056      6554696D 
 4056      656F7574 
 4056      00
 4057              	.LASF28:
 4058 0086 705F7072 		.ascii	"p_prio\000"
 4058      696F00
 4059              	.LASF66:
 4060 008d 715F7761 		.ascii	"q_waiting\000"
 4060      6974696E 
 4060      6700
 4061              	.LASF11:
 4062 0097 6C6F6E67 		.ascii	"long long int\000"
 4062      206C6F6E 
 4062      6720696E 
 4062      7400
 4063              	.LASF1:
 4064 00a5 7369676E 		.ascii	"signed char\000"
 4064      65642063 
 4064      68617200 
 4065              	.LASF16:
 4066 00b1 626F6F6C 		.ascii	"bool_t\000"
ARM GAS  /tmp/ccsd5mUt.s 			page 73


 4066      5F7400
 4067              	.LASF57:
 4068 00b8 6D5F7175 		.ascii	"m_queue\000"
 4068      65756500 
 4069              	.LASF20:
 4070 00c0 74736C69 		.ascii	"tslices_t\000"
 4070      6365735F 
 4070      7400
 4071              	.LASF96:
 4072 00ca 71776169 		.ascii	"qwait\000"
 4072      7400
 4073              	.LASF8:
 4074 00d0 6C6F6E67 		.ascii	"long int\000"
 4074      20696E74 
 4074      00
 4075              	.LASF19:
 4076 00d9 74737461 		.ascii	"tstate_t\000"
 4076      74655F74 
 4076      00
 4077              	.LASF90:
 4078 00e2 63684F51 		.ascii	"chOQGetI\000"
 4078      47657449 
 4078      00
 4079              	.LASF30:
 4080 00eb 705F6E65 		.ascii	"p_newer\000"
 4080      77657200 
 4081              	.LASF61:
 4082 00f3 65786974 		.ascii	"exitcode\000"
 4082      636F6465 
 4082      00
 4083              	.LASF9:
 4084 00fc 5F5F7569 		.ascii	"__uint32_t\000"
 4084      6E743332 
 4084      5F7400
 4085              	.LASF45:
 4086 0107 72656761 		.ascii	"regarm_t\000"
 4086      726D5F74 
 4086      00
 4087              	.LASF80:
 4088 0110 6C696E6B 		.ascii	"link\000"
 4088      00
 4089              	.LASF89:
 4090 0115 63684F51 		.ascii	"chOQPutTimeout\000"
 4090      50757454 
 4090      696D656F 
 4090      757400
 4091              	.LASF83:
 4092 0124 63684951 		.ascii	"chIQPutI\000"
 4092      50757449 
 4092      00
 4093              	.LASF0:
 4094 012d 756E7369 		.ascii	"unsigned int\000"
 4094      676E6564 
 4094      20696E74 
 4094      00
 4095              	.LASF82:
 4096 013a 63684951 		.ascii	"chIQResetI\000"
ARM GAS  /tmp/ccsd5mUt.s 			page 74


 4096      52657365 
 4096      744900
 4097              	.LASF10:
 4098 0145 6C6F6E67 		.ascii	"long unsigned int\000"
 4098      20756E73 
 4098      69676E65 
 4098      6420696E 
 4098      7400
 4099              	.LASF47:
 4100 0157 636F6E74 		.ascii	"context\000"
 4100      65787400 
 4101              	.LASF78:
 4102 015f 73697A65 		.ascii	"size\000"
 4102      00
 4103              	.LASF6:
 4104 0164 73686F72 		.ascii	"short unsigned int\000"
 4104      7420756E 
 4104      7369676E 
 4104      65642069 
 4104      6E7400
 4105              	.LASF22:
 4106 0177 6D73675F 		.ascii	"msg_t\000"
 4106      7400
 4107              	.LASF52:
 4108 017d 725F6E65 		.ascii	"r_newer\000"
 4108      77657200 
 4109              	.LASF18:
 4110 0185 746D6F64 		.ascii	"tmode_t\000"
 4110      655F7400 
 4111              	.LASF44:
 4112 018d 54687265 		.ascii	"ThreadsList\000"
 4112      6164734C 
 4112      69737400 
 4113              	.LASF23:
 4114 0199 6576656E 		.ascii	"eventmask_t\000"
 4114      746D6173 
 4114      6B5F7400 
 4115              	.LASF75:
 4116 01a5 496E7075 		.ascii	"InputQueue\000"
 4116      74517565 
 4116      756500
 4117              	.LASF56:
 4118 01b0 4D757465 		.ascii	"Mutex\000"
 4118      7800
 4119              	.LASF65:
 4120 01b6 47656E65 		.ascii	"GenericQueue\000"
 4120      72696351 
 4120      75657565 
 4120      00
 4121              	.LASF68:
 4122 01c3 715F6275 		.ascii	"q_buffer\000"
 4122      66666572 
 4122      00
 4123              	.LASF48:
 4124 01cc 73697A65 		.ascii	"sizetype\000"
 4124      74797065 
 4124      00
ARM GAS  /tmp/ccsd5mUt.s 			page 75


 4125              	.LASF67:
 4126 01d5 715F636F 		.ascii	"q_counter\000"
 4126      756E7465 
 4126      7200
 4127              	.LASF31:
 4128 01df 705F6F6C 		.ascii	"p_older\000"
 4128      64657200 
 4129              	.LASF70:
 4130 01e7 715F7772 		.ascii	"q_wrptr\000"
 4130      70747200 
 4131              	.LASF51:
 4132 01ef 725F6374 		.ascii	"r_ctx\000"
 4132      7800
 4133              	.LASF43:
 4134 01f5 54687265 		.ascii	"ThreadsQueue\000"
 4134      61647351 
 4134      75657565 
 4134      00
 4135              	.LASF77:
 4136 0202 74696D65 		.ascii	"time\000"
 4136      00
 4137              	.LASF54:
 4138 0207 725F6375 		.ascii	"r_current\000"
 4138      7272656E 
 4138      7400
 4139              	.LASF53:
 4140 0211 725F6F6C 		.ascii	"r_older\000"
 4140      64657200 
 4141              	.LASF74:
 4142 0219 716E6F74 		.ascii	"qnotify_t\000"
 4142      6966795F 
 4142      7400
 4143              	.LASF27:
 4144 0223 705F7072 		.ascii	"p_prev\000"
 4144      657600
 4145              	.LASF21:
 4146 022a 74707269 		.ascii	"tprio_t\000"
 4146      6F5F7400 
 4147              	.LASF71:
 4148 0232 715F7264 		.ascii	"q_rdptr\000"
 4148      70747200 
 4149              	.LASF17:
 4150 023a 5F426F6F 		.ascii	"_Bool\000"
 4150      6C00
 4151              	.LASF14:
 4152 0240 696E7433 		.ascii	"int32_t\000"
 4152      325F7400 
 4153              	.LASF4:
 4154 0248 756E7369 		.ascii	"unsigned char\000"
 4154      676E6564 
 4154      20636861 
 4154      7200
 4155              	.LASF41:
 4156 0256 705F6D74 		.ascii	"p_mtxlist\000"
 4156      786C6973 
 4156      7400
 4157              	.LASF5:
ARM GAS  /tmp/ccsd5mUt.s 			page 76


 4158 0260 73686F72 		.ascii	"short int\000"
 4158      7420696E 
 4158      7400
 4159              	.LASF33:
 4160 026a 705F7374 		.ascii	"p_state\000"
 4160      61746500 
 4161              	.LASF35:
 4162 0272 705F7072 		.ascii	"p_preempt\000"
 4162      65656D70 
 4162      7400
 4163              	.LASF50:
 4164 027c 725F7072 		.ascii	"r_prio\000"
 4164      696F00
 4165              	.LASF63:
 4166 0283 65776D61 		.ascii	"ewmask\000"
 4166      736B00
 4167              	.LASF26:
 4168 028a 705F6E65 		.ascii	"p_next\000"
 4168      787400
 4169              	.LASF79:
 4170 0291 696E6679 		.ascii	"infy\000"
 4170      00
 4171              	.LASF34:
 4172 0296 705F666C 		.ascii	"p_flags\000"
 4172      61677300 
 4173              	.LASF25:
 4174 029e 54687265 		.ascii	"Thread\000"
 4174      616400
 4175              	.LASF40:
 4176 02a5 705F6570 		.ascii	"p_epending\000"
 4176      656E6469 
 4176      6E6700
 4177              	.LASF15:
 4178 02b0 75696E74 		.ascii	"uint32_t\000"
 4178      33325F74 
 4178      00
 4179              	.LASF93:
 4180 02b9 2F645F64 		.ascii	"/d_drive/axoloti/platform_linux/../chibios/os/kerne"
 4180      72697665 
 4180      2F61786F 
 4180      6C6F7469 
 4180      2F706C61 
 4181 02ec 6C2F7372 		.ascii	"l/src/chqueues.c\000"
 4181      632F6368 
 4181      71756575 
 4181      65732E63 
 4181      00
 4182              	.LASF49:
 4183 02fd 725F7175 		.ascii	"r_queue\000"
 4183      65756500 
 4184              	.LASF64:
 4185 0305 63686172 		.ascii	"char\000"
 4185      00
 4186              	.LASF95:
 4187 030a 6669666F 		.ascii	"fifo_remove\000"
 4187      5F72656D 
 4187      6F766500 
ARM GAS  /tmp/ccsd5mUt.s 			page 77


 4188              	.LASF99:
 4189 0316 63685363 		.ascii	"chSchReadyI\000"
 4189      68526561 
 4189      64794900 
 4190              	.LASF59:
 4191 0322 6D5F6E65 		.ascii	"m_next\000"
 4191      787400
 4192              	.LASF24:
 4193 0329 73797374 		.ascii	"systime_t\000"
 4193      696D655F 
 4193      7400
 4194              	.LASF42:
 4195 0333 705F7265 		.ascii	"p_realprio\000"
 4195      616C7072 
 4195      696F00
 4196              	.LASF7:
 4197 033e 5F5F696E 		.ascii	"__int32_t\000"
 4197      7433325F 
 4197      7400
 4198              	.LASF88:
 4199 0348 63684F51 		.ascii	"chOQResetI\000"
 4199      52657365 
 4199      744900
 4200              	.LASF36:
 4201 0353 705F7469 		.ascii	"p_time\000"
 4201      6D6500
 4202              	.LASF46:
 4203 035a 696E7463 		.ascii	"intctx\000"
 4203      747800
 4204              	.LASF38:
 4205 0361 705F6D73 		.ascii	"p_msgqueue\000"
 4205      67717565 
 4205      756500
 4206              	.LASF92:
 4207 036c 474E5520 		.ascii	"GNU C 4.9.3 20150529 (release) [ARM/embedded-4_9-br"
 4207      4320342E 
 4207      392E3320 
 4207      32303135 
 4207      30353239 
 4208 039f 616E6368 		.ascii	"anch revision 224288] -mcpu=cortex-m4 -mfloat-abi=h"
 4208      20726576 
 4208      6973696F 
 4208      6E203232 
 4208      34323838 
 4209 03d2 61726420 		.ascii	"ard -mfpu=fpv4-sp-d16 -mno-thumb-interwork -mthumb "
 4209      2D6D6670 
 4209      753D6670 
 4209      76342D73 
 4209      702D6431 
 4210 0405 2D676764 		.ascii	"-ggdb -O2 -fomit-frame-pointer -falign-functions=16"
 4210      62202D4F 
 4210      32202D66 
 4210      6F6D6974 
 4210      2D667261 
 4211 0438 202D6666 		.ascii	" -ffunction-sections -fdata-sections -fno-common -f"
 4211      756E6374 
 4211      696F6E2D 
ARM GAS  /tmp/ccsd5mUt.s 			page 78


 4211      73656374 
 4211      696F6E73 
 4212 046b 73696E67 		.ascii	"single-precision-constant\000"
 4212      6C652D70 
 4212      72656369 
 4212      73696F6E 
 4212      2D636F6E 
 4213              	.LASF69:
 4214 0485 715F746F 		.ascii	"q_top\000"
 4214      7000
 4215              	.LASF55:
 4216 048b 52656164 		.ascii	"ReadyList\000"
 4216      794C6973 
 4216      7400
 4217              	.LASF72:
 4218 0495 715F6E6F 		.ascii	"q_notify\000"
 4218      74696679 
 4218      00
 4219              	.LASF97:
 4220 049e 726C6973 		.ascii	"rlist\000"
 4220      7400
 4221              	.LASF13:
 4222 04a4 75696E74 		.ascii	"uint8_t\000"
 4222      385F7400 
 4223              	.LASF62:
 4224 04ac 77746F62 		.ascii	"wtobjp\000"
 4224      6A7000
 4225              	.LASF32:
 4226 04b3 705F6E61 		.ascii	"p_name\000"
 4226      6D6500
 4227              	.LASF98:
 4228 04ba 63685363 		.ascii	"chSchGoSleepTimeoutS\000"
 4228      68476F53 
 4228      6C656570 
 4228      54696D65 
 4228      6F757453 
 4229              	.LASF73:
 4230 04cf 715F6C69 		.ascii	"q_link\000"
 4230      6E6B00
 4231              	.LASF58:
 4232 04d6 6D5F6F77 		.ascii	"m_owner\000"
 4232      6E657200 
 4233              	.LASF29:
 4234 04de 705F6374 		.ascii	"p_ctx\000"
 4234      7800
 4235              	.LASF37:
 4236 04e4 705F7761 		.ascii	"p_waiting\000"
 4236      6974696E 
 4236      6700
 4237              	.LASF84:
 4238 04ee 63684951 		.ascii	"chIQGetTimeout\000"
 4238      47657454 
 4238      696D656F 
 4238      757400
 4239              		.ident	"GCC: (GNU Tools for ARM Embedded Processors) 4.9.3 20150529 (release) [ARM/embedded-4_9-br
ARM GAS  /tmp/ccsd5mUt.s 			page 79


DEFINED SYMBOLS
                            *ABS*:00000000 chqueues.c
     /tmp/ccsd5mUt.s:21     .text.qwait:00000000 $t
     /tmp/ccsd5mUt.s:26     .text.qwait:00000000 qwait
     /tmp/ccsd5mUt.s:81     .text.qwait:00000028 $d
     /tmp/ccsd5mUt.s:86     .text.chIQInit:00000000 $t
     /tmp/ccsd5mUt.s:92     .text.chIQInit:00000000 chIQInit
     /tmp/ccsd5mUt.s:137    .text.chIQResetI:00000000 $t
     /tmp/ccsd5mUt.s:143    .text.chIQResetI:00000000 chIQResetI
     /tmp/ccsd5mUt.s:201    .text.chIQPutI:00000000 $t
     /tmp/ccsd5mUt.s:207    .text.chIQPutI:00000000 chIQPutI
     /tmp/ccsd5mUt.s:295    .text.chIQGetTimeout:00000000 $t
     /tmp/ccsd5mUt.s:301    .text.chIQGetTimeout:00000000 chIQGetTimeout
     /tmp/ccsd5mUt.s:409    .text.chIQReadTimeout:00000000 $t
     /tmp/ccsd5mUt.s:415    .text.chIQReadTimeout:00000000 chIQReadTimeout
     /tmp/ccsd5mUt.s:542    .text.chOQInit:00000000 $t
     /tmp/ccsd5mUt.s:548    .text.chOQInit:00000000 chOQInit
     /tmp/ccsd5mUt.s:589    .text.chOQResetI:00000000 $t
     /tmp/ccsd5mUt.s:595    .text.chOQResetI:00000000 chOQResetI
     /tmp/ccsd5mUt.s:656    .text.chOQPutTimeout:00000000 $t
     /tmp/ccsd5mUt.s:662    .text.chOQPutTimeout:00000000 chOQPutTimeout
     /tmp/ccsd5mUt.s:771    .text.chOQGetI:00000000 $t
     /tmp/ccsd5mUt.s:777    .text.chOQGetI:00000000 chOQGetI
     /tmp/ccsd5mUt.s:859    .text.chOQWriteTimeout:00000000 $t
     /tmp/ccsd5mUt.s:865    .text.chOQWriteTimeout:00000000 chOQWriteTimeout
                     .debug_frame:00000010 $d

UNDEFINED SYMBOLS
chSchGoSleepTimeoutS
rlist
chSchReadyI
