ARM GAS  /tmp/ccsd5mUt.s 			page 1


   1              		.syntax unified
   2              		.cpu cortex-m4
   3              		.eabi_attribute 27, 1
   4              		.eabi_attribute 28, 1
   5              		.fpu fpv4-sp-d16
   6              		.eabi_attribute 20, 1
   7              		.eabi_attribute 21, 1
   8              		.eabi_attribute 23, 3
   9              		.eabi_attribute 24, 1
  10              		.eabi_attribute 25, 1
  11              		.eabi_attribute 26, 1
  12              		.eabi_attribute 30, 2
  13              		.eabi_attribute 34, 1
  14              		.eabi_attribute 18, 4
  15              		.thumb
  16              		.file	"chqueues.c"
  17              		.text
  18              	.Ltext0:
  19              		.cfi_sections	.debug_frame
  20              		.section	.text.qwait,"ax",%progbits
  21              		.align	2
  22              		.p2align 4,,15
  23              		.thumb
  24              		.thumb_func
  25              		.type	qwait, %function
  26              	qwait:
  27              	.LFB7:
  28              		.file 1 "/d_drive/axoloti/platform_linux/../chibios/os/kernel/src/chqueues.c"
  29              		.loc 1 70 0
  30              		.cfi_startproc
  31              		@ args = 0, pretend = 0, frame = 0
  32              		@ frame_needed = 0, uses_anonymous_args = 0
  33              		@ link register save eliminated.
  34              	.LVL0:
  35              		.loc 1 72 0
  36 0000 71B1     		cbz	r1, .L2
  37              		.loc 1 74 0
  38 0002 094B     		ldr	r3, .L5
  39 0004 9B69     		ldr	r3, [r3, #24]
  40              		.loc 1 70 0
  41 0006 10B4     		push	{r4}
  42              		.cfi_def_cfa_offset 4
  43              		.cfi_offset 4, -4
  44              		.loc 1 74 0
  45 0008 5862     		str	r0, [r3, #36]
  46              	.LVL1:
  47              	.LBB12:
  48              	.LBB13:
  49              		.file 2 "/d_drive/axoloti/platform_linux/../chibios/os/kernel/include/chinline.h"
  50              		.loc 2 55 0
  51 000a 4468     		ldr	r4, [r0, #4]
  52 000c 0246     		mov	r2, r0
  53 000e 83E81400 		stmia	r3, {r2, r4}
  54              	.LBE13:
  55              	.LBE12:
  56              		.loc 1 76 0
  57 0012 0D20     		movs	r0, #13
ARM GAS  /tmp/ccsd5mUt.s 			page 2


  58              	.LVL2:
  59              	.LBB15:
  60              	.LBB14:
  61              		.loc 2 56 0
  62 0014 5360     		str	r3, [r2, #4]
  63 0016 2360     		str	r3, [r4]
  64              	.LBE14:
  65              	.LBE15:
  66              		.loc 1 77 0
  67 0018 5DF8044B 		ldr	r4, [sp], #4
  68              		.cfi_restore 4
  69              		.cfi_def_cfa_offset 0
  70              		.loc 1 76 0
  71 001c FFF7FEBF 		b	chSchGoSleepTimeoutS
  72              	.LVL3:
  73              	.L2:
  74              		.loc 1 77 0
  75 0020 4FF0FF30 		mov	r0, #-1
  76              	.LVL4:
  77 0024 7047     		bx	lr
  78              	.L6:
  79 0026 00BF     		.align	2
  80              	.L5:
  81 0028 00000000 		.word	rlist
  82              		.cfi_endproc
  83              	.LFE7:
  84              		.size	qwait, .-qwait
  85              		.section	.text.chIQInit,"ax",%progbits
  86              		.align	2
  87              		.p2align 4,,15
  88              		.global	chIQInit
  89              		.thumb
  90              		.thumb_func
  91              		.type	chIQInit, %function
  92              	chIQInit:
  93              	.LFB8:
  94              		.loc 1 96 0
  95              		.cfi_startproc
  96              		@ args = 4, pretend = 0, frame = 0
  97              		@ frame_needed = 0, uses_anonymous_args = 0
  98              		@ link register save eliminated.
  99              	.LVL5:
 100 0000 30B4     		push	{r4, r5}
 101              		.cfi_def_cfa_offset 8
 102              		.cfi_offset 4, -8
 103              		.cfi_offset 5, -4
 104              		.loc 1 96 0
 105 0002 029C     		ldr	r4, [sp, #8]
 106              		.loc 1 103 0
 107 0004 0462     		str	r4, [r0, #32]
 108              		.loc 1 99 0
 109 0006 0025     		movs	r5, #0
 110              		.loc 1 101 0
 111 0008 0A44     		add	r2, r2, r1
 112              	.LVL6:
 113              		.loc 1 99 0
 114 000a 8560     		str	r5, [r0, #8]
ARM GAS  /tmp/ccsd5mUt.s 			page 3


 115              		.loc 1 101 0
 116 000c 0261     		str	r2, [r0, #16]
 117              		.loc 1 98 0
 118 000e 4060     		str	r0, [r0, #4]
 119 0010 0060     		str	r0, [r0]
 120              		.loc 1 100 0
 121 0012 4161     		str	r1, [r0, #20]
 122 0014 8161     		str	r1, [r0, #24]
 123 0016 C160     		str	r1, [r0, #12]
 124              		.loc 1 102 0
 125 0018 C361     		str	r3, [r0, #28]
 126              		.loc 1 104 0
 127 001a 30BC     		pop	{r4, r5}
 128              		.cfi_restore 5
 129              		.cfi_restore 4
 130              		.cfi_def_cfa_offset 0
 131              	.LVL7:
 132 001c 7047     		bx	lr
 133              		.cfi_endproc
 134              	.LFE8:
 135              		.size	chIQInit, .-chIQInit
 136 001e 00BF     		.section	.text.chIQResetI,"ax",%progbits
 137              		.align	2
 138              		.p2align 4,,15
 139              		.global	chIQResetI
 140              		.thumb
 141              		.thumb_func
 142              		.type	chIQResetI, %function
 143              	chIQResetI:
 144              	.LFB9:
 145              		.loc 1 117 0
 146              		.cfi_startproc
 147              		@ args = 0, pretend = 0, frame = 0
 148              		@ frame_needed = 0, uses_anonymous_args = 0
 149              	.LVL8:
 150 0000 38B5     		push	{r3, r4, r5, lr}
 151              		.cfi_def_cfa_offset 16
 152              		.cfi_offset 3, -16
 153              		.cfi_offset 4, -12
 154              		.cfi_offset 5, -8
 155              		.cfi_offset 14, -4
 156              		.loc 1 117 0
 157 0002 0446     		mov	r4, r0
 158              		.loc 1 123 0
 159 0004 0068     		ldr	r0, [r0]
 160              	.LVL9:
 161              		.loc 1 121 0
 162 0006 E368     		ldr	r3, [r4, #12]
 163 0008 6361     		str	r3, [r4, #20]
 164              		.loc 1 122 0
 165 000a 0022     		movs	r2, #0
 166              		.loc 1 123 0
 167 000c A042     		cmp	r0, r4
 168              		.loc 1 122 0
 169 000e A260     		str	r2, [r4, #8]
 170              		.loc 1 121 0
 171 0010 A361     		str	r3, [r4, #24]
ARM GAS  /tmp/ccsd5mUt.s 			page 4


 172              		.loc 1 123 0
 173 0012 0AD0     		beq	.L9
 174              		.loc 1 124 0
 175 0014 6FF00105 		mvn	r5, #1
 176              	.L11:
 177              	.LVL10:
 178              	.LBB16:
 179              	.LBB17:
 180              		.loc 2 62 0
 181 0018 0368     		ldr	r3, [r0]
 182 001a 2360     		str	r3, [r4]
 183 001c 5C60     		str	r4, [r3, #4]
 184              	.LBE17:
 185              	.LBE16:
 186              		.loc 1 124 0
 187 001e FFF7FEFF 		bl	chSchReadyI
 188              	.LVL11:
 189 0022 4562     		str	r5, [r0, #36]
 190              		.loc 1 123 0
 191 0024 2068     		ldr	r0, [r4]
 192 0026 A042     		cmp	r0, r4
 193 0028 F6D1     		bne	.L11
 194              	.LVL12:
 195              	.L9:
 196 002a 38BD     		pop	{r3, r4, r5, pc}
 197              		.cfi_endproc
 198              	.LFE9:
 199              		.size	chIQResetI, .-chIQResetI
 200              		.section	.text.chIQPutI,"ax",%progbits
 201              		.align	2
 202              		.p2align 4,,15
 203              		.global	chIQPutI
 204              		.thumb
 205              		.thumb_func
 206              		.type	chIQPutI, %function
 207              	chIQPutI:
 208              	.LFB10:
 209              		.loc 1 140 0
 210              		.cfi_startproc
 211              		@ args = 0, pretend = 0, frame = 0
 212              		@ frame_needed = 0, uses_anonymous_args = 0
 213              	.LVL13:
 214 0000 0346     		mov	r3, r0
 215              		.loc 1 144 0
 216 0002 4069     		ldr	r0, [r0, #20]
 217              	.LVL14:
 218 0004 9A69     		ldr	r2, [r3, #24]
 219 0006 9042     		cmp	r0, r2
 220              		.loc 1 140 0
 221 0008 10B5     		push	{r4, lr}
 222              		.cfi_def_cfa_offset 8
 223              		.cfi_offset 4, -8
 224              		.cfi_offset 14, -4
 225              		.loc 1 144 0
 226 000a 9A68     		ldr	r2, [r3, #8]
 227 000c 1BD0     		beq	.L25
 228              	.L18:
ARM GAS  /tmp/ccsd5mUt.s 			page 5


 229              		.loc 1 147 0
 230 000e 0132     		adds	r2, r2, #1
 231              		.loc 1 148 0
 232 0010 441C     		adds	r4, r0, #1
 233              		.loc 1 147 0
 234 0012 9A60     		str	r2, [r3, #8]
 235              		.loc 1 148 0
 236 0014 5C61     		str	r4, [r3, #20]
 237 0016 0170     		strb	r1, [r0]
 238              		.loc 1 149 0
 239 0018 5969     		ldr	r1, [r3, #20]
 240              	.LVL15:
 241 001a 1A69     		ldr	r2, [r3, #16]
 242 001c 9142     		cmp	r1, r2
 243 001e 0BD2     		bcs	.L19
 244              		.loc 1 152 0
 245 0020 1868     		ldr	r0, [r3]
 246              	.LVL16:
 247 0022 9842     		cmp	r0, r3
 248 0024 0DD0     		beq	.L22
 249              	.LVL17:
 250              	.L26:
 251              	.LBB18:
 252              	.LBB19:
 253              		.loc 2 62 0
 254 0026 0268     		ldr	r2, [r0]
 255 0028 1A60     		str	r2, [r3]
 256 002a 5360     		str	r3, [r2, #4]
 257              	.LBE19:
 258              	.LBE18:
 259              		.loc 1 153 0
 260 002c FFF7FEFF 		bl	chSchReadyI
 261              	.LVL18:
 262 0030 0023     		movs	r3, #0
 263 0032 4362     		str	r3, [r0, #36]
 264              		.loc 1 155 0
 265 0034 1846     		mov	r0, r3
 266 0036 10BD     		pop	{r4, pc}
 267              	.LVL19:
 268              	.L19:
 269              		.loc 1 152 0
 270 0038 1868     		ldr	r0, [r3]
 271              	.LVL20:
 272              		.loc 1 150 0
 273 003a DA68     		ldr	r2, [r3, #12]
 274 003c 5A61     		str	r2, [r3, #20]
 275              	.LVL21:
 276              		.loc 1 152 0
 277 003e 9842     		cmp	r0, r3
 278 0040 F1D1     		bne	.L26
 279              	.L22:
 280              		.loc 1 155 0
 281 0042 0020     		movs	r0, #0
 282 0044 10BD     		pop	{r4, pc}
 283              	.LVL22:
 284              	.L25:
 285              		.loc 1 144 0 discriminator 1
ARM GAS  /tmp/ccsd5mUt.s 			page 6


 286 0046 002A     		cmp	r2, #0
 287 0048 E1D0     		beq	.L18
 288              		.loc 1 145 0
 289 004a 6FF00300 		mvn	r0, #3
 290 004e 10BD     		pop	{r4, pc}
 291              		.cfi_endproc
 292              	.LFE10:
 293              		.size	chIQPutI, .-chIQPutI
 294              		.section	.text.chIQGetTimeout,"ax",%progbits
 295              		.align	2
 296              		.p2align 4,,15
 297              		.global	chIQGetTimeout
 298              		.thumb
 299              		.thumb_func
 300              		.type	chIQGetTimeout, %function
 301              	chIQGetTimeout:
 302              	.LFB11:
 303              		.loc 1 178 0
 304              		.cfi_startproc
 305              		@ args = 0, pretend = 0, frame = 0
 306              		@ frame_needed = 0, uses_anonymous_args = 0
 307              	.LVL23:
 308 0000 70B5     		push	{r4, r5, r6, lr}
 309              		.cfi_def_cfa_offset 16
 310              		.cfi_offset 4, -16
 311              		.cfi_offset 5, -12
 312              		.cfi_offset 6, -8
 313              		.cfi_offset 14, -4
 314              	.LBB20:
 315              		.loc 1 181 0
 316 0002 2023     		movs	r3, #32
 317              	.LBE20:
 318              		.loc 1 178 0
 319 0004 0E46     		mov	r6, r1
 320 0006 0446     		mov	r4, r0
 321              	.LBB21:
 322              		.loc 1 181 0
 323              	@ 181 "/d_drive/axoloti/platform_linux/../chibios/os/kernel/src/chqueues.c" 1
 324 0008 83F31188 		msr     BASEPRI, r3
 325              	@ 0 "" 2
 326              		.thumb
 327              	.LBE21:
 328              		.loc 1 182 0
 329 000c C369     		ldr	r3, [r0, #28]
 330 000e 2BB1     		cbz	r3, .L29
 331              		.loc 1 183 0
 332 0010 9847     		blx	r3
 333              	.LVL24:
 334 0012 03E0     		b	.L29
 335              	.LVL25:
 336              	.L31:
 337              	.LBB22:
 338              		.loc 1 187 0
 339 0014 FFF7FEFF 		bl	qwait
 340              	.LVL26:
 341 0018 0028     		cmp	r0, #0
 342 001a 15DB     		blt	.L38
ARM GAS  /tmp/ccsd5mUt.s 			page 7


 343              	.LVL27:
 344              	.L29:
 345              	.LBE22:
 346              		.loc 1 185 0
 347 001c A568     		ldr	r5, [r4, #8]
 348              	.LBB24:
 349              		.loc 1 187 0
 350 001e 2046     		mov	r0, r4
 351 0020 3146     		mov	r1, r6
 352              	.LBE24:
 353              		.loc 1 185 0
 354 0022 002D     		cmp	r5, #0
 355 0024 F6D0     		beq	.L31
 356              	.LVL28:
 357              		.loc 1 194 0
 358 0026 A269     		ldr	r2, [r4, #24]
 359              		.loc 1 195 0
 360 0028 2169     		ldr	r1, [r4, #16]
 361              	.LVL29:
 362              		.loc 1 194 0
 363 002a 531C     		adds	r3, r2, #1
 364              		.loc 1 195 0
 365 002c 8B42     		cmp	r3, r1
 366              		.loc 1 193 0
 367 002e 05F1FF35 		add	r5, r5, #-1
 368              		.loc 1 194 0
 369 0032 A361     		str	r3, [r4, #24]
 370              		.loc 1 193 0
 371 0034 A560     		str	r5, [r4, #8]
 372              		.loc 1 196 0
 373 0036 28BF     		it	cs
 374 0038 E368     		ldrcs	r3, [r4, #12]
 375              		.loc 1 194 0
 376 003a 1078     		ldrb	r0, [r2]	@ zero_extendqisi2
 377              	.LVL30:
 378              		.loc 1 196 0
 379 003c 28BF     		it	cs
 380 003e A361     		strcs	r3, [r4, #24]
 381              	.LBB25:
 382              		.loc 1 198 0
 383 0040 0023     		movs	r3, #0
 384              	@ 198 "/d_drive/axoloti/platform_linux/../chibios/os/kernel/src/chqueues.c" 1
 385 0042 83F31188 		msr     BASEPRI, r3
 386              	@ 0 "" 2
 387              		.thumb
 388              	.LBE25:
 389              		.loc 1 200 0
 390 0046 70BD     		pop	{r4, r5, r6, pc}
 391              	.LVL31:
 392              	.L38:
 393              	.LBB26:
 394              	.LBB23:
 395              		.loc 1 188 0
 396 0048 2B46     		mov	r3, r5
 397              	@ 188 "/d_drive/axoloti/platform_linux/../chibios/os/kernel/src/chqueues.c" 1
 398 004a 83F31188 		msr     BASEPRI, r3
 399              	@ 0 "" 2
ARM GAS  /tmp/ccsd5mUt.s 			page 8


 400              		.thumb
 401              	.LBE23:
 402              		.loc 1 189 0
 403 004e 70BD     		pop	{r4, r5, r6, pc}
 404              	.LBE26:
 405              		.cfi_endproc
 406              	.LFE11:
 407              		.size	chIQGetTimeout, .-chIQGetTimeout
 408              		.section	.text.chIQReadTimeout,"ax",%progbits
 409              		.align	2
 410              		.p2align 4,,15
 411              		.global	chIQReadTimeout
 412              		.thumb
 413              		.thumb_func
 414              		.type	chIQReadTimeout, %function
 415              	chIQReadTimeout:
 416              	.LFB12:
 417              		.loc 1 227 0
 418              		.cfi_startproc
 419              		@ args = 0, pretend = 0, frame = 0
 420              		@ frame_needed = 0, uses_anonymous_args = 0
 421              	.LVL32:
 422 0000 2DE9F047 		push	{r4, r5, r6, r7, r8, r9, r10, lr}
 423              		.cfi_def_cfa_offset 32
 424              		.cfi_offset 4, -32
 425              		.cfi_offset 5, -28
 426              		.cfi_offset 6, -24
 427              		.cfi_offset 7, -20
 428              		.cfi_offset 8, -16
 429              		.cfi_offset 9, -12
 430              		.cfi_offset 10, -8
 431              		.cfi_offset 14, -4
 432              		.loc 1 227 0
 433 0004 1E46     		mov	r6, r3
 434 0006 0446     		mov	r4, r0
 435 0008 8946     		mov	r9, r1
 436 000a 9246     		mov	r10, r2
 437              		.loc 1 228 0
 438 000c D0F81C80 		ldr	r8, [r0, #28]
 439              	.LVL33:
 440              	.LBB27:
 441              		.loc 1 233 0
 442 0010 2023     		movs	r3, #32
 443              	.LVL34:
 444              	@ 233 "/d_drive/axoloti/platform_linux/../chibios/os/kernel/src/chqueues.c" 1
 445 0012 83F31188 		msr     BASEPRI, r3
 446              	@ 0 "" 2
 447              		.thumb
 448              	.LBE27:
 449              		.loc 1 229 0
 450 0016 0027     		movs	r7, #0
 451              	.LVL35:
 452              	.L45:
 453              		.loc 1 235 0
 454 0018 B8F1000F 		cmp	r8, #0
 455 001c 05D0     		beq	.L41
 456              		.loc 1 236 0
ARM GAS  /tmp/ccsd5mUt.s 			page 9


 457 001e 2046     		mov	r0, r4
 458              	.LVL36:
 459 0020 C047     		blx	r8
 460              	.LVL37:
 461 0022 02E0     		b	.L41
 462              	.LVL38:
 463              	.L43:
 464              		.loc 1 239 0
 465 0024 FFF7FEFF 		bl	qwait
 466              	.LVL39:
 467 0028 E0B9     		cbnz	r0, .L52
 468              	.L41:
 469              		.loc 1 238 0
 470 002a A568     		ldr	r5, [r4, #8]
 471              		.loc 1 239 0
 472 002c 2046     		mov	r0, r4
 473 002e 3146     		mov	r1, r6
 474              		.loc 1 238 0
 475 0030 002D     		cmp	r5, #0
 476 0032 F7D0     		beq	.L43
 477              	.LVL40:
 478              		.loc 1 246 0
 479 0034 A369     		ldr	r3, [r4, #24]
 480              		.loc 1 245 0
 481 0036 013D     		subs	r5, r5, #1
 482              		.loc 1 246 0
 483 0038 5A1C     		adds	r2, r3, #1
 484 003a A261     		str	r2, [r4, #24]
 485              		.loc 1 245 0
 486 003c A560     		str	r5, [r4, #8]
 487              		.loc 1 246 0
 488 003e 1B78     		ldrb	r3, [r3]	@ zero_extendqisi2
 489 0040 09F8013B 		strb	r3, [r9], #1
 490              	.LVL41:
 491              		.loc 1 247 0
 492 0044 2369     		ldr	r3, [r4, #16]
 493 0046 A269     		ldr	r2, [r4, #24]
 494 0048 9A42     		cmp	r2, r3
 495              		.loc 1 248 0
 496 004a 24BF     		itt	cs
 497 004c E368     		ldrcs	r3, [r4, #12]
 498 004e A361     		strcs	r3, [r4, #24]
 499              	.LBB28:
 500              		.loc 1 250 0
 501 0050 0023     		movs	r3, #0
 502              	@ 250 "/d_drive/axoloti/platform_linux/../chibios/os/kernel/src/chqueues.c" 1
 503 0052 83F31188 		msr     BASEPRI, r3
 504              	@ 0 "" 2
 505              		.thumb
 506              	.LBE28:
 507              		.loc 1 251 0
 508 0056 0137     		adds	r7, r7, #1
 509              	.LVL42:
 510              		.loc 1 252 0
 511 0058 BA45     		cmp	r10, r7
 512 005a 06D0     		beq	.L42
 513              	.LBB29:
ARM GAS  /tmp/ccsd5mUt.s 			page 10


 514              		.loc 1 255 0
 515 005c 2023     		movs	r3, #32
 516              	@ 255 "/d_drive/axoloti/platform_linux/../chibios/os/kernel/src/chqueues.c" 1
 517 005e 83F31188 		msr     BASEPRI, r3
 518              	@ 0 "" 2
 519              		.thumb
 520              	.LBE29:
 521              		.loc 1 256 0
 522 0062 D9E7     		b	.L45
 523              	.LVL43:
 524              	.L52:
 525              	.LBB30:
 526              		.loc 1 240 0
 527 0064 2B46     		mov	r3, r5
 528              	@ 240 "/d_drive/axoloti/platform_linux/../chibios/os/kernel/src/chqueues.c" 1
 529 0066 83F31188 		msr     BASEPRI, r3
 530              	@ 0 "" 2
 531              	.LVL44:
 532              		.thumb
 533              	.L42:
 534              	.LBE30:
 535              		.loc 1 257 0
 536 006a 3846     		mov	r0, r7
 537 006c BDE8F087 		pop	{r4, r5, r6, r7, r8, r9, r10, pc}
 538              		.cfi_endproc
 539              	.LFE12:
 540              		.size	chIQReadTimeout, .-chIQReadTimeout
 541              		.section	.text.chOQInit,"ax",%progbits
 542              		.align	2
 543              		.p2align 4,,15
 544              		.global	chOQInit
 545              		.thumb
 546              		.thumb_func
 547              		.type	chOQInit, %function
 548              	chOQInit:
 549              	.LFB13:
 550              		.loc 1 276 0
 551              		.cfi_startproc
 552              		@ args = 4, pretend = 0, frame = 0
 553              		@ frame_needed = 0, uses_anonymous_args = 0
 554              		@ link register save eliminated.
 555              	.LVL45:
 556 0000 30B4     		push	{r4, r5}
 557              		.cfi_def_cfa_offset 8
 558              		.cfi_offset 4, -8
 559              		.cfi_offset 5, -4
 560              		.loc 1 276 0
 561 0002 029C     		ldr	r4, [sp, #8]
 562              		.loc 1 283 0
 563 0004 0462     		str	r4, [r0, #32]
 564              		.loc 1 281 0
 565 0006 8D18     		adds	r5, r1, r2
 566 0008 0561     		str	r5, [r0, #16]
 567              		.loc 1 278 0
 568 000a 4060     		str	r0, [r0, #4]
 569 000c 0060     		str	r0, [r0]
 570              		.loc 1 279 0
ARM GAS  /tmp/ccsd5mUt.s 			page 11


 571 000e 8260     		str	r2, [r0, #8]
 572              		.loc 1 280 0
 573 0010 4161     		str	r1, [r0, #20]
 574 0012 8161     		str	r1, [r0, #24]
 575 0014 C160     		str	r1, [r0, #12]
 576              		.loc 1 282 0
 577 0016 C361     		str	r3, [r0, #28]
 578              		.loc 1 284 0
 579 0018 30BC     		pop	{r4, r5}
 580              		.cfi_restore 5
 581              		.cfi_restore 4
 582              		.cfi_def_cfa_offset 0
 583              	.LVL46:
 584 001a 7047     		bx	lr
 585              		.cfi_endproc
 586              	.LFE13:
 587              		.size	chOQInit, .-chOQInit
 588              		.section	.text.chOQResetI,"ax",%progbits
 589              		.align	2
 590              		.p2align 4,,15
 591              		.global	chOQResetI
 592              		.thumb
 593              		.thumb_func
 594              		.type	chOQResetI, %function
 595              	chOQResetI:
 596              	.LFB14:
 597              		.loc 1 297 0
 598              		.cfi_startproc
 599              		@ args = 0, pretend = 0, frame = 0
 600              		@ frame_needed = 0, uses_anonymous_args = 0
 601              	.LVL47:
 602 0000 38B5     		push	{r3, r4, r5, lr}
 603              		.cfi_def_cfa_offset 16
 604              		.cfi_offset 3, -16
 605              		.cfi_offset 4, -12
 606              		.cfi_offset 5, -8
 607              		.cfi_offset 14, -4
 608              		.loc 1 301 0
 609 0002 C268     		ldr	r2, [r0, #12]
 610              		.loc 1 302 0
 611 0004 0369     		ldr	r3, [r0, #16]
 612              		.loc 1 297 0
 613 0006 0446     		mov	r4, r0
 614              		.loc 1 303 0
 615 0008 0068     		ldr	r0, [r0]
 616              	.LVL48:
 617              		.loc 1 301 0
 618 000a 6261     		str	r2, [r4, #20]
 619              		.loc 1 302 0
 620 000c 9B1A     		subs	r3, r3, r2
 621              		.loc 1 303 0
 622 000e A042     		cmp	r0, r4
 623              		.loc 1 301 0
 624 0010 A261     		str	r2, [r4, #24]
 625              		.loc 1 302 0
 626 0012 A360     		str	r3, [r4, #8]
 627              		.loc 1 303 0
ARM GAS  /tmp/ccsd5mUt.s 			page 12


 628 0014 0AD0     		beq	.L55
 629              		.loc 1 304 0
 630 0016 6FF00105 		mvn	r5, #1
 631              	.L57:
 632              	.LVL49:
 633              	.LBB31:
 634              	.LBB32:
 635              		.loc 2 62 0
 636 001a 0368     		ldr	r3, [r0]
 637 001c 2360     		str	r3, [r4]
 638 001e 5C60     		str	r4, [r3, #4]
 639              	.LBE32:
 640              	.LBE31:
 641              		.loc 1 304 0
 642 0020 FFF7FEFF 		bl	chSchReadyI
 643              	.LVL50:
 644 0024 4562     		str	r5, [r0, #36]
 645              		.loc 1 303 0
 646 0026 2068     		ldr	r0, [r4]
 647 0028 A042     		cmp	r0, r4
 648 002a F6D1     		bne	.L57
 649              	.LVL51:
 650              	.L55:
 651 002c 38BD     		pop	{r3, r4, r5, pc}
 652              		.cfi_endproc
 653              	.LFE14:
 654              		.size	chOQResetI, .-chOQResetI
 655 002e 00BF     		.section	.text.chOQPutTimeout,"ax",%progbits
 656              		.align	2
 657              		.p2align 4,,15
 658              		.global	chOQPutTimeout
 659              		.thumb
 660              		.thumb_func
 661              		.type	chOQPutTimeout, %function
 662              	chOQPutTimeout:
 663              	.LFB15:
 664              		.loc 1 329 0
 665              		.cfi_startproc
 666              		@ args = 0, pretend = 0, frame = 0
 667              		@ frame_needed = 0, uses_anonymous_args = 0
 668              	.LVL52:
 669 0000 F8B5     		push	{r3, r4, r5, r6, r7, lr}
 670              		.cfi_def_cfa_offset 24
 671              		.cfi_offset 3, -24
 672              		.cfi_offset 4, -20
 673              		.cfi_offset 5, -16
 674              		.cfi_offset 6, -12
 675              		.cfi_offset 7, -8
 676              		.cfi_offset 14, -4
 677              		.loc 1 329 0
 678 0002 0446     		mov	r4, r0
 679 0004 0F46     		mov	r7, r1
 680 0006 1646     		mov	r6, r2
 681              	.LBB33:
 682              		.loc 1 331 0
 683 0008 2023     		movs	r3, #32
 684              	@ 331 "/d_drive/axoloti/platform_linux/../chibios/os/kernel/src/chqueues.c" 1
ARM GAS  /tmp/ccsd5mUt.s 			page 13


 685 000a 83F31188 		msr     BASEPRI, r3
 686              	@ 0 "" 2
 687              		.thumb
 688              	.LBE33:
 689              		.loc 1 332 0
 690 000e 03E0     		b	.L62
 691              	.LVL53:
 692              	.L64:
 693              	.LBB34:
 694              		.loc 1 335 0
 695 0010 FFF7FEFF 		bl	qwait
 696              	.LVL54:
 697 0014 0028     		cmp	r0, #0
 698 0016 19DB     		blt	.L72
 699              	.LVL55:
 700              	.L62:
 701              	.LBE34:
 702              		.loc 1 332 0
 703 0018 A568     		ldr	r5, [r4, #8]
 704              	.LBB36:
 705              		.loc 1 335 0
 706 001a 2046     		mov	r0, r4
 707 001c 3146     		mov	r1, r6
 708              	.LBE36:
 709              		.loc 1 332 0
 710 001e 002D     		cmp	r5, #0
 711 0020 F6D0     		beq	.L64
 712              	.LVL56:
 713              		.loc 1 342 0
 714 0022 6369     		ldr	r3, [r4, #20]
 715              		.loc 1 341 0
 716 0024 013D     		subs	r5, r5, #1
 717              		.loc 1 342 0
 718 0026 5A1C     		adds	r2, r3, #1
 719 0028 6261     		str	r2, [r4, #20]
 720              		.loc 1 341 0
 721 002a A560     		str	r5, [r4, #8]
 722              		.loc 1 342 0
 723 002c 1F70     		strb	r7, [r3]
 724              		.loc 1 343 0
 725 002e 2369     		ldr	r3, [r4, #16]
 726 0030 6269     		ldr	r2, [r4, #20]
 727 0032 9A42     		cmp	r2, r3
 728              		.loc 1 344 0
 729 0034 24BF     		itt	cs
 730 0036 E368     		ldrcs	r3, [r4, #12]
 731 0038 6361     		strcs	r3, [r4, #20]
 732              		.loc 1 346 0
 733 003a E369     		ldr	r3, [r4, #28]
 734 003c 0BB1     		cbz	r3, .L66
 735              		.loc 1 347 0
 736 003e 2046     		mov	r0, r4
 737              	.LVL57:
 738 0040 9847     		blx	r3
 739              	.LVL58:
 740              	.L66:
 741              	.LBB37:
ARM GAS  /tmp/ccsd5mUt.s 			page 14


 742              		.loc 1 349 0
 743 0042 0023     		movs	r3, #0
 744              	@ 349 "/d_drive/axoloti/platform_linux/../chibios/os/kernel/src/chqueues.c" 1
 745 0044 83F31188 		msr     BASEPRI, r3
 746              	@ 0 "" 2
 747              		.thumb
 748              	.LBE37:
 749              		.loc 1 350 0
 750 0048 1846     		mov	r0, r3
 751              		.loc 1 351 0
 752 004a F8BD     		pop	{r3, r4, r5, r6, r7, pc}
 753              	.LVL59:
 754              	.L72:
 755              	.LBB38:
 756              	.LBB35:
 757              		.loc 1 336 0
 758 004c 2B46     		mov	r3, r5
 759              	@ 336 "/d_drive/axoloti/platform_linux/../chibios/os/kernel/src/chqueues.c" 1
 760 004e 83F31188 		msr     BASEPRI, r3
 761              	@ 0 "" 2
 762              		.thumb
 763              	.LBE35:
 764              		.loc 1 337 0
 765 0052 F8BD     		pop	{r3, r4, r5, r6, r7, pc}
 766              	.LBE38:
 767              		.cfi_endproc
 768              	.LFE15:
 769              		.size	chOQPutTimeout, .-chOQPutTimeout
 770              		.section	.text.chOQGetI,"ax",%progbits
 771              		.align	2
 772              		.p2align 4,,15
 773              		.global	chOQGetI
 774              		.thumb
 775              		.thumb_func
 776              		.type	chOQGetI, %function
 777              	chOQGetI:
 778              	.LFB16:
 779              		.loc 1 363 0
 780              		.cfi_startproc
 781              		@ args = 0, pretend = 0, frame = 0
 782              		@ frame_needed = 0, uses_anonymous_args = 0
 783              	.LVL60:
 784 0000 38B5     		push	{r3, r4, r5, lr}
 785              		.cfi_def_cfa_offset 16
 786              		.cfi_offset 3, -16
 787              		.cfi_offset 4, -12
 788              		.cfi_offset 5, -8
 789              		.cfi_offset 14, -4
 790              		.loc 1 368 0
 791 0002 8269     		ldr	r2, [r0, #24]
 792 0004 4369     		ldr	r3, [r0, #20]
 793 0006 9342     		cmp	r3, r2
 794 0008 8368     		ldr	r3, [r0, #8]
 795 000a 18D0     		beq	.L83
 796              	.L76:
 797              		.loc 1 373 0
 798 000c 0569     		ldr	r5, [r0, #16]
ARM GAS  /tmp/ccsd5mUt.s 			page 15


 799              		.loc 1 372 0
 800 000e 511C     		adds	r1, r2, #1
 801              		.loc 1 371 0
 802 0010 0133     		adds	r3, r3, #1
 803 0012 8360     		str	r3, [r0, #8]
 804              		.loc 1 372 0
 805 0014 8161     		str	r1, [r0, #24]
 806              		.loc 1 373 0
 807 0016 A942     		cmp	r1, r5
 808              		.loc 1 372 0
 809 0018 1478     		ldrb	r4, [r2]	@ zero_extendqisi2
 810              	.LVL61:
 811              		.loc 1 373 0
 812 001a 0DD2     		bcs	.L78
 813              	.L79:
 814              		.loc 1 376 0
 815 001c 0268     		ldr	r2, [r0]
 816 001e 8242     		cmp	r2, r0
 817 0020 08D0     		beq	.L77
 818              	.LBB39:
 819              	.LBB40:
 820              		.loc 2 62 0
 821 0022 1168     		ldr	r1, [r2]
 822 0024 0160     		str	r1, [r0]
 823 0026 0346     		mov	r3, r0
 824              	.LVL62:
 825 0028 4B60     		str	r3, [r1, #4]
 826              	.LBE40:
 827              	.LBE39:
 828              		.loc 1 377 0
 829 002a 1046     		mov	r0, r2
 830              	.LVL63:
 831 002c FFF7FEFF 		bl	chSchReadyI
 832              	.LVL64:
 833 0030 0023     		movs	r3, #0
 834 0032 4362     		str	r3, [r0, #36]
 835              	.LVL65:
 836              	.L77:
 837              		.loc 1 379 0
 838 0034 2046     		mov	r0, r4
 839 0036 38BD     		pop	{r3, r4, r5, pc}
 840              	.LVL66:
 841              	.L78:
 842              		.loc 1 374 0
 843 0038 C368     		ldr	r3, [r0, #12]
 844 003a 8361     		str	r3, [r0, #24]
 845 003c EEE7     		b	.L79
 846              	.LVL67:
 847              	.L83:
 848              		.loc 1 368 0 discriminator 1
 849 003e 002B     		cmp	r3, #0
 850 0040 E4D0     		beq	.L76
 851              		.loc 1 369 0
 852 0042 6FF00200 		mvn	r0, #2
 853              	.LVL68:
 854 0046 38BD     		pop	{r3, r4, r5, pc}
 855              		.cfi_endproc
ARM GAS  /tmp/ccsd5mUt.s 			page 16


 856              	.LFE16:
 857              		.size	chOQGetI, .-chOQGetI
 858              		.section	.text.chOQWriteTimeout,"ax",%progbits
 859              		.align	2
 860              		.p2align 4,,15
 861              		.global	chOQWriteTimeout
 862              		.thumb
 863              		.thumb_func
 864              		.type	chOQWriteTimeout, %function
 865              	chOQWriteTimeout:
 866              	.LFB17:
 867              		.loc 1 407 0
 868              		.cfi_startproc
 869              		@ args = 0, pretend = 0, frame = 0
 870              		@ frame_needed = 0, uses_anonymous_args = 0
 871              	.LVL69:
 872 0000 2DE9F84F 		push	{r3, r4, r5, r6, r7, r8, r9, r10, fp, lr}
 873              		.cfi_def_cfa_offset 40
 874              		.cfi_offset 3, -40
 875              		.cfi_offset 4, -36
 876              		.cfi_offset 5, -32
 877              		.cfi_offset 6, -28
 878              		.cfi_offset 7, -24
 879              		.cfi_offset 8, -20
 880              		.cfi_offset 9, -16
 881              		.cfi_offset 10, -12
 882              		.cfi_offset 11, -8
 883              		.cfi_offset 14, -4
 884              		.loc 1 407 0
 885 0004 9A46     		mov	r10, r3
 886 0006 0446     		mov	r4, r0
 887 0008 0E46     		mov	r6, r1
 888 000a 1746     		mov	r7, r2
 889              		.loc 1 408 0
 890 000c D0F81C90 		ldr	r9, [r0, #28]
 891              	.LVL70:
 892              	.LBB41:
 893              		.loc 1 413 0
 894 0010 2023     		movs	r3, #32
 895              	.LVL71:
 896              	@ 413 "/d_drive/axoloti/platform_linux/../chibios/os/kernel/src/chqueues.c" 1
 897 0012 83F31188 		msr     BASEPRI, r3
 898              	@ 0 "" 2
 899              		.thumb
 900              	.LBE41:
 901              		.loc 1 409 0
 902 0016 4FF00008 		mov	r8, #0
 903              	.LVL72:
 904              	.L85:
 905              		.loc 1 415 0
 906 001a A568     		ldr	r5, [r4, #8]
 907              		.loc 1 422 0
 908 001c 06F1010B 		add	fp, r6, #1
 909              	.LVL73:
 910              		.loc 1 421 0
 911 0020 6A1E     		subs	r2, r5, #1
 912              		.loc 1 427 0
ARM GAS  /tmp/ccsd5mUt.s 			page 17


 913 0022 2046     		mov	r0, r4
 914              		.loc 1 415 0
 915 0024 0DB3     		cbz	r5, .L88
 916              	.LVL74:
 917              	.L101:
 918              		.loc 1 422 0
 919 0026 6369     		ldr	r3, [r4, #20]
 920              		.loc 1 421 0
 921 0028 A260     		str	r2, [r4, #8]
 922              		.loc 1 422 0
 923 002a 5A1C     		adds	r2, r3, #1
 924 002c 6261     		str	r2, [r4, #20]
 925 002e 3278     		ldrb	r2, [r6]	@ zero_extendqisi2
 926 0030 1A70     		strb	r2, [r3]
 927              		.loc 1 423 0
 928 0032 2369     		ldr	r3, [r4, #16]
 929 0034 6269     		ldr	r2, [r4, #20]
 930 0036 9A42     		cmp	r2, r3
 931              		.loc 1 424 0
 932 0038 24BF     		itt	cs
 933 003a E368     		ldrcs	r3, [r4, #12]
 934 003c 6361     		strcs	r3, [r4, #20]
 935              		.loc 1 426 0
 936 003e B9F1000F 		cmp	r9, #0
 937 0042 00D0     		beq	.L90
 938              		.loc 1 427 0
 939 0044 C847     		blx	r9
 940              	.LVL75:
 941              	.L90:
 942              	.LBB42:
 943              		.loc 1 429 0
 944 0046 0023     		movs	r3, #0
 945              	@ 429 "/d_drive/axoloti/platform_linux/../chibios/os/kernel/src/chqueues.c" 1
 946 0048 83F31188 		msr     BASEPRI, r3
 947              	@ 0 "" 2
 948              		.thumb
 949              	.LBE42:
 950              		.loc 1 431 0
 951 004c 013F     		subs	r7, r7, #1
 952              	.LVL76:
 953              		.loc 1 430 0
 954 004e 08F10108 		add	r8, r8, #1
 955              	.LVL77:
 956              		.loc 1 431 0
 957 0052 13D0     		beq	.L87
 958              	.LBB43:
 959              		.loc 1 433 0
 960 0054 2023     		movs	r3, #32
 961              	@ 433 "/d_drive/axoloti/platform_linux/../chibios/os/kernel/src/chqueues.c" 1
 962 0056 83F31188 		msr     BASEPRI, r3
 963              	@ 0 "" 2
 964              		.thumb
 965              	.LBE43:
 966              		.loc 1 415 0
 967 005a A568     		ldr	r5, [r4, #8]
 968              		.loc 1 422 0
 969 005c 5E46     		mov	r6, fp
ARM GAS  /tmp/ccsd5mUt.s 			page 18


 970              	.LVL78:
 971              		.loc 1 421 0
 972 005e 6A1E     		subs	r2, r5, #1
 973              		.loc 1 422 0
 974 0060 06F1010B 		add	fp, r6, #1
 975              	.LVL79:
 976              		.loc 1 427 0
 977 0064 2046     		mov	r0, r4
 978              		.loc 1 415 0
 979 0066 002D     		cmp	r5, #0
 980 0068 DDD1     		bne	.L101
 981              	.LVL80:
 982              	.L88:
 983              		.loc 1 416 0
 984 006a 2046     		mov	r0, r4
 985              	.LVL81:
 986 006c 5146     		mov	r1, r10
 987 006e FFF7FEFF 		bl	qwait
 988              	.LVL82:
 989 0072 0028     		cmp	r0, #0
 990 0074 D1D0     		beq	.L85
 991              	.LBB44:
 992              		.loc 1 417 0
 993 0076 2B46     		mov	r3, r5
 994              	@ 417 "/d_drive/axoloti/platform_linux/../chibios/os/kernel/src/chqueues.c" 1
 995 0078 83F31188 		msr     BASEPRI, r3
 996              	@ 0 "" 2
 997              	.LVL83:
 998              		.thumb
 999              	.L87:
 1000              	.LBE44:
 1001              		.loc 1 435 0
 1002 007c 4046     		mov	r0, r8
 1003 007e BDE8F88F 		pop	{r3, r4, r5, r6, r7, r8, r9, r10, fp, pc}
 1004              		.cfi_endproc
 1005              	.LFE17:
 1006              		.size	chOQWriteTimeout, .-chOQWriteTimeout
 1007 0082 00BF     		.text
 1008              	.Letext0:
 1009              		.file 3 "/d_drive/axoloti/platform_linux/lib/gcc/arm-none-eabi/4.9.3/include/stddef.h"
 1010              		.file 4 "/d_drive/axoloti/platform_linux/arm-none-eabi/include/machine/_default_types.h"
 1011              		.file 5 "/d_drive/axoloti/platform_linux/arm-none-eabi/include/sys/_stdint.h"
 1012              		.file 6 "/d_drive/axoloti/platform_linux/../chibios/os/ports/GCC/ARMCMx/chtypes.h"
 1013              		.file 7 "/d_drive/axoloti/platform_linux/../chibios/os/kernel/include/chlists.h"
 1014              		.file 8 "/d_drive/axoloti/platform_linux/../chibios/os/kernel/include/chthreads.h"
 1015              		.file 9 "/d_drive/axoloti/platform_linux/../chibios/os/ports/GCC/ARMCMx/chcore_v7m.h"
 1016              		.file 10 "/d_drive/axoloti/platform_linux/../chibios/os/kernel/include/chschd.h"
 1017              		.file 11 "/d_drive/axoloti/platform_linux/../chibios/os/kernel/include/chmtx.h"
 1018              		.file 12 "/d_drive/axoloti/platform_linux/../chibios/os/kernel/include/chqueues.h"