ARM GAS  /tmp/ccz8qndh.s 			page 1


   1              		.syntax unified
   2              		.cpu cortex-m4
   3              		.eabi_attribute 27, 1
   4              		.eabi_attribute 28, 1
   5              		.fpu fpv4-sp-d16
   6              		.eabi_attribute 20, 1
   7              		.eabi_attribute 21, 1
   8              		.eabi_attribute 23, 3
   9              		.eabi_attribute 24, 1
  10              		.eabi_attribute 25, 1
  11              		.eabi_attribute 26, 1
  12              		.eabi_attribute 30, 2
  13              		.eabi_attribute 34, 1
  14              		.eabi_attribute 18, 4
  15              		.thumb
  16              		.file	"chschd.c"
  17              		.text
  18              	.Ltext0:
  19              		.cfi_sections	.debug_frame
  20              		.section	.text.wakeup,"ax",%progbits
  21              		.align	2
  22              		.p2align 4,,15
  23              		.thumb
  24              		.thumb_func
  25              		.type	wakeup, %function
  26              	wakeup:
  27              	.LFB10:
  28              		.file 1 "/d_drive/axoloti/platform_linux/../chibios/os/kernel/src/chschd.c"
  29              		.loc 1 136 0
  30              		.cfi_startproc
  31              		@ args = 0, pretend = 0, frame = 0
  32              		@ frame_needed = 0, uses_anonymous_args = 0
  33              		@ link register save eliminated.
  34              	.LVL0:
  35 0000 10B4     		push	{r4}
  36              		.cfi_def_cfa_offset 4
  37              		.cfi_offset 4, -4
  38              	.LBB44:
  39              		.loc 1 139 0
  40 0002 2023     		movs	r3, #32
  41              	@ 139 "/d_drive/axoloti/platform_linux/../chibios/os/kernel/src/chschd.c" 1
  42 0004 83F31188 		msr     BASEPRI, r3
  43              	@ 0 "" 2
  44              		.thumb
  45              	.LBE44:
  46              		.loc 1 140 0
  47 0008 037F     		ldrb	r3, [r0, #28]	@ zero_extendqisi2
  48 000a 032B     		cmp	r3, #3
  49 000c 18D0     		beq	.L3
  50 000e 0D2B     		cmp	r3, #13
  51 0010 1AD0     		beq	.L4
  52 0012 83B1     		cbz	r3, .L13
  53              	.L2:
  54              		.loc 1 163 0
  55 0014 4FF0FF34 		mov	r4, #-1
  56              	.LBB45:
  57              	.LBB46:
ARM GAS  /tmp/ccz8qndh.s 			page 2


  58              		.loc 1 92 0
  59 0018 0023     		movs	r3, #0
  60 001a 8168     		ldr	r1, [r0, #8]
  61              	.LBE46:
  62              	.LBE45:
  63              	.LBB48:
  64              	.LBB49:
  65              	.LBB50:
  66              	.LBB51:
  67              		.loc 1 93 0
  68 001c 0D4A     		ldr	r2, .L15
  69              	.LBE51:
  70              	.LBE50:
  71              	.LBE49:
  72              	.LBE48:
  73              		.loc 1 163 0
  74 001e 4462     		str	r4, [r0, #36]
  75              	.LVL1:
  76              	.LBB59:
  77              	.LBB47:
  78              		.loc 1 92 0
  79 0020 0377     		strb	r3, [r0, #28]
  80              	.LVL2:
  81              	.L7:
  82              	.LBE47:
  83              	.LBE59:
  84              	.LBB60:
  85              	.LBB58:
  86              	.LBB54:
  87              	.LBB52:
  88              		.loc 1 95 0
  89 0022 1268     		ldr	r2, [r2]
  90              	.LVL3:
  91              		.loc 1 96 0
  92 0024 9368     		ldr	r3, [r2, #8]
  93 0026 8B42     		cmp	r3, r1
  94 0028 FBD2     		bcs	.L7
  95              		.loc 1 99 0
  96 002a 5168     		ldr	r1, [r2, #4]
  97 002c 4160     		str	r1, [r0, #4]
  98              		.loc 1 98 0
  99 002e 0260     		str	r2, [r0]
 100              	.LBE52:
 101              	.LBE54:
 102              	.LBB55:
 103              		.loc 1 165 0
 104 0030 0023     		movs	r3, #0
 105              	.LBE55:
 106              	.LBB56:
 107              	.LBB53:
 108              		.loc 1 100 0
 109 0032 5060     		str	r0, [r2, #4]
 110 0034 0860     		str	r0, [r1]
 111              	.LVL4:
 112              	.L13:
 113              	.LBE53:
 114              	.LBE56:
ARM GAS  /tmp/ccz8qndh.s 			page 3


 115              	.LBB57:
 116              		.loc 1 165 0
 117              	@ 165 "/d_drive/axoloti/platform_linux/../chibios/os/kernel/src/chschd.c" 1
 118 0036 83F31188 		msr     BASEPRI, r3
 119              	@ 0 "" 2
 120              		.thumb
 121              	.LBE57:
 122              	.LBE58:
 123              	.LBE60:
 124              		.loc 1 166 0
 125 003a 5DF8044B 		ldr	r4, [sp], #4
 126              		.cfi_remember_state
 127              		.cfi_restore 4
 128              		.cfi_def_cfa_offset 0
 129 003e 7047     		bx	lr
 130              	.L3:
 131              		.cfi_restore_state
 132              		.loc 1 150 0
 133 0040 426A     		ldr	r2, [r0, #36]
 134 0042 9368     		ldr	r3, [r2, #8]
 135 0044 0133     		adds	r3, r3, #1
 136 0046 9360     		str	r3, [r2, #8]
 137              	.L4:
 138              	.LVL5:
 139              	.LBB61:
 140              	.LBB62:
 141              		.file 2 "/d_drive/axoloti/platform_linux/../chibios/os/kernel/include/chinline.h"
 142              		.loc 2 75 0
 143 0048 90E80C00 		ldmia	r0, {r2, r3}
 144 004c 1A60     		str	r2, [r3]
 145              		.loc 2 76 0
 146 004e 0268     		ldr	r2, [r0]
 147 0050 5360     		str	r3, [r2, #4]
 148 0052 DFE7     		b	.L2
 149              	.L16:
 150              		.align	2
 151              	.L15:
 152 0054 00000000 		.word	.LANCHOR0
 153              	.LBE62:
 154              	.LBE61:
 155              		.cfi_endproc
 156              	.LFE10:
 157              		.size	wakeup, .-wakeup
 158              		.section	.text._scheduler_init,"ax",%progbits
 159              		.align	2
 160              		.p2align 4,,15
 161              		.global	_scheduler_init
 162              		.thumb
 163              		.thumb_func
 164              		.type	_scheduler_init, %function
 165              	_scheduler_init:
 166              	.LFB7:
 167              		.loc 1 55 0
 168              		.cfi_startproc
 169              		@ args = 0, pretend = 0, frame = 0
 170              		@ frame_needed = 0, uses_anonymous_args = 0
 171              		@ link register save eliminated.
ARM GAS  /tmp/ccz8qndh.s 			page 4


 172              		.loc 1 57 0
 173 0000 034B     		ldr	r3, .L18
 174              		.loc 1 58 0
 175 0002 0022     		movs	r2, #0
 176              		.loc 1 57 0
 177 0004 5B60     		str	r3, [r3, #4]
 178 0006 1B60     		str	r3, [r3]
 179              		.loc 1 60 0
 180 0008 5B61     		str	r3, [r3, #20]
 181 000a 1B61     		str	r3, [r3, #16]
 182              		.loc 1 58 0
 183 000c 9A60     		str	r2, [r3, #8]
 184 000e 7047     		bx	lr
 185              	.L19:
 186              		.align	2
 187              	.L18:
 188 0010 00000000 		.word	.LANCHOR0
 189              		.cfi_endproc
 190              	.LFE7:
 191              		.size	_scheduler_init, .-_scheduler_init
 192              		.section	.text.chSchReadyI,"ax",%progbits
 193              		.align	2
 194              		.p2align 4,,15
 195              		.global	chSchReadyI
 196              		.thumb
 197              		.thumb_func
 198              		.type	chSchReadyI, %function
 199              	chSchReadyI:
 200              	.LFB8:
 201              		.loc 1 81 0
 202              		.cfi_startproc
 203              		@ args = 0, pretend = 0, frame = 0
 204              		@ frame_needed = 0, uses_anonymous_args = 0
 205              		@ link register save eliminated.
 206              	.LVL6:
 207              		.loc 1 92 0
 208 0000 0022     		movs	r2, #0
 209 0002 8168     		ldr	r1, [r0, #8]
 210              		.loc 1 93 0
 211 0004 084B     		ldr	r3, .L24
 212              		.loc 1 81 0
 213 0006 10B4     		push	{r4}
 214              		.cfi_def_cfa_offset 4
 215              		.cfi_offset 4, -4
 216              		.loc 1 81 0
 217 0008 0446     		mov	r4, r0
 218              		.loc 1 92 0
 219 000a 0277     		strb	r2, [r0, #28]
 220              	.LVL7:
 221              	.L21:
 222              		.loc 1 95 0 discriminator 1
 223 000c 1B68     		ldr	r3, [r3]
 224              	.LVL8:
 225              		.loc 1 96 0 discriminator 1
 226 000e 9A68     		ldr	r2, [r3, #8]
 227 0010 8A42     		cmp	r2, r1
 228 0012 FBD2     		bcs	.L21
ARM GAS  /tmp/ccz8qndh.s 			page 5


 229              		.loc 1 99 0
 230 0014 5A68     		ldr	r2, [r3, #4]
 231 0016 6260     		str	r2, [r4, #4]
 232              		.loc 1 98 0
 233 0018 2360     		str	r3, [r4]
 234              		.loc 1 102 0
 235 001a 2046     		mov	r0, r4
 236              	.LVL9:
 237              		.loc 1 100 0
 238 001c 5C60     		str	r4, [r3, #4]
 239 001e 1460     		str	r4, [r2]
 240              		.loc 1 102 0
 241 0020 5DF8044B 		ldr	r4, [sp], #4
 242              		.cfi_restore 4
 243              		.cfi_def_cfa_offset 0
 244              	.LVL10:
 245 0024 7047     		bx	lr
 246              	.L25:
 247 0026 00BF     		.align	2
 248              	.L24:
 249 0028 00000000 		.word	.LANCHOR0
 250              		.cfi_endproc
 251              	.LFE8:
 252              		.size	chSchReadyI, .-chSchReadyI
 253              		.section	.text.chSchGoSleepS,"ax",%progbits
 254              		.align	2
 255              		.p2align 4,,15
 256              		.global	chSchGoSleepS
 257              		.thumb
 258              		.thumb_func
 259              		.type	chSchGoSleepS, %function
 260              	chSchGoSleepS:
 261              	.LFB9:
 262              		.loc 1 115 0
 263              		.cfi_startproc
 264              		@ args = 0, pretend = 0, frame = 0
 265              		@ frame_needed = 0, uses_anonymous_args = 0
 266              		@ link register save eliminated.
 267              	.LVL11:
 268              		.loc 1 120 0
 269 0000 084B     		ldr	r3, .L28
 270              		.loc 1 115 0
 271 0002 30B4     		push	{r4, r5}
 272              		.cfi_def_cfa_offset 8
 273              		.cfi_offset 4, -8
 274              		.cfi_offset 5, -4
 275              	.LBB63:
 276              	.LBB64:
 277              		.loc 2 60 0
 278 0004 1A68     		ldr	r2, [r3]
 279              	.LBE64:
 280              	.LBE63:
 281              		.loc 1 120 0
 282 0006 9969     		ldr	r1, [r3, #24]
 283              	.LVL12:
 284              	.LBB68:
 285              	.LBB65:
ARM GAS  /tmp/ccz8qndh.s 			page 6


 286              		.loc 2 62 0
 287 0008 1468     		ldr	r4, [r2]
 288              	.LBE65:
 289              	.LBE68:
 290              		.loc 1 120 0
 291 000a 0877     		strb	r0, [r1, #28]
 292              		.loc 1 127 0
 293 000c 0125     		movs	r5, #1
 294              		.loc 1 124 0
 295 000e 1420     		movs	r0, #20
 296              	.LVL13:
 297 0010 8877     		strb	r0, [r1, #30]
 298              	.LVL14:
 299              	.LBB69:
 300              	.LBB66:
 301              		.loc 2 62 0
 302 0012 6360     		str	r3, [r4, #4]
 303              	.LBE66:
 304              	.LBE69:
 305              		.loc 1 127 0
 306 0014 1577     		strb	r5, [r2, #28]
 307              	.LVL15:
 308              	.LBB70:
 309              	.LBB67:
 310              		.loc 2 62 0
 311 0016 1C60     		str	r4, [r3]
 312              	.LBE67:
 313              	.LBE70:
 314              		.loc 1 128 0
 315 0018 1046     		mov	r0, r2
 316              		.loc 1 129 0
 317 001a 30BC     		pop	{r4, r5}
 318              		.cfi_restore 5
 319              		.cfi_restore 4
 320              		.cfi_def_cfa_offset 0
 321              		.loc 1 126 0
 322 001c 9A61     		str	r2, [r3, #24]
 323              		.loc 1 128 0
 324 001e FFF7FEBF 		b	_port_switch
 325              	.LVL16:
 326              	.L29:
 327 0022 00BF     		.align	2
 328              	.L28:
 329 0024 00000000 		.word	.LANCHOR0
 330              		.cfi_endproc
 331              	.LFE9:
 332              		.size	chSchGoSleepS, .-chSchGoSleepS
 333              		.section	.text.chSchGoSleepTimeoutS,"ax",%progbits
 334              		.align	2
 335              		.p2align 4,,15
 336              		.global	chSchGoSleepTimeoutS
 337              		.thumb
 338              		.thumb_func
 339              		.type	chSchGoSleepTimeoutS, %function
 340              	chSchGoSleepTimeoutS:
 341              	.LFB11:
 342              		.loc 1 189 0
ARM GAS  /tmp/ccz8qndh.s 			page 7


 343              		.cfi_startproc
 344              		@ args = 0, pretend = 0, frame = 24
 345              		@ frame_needed = 0, uses_anonymous_args = 0
 346              	.LVL17:
 347 0000 30B5     		push	{r4, r5, lr}
 348              		.cfi_def_cfa_offset 12
 349              		.cfi_offset 4, -12
 350              		.cfi_offset 5, -8
 351              		.cfi_offset 14, -4
 352              		.loc 1 193 0
 353 0002 4B1C     		adds	r3, r1, #1
 354              		.loc 1 189 0
 355 0004 87B0     		sub	sp, sp, #28
 356              		.cfi_def_cfa_offset 40
 357              		.loc 1 193 0
 358 0006 12D0     		beq	.L31
 359              	.LBB71:
 360              		.loc 1 196 0
 361 0008 0C4C     		ldr	r4, .L38
 362 000a 0D4A     		ldr	r2, .L38+4
 363 000c A369     		ldr	r3, [r4, #24]
 364 000e 0546     		mov	r5, r0
 365 0010 01A8     		add	r0, sp, #4
 366              	.LVL18:
 367 0012 FFF7FEFF 		bl	chVTSetI
 368              	.LVL19:
 369              		.loc 1 197 0
 370 0016 2846     		mov	r0, r5
 371 0018 FFF7FEFF 		bl	chSchGoSleepS
 372              	.LVL20:
 373              		.loc 1 198 0
 374 001c 049B     		ldr	r3, [sp, #16]
 375 001e 13B1     		cbz	r3, .L33
 376              		.loc 1 199 0
 377 0020 01A8     		add	r0, sp, #4
 378 0022 FFF7FEFF 		bl	chVTResetI
 379              	.LVL21:
 380              	.L33:
 381              	.LBE71:
 382              		.loc 1 203 0
 383 0026 A369     		ldr	r3, [r4, #24]
 384              		.loc 1 204 0
 385 0028 586A     		ldr	r0, [r3, #36]
 386 002a 07B0     		add	sp, sp, #28
 387              		.cfi_remember_state
 388              		.cfi_def_cfa_offset 12
 389              		@ sp needed
 390 002c 30BD     		pop	{r4, r5, pc}
 391              	.LVL22:
 392              	.L31:
 393              		.cfi_restore_state
 394 002e 034C     		ldr	r4, .L38
 395              		.loc 1 202 0
 396 0030 FFF7FEFF 		bl	chSchGoSleepS
 397              	.LVL23:
 398              		.loc 1 203 0
 399 0034 A369     		ldr	r3, [r4, #24]
ARM GAS  /tmp/ccz8qndh.s 			page 8


 400              		.loc 1 204 0
 401 0036 586A     		ldr	r0, [r3, #36]
 402 0038 07B0     		add	sp, sp, #28
 403              		.cfi_def_cfa_offset 12
 404              		@ sp needed
 405 003a 30BD     		pop	{r4, r5, pc}
 406              	.L39:
 407              		.align	2
 408              	.L38:
 409 003c 00000000 		.word	.LANCHOR0
 410 0040 00000000 		.word	wakeup
 411              		.cfi_endproc
 412              	.LFE11:
 413              		.size	chSchGoSleepTimeoutS, .-chSchGoSleepTimeoutS
 414              		.section	.text.chSchWakeupS,"ax",%progbits
 415              		.align	2
 416              		.p2align 4,,15
 417              		.global	chSchWakeupS
 418              		.thumb
 419              		.thumb_func
 420              		.type	chSchWakeupS, %function
 421              	chSchWakeupS:
 422              	.LFB12:
 423              		.loc 1 225 0
 424              		.cfi_startproc
 425              		@ args = 0, pretend = 0, frame = 0
 426              		@ frame_needed = 0, uses_anonymous_args = 0
 427              		@ link register save eliminated.
 428              	.LVL24:
 429              		.loc 1 234 0
 430 0000 144B     		ldr	r3, .L49
 431              		.loc 1 225 0
 432 0002 F0B4     		push	{r4, r5, r6, r7}
 433              		.cfi_def_cfa_offset 16
 434              		.cfi_offset 4, -16
 435              		.cfi_offset 5, -12
 436              		.cfi_offset 6, -8
 437              		.cfi_offset 7, -4
 438              		.loc 1 234 0
 439 0004 9E69     		ldr	r6, [r3, #24]
 440 0006 8468     		ldr	r4, [r0, #8]
 441              		.loc 1 225 0
 442 0008 0546     		mov	r5, r0
 443              		.loc 1 234 0
 444 000a B068     		ldr	r0, [r6, #8]
 445              	.LVL25:
 446              		.loc 1 229 0
 447 000c 6962     		str	r1, [r5, #36]
 448              		.loc 1 234 0
 449 000e 8442     		cmp	r4, r0
 450              	.LBB72:
 451              	.LBB73:
 452              		.loc 1 92 0
 453 0010 4FF00002 		mov	r2, #0
 454              	.LBE73:
 455              	.LBE72:
 456              		.loc 1 234 0
ARM GAS  /tmp/ccz8qndh.s 			page 9


 457 0014 0BD8     		bhi	.L41
 458              	.LVL26:
 459              	.LBB75:
 460              	.LBB74:
 461              		.loc 1 92 0
 462 0016 2A77     		strb	r2, [r5, #28]
 463              	.LVL27:
 464              	.L42:
 465              		.loc 1 95 0
 466 0018 1B68     		ldr	r3, [r3]
 467              	.LVL28:
 468              		.loc 1 96 0
 469 001a 9A68     		ldr	r2, [r3, #8]
 470 001c 9442     		cmp	r4, r2
 471 001e FBD9     		bls	.L42
 472              		.loc 1 99 0
 473 0020 5A68     		ldr	r2, [r3, #4]
 474 0022 6A60     		str	r2, [r5, #4]
 475              		.loc 1 98 0
 476 0024 2B60     		str	r3, [r5]
 477              		.loc 1 100 0
 478 0026 5D60     		str	r5, [r3, #4]
 479 0028 1560     		str	r5, [r2]
 480              	.LBE74:
 481              	.LBE75:
 482              		.loc 1 242 0
 483 002a F0BC     		pop	{r4, r5, r6, r7}
 484              		.cfi_remember_state
 485              		.cfi_restore 7
 486              		.cfi_restore 6
 487              		.cfi_restore 5
 488              		.cfi_restore 4
 489              		.cfi_def_cfa_offset 0
 490              	.LVL29:
 491 002c 7047     		bx	lr
 492              	.LVL30:
 493              	.L41:
 494              		.cfi_restore_state
 495              	.LBB76:
 496              	.LBB77:
 497              	.LBB78:
 498              		.loc 1 92 0
 499 002e 3277     		strb	r2, [r6, #28]
 500              	.LVL31:
 501              		.loc 1 93 0
 502 0030 1A46     		mov	r2, r3
 503              	.LVL32:
 504              	.L44:
 505              		.loc 1 95 0
 506 0032 1268     		ldr	r2, [r2]
 507              	.LVL33:
 508              		.loc 1 96 0
 509 0034 9168     		ldr	r1, [r2, #8]
 510 0036 8842     		cmp	r0, r1
 511 0038 FBD9     		bls	.L44
 512              		.loc 1 99 0
 513 003a 5468     		ldr	r4, [r2, #4]
ARM GAS  /tmp/ccz8qndh.s 			page 10


 514 003c 7460     		str	r4, [r6, #4]
 515              	.LBE78:
 516              	.LBE77:
 517              		.loc 1 239 0
 518 003e 0127     		movs	r7, #1
 519              	.LBB80:
 520              	.LBB79:
 521              		.loc 1 98 0
 522 0040 3260     		str	r2, [r6]
 523              		.loc 1 100 0
 524 0042 5660     		str	r6, [r2, #4]
 525 0044 2660     		str	r6, [r4]
 526              	.LBE79:
 527              	.LBE80:
 528              		.loc 1 239 0
 529 0046 2F77     		strb	r7, [r5, #28]
 530              		.loc 1 240 0
 531 0048 3146     		mov	r1, r6
 532 004a 2846     		mov	r0, r5
 533              		.loc 1 238 0
 534 004c 9D61     		str	r5, [r3, #24]
 535              	.LBE76:
 536              		.loc 1 242 0
 537 004e F0BC     		pop	{r4, r5, r6, r7}
 538              		.cfi_restore 7
 539              		.cfi_restore 6
 540              		.cfi_restore 5
 541              		.cfi_restore 4
 542              		.cfi_def_cfa_offset 0
 543              	.LVL34:
 544              	.LBB81:
 545              		.loc 1 240 0
 546 0050 FFF7FEBF 		b	_port_switch
 547              	.LVL35:
 548              	.L50:
 549              		.align	2
 550              	.L49:
 551 0054 00000000 		.word	.LANCHOR0
 552              	.LBE81:
 553              		.cfi_endproc
 554              	.LFE12:
 555              		.size	chSchWakeupS, .-chSchWakeupS
 556              		.section	.text.chSchDoRescheduleBehind,"ax",%progbits
 557              		.align	2
 558              		.p2align 4,,15
 559              		.global	chSchDoRescheduleBehind
 560              		.thumb
 561              		.thumb_func
 562              		.type	chSchDoRescheduleBehind, %function
 563              	chSchDoRescheduleBehind:
 564              	.LFB14:
 565              		.loc 1 304 0
 566              		.cfi_startproc
 567              		@ args = 0, pretend = 0, frame = 0
 568              		@ frame_needed = 0, uses_anonymous_args = 0
 569              		@ link register save eliminated.
 570              		.loc 1 307 0
ARM GAS  /tmp/ccz8qndh.s 			page 11


 571 0000 0E4A     		ldr	r2, .L56
 572              	.LBB82:
 573              	.LBB83:
 574              		.loc 2 60 0
 575 0002 1068     		ldr	r0, [r2]
 576              	.LBE83:
 577              	.LBE82:
 578              		.loc 1 304 0
 579 0004 F0B4     		push	{r4, r5, r6, r7}
 580              		.cfi_def_cfa_offset 16
 581              		.cfi_offset 4, -16
 582              		.cfi_offset 5, -12
 583              		.cfi_offset 6, -8
 584              		.cfi_offset 7, -4
 585              	.LBB87:
 586              	.LBB84:
 587              		.loc 2 62 0
 588 0006 0368     		ldr	r3, [r0]
 589              	.LBE84:
 590              	.LBE87:
 591              		.loc 1 307 0
 592 0008 9469     		ldr	r4, [r2, #24]
 593              	.LVL36:
 594              	.LBB88:
 595              	.LBB85:
 596              		.loc 2 62 0
 597 000a 1360     		str	r3, [r2]
 598              	.LBE85:
 599              	.LBE88:
 600              		.loc 1 310 0
 601 000c 0127     		movs	r7, #1
 602              		.loc 1 312 0
 603 000e 1426     		movs	r6, #20
 604              	.LBB89:
 605              	.LBB90:
 606              		.loc 1 92 0
 607 0010 0025     		movs	r5, #0
 608 0012 A168     		ldr	r1, [r4, #8]
 609              	.LBE90:
 610              	.LBE89:
 611              	.LBB94:
 612              	.LBB86:
 613              		.loc 2 62 0
 614 0014 5A60     		str	r2, [r3, #4]
 615              	.LBE86:
 616              	.LBE94:
 617              		.loc 1 310 0
 618 0016 0777     		strb	r7, [r0, #28]
 619              	.LBB95:
 620              	.LBB91:
 621              		.loc 1 92 0
 622 0018 0346     		mov	r3, r0
 623              	.LBE91:
 624              	.LBE95:
 625              		.loc 1 309 0
 626 001a 9061     		str	r0, [r2, #24]
 627              		.loc 1 312 0
ARM GAS  /tmp/ccz8qndh.s 			page 12


 628 001c A677     		strb	r6, [r4, #30]
 629              	.LVL37:
 630              	.LBB96:
 631              	.LBB92:
 632              		.loc 1 92 0
 633 001e 2577     		strb	r5, [r4, #28]
 634              	.LVL38:
 635 0020 00E0     		b	.L53
 636              	.LVL39:
 637              	.L55:
 638 0022 1B68     		ldr	r3, [r3]
 639              	.LVL40:
 640              	.L53:
 641              		.loc 1 96 0
 642 0024 9A68     		ldr	r2, [r3, #8]
 643 0026 8A42     		cmp	r2, r1
 644 0028 FBD2     		bcs	.L55
 645              		.loc 1 99 0
 646 002a 5A68     		ldr	r2, [r3, #4]
 647 002c 6260     		str	r2, [r4, #4]
 648              		.loc 1 98 0
 649 002e 2360     		str	r3, [r4]
 650              	.LBE92:
 651              	.LBE96:
 652              		.loc 1 315 0
 653 0030 2146     		mov	r1, r4
 654              	.LBB97:
 655              	.LBB93:
 656              		.loc 1 100 0
 657 0032 5C60     		str	r4, [r3, #4]
 658 0034 1460     		str	r4, [r2]
 659              	.LBE93:
 660              	.LBE97:
 661              		.loc 1 316 0
 662 0036 F0BC     		pop	{r4, r5, r6, r7}
 663              		.cfi_restore 7
 664              		.cfi_restore 6
 665              		.cfi_restore 5
 666              		.cfi_restore 4
 667              		.cfi_def_cfa_offset 0
 668              	.LVL41:
 669              		.loc 1 315 0
 670 0038 FFF7FEBF 		b	_port_switch
 671              	.LVL42:
 672              	.L57:
 673              		.align	2
 674              	.L56:
 675 003c 00000000 		.word	.LANCHOR0
 676              		.cfi_endproc
 677              	.LFE14:
 678              		.size	chSchDoRescheduleBehind, .-chSchDoRescheduleBehind
 679              		.section	.text.chSchDoRescheduleAhead,"ax",%progbits
 680              		.align	2
 681              		.p2align 4,,15
 682              		.global	chSchDoRescheduleAhead
 683              		.thumb
 684              		.thumb_func
ARM GAS  /tmp/ccz8qndh.s 			page 13


 685              		.type	chSchDoRescheduleAhead, %function
 686              	chSchDoRescheduleAhead:
 687              	.LFB15:
 688              		.loc 1 329 0
 689              		.cfi_startproc
 690              		@ args = 0, pretend = 0, frame = 0
 691              		@ frame_needed = 0, uses_anonymous_args = 0
 692              		@ link register save eliminated.
 693              		.loc 1 332 0
 694 0000 0D4A     		ldr	r2, .L63
 695              	.LBB98:
 696              	.LBB99:
 697              		.loc 2 60 0
 698 0002 1068     		ldr	r0, [r2]
 699              	.LBE99:
 700              	.LBE98:
 701              		.loc 1 329 0
 702 0004 70B4     		push	{r4, r5, r6}
 703              		.cfi_def_cfa_offset 12
 704              		.cfi_offset 4, -12
 705              		.cfi_offset 5, -8
 706              		.cfi_offset 6, -4
 707              	.LBB103:
 708              	.LBB100:
 709              		.loc 2 62 0
 710 0006 0368     		ldr	r3, [r0]
 711              	.LBE100:
 712              	.LBE103:
 713              		.loc 1 332 0
 714 0008 9469     		ldr	r4, [r2, #24]
 715              	.LVL43:
 716              	.LBB104:
 717              	.LBB101:
 718              		.loc 2 62 0
 719 000a 1360     		str	r3, [r2]
 720              	.LBE101:
 721              	.LBE104:
 722              		.loc 1 335 0
 723 000c 0126     		movs	r6, #1
 724              		.loc 1 337 0
 725 000e 0025     		movs	r5, #0
 726 0010 A168     		ldr	r1, [r4, #8]
 727              	.LBB105:
 728              	.LBB102:
 729              		.loc 2 62 0
 730 0012 5A60     		str	r2, [r3, #4]
 731              	.LBE102:
 732              	.LBE105:
 733              		.loc 1 335 0
 734 0014 0677     		strb	r6, [r0, #28]
 735              		.loc 1 337 0
 736 0016 0346     		mov	r3, r0
 737              		.loc 1 334 0
 738 0018 9061     		str	r0, [r2, #24]
 739              		.loc 1 337 0
 740 001a 2577     		strb	r5, [r4, #28]
 741              	.LVL44:
ARM GAS  /tmp/ccz8qndh.s 			page 14


 742 001c 00E0     		b	.L60
 743              	.LVL45:
 744              	.L62:
 745 001e 1B68     		ldr	r3, [r3]
 746              	.LVL46:
 747              	.L60:
 748              		.loc 1 341 0 discriminator 1
 749 0020 9A68     		ldr	r2, [r3, #8]
 750 0022 8A42     		cmp	r2, r1
 751 0024 FBD8     		bhi	.L62
 752              		.loc 1 344 0
 753 0026 5A68     		ldr	r2, [r3, #4]
 754 0028 6260     		str	r2, [r4, #4]
 755              		.loc 1 343 0
 756 002a 2360     		str	r3, [r4]
 757              		.loc 1 347 0
 758 002c 2146     		mov	r1, r4
 759              		.loc 1 345 0
 760 002e 5C60     		str	r4, [r3, #4]
 761 0030 1460     		str	r4, [r2]
 762              		.loc 1 348 0
 763 0032 70BC     		pop	{r4, r5, r6}
 764              		.cfi_restore 6
 765              		.cfi_restore 5
 766              		.cfi_restore 4
 767              		.cfi_def_cfa_offset 0
 768              	.LVL47:
 769              		.loc 1 347 0
 770 0034 FFF7FEBF 		b	_port_switch
 771              	.LVL48:
 772              	.L64:
 773              		.align	2
 774              	.L63:
 775 0038 00000000 		.word	.LANCHOR0
 776              		.cfi_endproc
 777              	.LFE15:
 778              		.size	chSchDoRescheduleAhead, .-chSchDoRescheduleAhead
 779              		.section	.text.chSchRescheduleS,"ax",%progbits
 780              		.align	2
 781              		.p2align 4,,15
 782              		.global	chSchRescheduleS
 783              		.thumb
 784              		.thumb_func
 785              		.type	chSchRescheduleS, %function
 786              	chSchRescheduleS:
 787              	.LFB13:
 788              		.loc 1 253 0
 789              		.cfi_startproc
 790              		@ args = 0, pretend = 0, frame = 0
 791              		@ frame_needed = 0, uses_anonymous_args = 0
 792              		@ link register save eliminated.
 793              		.loc 1 257 0
 794 0000 044B     		ldr	r3, .L68
 795 0002 1A68     		ldr	r2, [r3]
 796 0004 9B69     		ldr	r3, [r3, #24]
 797 0006 9268     		ldr	r2, [r2, #8]
 798 0008 9B68     		ldr	r3, [r3, #8]
ARM GAS  /tmp/ccz8qndh.s 			page 15


 799 000a 9A42     		cmp	r2, r3
 800 000c 00D8     		bhi	.L67
 801 000e 7047     		bx	lr
 802              	.L67:
 803              		.loc 1 258 0
 804 0010 FFF7FEBF 		b	chSchDoRescheduleAhead
 805              	.LVL49:
 806              	.L69:
 807              		.align	2
 808              	.L68:
 809 0014 00000000 		.word	.LANCHOR0
 810              		.cfi_endproc
 811              	.LFE13:
 812              		.size	chSchRescheduleS, .-chSchRescheduleS
 813              		.section	.text.chSchDoReschedule,"ax",%progbits
 814              		.align	2
 815              		.p2align 4,,15
 816              		.global	chSchDoReschedule
 817              		.thumb
 818              		.thumb_func
 819              		.type	chSchDoReschedule, %function
 820              	chSchDoReschedule:
 821              	.LFB16:
 822              		.loc 1 362 0
 823              		.cfi_startproc
 824              		@ args = 0, pretend = 0, frame = 0
 825              		@ frame_needed = 0, uses_anonymous_args = 0
 826              		@ link register save eliminated.
 827              		.loc 1 367 0
 828 0000 034B     		ldr	r3, .L73
 829 0002 9B69     		ldr	r3, [r3, #24]
 830 0004 9B7F     		ldrb	r3, [r3, #30]	@ zero_extendqisi2
 831 0006 0BB1     		cbz	r3, .L72
 832              		.loc 1 375 0
 833 0008 FFF7FEBF 		b	chSchDoRescheduleAhead
 834              	.LVL50:
 835              	.L72:
 836              		.loc 1 370 0
 837 000c FFF7FEBF 		b	chSchDoRescheduleBehind
 838              	.LVL51:
 839              	.L74:
 840              		.align	2
 841              	.L73:
 842 0010 00000000 		.word	.LANCHOR0
 843              		.cfi_endproc
 844              	.LFE16:
 845              		.size	chSchDoReschedule, .-chSchDoReschedule
 846              		.global	rlist
 847              		.section	.bss.rlist,"aw",%nobits
 848              		.align	2
 849              		.set	.LANCHOR0,. + 0
 850              		.type	rlist, %object
 851              		.size	rlist, 28
 852              	rlist:
 853 0000 00000000 		.space	28
 853      00000000 
 853      00000000 
ARM GAS  /tmp/ccz8qndh.s 			page 16


 853      00000000 
 853      00000000 
 854              		.text
 855              	.Letext0:
 856              		.file 3 "/d_drive/axoloti/platform_linux/arm-none-eabi/include/machine/_default_types.h"
 857              		.file 4 "/d_drive/axoloti/platform_linux/arm-none-eabi/include/sys/_stdint.h"
 858              		.file 5 "/d_drive/axoloti/platform_linux/../chibios/os/ports/GCC/ARMCMx/chtypes.h"
 859              		.file 6 "/d_drive/axoloti/platform_linux/../chibios/os/kernel/include/chlists.h"
 860              		.file 7 "/d_drive/axoloti/platform_linux/../chibios/os/kernel/include/chthreads.h"
 861              		.file 8 "/d_drive/axoloti/platform_linux/../chibios/os/ports/GCC/ARMCMx/chcore_v7m.h"
 862              		.file 9 "/d_drive/axoloti/platform_linux/../chibios/os/kernel/include/chvt.h"
 863              		.file 10 "/d_drive/axoloti/platform_linux/../chibios/os/kernel/include/chschd.h"
 864              		.file 11 "/d_drive/axoloti/platform_linux/../chibios/os/kernel/include/chsem.h"
 865              		.file 12 "/d_drive/axoloti/platform_linux/../chibios/os/kernel/include/chmtx.h"
 866              		.section	.debug_info,"",%progbits
 867              	.Ldebug_info0:
 868 0000 720A0000 		.4byte	0xa72
 869 0004 0400     		.2byte	0x4
 870 0006 00000000 		.4byte	.Ldebug_abbrev0
 871 000a 04       		.byte	0x4
 872 000b 01       		.uleb128 0x1
 873 000c 2E030000 		.4byte	.LASF86
 874 0010 01       		.byte	0x1
 875 0011 93040000 		.4byte	.LASF87
 876 0015 50010000 		.4byte	.Ldebug_ranges0+0x150
 877 0019 00000000 		.4byte	0
 878 001d 00000000 		.4byte	.Ldebug_line0
 879 0021 02       		.uleb128 0x2
 880 0022 04       		.byte	0x4
 881 0023 05       		.byte	0x5
 882 0024 696E7400 		.ascii	"int\000"
 883 0028 03       		.uleb128 0x3
 884 0029 04       		.byte	0x4
 885 002a 07       		.byte	0x7
 886 002b F8000000 		.4byte	.LASF0
 887 002f 03       		.uleb128 0x3
 888 0030 01       		.byte	0x1
 889 0031 06       		.byte	0x6
 890 0032 6A000000 		.4byte	.LASF1
 891 0036 04       		.uleb128 0x4
 892 0037 24000000 		.4byte	.LASF5
 893 003b 03       		.byte	0x3
 894 003c 1D       		.byte	0x1d
 895 003d 41000000 		.4byte	0x41
 896 0041 03       		.uleb128 0x3
 897 0042 01       		.byte	0x1
 898 0043 08       		.byte	0x8
 899 0044 37020000 		.4byte	.LASF2
 900 0048 03       		.uleb128 0x3
 901 0049 02       		.byte	0x2
 902 004a 05       		.byte	0x5
 903 004b 58020000 		.4byte	.LASF3
 904 004f 03       		.uleb128 0x3
 905 0050 02       		.byte	0x2
 906 0051 07       		.byte	0x7
 907 0052 57010000 		.4byte	.LASF4
 908 0056 04       		.uleb128 0x4
ARM GAS  /tmp/ccz8qndh.s 			page 17


 909 0057 06030000 		.4byte	.LASF6
 910 005b 03       		.byte	0x3
 911 005c 3F       		.byte	0x3f
 912 005d 61000000 		.4byte	0x61
 913 0061 03       		.uleb128 0x3
 914 0062 04       		.byte	0x4
 915 0063 05       		.byte	0x5
 916 0064 88000000 		.4byte	.LASF7
 917 0068 04       		.uleb128 0x4
 918 0069 C4000000 		.4byte	.LASF8
 919 006d 03       		.byte	0x3
 920 006e 41       		.byte	0x41
 921 006f 73000000 		.4byte	0x73
 922 0073 03       		.uleb128 0x3
 923 0074 04       		.byte	0x4
 924 0075 07       		.byte	0x7
 925 0076 21010000 		.4byte	.LASF9
 926 007a 03       		.uleb128 0x3
 927 007b 08       		.byte	0x8
 928 007c 05       		.byte	0x5
 929 007d 5C000000 		.4byte	.LASF10
 930 0081 03       		.uleb128 0x3
 931 0082 08       		.byte	0x8
 932 0083 07       		.byte	0x7
 933 0084 2E000000 		.4byte	.LASF11
 934 0088 04       		.uleb128 0x4
 935 0089 68040000 		.4byte	.LASF12
 936 008d 04       		.byte	0x4
 937 008e 14       		.byte	0x14
 938 008f 36000000 		.4byte	0x36
 939 0093 04       		.uleb128 0x4
 940 0094 2F020000 		.4byte	.LASF13
 941 0098 04       		.byte	0x4
 942 0099 1F       		.byte	0x1f
 943 009a 56000000 		.4byte	0x56
 944 009e 04       		.uleb128 0x4
 945 009f BC020000 		.4byte	.LASF14
 946 00a3 04       		.byte	0x4
 947 00a4 20       		.byte	0x20
 948 00a5 68000000 		.4byte	0x68
 949 00a9 03       		.uleb128 0x3
 950 00aa 01       		.byte	0x1
 951 00ab 02       		.byte	0x2
 952 00ac 29020000 		.4byte	.LASF15
 953 00b0 04       		.uleb128 0x4
 954 00b1 85010000 		.4byte	.LASF16
 955 00b5 05       		.byte	0x5
 956 00b6 2C       		.byte	0x2c
 957 00b7 88000000 		.4byte	0x88
 958 00bb 04       		.uleb128 0x4
 959 00bc 91000000 		.4byte	.LASF17
 960 00c0 05       		.byte	0x5
 961 00c1 2D       		.byte	0x2d
 962 00c2 88000000 		.4byte	0x88
 963 00c6 04       		.uleb128 0x4
 964 00c7 7E000000 		.4byte	.LASF18
 965 00cb 05       		.byte	0x5
ARM GAS  /tmp/ccz8qndh.s 			page 18


 966 00cc 2F       		.byte	0x2f
 967 00cd 88000000 		.4byte	0x88
 968 00d1 04       		.uleb128 0x4
 969 00d2 21020000 		.4byte	.LASF19
 970 00d6 05       		.byte	0x5
 971 00d7 30       		.byte	0x30
 972 00d8 9E000000 		.4byte	0x9e
 973 00dc 04       		.uleb128 0x4
 974 00dd 77010000 		.4byte	.LASF20
 975 00e1 05       		.byte	0x5
 976 00e2 31       		.byte	0x31
 977 00e3 93000000 		.4byte	0x93
 978 00e7 04       		.uleb128 0x4
 979 00e8 99010000 		.4byte	.LASF21
 980 00ec 05       		.byte	0x5
 981 00ed 33       		.byte	0x33
 982 00ee 9E000000 		.4byte	0x9e
 983 00f2 04       		.uleb128 0x4
 984 00f3 F1020000 		.4byte	.LASF22
 985 00f7 05       		.byte	0x5
 986 00f8 35       		.byte	0x35
 987 00f9 9E000000 		.4byte	0x9e
 988 00fd 04       		.uleb128 0x4
 989 00fe F2000000 		.4byte	.LASF23
 990 0102 05       		.byte	0x5
 991 0103 36       		.byte	0x36
 992 0104 93000000 		.4byte	0x93
 993 0108 04       		.uleb128 0x4
 994 0109 91020000 		.4byte	.LASF24
 995 010d 06       		.byte	0x6
 996 010e 2A       		.byte	0x2a
 997 010f 13010000 		.4byte	0x113
 998 0113 05       		.uleb128 0x5
 999 0114 91020000 		.4byte	.LASF24
 1000 0118 44       		.byte	0x44
 1001 0119 07       		.byte	0x7
 1002 011a 5E       		.byte	0x5e
 1003 011b F8010000 		.4byte	0x1f8
 1004 011f 06       		.uleb128 0x6
 1005 0120 82020000 		.4byte	.LASF25
 1006 0124 07       		.byte	0x7
 1007 0125 5F       		.byte	0x5f
 1008 0126 19020000 		.4byte	0x219
 1009 012a 00       		.byte	0
 1010 012b 06       		.uleb128 0x6
 1011 012c 1A020000 		.4byte	.LASF26
 1012 0130 07       		.byte	0x7
 1013 0131 61       		.byte	0x61
 1014 0132 19020000 		.4byte	0x219
 1015 0136 04       		.byte	0x4
 1016 0137 06       		.uleb128 0x6
 1017 0138 45000000 		.4byte	.LASF27
 1018 013c 07       		.byte	0x7
 1019 013d 63       		.byte	0x63
 1020 013e D1000000 		.4byte	0xd1
 1021 0142 08       		.byte	0x8
 1022 0143 06       		.uleb128 0x6
ARM GAS  /tmp/ccz8qndh.s 			page 19


 1023 0144 DD040000 		.4byte	.LASF28
 1024 0148 07       		.byte	0x7
 1025 0149 64       		.byte	0x64
 1026 014a A3030000 		.4byte	0x3a3
 1027 014e 0C       		.byte	0xc
 1028 014f 06       		.uleb128 0x6
 1029 0150 9A000000 		.4byte	.LASF29
 1030 0154 07       		.byte	0x7
 1031 0155 66       		.byte	0x66
 1032 0156 19020000 		.4byte	0x219
 1033 015a 10       		.byte	0x10
 1034 015b 06       		.uleb128 0x6
 1035 015c E5010000 		.4byte	.LASF30
 1036 0160 07       		.byte	0x7
 1037 0161 67       		.byte	0x67
 1038 0162 19020000 		.4byte	0x219
 1039 0166 14       		.byte	0x14
 1040 0167 06       		.uleb128 0x6
 1041 0168 77040000 		.4byte	.LASF31
 1042 016c 07       		.byte	0x7
 1043 016d 6E       		.byte	0x6e
 1044 016e 49050000 		.4byte	0x549
 1045 0172 18       		.byte	0x18
 1046 0173 06       		.uleb128 0x6
 1047 0174 62020000 		.4byte	.LASF32
 1048 0178 07       		.byte	0x7
 1049 0179 79       		.byte	0x79
 1050 017a BB000000 		.4byte	0xbb
 1051 017e 1C       		.byte	0x1c
 1052 017f 06       		.uleb128 0x6
 1053 0180 89020000 		.4byte	.LASF33
 1054 0184 07       		.byte	0x7
 1055 0185 7D       		.byte	0x7d
 1056 0186 B0000000 		.4byte	0xb0
 1057 018a 1D       		.byte	0x1d
 1058 018b 06       		.uleb128 0x6
 1059 018c 6A020000 		.4byte	.LASF34
 1060 0190 07       		.byte	0x7
 1061 0191 88       		.byte	0x88
 1062 0192 C6000000 		.4byte	0xc6
 1063 0196 1E       		.byte	0x1e
 1064 0197 06       		.uleb128 0x6
 1065 0198 10030000 		.4byte	.LASF35
 1066 019c 07       		.byte	0x7
 1067 019d 8F       		.byte	0x8f
 1068 019e 41040000 		.4byte	0x441
 1069 01a2 20       		.byte	0x20
 1070 01a3 07       		.uleb128 0x7
 1071 01a4 705F7500 		.ascii	"p_u\000"
 1072 01a8 07       		.byte	0x7
 1073 01a9 B4       		.byte	0xb4
 1074 01aa 14050000 		.4byte	0x514
 1075 01ae 24       		.byte	0x24
 1076 01af 06       		.uleb128 0x6
 1077 01b0 E3040000 		.4byte	.LASF36
 1078 01b4 07       		.byte	0x7
 1079 01b5 B9       		.byte	0xb9
ARM GAS  /tmp/ccz8qndh.s 			page 20


 1080 01b6 3F020000 		.4byte	0x23f
 1081 01ba 28       		.byte	0x28
 1082 01bb 06       		.uleb128 0x6
 1083 01bc 1E030000 		.4byte	.LASF37
 1084 01c0 07       		.byte	0x7
 1085 01c1 BF       		.byte	0xbf
 1086 01c2 1F020000 		.4byte	0x21f
 1087 01c6 2C       		.byte	0x2c
 1088 01c7 06       		.uleb128 0x6
 1089 01c8 00000000 		.4byte	.LASF38
 1090 01cc 07       		.byte	0x7
 1091 01cd C3       		.byte	0xc3
 1092 01ce DC000000 		.4byte	0xdc
 1093 01d2 34       		.byte	0x34
 1094 01d3 06       		.uleb128 0x6
 1095 01d4 B1020000 		.4byte	.LASF39
 1096 01d8 07       		.byte	0x7
 1097 01d9 C9       		.byte	0xc9
 1098 01da E7000000 		.4byte	0xe7
 1099 01de 38       		.byte	0x38
 1100 01df 06       		.uleb128 0x6
 1101 01e0 4E020000 		.4byte	.LASF40
 1102 01e4 07       		.byte	0x7
 1103 01e5 D0       		.byte	0xd0
 1104 01e6 5B050000 		.4byte	0x55b
 1105 01ea 3C       		.byte	0x3c
 1106 01eb 06       		.uleb128 0x6
 1107 01ec FB020000 		.4byte	.LASF41
 1108 01f0 07       		.byte	0x7
 1109 01f1 D4       		.byte	0xd4
 1110 01f2 D1000000 		.4byte	0xd1
 1111 01f6 40       		.byte	0x40
 1112 01f7 00       		.byte	0
 1113 01f8 08       		.uleb128 0x8
 1114 01f9 08       		.byte	0x8
 1115 01fa 06       		.byte	0x6
 1116 01fb 61       		.byte	0x61
 1117 01fc 19020000 		.4byte	0x219
 1118 0200 06       		.uleb128 0x6
 1119 0201 82020000 		.4byte	.LASF25
 1120 0205 06       		.byte	0x6
 1121 0206 62       		.byte	0x62
 1122 0207 19020000 		.4byte	0x219
 1123 020b 00       		.byte	0
 1124 020c 06       		.uleb128 0x6
 1125 020d 1A020000 		.4byte	.LASF26
 1126 0211 06       		.byte	0x6
 1127 0212 64       		.byte	0x64
 1128 0213 19020000 		.4byte	0x219
 1129 0217 04       		.byte	0x4
 1130 0218 00       		.byte	0
 1131 0219 09       		.uleb128 0x9
 1132 021a 04       		.byte	0x4
 1133 021b 08010000 		.4byte	0x108
 1134 021f 04       		.uleb128 0x4
 1135 0220 F3010000 		.4byte	.LASF42
 1136 0224 06       		.byte	0x6
ARM GAS  /tmp/ccz8qndh.s 			page 21


 1137 0225 66       		.byte	0x66
 1138 0226 F8010000 		.4byte	0x1f8
 1139 022a 08       		.uleb128 0x8
 1140 022b 04       		.byte	0x4
 1141 022c 06       		.byte	0x6
 1142 022d 6B       		.byte	0x6b
 1143 022e 3F020000 		.4byte	0x23f
 1144 0232 06       		.uleb128 0x6
 1145 0233 82020000 		.4byte	.LASF25
 1146 0237 06       		.byte	0x6
 1147 0238 6D       		.byte	0x6d
 1148 0239 19020000 		.4byte	0x219
 1149 023d 00       		.byte	0
 1150 023e 00       		.byte	0
 1151 023f 04       		.uleb128 0x4
 1152 0240 8D010000 		.4byte	.LASF43
 1153 0244 06       		.byte	0x6
 1154 0245 70       		.byte	0x70
 1155 0246 2A020000 		.4byte	0x22a
 1156 024a 04       		.uleb128 0x4
 1157 024b CF000000 		.4byte	.LASF44
 1158 024f 08       		.byte	0x8
 1159 0250 E5       		.byte	0xe5
 1160 0251 55020000 		.4byte	0x255
 1161 0255 0A       		.uleb128 0xa
 1162 0256 04       		.byte	0x4
 1163 0257 0B       		.uleb128 0xb
 1164 0258 17030000 		.4byte	.LASF45
 1165 025c 64       		.byte	0x64
 1166 025d 08       		.byte	0x8
 1167 025e 0C01     		.2byte	0x10c
 1168 0260 A3030000 		.4byte	0x3a3
 1169 0264 0C       		.uleb128 0xc
 1170 0265 73313600 		.ascii	"s16\000"
 1171 0269 08       		.byte	0x8
 1172 026a 0E01     		.2byte	0x10e
 1173 026c 4A020000 		.4byte	0x24a
 1174 0270 00       		.byte	0
 1175 0271 0C       		.uleb128 0xc
 1176 0272 73313700 		.ascii	"s17\000"
 1177 0276 08       		.byte	0x8
 1178 0277 0F01     		.2byte	0x10f
 1179 0279 4A020000 		.4byte	0x24a
 1180 027d 04       		.byte	0x4
 1181 027e 0C       		.uleb128 0xc
 1182 027f 73313800 		.ascii	"s18\000"
 1183 0283 08       		.byte	0x8
 1184 0284 1001     		.2byte	0x110
 1185 0286 4A020000 		.4byte	0x24a
 1186 028a 08       		.byte	0x8
 1187 028b 0C       		.uleb128 0xc
 1188 028c 73313900 		.ascii	"s19\000"
 1189 0290 08       		.byte	0x8
 1190 0291 1101     		.2byte	0x111
 1191 0293 4A020000 		.4byte	0x24a
 1192 0297 0C       		.byte	0xc
 1193 0298 0C       		.uleb128 0xc
ARM GAS  /tmp/ccz8qndh.s 			page 22


 1194 0299 73323000 		.ascii	"s20\000"
 1195 029d 08       		.byte	0x8
 1196 029e 1201     		.2byte	0x112
 1197 02a0 4A020000 		.4byte	0x24a
 1198 02a4 10       		.byte	0x10
 1199 02a5 0C       		.uleb128 0xc
 1200 02a6 73323100 		.ascii	"s21\000"
 1201 02aa 08       		.byte	0x8
 1202 02ab 1301     		.2byte	0x113
 1203 02ad 4A020000 		.4byte	0x24a
 1204 02b1 14       		.byte	0x14
 1205 02b2 0C       		.uleb128 0xc
 1206 02b3 73323200 		.ascii	"s22\000"
 1207 02b7 08       		.byte	0x8
 1208 02b8 1401     		.2byte	0x114
 1209 02ba 4A020000 		.4byte	0x24a
 1210 02be 18       		.byte	0x18
 1211 02bf 0C       		.uleb128 0xc
 1212 02c0 73323300 		.ascii	"s23\000"
 1213 02c4 08       		.byte	0x8
 1214 02c5 1501     		.2byte	0x115
 1215 02c7 4A020000 		.4byte	0x24a
 1216 02cb 1C       		.byte	0x1c
 1217 02cc 0C       		.uleb128 0xc
 1218 02cd 73323400 		.ascii	"s24\000"
 1219 02d1 08       		.byte	0x8
 1220 02d2 1601     		.2byte	0x116
 1221 02d4 4A020000 		.4byte	0x24a
 1222 02d8 20       		.byte	0x20
 1223 02d9 0C       		.uleb128 0xc
 1224 02da 73323500 		.ascii	"s25\000"
 1225 02de 08       		.byte	0x8
 1226 02df 1701     		.2byte	0x117
 1227 02e1 4A020000 		.4byte	0x24a
 1228 02e5 24       		.byte	0x24
 1229 02e6 0C       		.uleb128 0xc
 1230 02e7 73323600 		.ascii	"s26\000"
 1231 02eb 08       		.byte	0x8
 1232 02ec 1801     		.2byte	0x118
 1233 02ee 4A020000 		.4byte	0x24a
 1234 02f2 28       		.byte	0x28
 1235 02f3 0C       		.uleb128 0xc
 1236 02f4 73323700 		.ascii	"s27\000"
 1237 02f8 08       		.byte	0x8
 1238 02f9 1901     		.2byte	0x119
 1239 02fb 4A020000 		.4byte	0x24a
 1240 02ff 2C       		.byte	0x2c
 1241 0300 0C       		.uleb128 0xc
 1242 0301 73323800 		.ascii	"s28\000"
 1243 0305 08       		.byte	0x8
 1244 0306 1A01     		.2byte	0x11a
 1245 0308 4A020000 		.4byte	0x24a
 1246 030c 30       		.byte	0x30
 1247 030d 0C       		.uleb128 0xc
 1248 030e 73323900 		.ascii	"s29\000"
 1249 0312 08       		.byte	0x8
 1250 0313 1B01     		.2byte	0x11b
ARM GAS  /tmp/ccz8qndh.s 			page 23


 1251 0315 4A020000 		.4byte	0x24a
 1252 0319 34       		.byte	0x34
 1253 031a 0C       		.uleb128 0xc
 1254 031b 73333000 		.ascii	"s30\000"
 1255 031f 08       		.byte	0x8
 1256 0320 1C01     		.2byte	0x11c
 1257 0322 4A020000 		.4byte	0x24a
 1258 0326 38       		.byte	0x38
 1259 0327 0C       		.uleb128 0xc
 1260 0328 73333100 		.ascii	"s31\000"
 1261 032c 08       		.byte	0x8
 1262 032d 1D01     		.2byte	0x11d
 1263 032f 4A020000 		.4byte	0x24a
 1264 0333 3C       		.byte	0x3c
 1265 0334 0C       		.uleb128 0xc
 1266 0335 723400   		.ascii	"r4\000"
 1267 0338 08       		.byte	0x8
 1268 0339 1F01     		.2byte	0x11f
 1269 033b 4A020000 		.4byte	0x24a
 1270 033f 40       		.byte	0x40
 1271 0340 0C       		.uleb128 0xc
 1272 0341 723500   		.ascii	"r5\000"
 1273 0344 08       		.byte	0x8
 1274 0345 2001     		.2byte	0x120
 1275 0347 4A020000 		.4byte	0x24a
 1276 034b 44       		.byte	0x44
 1277 034c 0C       		.uleb128 0xc
 1278 034d 723600   		.ascii	"r6\000"
 1279 0350 08       		.byte	0x8
 1280 0351 2101     		.2byte	0x121
 1281 0353 4A020000 		.4byte	0x24a
 1282 0357 48       		.byte	0x48
 1283 0358 0C       		.uleb128 0xc
 1284 0359 723700   		.ascii	"r7\000"
 1285 035c 08       		.byte	0x8
 1286 035d 2201     		.2byte	0x122
 1287 035f 4A020000 		.4byte	0x24a
 1288 0363 4C       		.byte	0x4c
 1289 0364 0C       		.uleb128 0xc
 1290 0365 723800   		.ascii	"r8\000"
 1291 0368 08       		.byte	0x8
 1292 0369 2301     		.2byte	0x123
 1293 036b 4A020000 		.4byte	0x24a
 1294 036f 50       		.byte	0x50
 1295 0370 0C       		.uleb128 0xc
 1296 0371 723900   		.ascii	"r9\000"
 1297 0374 08       		.byte	0x8
 1298 0375 2401     		.2byte	0x124
 1299 0377 4A020000 		.4byte	0x24a
 1300 037b 54       		.byte	0x54
 1301 037c 0C       		.uleb128 0xc
 1302 037d 72313000 		.ascii	"r10\000"
 1303 0381 08       		.byte	0x8
 1304 0382 2501     		.2byte	0x125
 1305 0384 4A020000 		.4byte	0x24a
 1306 0388 58       		.byte	0x58
 1307 0389 0C       		.uleb128 0xc
ARM GAS  /tmp/ccz8qndh.s 			page 24


 1308 038a 72313100 		.ascii	"r11\000"
 1309 038e 08       		.byte	0x8
 1310 038f 2601     		.2byte	0x126
 1311 0391 4A020000 		.4byte	0x24a
 1312 0395 5C       		.byte	0x5c
 1313 0396 0C       		.uleb128 0xc
 1314 0397 6C7200   		.ascii	"lr\000"
 1315 039a 08       		.byte	0x8
 1316 039b 2701     		.2byte	0x127
 1317 039d 4A020000 		.4byte	0x24a
 1318 03a1 60       		.byte	0x60
 1319 03a2 00       		.byte	0
 1320 03a3 0B       		.uleb128 0xb
 1321 03a4 4F010000 		.4byte	.LASF46
 1322 03a8 04       		.byte	0x4
 1323 03a9 08       		.byte	0x8
 1324 03aa 3101     		.2byte	0x131
 1325 03ac BE030000 		.4byte	0x3be
 1326 03b0 0C       		.uleb128 0xc
 1327 03b1 72313300 		.ascii	"r13\000"
 1328 03b5 08       		.byte	0x8
 1329 03b6 3201     		.2byte	0x132
 1330 03b8 BE030000 		.4byte	0x3be
 1331 03bc 00       		.byte	0
 1332 03bd 00       		.byte	0
 1333 03be 09       		.uleb128 0x9
 1334 03bf 04       		.byte	0x4
 1335 03c0 57020000 		.4byte	0x257
 1336 03c4 03       		.uleb128 0x3
 1337 03c5 04       		.byte	0x4
 1338 03c6 07       		.byte	0x7
 1339 03c7 B3010000 		.4byte	.LASF47
 1340 03cb 04       		.uleb128 0x4
 1341 03cc 33010000 		.4byte	.LASF48
 1342 03d0 09       		.byte	0x9
 1343 03d1 58       		.byte	0x58
 1344 03d2 D6030000 		.4byte	0x3d6
 1345 03d6 09       		.uleb128 0x9
 1346 03d7 04       		.byte	0x4
 1347 03d8 DC030000 		.4byte	0x3dc
 1348 03dc 0D       		.uleb128 0xd
 1349 03dd E7030000 		.4byte	0x3e7
 1350 03e1 0E       		.uleb128 0xe
 1351 03e2 55020000 		.4byte	0x255
 1352 03e6 00       		.byte	0
 1353 03e7 04       		.uleb128 0x4
 1354 03e8 3C010000 		.4byte	.LASF49
 1355 03ec 09       		.byte	0x9
 1356 03ed 5D       		.byte	0x5d
 1357 03ee F2030000 		.4byte	0x3f2
 1358 03f2 05       		.uleb128 0x5
 1359 03f3 3C010000 		.4byte	.LASF49
 1360 03f7 14       		.byte	0x14
 1361 03f8 09       		.byte	0x9
 1362 03f9 64       		.byte	0x64
 1363 03fa 3B040000 		.4byte	0x43b
 1364 03fe 06       		.uleb128 0x6
ARM GAS  /tmp/ccz8qndh.s 			page 25


 1365 03ff 0C010000 		.4byte	.LASF50
 1366 0403 09       		.byte	0x9
 1367 0404 65       		.byte	0x65
 1368 0405 3B040000 		.4byte	0x43b
 1369 0409 00       		.byte	0
 1370 040a 06       		.uleb128 0x6
 1371 040b D8000000 		.4byte	.LASF51
 1372 040f 09       		.byte	0x9
 1373 0410 67       		.byte	0x67
 1374 0411 3B040000 		.4byte	0x43b
 1375 0415 04       		.byte	0x4
 1376 0416 06       		.uleb128 0x6
 1377 0417 AB010000 		.4byte	.LASF52
 1378 041b 09       		.byte	0x9
 1379 041c 69       		.byte	0x69
 1380 041d F2000000 		.4byte	0xf2
 1381 0421 08       		.byte	0x8
 1382 0422 06       		.uleb128 0x6
 1383 0423 BC010000 		.4byte	.LASF53
 1384 0427 09       		.byte	0x9
 1385 0428 6A       		.byte	0x6a
 1386 0429 CB030000 		.4byte	0x3cb
 1387 042d 0C       		.byte	0xc
 1388 042e 06       		.uleb128 0x6
 1389 042f 47040000 		.4byte	.LASF54
 1390 0433 09       		.byte	0x9
 1391 0434 6C       		.byte	0x6c
 1392 0435 55020000 		.4byte	0x255
 1393 0439 10       		.byte	0x10
 1394 043a 00       		.byte	0
 1395 043b 09       		.uleb128 0x9
 1396 043c 04       		.byte	0x4
 1397 043d E7030000 		.4byte	0x3e7
 1398 0441 0F       		.uleb128 0xf
 1399 0442 F2000000 		.4byte	0xf2
 1400 0446 08       		.uleb128 0x8
 1401 0447 1C       		.byte	0x1c
 1402 0448 0A       		.byte	0xa
 1403 0449 5E       		.byte	0x5e
 1404 044a 97040000 		.4byte	0x497
 1405 044e 06       		.uleb128 0x6
 1406 044f C5020000 		.4byte	.LASF55
 1407 0453 0A       		.byte	0xa
 1408 0454 5F       		.byte	0x5f
 1409 0455 1F020000 		.4byte	0x21f
 1410 0459 00       		.byte	0
 1411 045a 06       		.uleb128 0x6
 1412 045b 74020000 		.4byte	.LASF56
 1413 045f 0A       		.byte	0xa
 1414 0460 60       		.byte	0x60
 1415 0461 D1000000 		.4byte	0xd1
 1416 0465 08       		.byte	0x8
 1417 0466 06       		.uleb128 0x6
 1418 0467 ED010000 		.4byte	.LASF57
 1419 046b 0A       		.byte	0xa
 1420 046c 62       		.byte	0x62
 1421 046d A3030000 		.4byte	0x3a3
ARM GAS  /tmp/ccz8qndh.s 			page 26


 1422 0471 0C       		.byte	0xc
 1423 0472 06       		.uleb128 0x6
 1424 0473 7D010000 		.4byte	.LASF58
 1425 0477 0A       		.byte	0xa
 1426 0478 65       		.byte	0x65
 1427 0479 19020000 		.4byte	0x219
 1428 047d 10       		.byte	0x10
 1429 047e 06       		.uleb128 0x6
 1430 047f 12020000 		.4byte	.LASF59
 1431 0483 0A       		.byte	0xa
 1432 0484 66       		.byte	0x66
 1433 0485 19020000 		.4byte	0x219
 1434 0489 14       		.byte	0x14
 1435 048a 06       		.uleb128 0x6
 1436 048b 08020000 		.4byte	.LASF60
 1437 048f 0A       		.byte	0xa
 1438 0490 69       		.byte	0x69
 1439 0491 19020000 		.4byte	0x219
 1440 0495 18       		.byte	0x18
 1441 0496 00       		.byte	0
 1442 0497 04       		.uleb128 0x4
 1443 0498 58040000 		.4byte	.LASF61
 1444 049c 0A       		.byte	0xa
 1445 049d 6B       		.byte	0x6b
 1446 049e 46040000 		.4byte	0x446
 1447 04a2 05       		.uleb128 0x5
 1448 04a3 4E040000 		.4byte	.LASF62
 1449 04a7 0C       		.byte	0xc
 1450 04a8 0B       		.byte	0xb
 1451 04a9 2C       		.byte	0x2c
 1452 04aa C7040000 		.4byte	0x4c7
 1453 04ae 06       		.uleb128 0x6
 1454 04af A2000000 		.4byte	.LASF63
 1455 04b3 0B       		.byte	0xb
 1456 04b4 2D       		.byte	0x2d
 1457 04b5 1F020000 		.4byte	0x21f
 1458 04b9 00       		.byte	0
 1459 04ba 06       		.uleb128 0x6
 1460 04bb 49010000 		.4byte	.LASF64
 1461 04bf 0B       		.byte	0xb
 1462 04c0 2F       		.byte	0x2f
 1463 04c1 FD000000 		.4byte	0xfd
 1464 04c5 08       		.byte	0x8
 1465 04c6 00       		.byte	0
 1466 04c7 04       		.uleb128 0x4
 1467 04c8 4E040000 		.4byte	.LASF62
 1468 04cc 0B       		.byte	0xb
 1469 04cd 30       		.byte	0x30
 1470 04ce A2040000 		.4byte	0x4a2
 1471 04d2 05       		.uleb128 0x5
 1472 04d3 A5010000 		.4byte	.LASF65
 1473 04d7 10       		.byte	0x10
 1474 04d8 0C       		.byte	0xc
 1475 04d9 2C       		.byte	0x2c
 1476 04da 03050000 		.4byte	0x503
 1477 04de 06       		.uleb128 0x6
 1478 04df 76000000 		.4byte	.LASF66
ARM GAS  /tmp/ccz8qndh.s 			page 27


 1479 04e3 0C       		.byte	0xc
 1480 04e4 2D       		.byte	0x2d
 1481 04e5 1F020000 		.4byte	0x21f
 1482 04e9 00       		.byte	0
 1483 04ea 06       		.uleb128 0x6
 1484 04eb D5040000 		.4byte	.LASF67
 1485 04ef 0C       		.byte	0xc
 1486 04f0 2F       		.byte	0x2f
 1487 04f1 19020000 		.4byte	0x219
 1488 04f5 08       		.byte	0x8
 1489 04f6 06       		.uleb128 0x6
 1490 04f7 EA020000 		.4byte	.LASF68
 1491 04fb 0C       		.byte	0xc
 1492 04fc 31       		.byte	0x31
 1493 04fd 03050000 		.4byte	0x503
 1494 0501 0C       		.byte	0xc
 1495 0502 00       		.byte	0
 1496 0503 09       		.uleb128 0x9
 1497 0504 04       		.byte	0x4
 1498 0505 D2040000 		.4byte	0x4d2
 1499 0509 04       		.uleb128 0x4
 1500 050a A5010000 		.4byte	.LASF65
 1501 050e 0C       		.byte	0xc
 1502 050f 33       		.byte	0x33
 1503 0510 D2040000 		.4byte	0x4d2
 1504 0514 10       		.uleb128 0x10
 1505 0515 04       		.byte	0x4
 1506 0516 07       		.byte	0x7
 1507 0517 96       		.byte	0x96
 1508 0518 49050000 		.4byte	0x549
 1509 051c 11       		.uleb128 0x11
 1510 051d 06000000 		.4byte	.LASF69
 1511 0521 07       		.byte	0x7
 1512 0522 9D       		.byte	0x9d
 1513 0523 DC000000 		.4byte	0xdc
 1514 0527 11       		.uleb128 0x11
 1515 0528 AA000000 		.4byte	.LASF70
 1516 052c 07       		.byte	0x7
 1517 052d A4       		.byte	0xa4
 1518 052e DC000000 		.4byte	0xdc
 1519 0532 11       		.uleb128 0x11
 1520 0533 70040000 		.4byte	.LASF71
 1521 0537 07       		.byte	0x7
 1522 0538 AB       		.byte	0xab
 1523 0539 55020000 		.4byte	0x255
 1524 053d 11       		.uleb128 0x11
 1525 053e 7B020000 		.4byte	.LASF72
 1526 0542 07       		.byte	0x7
 1527 0543 B2       		.byte	0xb2
 1528 0544 E7000000 		.4byte	0xe7
 1529 0548 00       		.byte	0
 1530 0549 09       		.uleb128 0x9
 1531 054a 04       		.byte	0x4
 1532 054b 4F050000 		.4byte	0x54f
 1533 054f 12       		.uleb128 0x12
 1534 0550 54050000 		.4byte	0x554
 1535 0554 03       		.uleb128 0x3
ARM GAS  /tmp/ccz8qndh.s 			page 28


 1536 0555 01       		.byte	0x1
 1537 0556 08       		.byte	0x8
 1538 0557 CD020000 		.4byte	.LASF73
 1539 055b 09       		.uleb128 0x9
 1540 055c 04       		.byte	0x4
 1541 055d 09050000 		.4byte	0x509
 1542 0561 13       		.uleb128 0x13
 1543 0562 00020000 		.4byte	.LASF74
 1544 0566 02       		.byte	0x2
 1545 0567 49       		.byte	0x49
 1546 0568 19020000 		.4byte	0x219
 1547 056c 03       		.byte	0x3
 1548 056d 7C050000 		.4byte	0x57c
 1549 0571 14       		.uleb128 0x14
 1550 0572 747000   		.ascii	"tp\000"
 1551 0575 02       		.byte	0x2
 1552 0576 49       		.byte	0x49
 1553 0577 19020000 		.4byte	0x219
 1554 057b 00       		.byte	0
 1555 057c 15       		.uleb128 0x15
 1556 057d DE020000 		.4byte	.LASF88
 1557 0581 01       		.byte	0x1
 1558 0582 51       		.byte	0x51
 1559 0583 19020000 		.4byte	0x219
 1560 0587 01       		.byte	0x1
 1561 0588 A1050000 		.4byte	0x5a1
 1562 058c 14       		.uleb128 0x14
 1563 058d 747000   		.ascii	"tp\000"
 1564 0590 01       		.byte	0x1
 1565 0591 51       		.byte	0x51
 1566 0592 19020000 		.4byte	0x219
 1567 0596 16       		.uleb128 0x16
 1568 0597 637000   		.ascii	"cp\000"
 1569 059a 01       		.byte	0x1
 1570 059b 52       		.byte	0x52
 1571 059c 19020000 		.4byte	0x219
 1572 05a0 00       		.byte	0
 1573 05a1 17       		.uleb128 0x17
 1574 05a2 05010000 		.4byte	.LASF89
 1575 05a6 01       		.byte	0x1
 1576 05a7 88       		.byte	0x88
 1577 05a8 01       		.byte	0x1
 1578 05a9 F0050000 		.4byte	0x5f0
 1579 05ad 14       		.uleb128 0x14
 1580 05ae 7000     		.ascii	"p\000"
 1581 05b0 01       		.byte	0x1
 1582 05b1 88       		.byte	0x88
 1583 05b2 55020000 		.4byte	0x255
 1584 05b6 16       		.uleb128 0x16
 1585 05b7 747000   		.ascii	"tp\000"
 1586 05ba 01       		.byte	0x1
 1587 05bb 89       		.byte	0x89
 1588 05bc 19020000 		.4byte	0x219
 1589 05c0 18       		.uleb128 0x18
 1590 05c1 D1050000 		.4byte	0x5d1
 1591 05c5 16       		.uleb128 0x16
 1592 05c6 746D7000 		.ascii	"tmp\000"
ARM GAS  /tmp/ccz8qndh.s 			page 29


 1593 05ca 01       		.byte	0x1
 1594 05cb 8B       		.byte	0x8b
 1595 05cc 9E000000 		.4byte	0x9e
 1596 05d0 00       		.byte	0
 1597 05d1 18       		.uleb128 0x18
 1598 05d2 E2050000 		.4byte	0x5e2
 1599 05d6 16       		.uleb128 0x16
 1600 05d7 746D7000 		.ascii	"tmp\000"
 1601 05db 01       		.byte	0x1
 1602 05dc 90       		.byte	0x90
 1603 05dd 9E000000 		.4byte	0x9e
 1604 05e1 00       		.byte	0
 1605 05e2 19       		.uleb128 0x19
 1606 05e3 16       		.uleb128 0x16
 1607 05e4 746D7000 		.ascii	"tmp\000"
 1608 05e8 01       		.byte	0x1
 1609 05e9 A5       		.byte	0xa5
 1610 05ea 9E000000 		.4byte	0x9e
 1611 05ee 00       		.byte	0
 1612 05ef 00       		.byte	0
 1613 05f0 13       		.uleb128 0x13
 1614 05f1 D2020000 		.4byte	.LASF75
 1615 05f5 02       		.byte	0x2
 1616 05f6 3B       		.byte	0x3b
 1617 05f7 19020000 		.4byte	0x219
 1618 05fb 03       		.byte	0x3
 1619 05fc 16060000 		.4byte	0x616
 1620 0600 14       		.uleb128 0x14
 1621 0601 74717000 		.ascii	"tqp\000"
 1622 0605 02       		.byte	0x2
 1623 0606 3B       		.byte	0x3b
 1624 0607 16060000 		.4byte	0x616
 1625 060b 16       		.uleb128 0x16
 1626 060c 747000   		.ascii	"tp\000"
 1627 060f 02       		.byte	0x2
 1628 0610 3C       		.byte	0x3c
 1629 0611 19020000 		.4byte	0x219
 1630 0615 00       		.byte	0
 1631 0616 09       		.uleb128 0x9
 1632 0617 04       		.byte	0x4
 1633 0618 1F020000 		.4byte	0x21f
 1634 061c 1A       		.uleb128 0x1a
 1635 061d A1050000 		.4byte	0x5a1
 1636 0621 00000000 		.4byte	.LFB10
 1637 0625 58000000 		.4byte	.LFE10-.LFB10
 1638 0629 01       		.uleb128 0x1
 1639 062a 9C       		.byte	0x9c
 1640 062b E9060000 		.4byte	0x6e9
 1641 062f 1B       		.uleb128 0x1b
 1642 0630 AD050000 		.4byte	0x5ad
 1643 0634 01       		.uleb128 0x1
 1644 0635 50       		.byte	0x50
 1645 0636 1C       		.uleb128 0x1c
 1646 0637 B6050000 		.4byte	0x5b6
 1647 063b 01       		.uleb128 0x1
 1648 063c 50       		.byte	0x50
 1649 063d 1D       		.uleb128 0x1d
ARM GAS  /tmp/ccz8qndh.s 			page 30


 1650 063e 02000000 		.4byte	.LBB44
 1651 0642 06000000 		.4byte	.LBE44-.LBB44
 1652 0646 52060000 		.4byte	0x652
 1653 064a 1C       		.uleb128 0x1c
 1654 064b C5050000 		.4byte	0x5c5
 1655 064f 01       		.uleb128 0x1
 1656 0650 53       		.byte	0x53
 1657 0651 00       		.byte	0
 1658 0652 1E       		.uleb128 0x1e
 1659 0653 7C050000 		.4byte	0x57c
 1660 0657 18000000 		.4byte	.LBB45
 1661 065b 00000000 		.4byte	.Ldebug_ranges0+0
 1662 065f 01       		.byte	0x1
 1663 0660 A4       		.byte	0xa4
 1664 0661 7E060000 		.4byte	0x67e
 1665 0665 1F       		.uleb128 0x1f
 1666 0666 8C050000 		.4byte	0x58c
 1667 066a 00000000 		.4byte	.LLST0
 1668 066e 20       		.uleb128 0x20
 1669 066f 00000000 		.4byte	.Ldebug_ranges0+0
 1670 0673 21       		.uleb128 0x21
 1671 0674 96050000 		.4byte	0x596
 1672 0678 13000000 		.4byte	.LLST1
 1673 067c 00       		.byte	0
 1674 067d 00       		.byte	0
 1675 067e 22       		.uleb128 0x22
 1676 067f 18000000 		.4byte	.Ldebug_ranges0+0x18
 1677 0683 D1060000 		.4byte	0x6d1
 1678 0687 1F       		.uleb128 0x1f
 1679 0688 AD050000 		.4byte	0x5ad
 1680 068c 2B000000 		.4byte	.LLST2
 1681 0690 20       		.uleb128 0x20
 1682 0691 18000000 		.4byte	.Ldebug_ranges0+0x18
 1683 0695 23       		.uleb128 0x23
 1684 0696 B6050000 		.4byte	0x5b6
 1685 069a 1E       		.uleb128 0x1e
 1686 069b 7C050000 		.4byte	0x57c
 1687 069f 1C000000 		.4byte	.LBB50
 1688 06a3 30000000 		.4byte	.Ldebug_ranges0+0x30
 1689 06a7 01       		.byte	0x1
 1690 06a8 A4       		.byte	0xa4
 1691 06a9 C2060000 		.4byte	0x6c2
 1692 06ad 24       		.uleb128 0x24
 1693 06ae 8C050000 		.4byte	0x58c
 1694 06b2 20       		.uleb128 0x20
 1695 06b3 30000000 		.4byte	.Ldebug_ranges0+0x30
 1696 06b7 21       		.uleb128 0x21
 1697 06b8 96050000 		.4byte	0x596
 1698 06bc 3E000000 		.4byte	.LLST3
 1699 06c0 00       		.byte	0
 1700 06c1 00       		.byte	0
 1701 06c2 20       		.uleb128 0x20
 1702 06c3 50000000 		.4byte	.Ldebug_ranges0+0x50
 1703 06c7 1C       		.uleb128 0x1c
 1704 06c8 E3050000 		.4byte	0x5e3
 1705 06cc 01       		.uleb128 0x1
 1706 06cd 53       		.byte	0x53
ARM GAS  /tmp/ccz8qndh.s 			page 31


 1707 06ce 00       		.byte	0
 1708 06cf 00       		.byte	0
 1709 06d0 00       		.byte	0
 1710 06d1 25       		.uleb128 0x25
 1711 06d2 61050000 		.4byte	0x561
 1712 06d6 48000000 		.4byte	.LBB61
 1713 06da 10000000 		.4byte	.LBE61-.LBB61
 1714 06de 01       		.byte	0x1
 1715 06df A0       		.byte	0xa0
 1716 06e0 1B       		.uleb128 0x1b
 1717 06e1 71050000 		.4byte	0x571
 1718 06e5 01       		.uleb128 0x1
 1719 06e6 50       		.byte	0x50
 1720 06e7 00       		.byte	0
 1721 06e8 00       		.byte	0
 1722 06e9 26       		.uleb128 0x26
 1723 06ea 4C000000 		.4byte	.LASF90
 1724 06ee 01       		.byte	0x1
 1725 06ef 37       		.byte	0x37
 1726 06f0 00000000 		.4byte	.LFB7
 1727 06f4 14000000 		.4byte	.LFE7-.LFB7
 1728 06f8 01       		.uleb128 0x1
 1729 06f9 9C       		.byte	0x9c
 1730 06fa 1A       		.uleb128 0x1a
 1731 06fb 7C050000 		.4byte	0x57c
 1732 06ff 00000000 		.4byte	.LFB8
 1733 0703 2C000000 		.4byte	.LFE8-.LFB8
 1734 0707 01       		.uleb128 0x1
 1735 0708 9C       		.byte	0x9c
 1736 0709 1E070000 		.4byte	0x71e
 1737 070d 1F       		.uleb128 0x1f
 1738 070e 8C050000 		.4byte	0x58c
 1739 0712 51000000 		.4byte	.LLST4
 1740 0716 1C       		.uleb128 0x1c
 1741 0717 96050000 		.4byte	0x596
 1742 071b 01       		.uleb128 0x1
 1743 071c 53       		.byte	0x53
 1744 071d 00       		.byte	0
 1745 071e 27       		.uleb128 0x27
 1746 071f A3020000 		.4byte	.LASF78
 1747 0723 01       		.byte	0x1
 1748 0724 73       		.byte	0x73
 1749 0725 00000000 		.4byte	.LFB9
 1750 0729 28000000 		.4byte	.LFE9-.LFB9
 1751 072d 01       		.uleb128 0x1
 1752 072e 9C       		.byte	0x9c
 1753 072f 8A070000 		.4byte	0x78a
 1754 0733 28       		.uleb128 0x28
 1755 0734 45020000 		.4byte	.LASF76
 1756 0738 01       		.byte	0x1
 1757 0739 73       		.byte	0x73
 1758 073a BB000000 		.4byte	0xbb
 1759 073e 7A000000 		.4byte	.LLST5
 1760 0742 29       		.uleb128 0x29
 1761 0743 6F747000 		.ascii	"otp\000"
 1762 0747 01       		.byte	0x1
 1763 0748 74       		.byte	0x74
ARM GAS  /tmp/ccz8qndh.s 			page 32


 1764 0749 19020000 		.4byte	0x219
 1765 074d A7000000 		.4byte	.LLST6
 1766 0751 1E       		.uleb128 0x1e
 1767 0752 F0050000 		.4byte	0x5f0
 1768 0756 04000000 		.4byte	.LBB63
 1769 075a 68000000 		.4byte	.Ldebug_ranges0+0x68
 1770 075e 01       		.byte	0x1
 1771 075f 7E       		.byte	0x7e
 1772 0760 80070000 		.4byte	0x780
 1773 0764 1B       		.uleb128 0x1b
 1774 0765 00060000 		.4byte	0x600
 1775 0769 06       		.uleb128 0x6
 1776 076a 03       		.byte	0x3
 1777 076b 00000000 		.4byte	rlist
 1778 076f 9F       		.byte	0x9f
 1779 0770 20       		.uleb128 0x20
 1780 0771 68000000 		.4byte	.Ldebug_ranges0+0x68
 1781 0775 21       		.uleb128 0x21
 1782 0776 0B060000 		.4byte	0x60b
 1783 077a BA000000 		.4byte	.LLST7
 1784 077e 00       		.byte	0
 1785 077f 00       		.byte	0
 1786 0780 2A       		.uleb128 0x2a
 1787 0781 22000000 		.4byte	.LVL16
 1788 0785 310A0000 		.4byte	0xa31
 1789 0789 00       		.byte	0
 1790 078a 2B       		.uleb128 0x2b
 1791 078b 7E040000 		.4byte	.LASF91
 1792 078f 01       		.byte	0x1
 1793 0790 BD       		.byte	0xbd
 1794 0791 DC000000 		.4byte	0xdc
 1795 0795 00000000 		.4byte	.LFB11
 1796 0799 44000000 		.4byte	.LFE11-.LFB11
 1797 079d 01       		.uleb128 0x1
 1798 079e 9C       		.byte	0x9c
 1799 079f 2E080000 		.4byte	0x82e
 1800 07a3 28       		.uleb128 0x28
 1801 07a4 45020000 		.4byte	.LASF76
 1802 07a8 01       		.byte	0x1
 1803 07a9 BD       		.byte	0xbd
 1804 07aa BB000000 		.4byte	0xbb
 1805 07ae CD000000 		.4byte	.LLST8
 1806 07b2 28       		.uleb128 0x28
 1807 07b3 29030000 		.4byte	.LASF77
 1808 07b7 01       		.byte	0x1
 1809 07b8 BD       		.byte	0xbd
 1810 07b9 F2000000 		.4byte	0xf2
 1811 07bd 07010000 		.4byte	.LLST9
 1812 07c1 1D       		.uleb128 0x1d
 1813 07c2 08000000 		.4byte	.LBB71
 1814 07c6 1E000000 		.4byte	.LBE71-.LBB71
 1815 07ca 24080000 		.4byte	0x824
 1816 07ce 2C       		.uleb128 0x2c
 1817 07cf 767400   		.ascii	"vt\000"
 1818 07d2 01       		.byte	0x1
 1819 07d3 C2       		.byte	0xc2
 1820 07d4 E7030000 		.4byte	0x3e7
ARM GAS  /tmp/ccz8qndh.s 			page 33


 1821 07d8 02       		.uleb128 0x2
 1822 07d9 91       		.byte	0x91
 1823 07da 5C       		.sleb128 -36
 1824 07db 2D       		.uleb128 0x2d
 1825 07dc 16000000 		.4byte	.LVL19
 1826 07e0 480A0000 		.4byte	0xa48
 1827 07e4 FF070000 		.4byte	0x7ff
 1828 07e8 2E       		.uleb128 0x2e
 1829 07e9 01       		.uleb128 0x1
 1830 07ea 52       		.byte	0x52
 1831 07eb 05       		.uleb128 0x5
 1832 07ec 03       		.byte	0x3
 1833 07ed 00000000 		.4byte	wakeup
 1834 07f1 2E       		.uleb128 0x2e
 1835 07f2 01       		.uleb128 0x1
 1836 07f3 51       		.byte	0x51
 1837 07f4 03       		.uleb128 0x3
 1838 07f5 F3       		.byte	0xf3
 1839 07f6 01       		.uleb128 0x1
 1840 07f7 51       		.byte	0x51
 1841 07f8 2E       		.uleb128 0x2e
 1842 07f9 01       		.uleb128 0x1
 1843 07fa 50       		.byte	0x50
 1844 07fb 02       		.uleb128 0x2
 1845 07fc 91       		.byte	0x91
 1846 07fd 5C       		.sleb128 -36
 1847 07fe 00       		.byte	0
 1848 07ff 2D       		.uleb128 0x2d
 1849 0800 1C000000 		.4byte	.LVL20
 1850 0804 1E070000 		.4byte	0x71e
 1851 0808 13080000 		.4byte	0x813
 1852 080c 2E       		.uleb128 0x2e
 1853 080d 01       		.uleb128 0x1
 1854 080e 50       		.byte	0x50
 1855 080f 02       		.uleb128 0x2
 1856 0810 75       		.byte	0x75
 1857 0811 00       		.sleb128 0
 1858 0812 00       		.byte	0
 1859 0813 2F       		.uleb128 0x2f
 1860 0814 26000000 		.4byte	.LVL21
 1861 0818 680A0000 		.4byte	0xa68
 1862 081c 2E       		.uleb128 0x2e
 1863 081d 01       		.uleb128 0x1
 1864 081e 50       		.byte	0x50
 1865 081f 02       		.uleb128 0x2
 1866 0820 91       		.byte	0x91
 1867 0821 5C       		.sleb128 -36
 1868 0822 00       		.byte	0
 1869 0823 00       		.byte	0
 1870 0824 30       		.uleb128 0x30
 1871 0825 34000000 		.4byte	.LVL23
 1872 0829 1E070000 		.4byte	0x71e
 1873 082d 00       		.byte	0
 1874 082e 27       		.uleb128 0x27
 1875 082f 6A010000 		.4byte	.LASF79
 1876 0833 01       		.byte	0x1
 1877 0834 E1       		.byte	0xe1
ARM GAS  /tmp/ccz8qndh.s 			page 34


 1878 0835 00000000 		.4byte	.LFB12
 1879 0839 58000000 		.4byte	.LFE12-.LFB12
 1880 083d 01       		.uleb128 0x1
 1881 083e 9C       		.byte	0x9c
 1882 083f DC080000 		.4byte	0x8dc
 1883 0843 31       		.uleb128 0x31
 1884 0844 6E747000 		.ascii	"ntp\000"
 1885 0848 01       		.byte	0x1
 1886 0849 E1       		.byte	0xe1
 1887 084a 19020000 		.4byte	0x219
 1888 084e 41010000 		.4byte	.LLST10
 1889 0852 31       		.uleb128 0x31
 1890 0853 6D736700 		.ascii	"msg\000"
 1891 0857 01       		.byte	0x1
 1892 0858 E1       		.byte	0xe1
 1893 0859 DC000000 		.4byte	0xdc
 1894 085d 8F010000 		.4byte	.LLST11
 1895 0861 1E       		.uleb128 0x1e
 1896 0862 7C050000 		.4byte	0x57c
 1897 0866 10000000 		.4byte	.LBB72
 1898 086a 90000000 		.4byte	.Ldebug_ranges0+0x90
 1899 086e 01       		.byte	0x1
 1900 086f EB       		.byte	0xeb
 1901 0870 8D080000 		.4byte	0x88d
 1902 0874 1F       		.uleb128 0x1f
 1903 0875 8C050000 		.4byte	0x58c
 1904 0879 C8010000 		.4byte	.LLST12
 1905 087d 20       		.uleb128 0x20
 1906 087e 90000000 		.4byte	.Ldebug_ranges0+0x90
 1907 0882 21       		.uleb128 0x21
 1908 0883 96050000 		.4byte	0x596
 1909 0887 E7010000 		.4byte	.LLST13
 1910 088b 00       		.byte	0
 1911 088c 00       		.byte	0
 1912 088d 20       		.uleb128 0x20
 1913 088e A8000000 		.4byte	.Ldebug_ranges0+0xa8
 1914 0892 16       		.uleb128 0x16
 1915 0893 6F747000 		.ascii	"otp\000"
 1916 0897 01       		.byte	0x1
 1917 0898 ED       		.byte	0xed
 1918 0899 19020000 		.4byte	0x219
 1919 089d 1E       		.uleb128 0x1e
 1920 089e 7C050000 		.4byte	0x57c
 1921 08a2 2E000000 		.4byte	.LBB77
 1922 08a6 C0000000 		.4byte	.Ldebug_ranges0+0xc0
 1923 08aa 01       		.byte	0x1
 1924 08ab ED       		.byte	0xed
 1925 08ac C9080000 		.4byte	0x8c9
 1926 08b0 1F       		.uleb128 0x1f
 1927 08b1 8C050000 		.4byte	0x58c
 1928 08b5 FA010000 		.4byte	.LLST14
 1929 08b9 20       		.uleb128 0x20
 1930 08ba C0000000 		.4byte	.Ldebug_ranges0+0xc0
 1931 08be 21       		.uleb128 0x21
 1932 08bf 96050000 		.4byte	0x596
 1933 08c3 18020000 		.4byte	.LLST15
 1934 08c7 00       		.byte	0
ARM GAS  /tmp/ccz8qndh.s 			page 35


 1935 08c8 00       		.byte	0
 1936 08c9 32       		.uleb128 0x32
 1937 08ca 54000000 		.4byte	.LVL35
 1938 08ce 310A0000 		.4byte	0xa31
 1939 08d2 2E       		.uleb128 0x2e
 1940 08d3 01       		.uleb128 0x1
 1941 08d4 50       		.byte	0x50
 1942 08d5 03       		.uleb128 0x3
 1943 08d6 F3       		.byte	0xf3
 1944 08d7 01       		.uleb128 0x1
 1945 08d8 50       		.byte	0x50
 1946 08d9 00       		.byte	0
 1947 08da 00       		.byte	0
 1948 08db 00       		.byte	0
 1949 08dc 33       		.uleb128 0x33
 1950 08dd C4010000 		.4byte	.LASF80
 1951 08e1 01       		.byte	0x1
 1952 08e2 3001     		.2byte	0x130
 1953 08e4 00000000 		.4byte	.LFB14
 1954 08e8 40000000 		.4byte	.LFE14-.LFB14
 1955 08ec 01       		.uleb128 0x1
 1956 08ed 9C       		.byte	0x9c
 1957 08ee 69090000 		.4byte	0x969
 1958 08f2 34       		.uleb128 0x34
 1959 08f3 6F747000 		.ascii	"otp\000"
 1960 08f7 01       		.byte	0x1
 1961 08f8 3101     		.2byte	0x131
 1962 08fa 19020000 		.4byte	0x219
 1963 08fe 3B020000 		.4byte	.LLST16
 1964 0902 35       		.uleb128 0x35
 1965 0903 F0050000 		.4byte	0x5f0
 1966 0907 02000000 		.4byte	.LBB82
 1967 090b D8000000 		.4byte	.Ldebug_ranges0+0xd8
 1968 090f 01       		.byte	0x1
 1969 0910 3501     		.2byte	0x135
 1970 0912 32090000 		.4byte	0x932
 1971 0916 1B       		.uleb128 0x1b
 1972 0917 00060000 		.4byte	0x600
 1973 091b 06       		.uleb128 0x6
 1974 091c 03       		.byte	0x3
 1975 091d 00000000 		.4byte	rlist
 1976 0921 9F       		.byte	0x9f
 1977 0922 20       		.uleb128 0x20
 1978 0923 D8000000 		.4byte	.Ldebug_ranges0+0xd8
 1979 0927 21       		.uleb128 0x21
 1980 0928 0B060000 		.4byte	0x60b
 1981 092c 59020000 		.4byte	.LLST17
 1982 0930 00       		.byte	0
 1983 0931 00       		.byte	0
 1984 0932 35       		.uleb128 0x35
 1985 0933 7C050000 		.4byte	0x57c
 1986 0937 10000000 		.4byte	.LBB89
 1987 093b 00010000 		.4byte	.Ldebug_ranges0+0x100
 1988 093f 01       		.byte	0x1
 1989 0940 3A01     		.2byte	0x13a
 1990 0942 5F090000 		.4byte	0x95f
 1991 0946 1F       		.uleb128 0x1f
ARM GAS  /tmp/ccz8qndh.s 			page 36


 1992 0947 8C050000 		.4byte	0x58c
 1993 094b 6C020000 		.4byte	.LLST18
 1994 094f 20       		.uleb128 0x20
 1995 0950 00010000 		.4byte	.Ldebug_ranges0+0x100
 1996 0954 21       		.uleb128 0x21
 1997 0955 96050000 		.4byte	0x596
 1998 0959 8A020000 		.4byte	.LLST19
 1999 095d 00       		.byte	0
 2000 095e 00       		.byte	0
 2001 095f 2A       		.uleb128 0x2a
 2002 0960 3C000000 		.4byte	.LVL42
 2003 0964 310A0000 		.4byte	0xa31
 2004 0968 00       		.byte	0
 2005 0969 33       		.uleb128 0x33
 2006 096a 0D000000 		.4byte	.LASF81
 2007 096e 01       		.byte	0x1
 2008 096f 4901     		.2byte	0x149
 2009 0971 00000000 		.4byte	.LFB15
 2010 0975 3C000000 		.4byte	.LFE15-.LFB15
 2011 0979 01       		.uleb128 0x1
 2012 097a 9C       		.byte	0x9c
 2013 097b D8090000 		.4byte	0x9d8
 2014 097f 34       		.uleb128 0x34
 2015 0980 6F747000 		.ascii	"otp\000"
 2016 0984 01       		.byte	0x1
 2017 0985 4A01     		.2byte	0x14a
 2018 0987 19020000 		.4byte	0x219
 2019 098b AD020000 		.4byte	.LLST20
 2020 098f 34       		.uleb128 0x34
 2021 0990 637000   		.ascii	"cp\000"
 2022 0993 01       		.byte	0x1
 2023 0994 4A01     		.2byte	0x14a
 2024 0996 19020000 		.4byte	0x219
 2025 099a CB020000 		.4byte	.LLST21
 2026 099e 35       		.uleb128 0x35
 2027 099f F0050000 		.4byte	0x5f0
 2028 09a3 02000000 		.4byte	.LBB98
 2029 09a7 28010000 		.4byte	.Ldebug_ranges0+0x128
 2030 09ab 01       		.byte	0x1
 2031 09ac 4E01     		.2byte	0x14e
 2032 09ae CE090000 		.4byte	0x9ce
 2033 09b2 1B       		.uleb128 0x1b
 2034 09b3 00060000 		.4byte	0x600
 2035 09b7 06       		.uleb128 0x6
 2036 09b8 03       		.byte	0x3
 2037 09b9 00000000 		.4byte	rlist
 2038 09bd 9F       		.byte	0x9f
 2039 09be 20       		.uleb128 0x20
 2040 09bf 28010000 		.4byte	.Ldebug_ranges0+0x128
 2041 09c3 21       		.uleb128 0x21
 2042 09c4 0B060000 		.4byte	0x60b
 2043 09c8 EE020000 		.4byte	.LLST22
 2044 09cc 00       		.byte	0
 2045 09cd 00       		.byte	0
 2046 09ce 2A       		.uleb128 0x2a
 2047 09cf 38000000 		.4byte	.LVL48
 2048 09d3 310A0000 		.4byte	0xa31
ARM GAS  /tmp/ccz8qndh.s 			page 37


 2049 09d7 00       		.byte	0
 2050 09d8 27       		.uleb128 0x27
 2051 09d9 B3000000 		.4byte	.LASF82
 2052 09dd 01       		.byte	0x1
 2053 09de FD       		.byte	0xfd
 2054 09df 00000000 		.4byte	.LFB13
 2055 09e3 18000000 		.4byte	.LFE13-.LFB13
 2056 09e7 01       		.uleb128 0x1
 2057 09e8 9C       		.byte	0x9c
 2058 09e9 F7090000 		.4byte	0x9f7
 2059 09ed 2A       		.uleb128 0x2a
 2060 09ee 14000000 		.4byte	.LVL49
 2061 09f2 69090000 		.4byte	0x969
 2062 09f6 00       		.byte	0
 2063 09f7 33       		.uleb128 0x33
 2064 09f8 E0000000 		.4byte	.LASF83
 2065 09fc 01       		.byte	0x1
 2066 09fd 6A01     		.2byte	0x16a
 2067 09ff 00000000 		.4byte	.LFB16
 2068 0a03 14000000 		.4byte	.LFE16-.LFB16
 2069 0a07 01       		.uleb128 0x1
 2070 0a08 9C       		.byte	0x9c
 2071 0a09 200A0000 		.4byte	0xa20
 2072 0a0d 2A       		.uleb128 0x2a
 2073 0a0e 0C000000 		.4byte	.LVL50
 2074 0a12 69090000 		.4byte	0x969
 2075 0a16 2A       		.uleb128 0x2a
 2076 0a17 10000000 		.4byte	.LVL51
 2077 0a1b DC080000 		.4byte	0x8dc
 2078 0a1f 00       		.byte	0
 2079 0a20 36       		.uleb128 0x36
 2080 0a21 62040000 		.4byte	.LASF92
 2081 0a25 01       		.byte	0x1
 2082 0a26 2F       		.byte	0x2f
 2083 0a27 97040000 		.4byte	0x497
 2084 0a2b 05       		.uleb128 0x5
 2085 0a2c 03       		.byte	0x3
 2086 0a2d 00000000 		.4byte	rlist
 2087 0a31 37       		.uleb128 0x37
 2088 0a32 14010000 		.4byte	.LASF84
 2089 0a36 08       		.byte	0x8
 2090 0a37 0602     		.2byte	0x206
 2091 0a39 480A0000 		.4byte	0xa48
 2092 0a3d 0E       		.uleb128 0xe
 2093 0a3e 19020000 		.4byte	0x219
 2094 0a42 0E       		.uleb128 0xe
 2095 0a43 19020000 		.4byte	0x219
 2096 0a47 00       		.byte	0
 2097 0a48 38       		.uleb128 0x38
 2098 0a49 DC010000 		.4byte	.LASF85
 2099 0a4d 09       		.byte	0x9
 2100 0a4e FE       		.byte	0xfe
 2101 0a4f 680A0000 		.4byte	0xa68
 2102 0a53 0E       		.uleb128 0xe
 2103 0a54 3B040000 		.4byte	0x43b
 2104 0a58 0E       		.uleb128 0xe
 2105 0a59 F2000000 		.4byte	0xf2
ARM GAS  /tmp/ccz8qndh.s 			page 38


 2106 0a5d 0E       		.uleb128 0xe
 2107 0a5e CB030000 		.4byte	0x3cb
 2108 0a62 0E       		.uleb128 0xe
 2109 0a63 55020000 		.4byte	0x255
 2110 0a67 00       		.byte	0
 2111 0a68 39       		.uleb128 0x39
 2112 0a69 98020000 		.4byte	.LASF93
 2113 0a6d 09       		.byte	0x9
 2114 0a6e FF       		.byte	0xff
 2115 0a6f 0E       		.uleb128 0xe
 2116 0a70 3B040000 		.4byte	0x43b
 2117 0a74 00       		.byte	0
 2118 0a75 00       		.byte	0
 2119              		.section	.debug_abbrev,"",%progbits
 2120              	.Ldebug_abbrev0:
 2121 0000 01       		.uleb128 0x1
 2122 0001 11       		.uleb128 0x11
 2123 0002 01       		.byte	0x1
 2124 0003 25       		.uleb128 0x25
 2125 0004 0E       		.uleb128 0xe
 2126 0005 13       		.uleb128 0x13
 2127 0006 0B       		.uleb128 0xb
 2128 0007 03       		.uleb128 0x3
 2129 0008 0E       		.uleb128 0xe
 2130 0009 55       		.uleb128 0x55
 2131 000a 17       		.uleb128 0x17
 2132 000b 11       		.uleb128 0x11
 2133 000c 01       		.uleb128 0x1
 2134 000d 10       		.uleb128 0x10
 2135 000e 17       		.uleb128 0x17
 2136 000f 00       		.byte	0
 2137 0010 00       		.byte	0
 2138 0011 02       		.uleb128 0x2
 2139 0012 24       		.uleb128 0x24
 2140 0013 00       		.byte	0
 2141 0014 0B       		.uleb128 0xb
 2142 0015 0B       		.uleb128 0xb
 2143 0016 3E       		.uleb128 0x3e
 2144 0017 0B       		.uleb128 0xb
 2145 0018 03       		.uleb128 0x3
 2146 0019 08       		.uleb128 0x8
 2147 001a 00       		.byte	0
 2148 001b 00       		.byte	0
 2149 001c 03       		.uleb128 0x3
 2150 001d 24       		.uleb128 0x24
 2151 001e 00       		.byte	0
 2152 001f 0B       		.uleb128 0xb
 2153 0020 0B       		.uleb128 0xb
 2154 0021 3E       		.uleb128 0x3e
 2155 0022 0B       		.uleb128 0xb
 2156 0023 03       		.uleb128 0x3
 2157 0024 0E       		.uleb128 0xe
 2158 0025 00       		.byte	0
 2159 0026 00       		.byte	0
 2160 0027 04       		.uleb128 0x4
 2161 0028 16       		.uleb128 0x16
 2162 0029 00       		.byte	0
ARM GAS  /tmp/ccz8qndh.s 			page 39


 2163 002a 03       		.uleb128 0x3
 2164 002b 0E       		.uleb128 0xe
 2165 002c 3A       		.uleb128 0x3a
 2166 002d 0B       		.uleb128 0xb
 2167 002e 3B       		.uleb128 0x3b
 2168 002f 0B       		.uleb128 0xb
 2169 0030 49       		.uleb128 0x49
 2170 0031 13       		.uleb128 0x13
 2171 0032 00       		.byte	0
 2172 0033 00       		.byte	0
 2173 0034 05       		.uleb128 0x5
 2174 0035 13       		.uleb128 0x13
 2175 0036 01       		.byte	0x1
 2176 0037 03       		.uleb128 0x3
 2177 0038 0E       		.uleb128 0xe
 2178 0039 0B       		.uleb128 0xb
 2179 003a 0B       		.uleb128 0xb
 2180 003b 3A       		.uleb128 0x3a
 2181 003c 0B       		.uleb128 0xb
 2182 003d 3B       		.uleb128 0x3b
 2183 003e 0B       		.uleb128 0xb
 2184 003f 01       		.uleb128 0x1
 2185 0040 13       		.uleb128 0x13
 2186 0041 00       		.byte	0
 2187 0042 00       		.byte	0
 2188 0043 06       		.uleb128 0x6
 2189 0044 0D       		.uleb128 0xd
 2190 0045 00       		.byte	0
 2191 0046 03       		.uleb128 0x3
 2192 0047 0E       		.uleb128 0xe
 2193 0048 3A       		.uleb128 0x3a
 2194 0049 0B       		.uleb128 0xb
 2195 004a 3B       		.uleb128 0x3b
 2196 004b 0B       		.uleb128 0xb
 2197 004c 49       		.uleb128 0x49
 2198 004d 13       		.uleb128 0x13
 2199 004e 38       		.uleb128 0x38
 2200 004f 0B       		.uleb128 0xb
 2201 0050 00       		.byte	0
 2202 0051 00       		.byte	0
 2203 0052 07       		.uleb128 0x7
 2204 0053 0D       		.uleb128 0xd
 2205 0054 00       		.byte	0
 2206 0055 03       		.uleb128 0x3
 2207 0056 08       		.uleb128 0x8
 2208 0057 3A       		.uleb128 0x3a
 2209 0058 0B       		.uleb128 0xb
 2210 0059 3B       		.uleb128 0x3b
 2211 005a 0B       		.uleb128 0xb
 2212 005b 49       		.uleb128 0x49
 2213 005c 13       		.uleb128 0x13
 2214 005d 38       		.uleb128 0x38
 2215 005e 0B       		.uleb128 0xb
 2216 005f 00       		.byte	0
 2217 0060 00       		.byte	0
 2218 0061 08       		.uleb128 0x8
 2219 0062 13       		.uleb128 0x13
ARM GAS  /tmp/ccz8qndh.s 			page 40


 2220 0063 01       		.byte	0x1
 2221 0064 0B       		.uleb128 0xb
 2222 0065 0B       		.uleb128 0xb
 2223 0066 3A       		.uleb128 0x3a
 2224 0067 0B       		.uleb128 0xb
 2225 0068 3B       		.uleb128 0x3b
 2226 0069 0B       		.uleb128 0xb
 2227 006a 01       		.uleb128 0x1
 2228 006b 13       		.uleb128 0x13
 2229 006c 00       		.byte	0
 2230 006d 00       		.byte	0
 2231 006e 09       		.uleb128 0x9
 2232 006f 0F       		.uleb128 0xf
 2233 0070 00       		.byte	0
 2234 0071 0B       		.uleb128 0xb
 2235 0072 0B       		.uleb128 0xb
 2236 0073 49       		.uleb128 0x49
 2237 0074 13       		.uleb128 0x13
 2238 0075 00       		.byte	0
 2239 0076 00       		.byte	0
 2240 0077 0A       		.uleb128 0xa
 2241 0078 0F       		.uleb128 0xf
 2242 0079 00       		.byte	0
 2243 007a 0B       		.uleb128 0xb
 2244 007b 0B       		.uleb128 0xb
 2245 007c 00       		.byte	0
 2246 007d 00       		.byte	0
 2247 007e 0B       		.uleb128 0xb
 2248 007f 13       		.uleb128 0x13
 2249 0080 01       		.byte	0x1
 2250 0081 03       		.uleb128 0x3
 2251 0082 0E       		.uleb128 0xe
 2252 0083 0B       		.uleb128 0xb
 2253 0084 0B       		.uleb128 0xb
 2254 0085 3A       		.uleb128 0x3a
 2255 0086 0B       		.uleb128 0xb
 2256 0087 3B       		.uleb128 0x3b
 2257 0088 05       		.uleb128 0x5
 2258 0089 01       		.uleb128 0x1
 2259 008a 13       		.uleb128 0x13
 2260 008b 00       		.byte	0
 2261 008c 00       		.byte	0
 2262 008d 0C       		.uleb128 0xc
 2263 008e 0D       		.uleb128 0xd
 2264 008f 00       		.byte	0
 2265 0090 03       		.uleb128 0x3
 2266 0091 08       		.uleb128 0x8
 2267 0092 3A       		.uleb128 0x3a
 2268 0093 0B       		.uleb128 0xb
 2269 0094 3B       		.uleb128 0x3b
 2270 0095 05       		.uleb128 0x5
 2271 0096 49       		.uleb128 0x49
 2272 0097 13       		.uleb128 0x13
 2273 0098 38       		.uleb128 0x38
 2274 0099 0B       		.uleb128 0xb
 2275 009a 00       		.byte	0
 2276 009b 00       		.byte	0
ARM GAS  /tmp/ccz8qndh.s 			page 41


 2277 009c 0D       		.uleb128 0xd
 2278 009d 15       		.uleb128 0x15
 2279 009e 01       		.byte	0x1
 2280 009f 27       		.uleb128 0x27
 2281 00a0 19       		.uleb128 0x19
 2282 00a1 01       		.uleb128 0x1
 2283 00a2 13       		.uleb128 0x13
 2284 00a3 00       		.byte	0
 2285 00a4 00       		.byte	0
 2286 00a5 0E       		.uleb128 0xe
 2287 00a6 05       		.uleb128 0x5
 2288 00a7 00       		.byte	0
 2289 00a8 49       		.uleb128 0x49
 2290 00a9 13       		.uleb128 0x13
 2291 00aa 00       		.byte	0
 2292 00ab 00       		.byte	0
 2293 00ac 0F       		.uleb128 0xf
 2294 00ad 35       		.uleb128 0x35
 2295 00ae 00       		.byte	0
 2296 00af 49       		.uleb128 0x49
 2297 00b0 13       		.uleb128 0x13
 2298 00b1 00       		.byte	0
 2299 00b2 00       		.byte	0
 2300 00b3 10       		.uleb128 0x10
 2301 00b4 17       		.uleb128 0x17
 2302 00b5 01       		.byte	0x1
 2303 00b6 0B       		.uleb128 0xb
 2304 00b7 0B       		.uleb128 0xb
 2305 00b8 3A       		.uleb128 0x3a
 2306 00b9 0B       		.uleb128 0xb
 2307 00ba 3B       		.uleb128 0x3b
 2308 00bb 0B       		.uleb128 0xb
 2309 00bc 01       		.uleb128 0x1
 2310 00bd 13       		.uleb128 0x13
 2311 00be 00       		.byte	0
 2312 00bf 00       		.byte	0
 2313 00c0 11       		.uleb128 0x11
 2314 00c1 0D       		.uleb128 0xd
 2315 00c2 00       		.byte	0
 2316 00c3 03       		.uleb128 0x3
 2317 00c4 0E       		.uleb128 0xe
 2318 00c5 3A       		.uleb128 0x3a
 2319 00c6 0B       		.uleb128 0xb
 2320 00c7 3B       		.uleb128 0x3b
 2321 00c8 0B       		.uleb128 0xb
 2322 00c9 49       		.uleb128 0x49
 2323 00ca 13       		.uleb128 0x13
 2324 00cb 00       		.byte	0
 2325 00cc 00       		.byte	0
 2326 00cd 12       		.uleb128 0x12
 2327 00ce 26       		.uleb128 0x26
 2328 00cf 00       		.byte	0
 2329 00d0 49       		.uleb128 0x49
 2330 00d1 13       		.uleb128 0x13
 2331 00d2 00       		.byte	0
 2332 00d3 00       		.byte	0
 2333 00d4 13       		.uleb128 0x13
ARM GAS  /tmp/ccz8qndh.s 			page 42


 2334 00d5 2E       		.uleb128 0x2e
 2335 00d6 01       		.byte	0x1
 2336 00d7 03       		.uleb128 0x3
 2337 00d8 0E       		.uleb128 0xe
 2338 00d9 3A       		.uleb128 0x3a
 2339 00da 0B       		.uleb128 0xb
 2340 00db 3B       		.uleb128 0x3b
 2341 00dc 0B       		.uleb128 0xb
 2342 00dd 27       		.uleb128 0x27
 2343 00de 19       		.uleb128 0x19
 2344 00df 49       		.uleb128 0x49
 2345 00e0 13       		.uleb128 0x13
 2346 00e1 20       		.uleb128 0x20
 2347 00e2 0B       		.uleb128 0xb
 2348 00e3 01       		.uleb128 0x1
 2349 00e4 13       		.uleb128 0x13
 2350 00e5 00       		.byte	0
 2351 00e6 00       		.byte	0
 2352 00e7 14       		.uleb128 0x14
 2353 00e8 05       		.uleb128 0x5
 2354 00e9 00       		.byte	0
 2355 00ea 03       		.uleb128 0x3
 2356 00eb 08       		.uleb128 0x8
 2357 00ec 3A       		.uleb128 0x3a
 2358 00ed 0B       		.uleb128 0xb
 2359 00ee 3B       		.uleb128 0x3b
 2360 00ef 0B       		.uleb128 0xb
 2361 00f0 49       		.uleb128 0x49
 2362 00f1 13       		.uleb128 0x13
 2363 00f2 00       		.byte	0
 2364 00f3 00       		.byte	0
 2365 00f4 15       		.uleb128 0x15
 2366 00f5 2E       		.uleb128 0x2e
 2367 00f6 01       		.byte	0x1
 2368 00f7 3F       		.uleb128 0x3f
 2369 00f8 19       		.uleb128 0x19
 2370 00f9 03       		.uleb128 0x3
 2371 00fa 0E       		.uleb128 0xe
 2372 00fb 3A       		.uleb128 0x3a
 2373 00fc 0B       		.uleb128 0xb
 2374 00fd 3B       		.uleb128 0x3b
 2375 00fe 0B       		.uleb128 0xb
 2376 00ff 27       		.uleb128 0x27
 2377 0100 19       		.uleb128 0x19
 2378 0101 49       		.uleb128 0x49
 2379 0102 13       		.uleb128 0x13
 2380 0103 20       		.uleb128 0x20
 2381 0104 0B       		.uleb128 0xb
 2382 0105 01       		.uleb128 0x1
 2383 0106 13       		.uleb128 0x13
 2384 0107 00       		.byte	0
 2385 0108 00       		.byte	0
 2386 0109 16       		.uleb128 0x16
 2387 010a 34       		.uleb128 0x34
 2388 010b 00       		.byte	0
 2389 010c 03       		.uleb128 0x3
 2390 010d 08       		.uleb128 0x8
ARM GAS  /tmp/ccz8qndh.s 			page 43


 2391 010e 3A       		.uleb128 0x3a
 2392 010f 0B       		.uleb128 0xb
 2393 0110 3B       		.uleb128 0x3b
 2394 0111 0B       		.uleb128 0xb
 2395 0112 49       		.uleb128 0x49
 2396 0113 13       		.uleb128 0x13
 2397 0114 00       		.byte	0
 2398 0115 00       		.byte	0
 2399 0116 17       		.uleb128 0x17
 2400 0117 2E       		.uleb128 0x2e
 2401 0118 01       		.byte	0x1
 2402 0119 03       		.uleb128 0x3
 2403 011a 0E       		.uleb128 0xe
 2404 011b 3A       		.uleb128 0x3a
 2405 011c 0B       		.uleb128 0xb
 2406 011d 3B       		.uleb128 0x3b
 2407 011e 0B       		.uleb128 0xb
 2408 011f 27       		.uleb128 0x27
 2409 0120 19       		.uleb128 0x19
 2410 0121 20       		.uleb128 0x20
 2411 0122 0B       		.uleb128 0xb
 2412 0123 01       		.uleb128 0x1
 2413 0124 13       		.uleb128 0x13
 2414 0125 00       		.byte	0
 2415 0126 00       		.byte	0
 2416 0127 18       		.uleb128 0x18
 2417 0128 0B       		.uleb128 0xb
 2418 0129 01       		.byte	0x1
 2419 012a 01       		.uleb128 0x1
 2420 012b 13       		.uleb128 0x13
 2421 012c 00       		.byte	0
 2422 012d 00       		.byte	0
 2423 012e 19       		.uleb128 0x19
 2424 012f 0B       		.uleb128 0xb
 2425 0130 01       		.byte	0x1
 2426 0131 00       		.byte	0
 2427 0132 00       		.byte	0
 2428 0133 1A       		.uleb128 0x1a
 2429 0134 2E       		.uleb128 0x2e
 2430 0135 01       		.byte	0x1
 2431 0136 31       		.uleb128 0x31
 2432 0137 13       		.uleb128 0x13
 2433 0138 11       		.uleb128 0x11
 2434 0139 01       		.uleb128 0x1
 2435 013a 12       		.uleb128 0x12
 2436 013b 06       		.uleb128 0x6
 2437 013c 40       		.uleb128 0x40
 2438 013d 18       		.uleb128 0x18
 2439 013e 9742     		.uleb128 0x2117
 2440 0140 19       		.uleb128 0x19
 2441 0141 01       		.uleb128 0x1
 2442 0142 13       		.uleb128 0x13
 2443 0143 00       		.byte	0
 2444 0144 00       		.byte	0
 2445 0145 1B       		.uleb128 0x1b
 2446 0146 05       		.uleb128 0x5
 2447 0147 00       		.byte	0
ARM GAS  /tmp/ccz8qndh.s 			page 44


 2448 0148 31       		.uleb128 0x31
 2449 0149 13       		.uleb128 0x13
 2450 014a 02       		.uleb128 0x2
 2451 014b 18       		.uleb128 0x18
 2452 014c 00       		.byte	0
 2453 014d 00       		.byte	0
 2454 014e 1C       		.uleb128 0x1c
 2455 014f 34       		.uleb128 0x34
 2456 0150 00       		.byte	0
 2457 0151 31       		.uleb128 0x31
 2458 0152 13       		.uleb128 0x13
 2459 0153 02       		.uleb128 0x2
 2460 0154 18       		.uleb128 0x18
 2461 0155 00       		.byte	0
 2462 0156 00       		.byte	0
 2463 0157 1D       		.uleb128 0x1d
 2464 0158 0B       		.uleb128 0xb
 2465 0159 01       		.byte	0x1
 2466 015a 11       		.uleb128 0x11
 2467 015b 01       		.uleb128 0x1
 2468 015c 12       		.uleb128 0x12
 2469 015d 06       		.uleb128 0x6
 2470 015e 01       		.uleb128 0x1
 2471 015f 13       		.uleb128 0x13
 2472 0160 00       		.byte	0
 2473 0161 00       		.byte	0
 2474 0162 1E       		.uleb128 0x1e
 2475 0163 1D       		.uleb128 0x1d
 2476 0164 01       		.byte	0x1
 2477 0165 31       		.uleb128 0x31
 2478 0166 13       		.uleb128 0x13
 2479 0167 52       		.uleb128 0x52
 2480 0168 01       		.uleb128 0x1
 2481 0169 55       		.uleb128 0x55
 2482 016a 17       		.uleb128 0x17
 2483 016b 58       		.uleb128 0x58
 2484 016c 0B       		.uleb128 0xb
 2485 016d 59       		.uleb128 0x59
 2486 016e 0B       		.uleb128 0xb
 2487 016f 01       		.uleb128 0x1
 2488 0170 13       		.uleb128 0x13
 2489 0171 00       		.byte	0
 2490 0172 00       		.byte	0
 2491 0173 1F       		.uleb128 0x1f
 2492 0174 05       		.uleb128 0x5
 2493 0175 00       		.byte	0
 2494 0176 31       		.uleb128 0x31
 2495 0177 13       		.uleb128 0x13
 2496 0178 02       		.uleb128 0x2
 2497 0179 17       		.uleb128 0x17
 2498 017a 00       		.byte	0
 2499 017b 00       		.byte	0
 2500 017c 20       		.uleb128 0x20
 2501 017d 0B       		.uleb128 0xb
 2502 017e 01       		.byte	0x1
 2503 017f 55       		.uleb128 0x55
 2504 0180 17       		.uleb128 0x17
ARM GAS  /tmp/ccz8qndh.s 			page 45


 2505 0181 00       		.byte	0
 2506 0182 00       		.byte	0
 2507 0183 21       		.uleb128 0x21
 2508 0184 34       		.uleb128 0x34
 2509 0185 00       		.byte	0
 2510 0186 31       		.uleb128 0x31
 2511 0187 13       		.uleb128 0x13
 2512 0188 02       		.uleb128 0x2
 2513 0189 17       		.uleb128 0x17
 2514 018a 00       		.byte	0
 2515 018b 00       		.byte	0
 2516 018c 22       		.uleb128 0x22
 2517 018d 0B       		.uleb128 0xb
 2518 018e 01       		.byte	0x1
 2519 018f 55       		.uleb128 0x55
 2520 0190 17       		.uleb128 0x17
 2521 0191 01       		.uleb128 0x1
 2522 0192 13       		.uleb128 0x13
 2523 0193 00       		.byte	0
 2524 0194 00       		.byte	0
 2525 0195 23       		.uleb128 0x23
 2526 0196 34       		.uleb128 0x34
 2527 0197 00       		.byte	0
 2528 0198 31       		.uleb128 0x31
 2529 0199 13       		.uleb128 0x13
 2530 019a 00       		.byte	0
 2531 019b 00       		.byte	0
 2532 019c 24       		.uleb128 0x24
 2533 019d 05       		.uleb128 0x5
 2534 019e 00       		.byte	0
 2535 019f 31       		.uleb128 0x31
 2536 01a0 13       		.uleb128 0x13
 2537 01a1 00       		.byte	0
 2538 01a2 00       		.byte	0
 2539 01a3 25       		.uleb128 0x25
 2540 01a4 1D       		.uleb128 0x1d
 2541 01a5 01       		.byte	0x1
 2542 01a6 31       		.uleb128 0x31
 2543 01a7 13       		.uleb128 0x13
 2544 01a8 11       		.uleb128 0x11
 2545 01a9 01       		.uleb128 0x1
 2546 01aa 12       		.uleb128 0x12
 2547 01ab 06       		.uleb128 0x6
 2548 01ac 58       		.uleb128 0x58
 2549 01ad 0B       		.uleb128 0xb
 2550 01ae 59       		.uleb128 0x59
 2551 01af 0B       		.uleb128 0xb
 2552 01b0 00       		.byte	0
 2553 01b1 00       		.byte	0
 2554 01b2 26       		.uleb128 0x26
 2555 01b3 2E       		.uleb128 0x2e
 2556 01b4 00       		.byte	0
 2557 01b5 3F       		.uleb128 0x3f
 2558 01b6 19       		.uleb128 0x19
 2559 01b7 03       		.uleb128 0x3
 2560 01b8 0E       		.uleb128 0xe
 2561 01b9 3A       		.uleb128 0x3a
ARM GAS  /tmp/ccz8qndh.s 			page 46


 2562 01ba 0B       		.uleb128 0xb
 2563 01bb 3B       		.uleb128 0x3b
 2564 01bc 0B       		.uleb128 0xb
 2565 01bd 27       		.uleb128 0x27
 2566 01be 19       		.uleb128 0x19
 2567 01bf 11       		.uleb128 0x11
 2568 01c0 01       		.uleb128 0x1
 2569 01c1 12       		.uleb128 0x12
 2570 01c2 06       		.uleb128 0x6
 2571 01c3 40       		.uleb128 0x40
 2572 01c4 18       		.uleb128 0x18
 2573 01c5 9742     		.uleb128 0x2117
 2574 01c7 19       		.uleb128 0x19
 2575 01c8 00       		.byte	0
 2576 01c9 00       		.byte	0
 2577 01ca 27       		.uleb128 0x27
 2578 01cb 2E       		.uleb128 0x2e
 2579 01cc 01       		.byte	0x1
 2580 01cd 3F       		.uleb128 0x3f
 2581 01ce 19       		.uleb128 0x19
 2582 01cf 03       		.uleb128 0x3
 2583 01d0 0E       		.uleb128 0xe
 2584 01d1 3A       		.uleb128 0x3a
 2585 01d2 0B       		.uleb128 0xb
 2586 01d3 3B       		.uleb128 0x3b
 2587 01d4 0B       		.uleb128 0xb
 2588 01d5 27       		.uleb128 0x27
 2589 01d6 19       		.uleb128 0x19
 2590 01d7 11       		.uleb128 0x11
 2591 01d8 01       		.uleb128 0x1
 2592 01d9 12       		.uleb128 0x12
 2593 01da 06       		.uleb128 0x6
 2594 01db 40       		.uleb128 0x40
 2595 01dc 18       		.uleb128 0x18
 2596 01dd 9742     		.uleb128 0x2117
 2597 01df 19       		.uleb128 0x19
 2598 01e0 01       		.uleb128 0x1
 2599 01e1 13       		.uleb128 0x13
 2600 01e2 00       		.byte	0
 2601 01e3 00       		.byte	0
 2602 01e4 28       		.uleb128 0x28
 2603 01e5 05       		.uleb128 0x5
 2604 01e6 00       		.byte	0
 2605 01e7 03       		.uleb128 0x3
 2606 01e8 0E       		.uleb128 0xe
 2607 01e9 3A       		.uleb128 0x3a
 2608 01ea 0B       		.uleb128 0xb
 2609 01eb 3B       		.uleb128 0x3b
 2610 01ec 0B       		.uleb128 0xb
 2611 01ed 49       		.uleb128 0x49
 2612 01ee 13       		.uleb128 0x13
 2613 01ef 02       		.uleb128 0x2
 2614 01f0 17       		.uleb128 0x17
 2615 01f1 00       		.byte	0
 2616 01f2 00       		.byte	0
 2617 01f3 29       		.uleb128 0x29
 2618 01f4 34       		.uleb128 0x34
ARM GAS  /tmp/ccz8qndh.s 			page 47


 2619 01f5 00       		.byte	0
 2620 01f6 03       		.uleb128 0x3
 2621 01f7 08       		.uleb128 0x8
 2622 01f8 3A       		.uleb128 0x3a
 2623 01f9 0B       		.uleb128 0xb
 2624 01fa 3B       		.uleb128 0x3b
 2625 01fb 0B       		.uleb128 0xb
 2626 01fc 49       		.uleb128 0x49
 2627 01fd 13       		.uleb128 0x13
 2628 01fe 02       		.uleb128 0x2
 2629 01ff 17       		.uleb128 0x17
 2630 0200 00       		.byte	0
 2631 0201 00       		.byte	0
 2632 0202 2A       		.uleb128 0x2a
 2633 0203 898201   		.uleb128 0x4109
 2634 0206 00       		.byte	0
 2635 0207 11       		.uleb128 0x11
 2636 0208 01       		.uleb128 0x1
 2637 0209 9542     		.uleb128 0x2115
 2638 020b 19       		.uleb128 0x19
 2639 020c 31       		.uleb128 0x31
 2640 020d 13       		.uleb128 0x13
 2641 020e 00       		.byte	0
 2642 020f 00       		.byte	0
 2643 0210 2B       		.uleb128 0x2b
 2644 0211 2E       		.uleb128 0x2e
 2645 0212 01       		.byte	0x1
 2646 0213 3F       		.uleb128 0x3f
 2647 0214 19       		.uleb128 0x19
 2648 0215 03       		.uleb128 0x3
 2649 0216 0E       		.uleb128 0xe
 2650 0217 3A       		.uleb128 0x3a
 2651 0218 0B       		.uleb128 0xb
 2652 0219 3B       		.uleb128 0x3b
 2653 021a 0B       		.uleb128 0xb
 2654 021b 27       		.uleb128 0x27
 2655 021c 19       		.uleb128 0x19
 2656 021d 49       		.uleb128 0x49
 2657 021e 13       		.uleb128 0x13
 2658 021f 11       		.uleb128 0x11
 2659 0220 01       		.uleb128 0x1
 2660 0221 12       		.uleb128 0x12
 2661 0222 06       		.uleb128 0x6
 2662 0223 40       		.uleb128 0x40
 2663 0224 18       		.uleb128 0x18
 2664 0225 9742     		.uleb128 0x2117
 2665 0227 19       		.uleb128 0x19
 2666 0228 01       		.uleb128 0x1
 2667 0229 13       		.uleb128 0x13
 2668 022a 00       		.byte	0
 2669 022b 00       		.byte	0
 2670 022c 2C       		.uleb128 0x2c
 2671 022d 34       		.uleb128 0x34
 2672 022e 00       		.byte	0
 2673 022f 03       		.uleb128 0x3
 2674 0230 08       		.uleb128 0x8
 2675 0231 3A       		.uleb128 0x3a
ARM GAS  /tmp/ccz8qndh.s 			page 48


 2676 0232 0B       		.uleb128 0xb
 2677 0233 3B       		.uleb128 0x3b
 2678 0234 0B       		.uleb128 0xb
 2679 0235 49       		.uleb128 0x49
 2680 0236 13       		.uleb128 0x13
 2681 0237 02       		.uleb128 0x2
 2682 0238 18       		.uleb128 0x18
 2683 0239 00       		.byte	0
 2684 023a 00       		.byte	0
 2685 023b 2D       		.uleb128 0x2d
 2686 023c 898201   		.uleb128 0x4109
 2687 023f 01       		.byte	0x1
 2688 0240 11       		.uleb128 0x11
 2689 0241 01       		.uleb128 0x1
 2690 0242 31       		.uleb128 0x31
 2691 0243 13       		.uleb128 0x13
 2692 0244 01       		.uleb128 0x1
 2693 0245 13       		.uleb128 0x13
 2694 0246 00       		.byte	0
 2695 0247 00       		.byte	0
 2696 0248 2E       		.uleb128 0x2e
 2697 0249 8A8201   		.uleb128 0x410a
 2698 024c 00       		.byte	0
 2699 024d 02       		.uleb128 0x2
 2700 024e 18       		.uleb128 0x18
 2701 024f 9142     		.uleb128 0x2111
 2702 0251 18       		.uleb128 0x18
 2703 0252 00       		.byte	0
 2704 0253 00       		.byte	0
 2705 0254 2F       		.uleb128 0x2f
 2706 0255 898201   		.uleb128 0x4109
 2707 0258 01       		.byte	0x1
 2708 0259 11       		.uleb128 0x11
 2709 025a 01       		.uleb128 0x1
 2710 025b 31       		.uleb128 0x31
 2711 025c 13       		.uleb128 0x13
 2712 025d 00       		.byte	0
 2713 025e 00       		.byte	0
 2714 025f 30       		.uleb128 0x30
 2715 0260 898201   		.uleb128 0x4109
 2716 0263 00       		.byte	0
 2717 0264 11       		.uleb128 0x11
 2718 0265 01       		.uleb128 0x1
 2719 0266 31       		.uleb128 0x31
 2720 0267 13       		.uleb128 0x13
 2721 0268 00       		.byte	0
 2722 0269 00       		.byte	0
 2723 026a 31       		.uleb128 0x31
 2724 026b 05       		.uleb128 0x5
 2725 026c 00       		.byte	0
 2726 026d 03       		.uleb128 0x3
 2727 026e 08       		.uleb128 0x8
 2728 026f 3A       		.uleb128 0x3a
 2729 0270 0B       		.uleb128 0xb
 2730 0271 3B       		.uleb128 0x3b
 2731 0272 0B       		.uleb128 0xb
 2732 0273 49       		.uleb128 0x49
ARM GAS  /tmp/ccz8qndh.s 			page 49


 2733 0274 13       		.uleb128 0x13
 2734 0275 02       		.uleb128 0x2
 2735 0276 17       		.uleb128 0x17
 2736 0277 00       		.byte	0
 2737 0278 00       		.byte	0
 2738 0279 32       		.uleb128 0x32
 2739 027a 898201   		.uleb128 0x4109
 2740 027d 01       		.byte	0x1
 2741 027e 11       		.uleb128 0x11
 2742 027f 01       		.uleb128 0x1
 2743 0280 9542     		.uleb128 0x2115
 2744 0282 19       		.uleb128 0x19
 2745 0283 31       		.uleb128 0x31
 2746 0284 13       		.uleb128 0x13
 2747 0285 00       		.byte	0
 2748 0286 00       		.byte	0
 2749 0287 33       		.uleb128 0x33
 2750 0288 2E       		.uleb128 0x2e
 2751 0289 01       		.byte	0x1
 2752 028a 3F       		.uleb128 0x3f
 2753 028b 19       		.uleb128 0x19
 2754 028c 03       		.uleb128 0x3
 2755 028d 0E       		.uleb128 0xe
 2756 028e 3A       		.uleb128 0x3a
 2757 028f 0B       		.uleb128 0xb
 2758 0290 3B       		.uleb128 0x3b
 2759 0291 05       		.uleb128 0x5
 2760 0292 27       		.uleb128 0x27
 2761 0293 19       		.uleb128 0x19
 2762 0294 11       		.uleb128 0x11
 2763 0295 01       		.uleb128 0x1
 2764 0296 12       		.uleb128 0x12
 2765 0297 06       		.uleb128 0x6
 2766 0298 40       		.uleb128 0x40
 2767 0299 18       		.uleb128 0x18
 2768 029a 9742     		.uleb128 0x2117
 2769 029c 19       		.uleb128 0x19
 2770 029d 01       		.uleb128 0x1
 2771 029e 13       		.uleb128 0x13
 2772 029f 00       		.byte	0
 2773 02a0 00       		.byte	0
 2774 02a1 34       		.uleb128 0x34
 2775 02a2 34       		.uleb128 0x34
 2776 02a3 00       		.byte	0
 2777 02a4 03       		.uleb128 0x3
 2778 02a5 08       		.uleb128 0x8
 2779 02a6 3A       		.uleb128 0x3a
 2780 02a7 0B       		.uleb128 0xb
 2781 02a8 3B       		.uleb128 0x3b
 2782 02a9 05       		.uleb128 0x5
 2783 02aa 49       		.uleb128 0x49
 2784 02ab 13       		.uleb128 0x13
 2785 02ac 02       		.uleb128 0x2
 2786 02ad 17       		.uleb128 0x17
 2787 02ae 00       		.byte	0
 2788 02af 00       		.byte	0
 2789 02b0 35       		.uleb128 0x35
ARM GAS  /tmp/ccz8qndh.s 			page 50


 2790 02b1 1D       		.uleb128 0x1d
 2791 02b2 01       		.byte	0x1
 2792 02b3 31       		.uleb128 0x31
 2793 02b4 13       		.uleb128 0x13
 2794 02b5 52       		.uleb128 0x52
 2795 02b6 01       		.uleb128 0x1
 2796 02b7 55       		.uleb128 0x55
 2797 02b8 17       		.uleb128 0x17
 2798 02b9 58       		.uleb128 0x58
 2799 02ba 0B       		.uleb128 0xb
 2800 02bb 59       		.uleb128 0x59
 2801 02bc 05       		.uleb128 0x5
 2802 02bd 01       		.uleb128 0x1
 2803 02be 13       		.uleb128 0x13
 2804 02bf 00       		.byte	0
 2805 02c0 00       		.byte	0
 2806 02c1 36       		.uleb128 0x36
 2807 02c2 34       		.uleb128 0x34
 2808 02c3 00       		.byte	0
 2809 02c4 03       		.uleb128 0x3
 2810 02c5 0E       		.uleb128 0xe
 2811 02c6 3A       		.uleb128 0x3a
 2812 02c7 0B       		.uleb128 0xb
 2813 02c8 3B       		.uleb128 0x3b
 2814 02c9 0B       		.uleb128 0xb
 2815 02ca 49       		.uleb128 0x49
 2816 02cb 13       		.uleb128 0x13
 2817 02cc 3F       		.uleb128 0x3f
 2818 02cd 19       		.uleb128 0x19
 2819 02ce 02       		.uleb128 0x2
 2820 02cf 18       		.uleb128 0x18
 2821 02d0 00       		.byte	0
 2822 02d1 00       		.byte	0
 2823 02d2 37       		.uleb128 0x37
 2824 02d3 2E       		.uleb128 0x2e
 2825 02d4 01       		.byte	0x1
 2826 02d5 3F       		.uleb128 0x3f
 2827 02d6 19       		.uleb128 0x19
 2828 02d7 03       		.uleb128 0x3
 2829 02d8 0E       		.uleb128 0xe
 2830 02d9 3A       		.uleb128 0x3a
 2831 02da 0B       		.uleb128 0xb
 2832 02db 3B       		.uleb128 0x3b
 2833 02dc 05       		.uleb128 0x5
 2834 02dd 27       		.uleb128 0x27
 2835 02de 19       		.uleb128 0x19
 2836 02df 3C       		.uleb128 0x3c
 2837 02e0 19       		.uleb128 0x19
 2838 02e1 01       		.uleb128 0x1
 2839 02e2 13       		.uleb128 0x13
 2840 02e3 00       		.byte	0
 2841 02e4 00       		.byte	0
 2842 02e5 38       		.uleb128 0x38
 2843 02e6 2E       		.uleb128 0x2e
 2844 02e7 01       		.byte	0x1
 2845 02e8 3F       		.uleb128 0x3f
 2846 02e9 19       		.uleb128 0x19
ARM GAS  /tmp/ccz8qndh.s 			page 51


 2847 02ea 03       		.uleb128 0x3
 2848 02eb 0E       		.uleb128 0xe
 2849 02ec 3A       		.uleb128 0x3a
 2850 02ed 0B       		.uleb128 0xb
 2851 02ee 3B       		.uleb128 0x3b
 2852 02ef 0B       		.uleb128 0xb
 2853 02f0 27       		.uleb128 0x27
 2854 02f1 19       		.uleb128 0x19
 2855 02f2 3C       		.uleb128 0x3c
 2856 02f3 19       		.uleb128 0x19
 2857 02f4 01       		.uleb128 0x1
 2858 02f5 13       		.uleb128 0x13
 2859 02f6 00       		.byte	0
 2860 02f7 00       		.byte	0
 2861 02f8 39       		.uleb128 0x39
 2862 02f9 2E       		.uleb128 0x2e
 2863 02fa 01       		.byte	0x1
 2864 02fb 3F       		.uleb128 0x3f
 2865 02fc 19       		.uleb128 0x19
 2866 02fd 03       		.uleb128 0x3
 2867 02fe 0E       		.uleb128 0xe
 2868 02ff 3A       		.uleb128 0x3a
 2869 0300 0B       		.uleb128 0xb
 2870 0301 3B       		.uleb128 0x3b
 2871 0302 0B       		.uleb128 0xb
 2872 0303 27       		.uleb128 0x27
 2873 0304 19       		.uleb128 0x19
 2874 0305 3C       		.uleb128 0x3c
 2875 0306 19       		.uleb128 0x19
 2876 0307 00       		.byte	0
 2877 0308 00       		.byte	0
 2878 0309 00       		.byte	0
 2879              		.section	.debug_loc,"",%progbits
 2880              	.Ldebug_loc0:
 2881              	.LLST0:
 2882 0000 20000000 		.4byte	.LVL1
 2883 0004 36000000 		.4byte	.LVL4
 2884 0008 0100     		.2byte	0x1
 2885 000a 50       		.byte	0x50
 2886 000b 00000000 		.4byte	0
 2887 000f 00000000 		.4byte	0
 2888              	.LLST1:
 2889 0013 22000000 		.4byte	.LVL2
 2890 0017 36000000 		.4byte	.LVL4
 2891 001b 0600     		.2byte	0x6
 2892 001d 03       		.byte	0x3
 2893 001e 00000000 		.4byte	rlist
 2894 0022 9F       		.byte	0x9f
 2895 0023 00000000 		.4byte	0
 2896 0027 00000000 		.4byte	0
 2897              	.LLST2:
 2898 002b 22000000 		.4byte	.LVL2
 2899 002f 36000000 		.4byte	.LVL4
 2900 0033 0100     		.2byte	0x1
 2901 0035 50       		.byte	0x50
 2902 0036 00000000 		.4byte	0
 2903 003a 00000000 		.4byte	0
ARM GAS  /tmp/ccz8qndh.s 			page 52


 2904              	.LLST3:
 2905 003e 22000000 		.4byte	.LVL2
 2906 0042 36000000 		.4byte	.LVL4
 2907 0046 0100     		.2byte	0x1
 2908 0048 52       		.byte	0x52
 2909 0049 00000000 		.4byte	0
 2910 004d 00000000 		.4byte	0
 2911              	.LLST4:
 2912 0051 00000000 		.4byte	.LVL6
 2913 0055 1C000000 		.4byte	.LVL9
 2914 0059 0100     		.2byte	0x1
 2915 005b 50       		.byte	0x50
 2916 005c 1C000000 		.4byte	.LVL9
 2917 0060 24000000 		.4byte	.LVL10
 2918 0064 0100     		.2byte	0x1
 2919 0066 54       		.byte	0x54
 2920 0067 24000000 		.4byte	.LVL10
 2921 006b 2C000000 		.4byte	.LFE8
 2922 006f 0100     		.2byte	0x1
 2923 0071 50       		.byte	0x50
 2924 0072 00000000 		.4byte	0
 2925 0076 00000000 		.4byte	0
 2926              	.LLST5:
 2927 007a 00000000 		.4byte	.LVL11
 2928 007e 10000000 		.4byte	.LVL13
 2929 0082 0100     		.2byte	0x1
 2930 0084 50       		.byte	0x50
 2931 0085 10000000 		.4byte	.LVL13
 2932 0089 16000000 		.4byte	.LVL15
 2933 008d 0200     		.2byte	0x2
 2934 008f 71       		.byte	0x71
 2935 0090 1C       		.sleb128 28
 2936 0091 16000000 		.4byte	.LVL15
 2937 0095 28000000 		.4byte	.LFE9
 2938 0099 0400     		.2byte	0x4
 2939 009b F3       		.byte	0xf3
 2940 009c 01       		.uleb128 0x1
 2941 009d 50       		.byte	0x50
 2942 009e 9F       		.byte	0x9f
 2943 009f 00000000 		.4byte	0
 2944 00a3 00000000 		.4byte	0
 2945              	.LLST6:
 2946 00a7 08000000 		.4byte	.LVL12
 2947 00ab 21000000 		.4byte	.LVL16-1
 2948 00af 0100     		.2byte	0x1
 2949 00b1 51       		.byte	0x51
 2950 00b2 00000000 		.4byte	0
 2951 00b6 00000000 		.4byte	0
 2952              	.LLST7:
 2953 00ba 12000000 		.4byte	.LVL14
 2954 00be 21000000 		.4byte	.LVL16-1
 2955 00c2 0100     		.2byte	0x1
 2956 00c4 52       		.byte	0x52
 2957 00c5 00000000 		.4byte	0
 2958 00c9 00000000 		.4byte	0
 2959              	.LLST8:
 2960 00cd 00000000 		.4byte	.LVL17
ARM GAS  /tmp/ccz8qndh.s 			page 53


 2961 00d1 12000000 		.4byte	.LVL18
 2962 00d5 0100     		.2byte	0x1
 2963 00d7 50       		.byte	0x50
 2964 00d8 12000000 		.4byte	.LVL18
 2965 00dc 2E000000 		.4byte	.LVL22
 2966 00e0 0400     		.2byte	0x4
 2967 00e2 F3       		.byte	0xf3
 2968 00e3 01       		.uleb128 0x1
 2969 00e4 50       		.byte	0x50
 2970 00e5 9F       		.byte	0x9f
 2971 00e6 2E000000 		.4byte	.LVL22
 2972 00ea 33000000 		.4byte	.LVL23-1
 2973 00ee 0100     		.2byte	0x1
 2974 00f0 50       		.byte	0x50
 2975 00f1 33000000 		.4byte	.LVL23-1
 2976 00f5 44000000 		.4byte	.LFE11
 2977 00f9 0400     		.2byte	0x4
 2978 00fb F3       		.byte	0xf3
 2979 00fc 01       		.uleb128 0x1
 2980 00fd 50       		.byte	0x50
 2981 00fe 9F       		.byte	0x9f
 2982 00ff 00000000 		.4byte	0
 2983 0103 00000000 		.4byte	0
 2984              	.LLST9:
 2985 0107 00000000 		.4byte	.LVL17
 2986 010b 15000000 		.4byte	.LVL19-1
 2987 010f 0100     		.2byte	0x1
 2988 0111 51       		.byte	0x51
 2989 0112 15000000 		.4byte	.LVL19-1
 2990 0116 2E000000 		.4byte	.LVL22
 2991 011a 0400     		.2byte	0x4
 2992 011c F3       		.byte	0xf3
 2993 011d 01       		.uleb128 0x1
 2994 011e 51       		.byte	0x51
 2995 011f 9F       		.byte	0x9f
 2996 0120 2E000000 		.4byte	.LVL22
 2997 0124 33000000 		.4byte	.LVL23-1
 2998 0128 0100     		.2byte	0x1
 2999 012a 51       		.byte	0x51
 3000 012b 33000000 		.4byte	.LVL23-1
 3001 012f 44000000 		.4byte	.LFE11
 3002 0133 0400     		.2byte	0x4
 3003 0135 F3       		.byte	0xf3
 3004 0136 01       		.uleb128 0x1
 3005 0137 51       		.byte	0x51
 3006 0138 9F       		.byte	0x9f
 3007 0139 00000000 		.4byte	0
 3008 013d 00000000 		.4byte	0
 3009              	.LLST10:
 3010 0141 00000000 		.4byte	.LVL24
 3011 0145 0C000000 		.4byte	.LVL25
 3012 0149 0100     		.2byte	0x1
 3013 014b 50       		.byte	0x50
 3014 014c 0C000000 		.4byte	.LVL25
 3015 0150 2C000000 		.4byte	.LVL29
 3016 0154 0100     		.2byte	0x1
 3017 0156 55       		.byte	0x55
ARM GAS  /tmp/ccz8qndh.s 			page 54


 3018 0157 2C000000 		.4byte	.LVL29
 3019 015b 2E000000 		.4byte	.LVL30
 3020 015f 0200     		.2byte	0x2
 3021 0161 73       		.byte	0x73
 3022 0162 04       		.sleb128 4
 3023 0163 2E000000 		.4byte	.LVL30
 3024 0167 50000000 		.4byte	.LVL34
 3025 016b 0100     		.2byte	0x1
 3026 016d 55       		.byte	0x55
 3027 016e 50000000 		.4byte	.LVL34
 3028 0172 53000000 		.4byte	.LVL35-1
 3029 0176 0100     		.2byte	0x1
 3030 0178 50       		.byte	0x50
 3031 0179 53000000 		.4byte	.LVL35-1
 3032 017d 58000000 		.4byte	.LFE12
 3033 0181 0400     		.2byte	0x4
 3034 0183 F3       		.byte	0xf3
 3035 0184 01       		.uleb128 0x1
 3036 0185 50       		.byte	0x50
 3037 0186 9F       		.byte	0x9f
 3038 0187 00000000 		.4byte	0
 3039 018b 00000000 		.4byte	0
 3040              	.LLST11:
 3041 018f 00000000 		.4byte	.LVL24
 3042 0193 32000000 		.4byte	.LVL32
 3043 0197 0100     		.2byte	0x1
 3044 0199 51       		.byte	0x51
 3045 019a 32000000 		.4byte	.LVL32
 3046 019e 50000000 		.4byte	.LVL34
 3047 01a2 0200     		.2byte	0x2
 3048 01a4 75       		.byte	0x75
 3049 01a5 24       		.sleb128 36
 3050 01a6 50000000 		.4byte	.LVL34
 3051 01aa 53000000 		.4byte	.LVL35-1
 3052 01ae 0200     		.2byte	0x2
 3053 01b0 70       		.byte	0x70
 3054 01b1 24       		.sleb128 36
 3055 01b2 53000000 		.4byte	.LVL35-1
 3056 01b6 58000000 		.4byte	.LFE12
 3057 01ba 0400     		.2byte	0x4
 3058 01bc F3       		.byte	0xf3
 3059 01bd 01       		.uleb128 0x1
 3060 01be 51       		.byte	0x51
 3061 01bf 9F       		.byte	0x9f
 3062 01c0 00000000 		.4byte	0
 3063 01c4 00000000 		.4byte	0
 3064              	.LLST12:
 3065 01c8 16000000 		.4byte	.LVL26
 3066 01cc 2C000000 		.4byte	.LVL29
 3067 01d0 0100     		.2byte	0x1
 3068 01d2 55       		.byte	0x55
 3069 01d3 2C000000 		.4byte	.LVL29
 3070 01d7 2E000000 		.4byte	.LVL30
 3071 01db 0200     		.2byte	0x2
 3072 01dd 73       		.byte	0x73
 3073 01de 04       		.sleb128 4
 3074 01df 00000000 		.4byte	0
ARM GAS  /tmp/ccz8qndh.s 			page 55


 3075 01e3 00000000 		.4byte	0
 3076              	.LLST13:
 3077 01e7 18000000 		.4byte	.LVL27
 3078 01eb 2E000000 		.4byte	.LVL30
 3079 01ef 0100     		.2byte	0x1
 3080 01f1 53       		.byte	0x53
 3081 01f2 00000000 		.4byte	0
 3082 01f6 00000000 		.4byte	0
 3083              	.LLST14:
 3084 01fa 2E000000 		.4byte	.LVL30
 3085 01fe 50000000 		.4byte	.LVL34
 3086 0202 0100     		.2byte	0x1
 3087 0204 56       		.byte	0x56
 3088 0205 50000000 		.4byte	.LVL34
 3089 0209 53000000 		.4byte	.LVL35-1
 3090 020d 0100     		.2byte	0x1
 3091 020f 51       		.byte	0x51
 3092 0210 00000000 		.4byte	0
 3093 0214 00000000 		.4byte	0
 3094              	.LLST15:
 3095 0218 30000000 		.4byte	.LVL31
 3096 021c 32000000 		.4byte	.LVL32
 3097 0220 0600     		.2byte	0x6
 3098 0222 03       		.byte	0x3
 3099 0223 00000000 		.4byte	rlist
 3100 0227 9F       		.byte	0x9f
 3101 0228 32000000 		.4byte	.LVL32
 3102 022c 53000000 		.4byte	.LVL35-1
 3103 0230 0100     		.2byte	0x1
 3104 0232 52       		.byte	0x52
 3105 0233 00000000 		.4byte	0
 3106 0237 00000000 		.4byte	0
 3107              	.LLST16:
 3108 023b 0A000000 		.4byte	.LVL36
 3109 023f 38000000 		.4byte	.LVL41
 3110 0243 0100     		.2byte	0x1
 3111 0245 54       		.byte	0x54
 3112 0246 38000000 		.4byte	.LVL41
 3113 024a 3B000000 		.4byte	.LVL42-1
 3114 024e 0100     		.2byte	0x1
 3115 0250 51       		.byte	0x51
 3116 0251 00000000 		.4byte	0
 3117 0255 00000000 		.4byte	0
 3118              	.LLST17:
 3119 0259 0A000000 		.4byte	.LVL36
 3120 025d 3B000000 		.4byte	.LVL42-1
 3121 0261 0100     		.2byte	0x1
 3122 0263 50       		.byte	0x50
 3123 0264 00000000 		.4byte	0
 3124 0268 00000000 		.4byte	0
 3125              	.LLST18:
 3126 026c 1E000000 		.4byte	.LVL37
 3127 0270 38000000 		.4byte	.LVL41
 3128 0274 0100     		.2byte	0x1
 3129 0276 54       		.byte	0x54
 3130 0277 38000000 		.4byte	.LVL41
 3131 027b 3B000000 		.4byte	.LVL42-1
ARM GAS  /tmp/ccz8qndh.s 			page 56


 3132 027f 0100     		.2byte	0x1
 3133 0281 51       		.byte	0x51
 3134 0282 00000000 		.4byte	0
 3135 0286 00000000 		.4byte	0
 3136              	.LLST19:
 3137 028a 20000000 		.4byte	.LVL38
 3138 028e 22000000 		.4byte	.LVL39
 3139 0292 0600     		.2byte	0x6
 3140 0294 03       		.byte	0x3
 3141 0295 00000000 		.4byte	rlist
 3142 0299 9F       		.byte	0x9f
 3143 029a 22000000 		.4byte	.LVL39
 3144 029e 3B000000 		.4byte	.LVL42-1
 3145 02a2 0100     		.2byte	0x1
 3146 02a4 53       		.byte	0x53
 3147 02a5 00000000 		.4byte	0
 3148 02a9 00000000 		.4byte	0
 3149              	.LLST20:
 3150 02ad 0A000000 		.4byte	.LVL43
 3151 02b1 34000000 		.4byte	.LVL47
 3152 02b5 0100     		.2byte	0x1
 3153 02b7 54       		.byte	0x54
 3154 02b8 34000000 		.4byte	.LVL47
 3155 02bc 37000000 		.4byte	.LVL48-1
 3156 02c0 0100     		.2byte	0x1
 3157 02c2 51       		.byte	0x51
 3158 02c3 00000000 		.4byte	0
 3159 02c7 00000000 		.4byte	0
 3160              	.LLST21:
 3161 02cb 1C000000 		.4byte	.LVL44
 3162 02cf 1E000000 		.4byte	.LVL45
 3163 02d3 0600     		.2byte	0x6
 3164 02d5 03       		.byte	0x3
 3165 02d6 00000000 		.4byte	rlist
 3166 02da 9F       		.byte	0x9f
 3167 02db 1E000000 		.4byte	.LVL45
 3168 02df 37000000 		.4byte	.LVL48-1
 3169 02e3 0100     		.2byte	0x1
 3170 02e5 53       		.byte	0x53
 3171 02e6 00000000 		.4byte	0
 3172 02ea 00000000 		.4byte	0
 3173              	.LLST22:
 3174 02ee 0A000000 		.4byte	.LVL43
 3175 02f2 37000000 		.4byte	.LVL48-1
 3176 02f6 0100     		.2byte	0x1
 3177 02f8 50       		.byte	0x50
 3178 02f9 00000000 		.4byte	0
 3179 02fd 00000000 		.4byte	0
 3180              		.section	.debug_aranges,"",%progbits
 3181 0000 64000000 		.4byte	0x64
 3182 0004 0200     		.2byte	0x2
 3183 0006 00000000 		.4byte	.Ldebug_info0
 3184 000a 04       		.byte	0x4
 3185 000b 00       		.byte	0
 3186 000c 0000     		.2byte	0
 3187 000e 0000     		.2byte	0
 3188 0010 00000000 		.4byte	.LFB10
ARM GAS  /tmp/ccz8qndh.s 			page 57


 3189 0014 58000000 		.4byte	.LFE10-.LFB10
 3190 0018 00000000 		.4byte	.LFB7
 3191 001c 14000000 		.4byte	.LFE7-.LFB7
 3192 0020 00000000 		.4byte	.LFB8
 3193 0024 2C000000 		.4byte	.LFE8-.LFB8
 3194 0028 00000000 		.4byte	.LFB9
 3195 002c 28000000 		.4byte	.LFE9-.LFB9
 3196 0030 00000000 		.4byte	.LFB11
 3197 0034 44000000 		.4byte	.LFE11-.LFB11
 3198 0038 00000000 		.4byte	.LFB12
 3199 003c 58000000 		.4byte	.LFE12-.LFB12
 3200 0040 00000000 		.4byte	.LFB14
 3201 0044 40000000 		.4byte	.LFE14-.LFB14
 3202 0048 00000000 		.4byte	.LFB15
 3203 004c 3C000000 		.4byte	.LFE15-.LFB15
 3204 0050 00000000 		.4byte	.LFB13
 3205 0054 18000000 		.4byte	.LFE13-.LFB13
 3206 0058 00000000 		.4byte	.LFB16
 3207 005c 14000000 		.4byte	.LFE16-.LFB16
 3208 0060 00000000 		.4byte	0
 3209 0064 00000000 		.4byte	0
 3210              		.section	.debug_ranges,"",%progbits
 3211              	.Ldebug_ranges0:
 3212 0000 18000000 		.4byte	.LBB45
 3213 0004 1C000000 		.4byte	.LBE45
 3214 0008 20000000 		.4byte	.LBB59
 3215 000c 22000000 		.4byte	.LBE59
 3216 0010 00000000 		.4byte	0
 3217 0014 00000000 		.4byte	0
 3218 0018 1C000000 		.4byte	.LBB48
 3219 001c 1E000000 		.4byte	.LBE48
 3220 0020 22000000 		.4byte	.LBB60
 3221 0024 3A000000 		.4byte	.LBE60
 3222 0028 00000000 		.4byte	0
 3223 002c 00000000 		.4byte	0
 3224 0030 1C000000 		.4byte	.LBB50
 3225 0034 1E000000 		.4byte	.LBE50
 3226 0038 22000000 		.4byte	.LBB54
 3227 003c 30000000 		.4byte	.LBE54
 3228 0040 32000000 		.4byte	.LBB56
 3229 0044 36000000 		.4byte	.LBE56
 3230 0048 00000000 		.4byte	0
 3231 004c 00000000 		.4byte	0
 3232 0050 30000000 		.4byte	.LBB55
 3233 0054 32000000 		.4byte	.LBE55
 3234 0058 36000000 		.4byte	.LBB57
 3235 005c 3A000000 		.4byte	.LBE57
 3236 0060 00000000 		.4byte	0
 3237 0064 00000000 		.4byte	0
 3238 0068 04000000 		.4byte	.LBB63
 3239 006c 06000000 		.4byte	.LBE63
 3240 0070 08000000 		.4byte	.LBB68
 3241 0074 0A000000 		.4byte	.LBE68
 3242 0078 12000000 		.4byte	.LBB69
 3243 007c 14000000 		.4byte	.LBE69
 3244 0080 16000000 		.4byte	.LBB70
 3245 0084 18000000 		.4byte	.LBE70
ARM GAS  /tmp/ccz8qndh.s 			page 58


 3246 0088 00000000 		.4byte	0
 3247 008c 00000000 		.4byte	0
 3248 0090 10000000 		.4byte	.LBB72
 3249 0094 14000000 		.4byte	.LBE72
 3250 0098 16000000 		.4byte	.LBB75
 3251 009c 2A000000 		.4byte	.LBE75
 3252 00a0 00000000 		.4byte	0
 3253 00a4 00000000 		.4byte	0
 3254 00a8 2E000000 		.4byte	.LBB76
 3255 00ac 4E000000 		.4byte	.LBE76
 3256 00b0 50000000 		.4byte	.LBB81
 3257 00b4 58000000 		.4byte	.LBE81
 3258 00b8 00000000 		.4byte	0
 3259 00bc 00000000 		.4byte	0
 3260 00c0 2E000000 		.4byte	.LBB77
 3261 00c4 3E000000 		.4byte	.LBE77
 3262 00c8 40000000 		.4byte	.LBB80
 3263 00cc 46000000 		.4byte	.LBE80
 3264 00d0 00000000 		.4byte	0
 3265 00d4 00000000 		.4byte	0
 3266 00d8 02000000 		.4byte	.LBB82
 3267 00dc 04000000 		.4byte	.LBE82
 3268 00e0 06000000 		.4byte	.LBB87
 3269 00e4 08000000 		.4byte	.LBE87
 3270 00e8 0A000000 		.4byte	.LBB88
 3271 00ec 0C000000 		.4byte	.LBE88
 3272 00f0 14000000 		.4byte	.LBB94
 3273 00f4 16000000 		.4byte	.LBE94
 3274 00f8 00000000 		.4byte	0
 3275 00fc 00000000 		.4byte	0
 3276 0100 10000000 		.4byte	.LBB89
 3277 0104 14000000 		.4byte	.LBE89
 3278 0108 18000000 		.4byte	.LBB95
 3279 010c 1A000000 		.4byte	.LBE95
 3280 0110 1E000000 		.4byte	.LBB96
 3281 0114 30000000 		.4byte	.LBE96
 3282 0118 32000000 		.4byte	.LBB97
 3283 011c 36000000 		.4byte	.LBE97
 3284 0120 00000000 		.4byte	0
 3285 0124 00000000 		.4byte	0
 3286 0128 02000000 		.4byte	.LBB98
 3287 012c 04000000 		.4byte	.LBE98
 3288 0130 06000000 		.4byte	.LBB103
 3289 0134 08000000 		.4byte	.LBE103
 3290 0138 0A000000 		.4byte	.LBB104
 3291 013c 0C000000 		.4byte	.LBE104
 3292 0140 12000000 		.4byte	.LBB105
 3293 0144 14000000 		.4byte	.LBE105
 3294 0148 00000000 		.4byte	0
 3295 014c 00000000 		.4byte	0
 3296 0150 00000000 		.4byte	.LFB10
 3297 0154 58000000 		.4byte	.LFE10
 3298 0158 00000000 		.4byte	.LFB7
 3299 015c 14000000 		.4byte	.LFE7
 3300 0160 00000000 		.4byte	.LFB8
 3301 0164 2C000000 		.4byte	.LFE8
 3302 0168 00000000 		.4byte	.LFB9
ARM GAS  /tmp/ccz8qndh.s 			page 59


 3303 016c 28000000 		.4byte	.LFE9
 3304 0170 00000000 		.4byte	.LFB11
 3305 0174 44000000 		.4byte	.LFE11
 3306 0178 00000000 		.4byte	.LFB12
 3307 017c 58000000 		.4byte	.LFE12
 3308 0180 00000000 		.4byte	.LFB14
 3309 0184 40000000 		.4byte	.LFE14
 3310 0188 00000000 		.4byte	.LFB15
 3311 018c 3C000000 		.4byte	.LFE15
 3312 0190 00000000 		.4byte	.LFB13
 3313 0194 18000000 		.4byte	.LFE13
 3314 0198 00000000 		.4byte	.LFB16
 3315 019c 14000000 		.4byte	.LFE16
 3316 01a0 00000000 		.4byte	0
 3317 01a4 00000000 		.4byte	0
 3318              		.section	.debug_line,"",%progbits
 3319              	.Ldebug_line0:
 3320 0000 E5030000 		.section	.debug_str,"MS",%progbits,1
 3320      0200E001 
 3320      00000201 
 3320      FB0E0D00 
 3320      01010101 
 3321              	.LASF38:
 3322 0000 705F6D73 		.ascii	"p_msg\000"
 3322      6700
 3323              	.LASF69:
 3324 0006 7264796D 		.ascii	"rdymsg\000"
 3324      736700
 3325              	.LASF81:
 3326 000d 63685363 		.ascii	"chSchDoRescheduleAhead\000"
 3326      68446F52 
 3326      65736368 
 3326      6564756C 
 3326      65416865 
 3327              	.LASF5:
 3328 0024 5F5F7569 		.ascii	"__uint8_t\000"
 3328      6E74385F 
 3328      7400
 3329              	.LASF11:
 3330 002e 6C6F6E67 		.ascii	"long long unsigned int\000"
 3330      206C6F6E 
 3330      6720756E 
 3330      7369676E 
 3330      65642069 
 3331              	.LASF27:
 3332 0045 705F7072 		.ascii	"p_prio\000"
 3332      696F00
 3333              	.LASF90:
 3334 004c 5F736368 		.ascii	"_scheduler_init\000"
 3334      6564756C 
 3334      65725F69 
 3334      6E697400 
 3335              	.LASF10:
 3336 005c 6C6F6E67 		.ascii	"long long int\000"
 3336      206C6F6E 
 3336      6720696E 
 3336      7400
ARM GAS  /tmp/ccz8qndh.s 			page 60


 3337              	.LASF1:
 3338 006a 7369676E 		.ascii	"signed char\000"
 3338      65642063 
 3338      68617200 
 3339              	.LASF66:
 3340 0076 6D5F7175 		.ascii	"m_queue\000"
 3340      65756500 
 3341              	.LASF18:
 3342 007e 74736C69 		.ascii	"tslices_t\000"
 3342      6365735F 
 3342      7400
 3343              	.LASF7:
 3344 0088 6C6F6E67 		.ascii	"long int\000"
 3344      20696E74 
 3344      00
 3345              	.LASF17:
 3346 0091 74737461 		.ascii	"tstate_t\000"
 3346      74655F74 
 3346      00
 3347              	.LASF29:
 3348 009a 705F6E65 		.ascii	"p_newer\000"
 3348      77657200 
 3349              	.LASF63:
 3350 00a2 735F7175 		.ascii	"s_queue\000"
 3350      65756500 
 3351              	.LASF70:
 3352 00aa 65786974 		.ascii	"exitcode\000"
 3352      636F6465 
 3352      00
 3353              	.LASF82:
 3354 00b3 63685363 		.ascii	"chSchRescheduleS\000"
 3354      68526573 
 3354      63686564 
 3354      756C6553 
 3354      00
 3355              	.LASF8:
 3356 00c4 5F5F7569 		.ascii	"__uint32_t\000"
 3356      6E743332 
 3356      5F7400
 3357              	.LASF44:
 3358 00cf 72656761 		.ascii	"regarm_t\000"
 3358      726D5F74 
 3358      00
 3359              	.LASF51:
 3360 00d8 76745F70 		.ascii	"vt_prev\000"
 3360      72657600 
 3361              	.LASF83:
 3362 00e0 63685363 		.ascii	"chSchDoReschedule\000"
 3362      68446F52 
 3362      65736368 
 3362      6564756C 
 3362      6500
 3363              	.LASF23:
 3364 00f2 636E745F 		.ascii	"cnt_t\000"
 3364      7400
 3365              	.LASF0:
 3366 00f8 756E7369 		.ascii	"unsigned int\000"
ARM GAS  /tmp/ccz8qndh.s 			page 61


 3366      676E6564 
 3366      20696E74 
 3366      00
 3367              	.LASF89:
 3368 0105 77616B65 		.ascii	"wakeup\000"
 3368      757000
 3369              	.LASF50:
 3370 010c 76745F6E 		.ascii	"vt_next\000"
 3370      65787400 
 3371              	.LASF84:
 3372 0114 5F706F72 		.ascii	"_port_switch\000"
 3372      745F7377 
 3372      69746368 
 3372      00
 3373              	.LASF9:
 3374 0121 6C6F6E67 		.ascii	"long unsigned int\000"
 3374      20756E73 
 3374      69676E65 
 3374      6420696E 
 3374      7400
 3375              	.LASF48:
 3376 0133 76746675 		.ascii	"vtfunc_t\000"
 3376      6E635F74 
 3376      00
 3377              	.LASF49:
 3378 013c 56697274 		.ascii	"VirtualTimer\000"
 3378      75616C54 
 3378      696D6572 
 3378      00
 3379              	.LASF64:
 3380 0149 735F636E 		.ascii	"s_cnt\000"
 3380      7400
 3381              	.LASF46:
 3382 014f 636F6E74 		.ascii	"context\000"
 3382      65787400 
 3383              	.LASF4:
 3384 0157 73686F72 		.ascii	"short unsigned int\000"
 3384      7420756E 
 3384      7369676E 
 3384      65642069 
 3384      6E7400
 3385              	.LASF79:
 3386 016a 63685363 		.ascii	"chSchWakeupS\000"
 3386      6857616B 
 3386      65757053 
 3386      00
 3387              	.LASF20:
 3388 0177 6D73675F 		.ascii	"msg_t\000"
 3388      7400
 3389              	.LASF58:
 3390 017d 725F6E65 		.ascii	"r_newer\000"
 3390      77657200 
 3391              	.LASF16:
 3392 0185 746D6F64 		.ascii	"tmode_t\000"
 3392      655F7400 
 3393              	.LASF43:
 3394 018d 54687265 		.ascii	"ThreadsList\000"
ARM GAS  /tmp/ccz8qndh.s 			page 62


 3394      6164734C 
 3394      69737400 
 3395              	.LASF21:
 3396 0199 6576656E 		.ascii	"eventmask_t\000"
 3396      746D6173 
 3396      6B5F7400 
 3397              	.LASF65:
 3398 01a5 4D757465 		.ascii	"Mutex\000"
 3398      7800
 3399              	.LASF52:
 3400 01ab 76745F74 		.ascii	"vt_time\000"
 3400      696D6500 
 3401              	.LASF47:
 3402 01b3 73697A65 		.ascii	"sizetype\000"
 3402      74797065 
 3402      00
 3403              	.LASF53:
 3404 01bc 76745F66 		.ascii	"vt_func\000"
 3404      756E6300 
 3405              	.LASF80:
 3406 01c4 63685363 		.ascii	"chSchDoRescheduleBehind\000"
 3406      68446F52 
 3406      65736368 
 3406      6564756C 
 3406      65426568 
 3407              	.LASF85:
 3408 01dc 63685654 		.ascii	"chVTSetI\000"
 3408      53657449 
 3408      00
 3409              	.LASF30:
 3410 01e5 705F6F6C 		.ascii	"p_older\000"
 3410      64657200 
 3411              	.LASF57:
 3412 01ed 725F6374 		.ascii	"r_ctx\000"
 3412      7800
 3413              	.LASF42:
 3414 01f3 54687265 		.ascii	"ThreadsQueue\000"
 3414      61647351 
 3414      75657565 
 3414      00
 3415              	.LASF74:
 3416 0200 64657175 		.ascii	"dequeue\000"
 3416      65756500 
 3417              	.LASF60:
 3418 0208 725F6375 		.ascii	"r_current\000"
 3418      7272656E 
 3418      7400
 3419              	.LASF59:
 3420 0212 725F6F6C 		.ascii	"r_older\000"
 3420      64657200 
 3421              	.LASF26:
 3422 021a 705F7072 		.ascii	"p_prev\000"
 3422      657600
 3423              	.LASF19:
 3424 0221 74707269 		.ascii	"tprio_t\000"
 3424      6F5F7400 
 3425              	.LASF15:
ARM GAS  /tmp/ccz8qndh.s 			page 63


 3426 0229 5F426F6F 		.ascii	"_Bool\000"
 3426      6C00
 3427              	.LASF13:
 3428 022f 696E7433 		.ascii	"int32_t\000"
 3428      325F7400 
 3429              	.LASF2:
 3430 0237 756E7369 		.ascii	"unsigned char\000"
 3430      676E6564 
 3430      20636861 
 3430      7200
 3431              	.LASF76:
 3432 0245 6E657773 		.ascii	"newstate\000"
 3432      74617465 
 3432      00
 3433              	.LASF40:
 3434 024e 705F6D74 		.ascii	"p_mtxlist\000"
 3434      786C6973 
 3434      7400
 3435              	.LASF3:
 3436 0258 73686F72 		.ascii	"short int\000"
 3436      7420696E 
 3436      7400
 3437              	.LASF32:
 3438 0262 705F7374 		.ascii	"p_state\000"
 3438      61746500 
 3439              	.LASF34:
 3440 026a 705F7072 		.ascii	"p_preempt\000"
 3440      65656D70 
 3440      7400
 3441              	.LASF56:
 3442 0274 725F7072 		.ascii	"r_prio\000"
 3442      696F00
 3443              	.LASF72:
 3444 027b 65776D61 		.ascii	"ewmask\000"
 3444      736B00
 3445              	.LASF25:
 3446 0282 705F6E65 		.ascii	"p_next\000"
 3446      787400
 3447              	.LASF33:
 3448 0289 705F666C 		.ascii	"p_flags\000"
 3448      61677300 
 3449              	.LASF24:
 3450 0291 54687265 		.ascii	"Thread\000"
 3450      616400
 3451              	.LASF93:
 3452 0298 63685654 		.ascii	"chVTResetI\000"
 3452      52657365 
 3452      744900
 3453              	.LASF78:
 3454 02a3 63685363 		.ascii	"chSchGoSleepS\000"
 3454      68476F53 
 3454      6C656570 
 3454      5300
 3455              	.LASF39:
 3456 02b1 705F6570 		.ascii	"p_epending\000"
 3456      656E6469 
 3456      6E6700
ARM GAS  /tmp/ccz8qndh.s 			page 64


 3457              	.LASF14:
 3458 02bc 75696E74 		.ascii	"uint32_t\000"
 3458      33325F74 
 3458      00
 3459              	.LASF55:
 3460 02c5 725F7175 		.ascii	"r_queue\000"
 3460      65756500 
 3461              	.LASF73:
 3462 02cd 63686172 		.ascii	"char\000"
 3462      00
 3463              	.LASF75:
 3464 02d2 6669666F 		.ascii	"fifo_remove\000"
 3464      5F72656D 
 3464      6F766500 
 3465              	.LASF88:
 3466 02de 63685363 		.ascii	"chSchReadyI\000"
 3466      68526561 
 3466      64794900 
 3467              	.LASF68:
 3468 02ea 6D5F6E65 		.ascii	"m_next\000"
 3468      787400
 3469              	.LASF22:
 3470 02f1 73797374 		.ascii	"systime_t\000"
 3470      696D655F 
 3470      7400
 3471              	.LASF41:
 3472 02fb 705F7265 		.ascii	"p_realprio\000"
 3472      616C7072 
 3472      696F00
 3473              	.LASF6:
 3474 0306 5F5F696E 		.ascii	"__int32_t\000"
 3474      7433325F 
 3474      7400
 3475              	.LASF35:
 3476 0310 705F7469 		.ascii	"p_time\000"
 3476      6D6500
 3477              	.LASF45:
 3478 0317 696E7463 		.ascii	"intctx\000"
 3478      747800
 3479              	.LASF37:
 3480 031e 705F6D73 		.ascii	"p_msgqueue\000"
 3480      67717565 
 3480      756500
 3481              	.LASF77:
 3482 0329 74696D65 		.ascii	"time\000"
 3482      00
 3483              	.LASF86:
 3484 032e 474E5520 		.ascii	"GNU C 4.9.3 20150529 (release) [ARM/embedded-4_9-br"
 3484      4320342E 
 3484      392E3320 
 3484      32303135 
 3484      30353239 
 3485 0361 616E6368 		.ascii	"anch revision 224288] -mcpu=cortex-m4 -mfloat-abi=h"
 3485      20726576 
 3485      6973696F 
 3485      6E203232 
 3485      34323838 
ARM GAS  /tmp/ccz8qndh.s 			page 65


 3486 0394 61726420 		.ascii	"ard -mfpu=fpv4-sp-d16 -mno-thumb-interwork -mthumb "
 3486      2D6D6670 
 3486      753D6670 
 3486      76342D73 
 3486      702D6431 
 3487 03c7 2D676764 		.ascii	"-ggdb -O2 -fomit-frame-pointer -falign-functions=16"
 3487      62202D4F 
 3487      32202D66 
 3487      6F6D6974 
 3487      2D667261 
 3488 03fa 202D6666 		.ascii	" -ffunction-sections -fdata-sections -fno-common -f"
 3488      756E6374 
 3488      696F6E2D 
 3488      73656374 
 3488      696F6E73 
 3489 042d 73696E67 		.ascii	"single-precision-constant\000"
 3489      6C652D70 
 3489      72656369 
 3489      73696F6E 
 3489      2D636F6E 
 3490              	.LASF54:
 3491 0447 76745F70 		.ascii	"vt_par\000"
 3491      617200
 3492              	.LASF62:
 3493 044e 53656D61 		.ascii	"Semaphore\000"
 3493      70686F72 
 3493      6500
 3494              	.LASF61:
 3495 0458 52656164 		.ascii	"ReadyList\000"
 3495      794C6973 
 3495      7400
 3496              	.LASF92:
 3497 0462 726C6973 		.ascii	"rlist\000"
 3497      7400
 3498              	.LASF12:
 3499 0468 75696E74 		.ascii	"uint8_t\000"
 3499      385F7400 
 3500              	.LASF71:
 3501 0470 77746F62 		.ascii	"wtobjp\000"
 3501      6A7000
 3502              	.LASF31:
 3503 0477 705F6E61 		.ascii	"p_name\000"
 3503      6D6500
 3504              	.LASF91:
 3505 047e 63685363 		.ascii	"chSchGoSleepTimeoutS\000"
 3505      68476F53 
 3505      6C656570 
 3505      54696D65 
 3505      6F757453 
 3506              	.LASF87:
 3507 0493 2F645F64 		.ascii	"/d_drive/axoloti/platform_linux/../chibios/os/kerne"
 3507      72697665 
 3507      2F61786F 
 3507      6C6F7469 
 3507      2F706C61 
 3508 04c6 6C2F7372 		.ascii	"l/src/chschd.c\000"
 3508      632F6368 
ARM GAS  /tmp/ccz8qndh.s 			page 66


 3508      73636864 
 3508      2E6300
 3509              	.LASF67:
 3510 04d5 6D5F6F77 		.ascii	"m_owner\000"
 3510      6E657200 
 3511              	.LASF28:
 3512 04dd 705F6374 		.ascii	"p_ctx\000"
 3512      7800
 3513              	.LASF36:
 3514 04e3 705F7761 		.ascii	"p_waiting\000"
 3514      6974696E 
 3514      6700
 3515              		.ident	"GCC: (GNU Tools for ARM Embedded Processors) 4.9.3 20150529 (release) [ARM/embedded-4_9-br
ARM GAS  /tmp/ccz8qndh.s 			page 67


DEFINED SYMBOLS
                            *ABS*:00000000 chschd.c
     /tmp/ccz8qndh.s:21     .text.wakeup:00000000 $t
     /tmp/ccz8qndh.s:26     .text.wakeup:00000000 wakeup
     /tmp/ccz8qndh.s:152    .text.wakeup:00000054 $d
     /tmp/ccz8qndh.s:159    .text._scheduler_init:00000000 $t
     /tmp/ccz8qndh.s:165    .text._scheduler_init:00000000 _scheduler_init
     /tmp/ccz8qndh.s:188    .text._scheduler_init:00000010 $d
     /tmp/ccz8qndh.s:193    .text.chSchReadyI:00000000 $t
     /tmp/ccz8qndh.s:199    .text.chSchReadyI:00000000 chSchReadyI
     /tmp/ccz8qndh.s:249    .text.chSchReadyI:00000028 $d
     /tmp/ccz8qndh.s:254    .text.chSchGoSleepS:00000000 $t
     /tmp/ccz8qndh.s:260    .text.chSchGoSleepS:00000000 chSchGoSleepS
     /tmp/ccz8qndh.s:329    .text.chSchGoSleepS:00000024 $d
     /tmp/ccz8qndh.s:334    .text.chSchGoSleepTimeoutS:00000000 $t
     /tmp/ccz8qndh.s:340    .text.chSchGoSleepTimeoutS:00000000 chSchGoSleepTimeoutS
     /tmp/ccz8qndh.s:409    .text.chSchGoSleepTimeoutS:0000003c $d
     /tmp/ccz8qndh.s:415    .text.chSchWakeupS:00000000 $t
     /tmp/ccz8qndh.s:421    .text.chSchWakeupS:00000000 chSchWakeupS
     /tmp/ccz8qndh.s:551    .text.chSchWakeupS:00000054 $d
     /tmp/ccz8qndh.s:557    .text.chSchDoRescheduleBehind:00000000 $t
     /tmp/ccz8qndh.s:563    .text.chSchDoRescheduleBehind:00000000 chSchDoRescheduleBehind
     /tmp/ccz8qndh.s:675    .text.chSchDoRescheduleBehind:0000003c $d
     /tmp/ccz8qndh.s:680    .text.chSchDoRescheduleAhead:00000000 $t
     /tmp/ccz8qndh.s:686    .text.chSchDoRescheduleAhead:00000000 chSchDoRescheduleAhead
     /tmp/ccz8qndh.s:775    .text.chSchDoRescheduleAhead:00000038 $d
     /tmp/ccz8qndh.s:780    .text.chSchRescheduleS:00000000 $t
     /tmp/ccz8qndh.s:786    .text.chSchRescheduleS:00000000 chSchRescheduleS
     /tmp/ccz8qndh.s:809    .text.chSchRescheduleS:00000014 $d
     /tmp/ccz8qndh.s:814    .text.chSchDoReschedule:00000000 $t
     /tmp/ccz8qndh.s:820    .text.chSchDoReschedule:00000000 chSchDoReschedule
     /tmp/ccz8qndh.s:842    .text.chSchDoReschedule:00000010 $d
     /tmp/ccz8qndh.s:852    .bss.rlist:00000000 rlist
     /tmp/ccz8qndh.s:848    .bss.rlist:00000000 $d
                     .debug_frame:00000010 $d

UNDEFINED SYMBOLS
_port_switch
chVTSetI
chVTResetI
