ARM GAS  /tmp/ccz8qndh.s 			page 1


   1              		.syntax unified
   2              		.cpu cortex-m4
   3              		.eabi_attribute 27, 1
   4              		.eabi_attribute 28, 1
   5              		.fpu fpv4-sp-d16
   6              		.eabi_attribute 20, 1
   7              		.eabi_attribute 21, 1
   8              		.eabi_attribute 23, 3
   9              		.eabi_attribute 24, 1
  10              		.eabi_attribute 25, 1
  11              		.eabi_attribute 26, 1
  12              		.eabi_attribute 30, 2
  13              		.eabi_attribute 34, 1
  14              		.eabi_attribute 18, 4
  15              		.thumb
  16              		.file	"chschd.c"
  17              		.text
  18              	.Ltext0:
  19              		.cfi_sections	.debug_frame
  20              		.section	.text.wakeup,"ax",%progbits
  21              		.align	2
  22              		.p2align 4,,15
  23              		.thumb
  24              		.thumb_func
  25              		.type	wakeup, %function
  26              	wakeup:
  27              	.LFB10:
  28              		.file 1 "/d_drive/axoloti/platform_linux/../chibios/os/kernel/src/chschd.c"
  29              		.loc 1 136 0
  30              		.cfi_startproc
  31              		@ args = 0, pretend = 0, frame = 0
  32              		@ frame_needed = 0, uses_anonymous_args = 0
  33              		@ link register save eliminated.
  34              	.LVL0:
  35 0000 10B4     		push	{r4}
  36              		.cfi_def_cfa_offset 4
  37              		.cfi_offset 4, -4
  38              	.LBB44:
  39              		.loc 1 139 0
  40 0002 2023     		movs	r3, #32
  41              	@ 139 "/d_drive/axoloti/platform_linux/../chibios/os/kernel/src/chschd.c" 1
  42 0004 83F31188 		msr     BASEPRI, r3
  43              	@ 0 "" 2
  44              		.thumb
  45              	.LBE44:
  46              		.loc 1 140 0
  47 0008 037F     		ldrb	r3, [r0, #28]	@ zero_extendqisi2
  48 000a 032B     		cmp	r3, #3
  49 000c 18D0     		beq	.L3
  50 000e 0D2B     		cmp	r3, #13
  51 0010 1AD0     		beq	.L4
  52 0012 83B1     		cbz	r3, .L13
  53              	.L2:
  54              		.loc 1 163 0
  55 0014 4FF0FF34 		mov	r4, #-1
  56              	.LBB45:
  57              	.LBB46:
ARM GAS  /tmp/ccz8qndh.s 			page 2


  58              		.loc 1 92 0
  59 0018 0023     		movs	r3, #0
  60 001a 8168     		ldr	r1, [r0, #8]
  61              	.LBE46:
  62              	.LBE45:
  63              	.LBB48:
  64              	.LBB49:
  65              	.LBB50:
  66              	.LBB51:
  67              		.loc 1 93 0
  68 001c 0D4A     		ldr	r2, .L15
  69              	.LBE51:
  70              	.LBE50:
  71              	.LBE49:
  72              	.LBE48:
  73              		.loc 1 163 0
  74 001e 4462     		str	r4, [r0, #36]
  75              	.LVL1:
  76              	.LBB59:
  77              	.LBB47:
  78              		.loc 1 92 0
  79 0020 0377     		strb	r3, [r0, #28]
  80              	.LVL2:
  81              	.L7:
  82              	.LBE47:
  83              	.LBE59:
  84              	.LBB60:
  85              	.LBB58:
  86              	.LBB54:
  87              	.LBB52:
  88              		.loc 1 95 0
  89 0022 1268     		ldr	r2, [r2]
  90              	.LVL3:
  91              		.loc 1 96 0
  92 0024 9368     		ldr	r3, [r2, #8]
  93 0026 8B42     		cmp	r3, r1
  94 0028 FBD2     		bcs	.L7
  95              		.loc 1 99 0
  96 002a 5168     		ldr	r1, [r2, #4]
  97 002c 4160     		str	r1, [r0, #4]
  98              		.loc 1 98 0
  99 002e 0260     		str	r2, [r0]
 100              	.LBE52:
 101              	.LBE54:
 102              	.LBB55:
 103              		.loc 1 165 0
 104 0030 0023     		movs	r3, #0
 105              	.LBE55:
 106              	.LBB56:
 107              	.LBB53:
 108              		.loc 1 100 0
 109 0032 5060     		str	r0, [r2, #4]
 110 0034 0860     		str	r0, [r1]
 111              	.LVL4:
 112              	.L13:
 113              	.LBE53:
 114              	.LBE56:
ARM GAS  /tmp/ccz8qndh.s 			page 3


 115              	.LBB57:
 116              		.loc 1 165 0
 117              	@ 165 "/d_drive/axoloti/platform_linux/../chibios/os/kernel/src/chschd.c" 1
 118 0036 83F31188 		msr     BASEPRI, r3
 119              	@ 0 "" 2
 120              		.thumb
 121              	.LBE57:
 122              	.LBE58:
 123              	.LBE60:
 124              		.loc 1 166 0
 125 003a 5DF8044B 		ldr	r4, [sp], #4
 126              		.cfi_remember_state
 127              		.cfi_restore 4
 128              		.cfi_def_cfa_offset 0
 129 003e 7047     		bx	lr
 130              	.L3:
 131              		.cfi_restore_state
 132              		.loc 1 150 0
 133 0040 426A     		ldr	r2, [r0, #36]
 134 0042 9368     		ldr	r3, [r2, #8]
 135 0044 0133     		adds	r3, r3, #1
 136 0046 9360     		str	r3, [r2, #8]
 137              	.L4:
 138              	.LVL5:
 139              	.LBB61:
 140              	.LBB62:
 141              		.file 2 "/d_drive/axoloti/platform_linux/../chibios/os/kernel/include/chinline.h"
 142              		.loc 2 75 0
 143 0048 90E80C00 		ldmia	r0, {r2, r3}
 144 004c 1A60     		str	r2, [r3]
 145              		.loc 2 76 0
 146 004e 0268     		ldr	r2, [r0]
 147 0050 5360     		str	r3, [r2, #4]
 148 0052 DFE7     		b	.L2
 149              	.L16:
 150              		.align	2
 151              	.L15:
 152 0054 00000000 		.word	.LANCHOR0
 153              	.LBE62:
 154              	.LBE61:
 155              		.cfi_endproc
 156              	.LFE10:
 157              		.size	wakeup, .-wakeup
 158              		.section	.text._scheduler_init,"ax",%progbits
 159              		.align	2
 160              		.p2align 4,,15
 161              		.global	_scheduler_init
 162              		.thumb
 163              		.thumb_func
 164              		.type	_scheduler_init, %function
 165              	_scheduler_init:
 166              	.LFB7:
 167              		.loc 1 55 0
 168              		.cfi_startproc
 169              		@ args = 0, pretend = 0, frame = 0
 170              		@ frame_needed = 0, uses_anonymous_args = 0
 171              		@ link register save eliminated.
ARM GAS  /tmp/ccz8qndh.s 			page 4


 172              		.loc 1 57 0
 173 0000 034B     		ldr	r3, .L18
 174              		.loc 1 58 0
 175 0002 0022     		movs	r2, #0
 176              		.loc 1 57 0
 177 0004 5B60     		str	r3, [r3, #4]
 178 0006 1B60     		str	r3, [r3]
 179              		.loc 1 60 0
 180 0008 5B61     		str	r3, [r3, #20]
 181 000a 1B61     		str	r3, [r3, #16]
 182              		.loc 1 58 0
 183 000c 9A60     		str	r2, [r3, #8]
 184 000e 7047     		bx	lr
 185              	.L19:
 186              		.align	2
 187              	.L18:
 188 0010 00000000 		.word	.LANCHOR0
 189              		.cfi_endproc
 190              	.LFE7:
 191              		.size	_scheduler_init, .-_scheduler_init
 192              		.section	.text.chSchReadyI,"ax",%progbits
 193              		.align	2
 194              		.p2align 4,,15
 195              		.global	chSchReadyI
 196              		.thumb
 197              		.thumb_func
 198              		.type	chSchReadyI, %function
 199              	chSchReadyI:
 200              	.LFB8:
 201              		.loc 1 81 0
 202              		.cfi_startproc
 203              		@ args = 0, pretend = 0, frame = 0
 204              		@ frame_needed = 0, uses_anonymous_args = 0
 205              		@ link register save eliminated.
 206              	.LVL6:
 207              		.loc 1 92 0
 208 0000 0022     		movs	r2, #0
 209 0002 8168     		ldr	r1, [r0, #8]
 210              		.loc 1 93 0
 211 0004 084B     		ldr	r3, .L24
 212              		.loc 1 81 0
 213 0006 10B4     		push	{r4}
 214              		.cfi_def_cfa_offset 4
 215              		.cfi_offset 4, -4
 216              		.loc 1 81 0
 217 0008 0446     		mov	r4, r0
 218              		.loc 1 92 0
 219 000a 0277     		strb	r2, [r0, #28]
 220              	.LVL7:
 221              	.L21:
 222              		.loc 1 95 0 discriminator 1
 223 000c 1B68     		ldr	r3, [r3]
 224              	.LVL8:
 225              		.loc 1 96 0 discriminator 1
 226 000e 9A68     		ldr	r2, [r3, #8]
 227 0010 8A42     		cmp	r2, r1
 228 0012 FBD2     		bcs	.L21
ARM GAS  /tmp/ccz8qndh.s 			page 5


 229              		.loc 1 99 0
 230 0014 5A68     		ldr	r2, [r3, #4]
 231 0016 6260     		str	r2, [r4, #4]
 232              		.loc 1 98 0
 233 0018 2360     		str	r3, [r4]
 234              		.loc 1 102 0
 235 001a 2046     		mov	r0, r4
 236              	.LVL9:
 237              		.loc 1 100 0
 238 001c 5C60     		str	r4, [r3, #4]
 239 001e 1460     		str	r4, [r2]
 240              		.loc 1 102 0
 241 0020 5DF8044B 		ldr	r4, [sp], #4
 242              		.cfi_restore 4
 243              		.cfi_def_cfa_offset 0
 244              	.LVL10:
 245 0024 7047     		bx	lr
 246              	.L25:
 247 0026 00BF     		.align	2
 248              	.L24:
 249 0028 00000000 		.word	.LANCHOR0
 250              		.cfi_endproc
 251              	.LFE8:
 252              		.size	chSchReadyI, .-chSchReadyI
 253              		.section	.text.chSchGoSleepS,"ax",%progbits
 254              		.align	2
 255              		.p2align 4,,15
 256              		.global	chSchGoSleepS
 257              		.thumb
 258              		.thumb_func
 259              		.type	chSchGoSleepS, %function
 260              	chSchGoSleepS:
 261              	.LFB9:
 262              		.loc 1 115 0
 263              		.cfi_startproc
 264              		@ args = 0, pretend = 0, frame = 0
 265              		@ frame_needed = 0, uses_anonymous_args = 0
 266              		@ link register save eliminated.
 267              	.LVL11:
 268              		.loc 1 120 0
 269 0000 084B     		ldr	r3, .L28
 270              		.loc 1 115 0
 271 0002 30B4     		push	{r4, r5}
 272              		.cfi_def_cfa_offset 8
 273              		.cfi_offset 4, -8
 274              		.cfi_offset 5, -4
 275              	.LBB63:
 276              	.LBB64:
 277              		.loc 2 60 0
 278 0004 1A68     		ldr	r2, [r3]
 279              	.LBE64:
 280              	.LBE63:
 281              		.loc 1 120 0
 282 0006 9969     		ldr	r1, [r3, #24]
 283              	.LVL12:
 284              	.LBB68:
 285              	.LBB65:
ARM GAS  /tmp/ccz8qndh.s 			page 6


 286              		.loc 2 62 0
 287 0008 1468     		ldr	r4, [r2]
 288              	.LBE65:
 289              	.LBE68:
 290              		.loc 1 120 0
 291 000a 0877     		strb	r0, [r1, #28]
 292              		.loc 1 127 0
 293 000c 0125     		movs	r5, #1
 294              		.loc 1 124 0
 295 000e 1420     		movs	r0, #20
 296              	.LVL13:
 297 0010 8877     		strb	r0, [r1, #30]
 298              	.LVL14:
 299              	.LBB69:
 300              	.LBB66:
 301              		.loc 2 62 0
 302 0012 6360     		str	r3, [r4, #4]
 303              	.LBE66:
 304              	.LBE69:
 305              		.loc 1 127 0
 306 0014 1577     		strb	r5, [r2, #28]
 307              	.LVL15:
 308              	.LBB70:
 309              	.LBB67:
 310              		.loc 2 62 0
 311 0016 1C60     		str	r4, [r3]
 312              	.LBE67:
 313              	.LBE70:
 314              		.loc 1 128 0
 315 0018 1046     		mov	r0, r2
 316              		.loc 1 129 0
 317 001a 30BC     		pop	{r4, r5}
 318              		.cfi_restore 5
 319              		.cfi_restore 4
 320              		.cfi_def_cfa_offset 0
 321              		.loc 1 126 0
 322 001c 9A61     		str	r2, [r3, #24]
 323              		.loc 1 128 0
 324 001e FFF7FEBF 		b	_port_switch
 325              	.LVL16:
 326              	.L29:
 327 0022 00BF     		.align	2
 328              	.L28:
 329 0024 00000000 		.word	.LANCHOR0
 330              		.cfi_endproc
 331              	.LFE9:
 332              		.size	chSchGoSleepS, .-chSchGoSleepS
 333              		.section	.text.chSchGoSleepTimeoutS,"ax",%progbits
 334              		.align	2
 335              		.p2align 4,,15
 336              		.global	chSchGoSleepTimeoutS
 337              		.thumb
 338              		.thumb_func
 339              		.type	chSchGoSleepTimeoutS, %function
 340              	chSchGoSleepTimeoutS:
 341              	.LFB11:
 342              		.loc 1 189 0
ARM GAS  /tmp/ccz8qndh.s 			page 7


 343              		.cfi_startproc
 344              		@ args = 0, pretend = 0, frame = 24
 345              		@ frame_needed = 0, uses_anonymous_args = 0
 346              	.LVL17:
 347 0000 30B5     		push	{r4, r5, lr}
 348              		.cfi_def_cfa_offset 12
 349              		.cfi_offset 4, -12
 350              		.cfi_offset 5, -8
 351              		.cfi_offset 14, -4
 352              		.loc 1 193 0
 353 0002 4B1C     		adds	r3, r1, #1
 354              		.loc 1 189 0
 355 0004 87B0     		sub	sp, sp, #28
 356              		.cfi_def_cfa_offset 40
 357              		.loc 1 193 0
 358 0006 12D0     		beq	.L31
 359              	.LBB71:
 360              		.loc 1 196 0
 361 0008 0C4C     		ldr	r4, .L38
 362 000a 0D4A     		ldr	r2, .L38+4
 363 000c A369     		ldr	r3, [r4, #24]
 364 000e 0546     		mov	r5, r0
 365 0010 01A8     		add	r0, sp, #4
 366              	.LVL18:
 367 0012 FFF7FEFF 		bl	chVTSetI
 368              	.LVL19:
 369              		.loc 1 197 0
 370 0016 2846     		mov	r0, r5
 371 0018 FFF7FEFF 		bl	chSchGoSleepS
 372              	.LVL20:
 373              		.loc 1 198 0
 374 001c 049B     		ldr	r3, [sp, #16]
 375 001e 13B1     		cbz	r3, .L33
 376              		.loc 1 199 0
 377 0020 01A8     		add	r0, sp, #4
 378 0022 FFF7FEFF 		bl	chVTResetI
 379              	.LVL21:
 380              	.L33:
 381              	.LBE71:
 382              		.loc 1 203 0
 383 0026 A369     		ldr	r3, [r4, #24]
 384              		.loc 1 204 0
 385 0028 586A     		ldr	r0, [r3, #36]
 386 002a 07B0     		add	sp, sp, #28
 387              		.cfi_remember_state
 388              		.cfi_def_cfa_offset 12
 389              		@ sp needed
 390 002c 30BD     		pop	{r4, r5, pc}
 391              	.LVL22:
 392              	.L31:
 393              		.cfi_restore_state
 394 002e 034C     		ldr	r4, .L38
 395              		.loc 1 202 0
 396 0030 FFF7FEFF 		bl	chSchGoSleepS
 397              	.LVL23:
 398              		.loc 1 203 0
 399 0034 A369     		ldr	r3, [r4, #24]
ARM GAS  /tmp/ccz8qndh.s 			page 8


 400              		.loc 1 204 0
 401 0036 586A     		ldr	r0, [r3, #36]
 402 0038 07B0     		add	sp, sp, #28
 403              		.cfi_def_cfa_offset 12
 404              		@ sp needed
 405 003a 30BD     		pop	{r4, r5, pc}
 406              	.L39:
 407              		.align	2
 408              	.L38:
 409 003c 00000000 		.word	.LANCHOR0
 410 0040 00000000 		.word	wakeup
 411              		.cfi_endproc
 412              	.LFE11:
 413              		.size	chSchGoSleepTimeoutS, .-chSchGoSleepTimeoutS
 414              		.section	.text.chSchWakeupS,"ax",%progbits
 415              		.align	2
 416              		.p2align 4,,15
 417              		.global	chSchWakeupS
 418              		.thumb
 419              		.thumb_func
 420              		.type	chSchWakeupS, %function
 421              	chSchWakeupS:
 422              	.LFB12:
 423              		.loc 1 225 0
 424              		.cfi_startproc
 425              		@ args = 0, pretend = 0, frame = 0
 426              		@ frame_needed = 0, uses_anonymous_args = 0
 427              		@ link register save eliminated.
 428              	.LVL24:
 429              		.loc 1 234 0
 430 0000 144B     		ldr	r3, .L49
 431              		.loc 1 225 0
 432 0002 F0B4     		push	{r4, r5, r6, r7}
 433              		.cfi_def_cfa_offset 16
 434              		.cfi_offset 4, -16
 435              		.cfi_offset 5, -12
 436              		.cfi_offset 6, -8
 437              		.cfi_offset 7, -4
 438              		.loc 1 234 0
 439 0004 9E69     		ldr	r6, [r3, #24]
 440 0006 8468     		ldr	r4, [r0, #8]
 441              		.loc 1 225 0
 442 0008 0546     		mov	r5, r0
 443              		.loc 1 234 0
 444 000a B068     		ldr	r0, [r6, #8]
 445              	.LVL25:
 446              		.loc 1 229 0
 447 000c 6962     		str	r1, [r5, #36]
 448              		.loc 1 234 0
 449 000e 8442     		cmp	r4, r0
 450              	.LBB72:
 451              	.LBB73:
 452              		.loc 1 92 0
 453 0010 4FF00002 		mov	r2, #0
 454              	.LBE73:
 455              	.LBE72:
 456              		.loc 1 234 0
ARM GAS  /tmp/ccz8qndh.s 			page 9


 457 0014 0BD8     		bhi	.L41
 458              	.LVL26:
 459              	.LBB75:
 460              	.LBB74:
 461              		.loc 1 92 0
 462 0016 2A77     		strb	r2, [r5, #28]
 463              	.LVL27:
 464              	.L42:
 465              		.loc 1 95 0
 466 0018 1B68     		ldr	r3, [r3]
 467              	.LVL28:
 468              		.loc 1 96 0
 469 001a 9A68     		ldr	r2, [r3, #8]
 470 001c 9442     		cmp	r4, r2
 471 001e FBD9     		bls	.L42
 472              		.loc 1 99 0
 473 0020 5A68     		ldr	r2, [r3, #4]
 474 0022 6A60     		str	r2, [r5, #4]
 475              		.loc 1 98 0
 476 0024 2B60     		str	r3, [r5]
 477              		.loc 1 100 0
 478 0026 5D60     		str	r5, [r3, #4]
 479 0028 1560     		str	r5, [r2]
 480              	.LBE74:
 481              	.LBE75:
 482              		.loc 1 242 0
 483 002a F0BC     		pop	{r4, r5, r6, r7}
 484              		.cfi_remember_state
 485              		.cfi_restore 7
 486              		.cfi_restore 6
 487              		.cfi_restore 5
 488              		.cfi_restore 4
 489              		.cfi_def_cfa_offset 0
 490              	.LVL29:
 491 002c 7047     		bx	lr
 492              	.LVL30:
 493              	.L41:
 494              		.cfi_restore_state
 495              	.LBB76:
 496              	.LBB77:
 497              	.LBB78:
 498              		.loc 1 92 0
 499 002e 3277     		strb	r2, [r6, #28]
 500              	.LVL31:
 501              		.loc 1 93 0
 502 0030 1A46     		mov	r2, r3
 503              	.LVL32:
 504              	.L44:
 505              		.loc 1 95 0
 506 0032 1268     		ldr	r2, [r2]
 507              	.LVL33:
 508              		.loc 1 96 0
 509 0034 9168     		ldr	r1, [r2, #8]
 510 0036 8842     		cmp	r0, r1
 511 0038 FBD9     		bls	.L44
 512              		.loc 1 99 0
 513 003a 5468     		ldr	r4, [r2, #4]
ARM GAS  /tmp/ccz8qndh.s 			page 10


 514 003c 7460     		str	r4, [r6, #4]
 515              	.LBE78:
 516              	.LBE77:
 517              		.loc 1 239 0
 518 003e 0127     		movs	r7, #1
 519              	.LBB80:
 520              	.LBB79:
 521              		.loc 1 98 0
 522 0040 3260     		str	r2, [r6]
 523              		.loc 1 100 0
 524 0042 5660     		str	r6, [r2, #4]
 525 0044 2660     		str	r6, [r4]
 526              	.LBE79:
 527              	.LBE80:
 528              		.loc 1 239 0
 529 0046 2F77     		strb	r7, [r5, #28]
 530              		.loc 1 240 0
 531 0048 3146     		mov	r1, r6
 532 004a 2846     		mov	r0, r5
 533              		.loc 1 238 0
 534 004c 9D61     		str	r5, [r3, #24]
 535              	.LBE76:
 536              		.loc 1 242 0
 537 004e F0BC     		pop	{r4, r5, r6, r7}
 538              		.cfi_restore 7
 539              		.cfi_restore 6
 540              		.cfi_restore 5
 541              		.cfi_restore 4
 542              		.cfi_def_cfa_offset 0
 543              	.LVL34:
 544              	.LBB81:
 545              		.loc 1 240 0
 546 0050 FFF7FEBF 		b	_port_switch
 547              	.LVL35:
 548              	.L50:
 549              		.align	2
 550              	.L49:
 551 0054 00000000 		.word	.LANCHOR0
 552              	.LBE81:
 553              		.cfi_endproc
 554              	.LFE12:
 555              		.size	chSchWakeupS, .-chSchWakeupS
 556              		.section	.text.chSchDoRescheduleBehind,"ax",%progbits
 557              		.align	2
 558              		.p2align 4,,15
 559              		.global	chSchDoRescheduleBehind
 560              		.thumb
 561              		.thumb_func
 562              		.type	chSchDoRescheduleBehind, %function
 563              	chSchDoRescheduleBehind:
 564              	.LFB14:
 565              		.loc 1 304 0
 566              		.cfi_startproc
 567              		@ args = 0, pretend = 0, frame = 0
 568              		@ frame_needed = 0, uses_anonymous_args = 0
 569              		@ link register save eliminated.
 570              		.loc 1 307 0
ARM GAS  /tmp/ccz8qndh.s 			page 11


 571 0000 0E4A     		ldr	r2, .L56
 572              	.LBB82:
 573              	.LBB83:
 574              		.loc 2 60 0
 575 0002 1068     		ldr	r0, [r2]
 576              	.LBE83:
 577              	.LBE82:
 578              		.loc 1 304 0
 579 0004 F0B4     		push	{r4, r5, r6, r7}
 580              		.cfi_def_cfa_offset 16
 581              		.cfi_offset 4, -16
 582              		.cfi_offset 5, -12
 583              		.cfi_offset 6, -8
 584              		.cfi_offset 7, -4
 585              	.LBB87:
 586              	.LBB84:
 587              		.loc 2 62 0
 588 0006 0368     		ldr	r3, [r0]
 589              	.LBE84:
 590              	.LBE87:
 591              		.loc 1 307 0
 592 0008 9469     		ldr	r4, [r2, #24]
 593              	.LVL36:
 594              	.LBB88:
 595              	.LBB85:
 596              		.loc 2 62 0
 597 000a 1360     		str	r3, [r2]
 598              	.LBE85:
 599              	.LBE88:
 600              		.loc 1 310 0
 601 000c 0127     		movs	r7, #1
 602              		.loc 1 312 0
 603 000e 1426     		movs	r6, #20
 604              	.LBB89:
 605              	.LBB90:
 606              		.loc 1 92 0
 607 0010 0025     		movs	r5, #0
 608 0012 A168     		ldr	r1, [r4, #8]
 609              	.LBE90:
 610              	.LBE89:
 611              	.LBB94:
 612              	.LBB86:
 613              		.loc 2 62 0
 614 0014 5A60     		str	r2, [r3, #4]
 615              	.LBE86:
 616              	.LBE94:
 617              		.loc 1 310 0
 618 0016 0777     		strb	r7, [r0, #28]
 619              	.LBB95:
 620              	.LBB91:
 621              		.loc 1 92 0
 622 0018 0346     		mov	r3, r0
 623              	.LBE91:
 624              	.LBE95:
 625              		.loc 1 309 0
 626 001a 9061     		str	r0, [r2, #24]
 627              		.loc 1 312 0
ARM GAS  /tmp/ccz8qndh.s 			page 12


 628 001c A677     		strb	r6, [r4, #30]
 629              	.LVL37:
 630              	.LBB96:
 631              	.LBB92:
 632              		.loc 1 92 0
 633 001e 2577     		strb	r5, [r4, #28]
 634              	.LVL38:
 635 0020 00E0     		b	.L53
 636              	.LVL39:
 637              	.L55:
 638 0022 1B68     		ldr	r3, [r3]
 639              	.LVL40:
 640              	.L53:
 641              		.loc 1 96 0
 642 0024 9A68     		ldr	r2, [r3, #8]
 643 0026 8A42     		cmp	r2, r1
 644 0028 FBD2     		bcs	.L55
 645              		.loc 1 99 0
 646 002a 5A68     		ldr	r2, [r3, #4]
 647 002c 6260     		str	r2, [r4, #4]
 648              		.loc 1 98 0
 649 002e 2360     		str	r3, [r4]
 650              	.LBE92:
 651              	.LBE96:
 652              		.loc 1 315 0
 653 0030 2146     		mov	r1, r4
 654              	.LBB97:
 655              	.LBB93:
 656              		.loc 1 100 0
 657 0032 5C60     		str	r4, [r3, #4]
 658 0034 1460     		str	r4, [r2]
 659              	.LBE93:
 660              	.LBE97:
 661              		.loc 1 316 0
 662 0036 F0BC     		pop	{r4, r5, r6, r7}
 663              		.cfi_restore 7
 664              		.cfi_restore 6
 665              		.cfi_restore 5
 666              		.cfi_restore 4
 667              		.cfi_def_cfa_offset 0
 668              	.LVL41:
 669              		.loc 1 315 0
 670 0038 FFF7FEBF 		b	_port_switch
 671              	.LVL42:
 672              	.L57:
 673              		.align	2
 674              	.L56:
 675 003c 00000000 		.word	.LANCHOR0
 676              		.cfi_endproc
 677              	.LFE14:
 678              		.size	chSchDoRescheduleBehind, .-chSchDoRescheduleBehind
 679              		.section	.text.chSchDoRescheduleAhead,"ax",%progbits
 680              		.align	2
 681              		.p2align 4,,15
 682              		.global	chSchDoRescheduleAhead
 683              		.thumb
 684              		.thumb_func
ARM GAS  /tmp/ccz8qndh.s 			page 13


 685              		.type	chSchDoRescheduleAhead, %function
 686              	chSchDoRescheduleAhead:
 687              	.LFB15:
 688              		.loc 1 329 0
 689              		.cfi_startproc
 690              		@ args = 0, pretend = 0, frame = 0
 691              		@ frame_needed = 0, uses_anonymous_args = 0
 692              		@ link register save eliminated.
 693              		.loc 1 332 0
 694 0000 0D4A     		ldr	r2, .L63
 695              	.LBB98:
 696              	.LBB99:
 697              		.loc 2 60 0
 698 0002 1068     		ldr	r0, [r2]
 699              	.LBE99:
 700              	.LBE98:
 701              		.loc 1 329 0
 702 0004 70B4     		push	{r4, r5, r6}
 703              		.cfi_def_cfa_offset 12
 704              		.cfi_offset 4, -12
 705              		.cfi_offset 5, -8
 706              		.cfi_offset 6, -4
 707              	.LBB103:
 708              	.LBB100:
 709              		.loc 2 62 0
 710 0006 0368     		ldr	r3, [r0]
 711              	.LBE100:
 712              	.LBE103:
 713              		.loc 1 332 0
 714 0008 9469     		ldr	r4, [r2, #24]
 715              	.LVL43:
 716              	.LBB104:
 717              	.LBB101:
 718              		.loc 2 62 0
 719 000a 1360     		str	r3, [r2]
 720              	.LBE101:
 721              	.LBE104:
 722              		.loc 1 335 0
 723 000c 0126     		movs	r6, #1
 724              		.loc 1 337 0
 725 000e 0025     		movs	r5, #0
 726 0010 A168     		ldr	r1, [r4, #8]
 727              	.LBB105:
 728              	.LBB102:
 729              		.loc 2 62 0
 730 0012 5A60     		str	r2, [r3, #4]
 731              	.LBE102:
 732              	.LBE105:
 733              		.loc 1 335 0
 734 0014 0677     		strb	r6, [r0, #28]
 735              		.loc 1 337 0
 736 0016 0346     		mov	r3, r0
 737              		.loc 1 334 0
 738 0018 9061     		str	r0, [r2, #24]
 739              		.loc 1 337 0
 740 001a 2577     		strb	r5, [r4, #28]
 741              	.LVL44:
ARM GAS  /tmp/ccz8qndh.s 			page 14


 742 001c 00E0     		b	.L60
 743              	.LVL45:
 744              	.L62:
 745 001e 1B68     		ldr	r3, [r3]
 746              	.LVL46:
 747              	.L60:
 748              		.loc 1 341 0 discriminator 1
 749 0020 9A68     		ldr	r2, [r3, #8]
 750 0022 8A42     		cmp	r2, r1
 751 0024 FBD8     		bhi	.L62
 752              		.loc 1 344 0
 753 0026 5A68     		ldr	r2, [r3, #4]
 754 0028 6260     		str	r2, [r4, #4]
 755              		.loc 1 343 0
 756 002a 2360     		str	r3, [r4]
 757              		.loc 1 347 0
 758 002c 2146     		mov	r1, r4
 759              		.loc 1 345 0
 760 002e 5C60     		str	r4, [r3, #4]
 761 0030 1460     		str	r4, [r2]
 762              		.loc 1 348 0
 763 0032 70BC     		pop	{r4, r5, r6}
 764              		.cfi_restore 6
 765              		.cfi_restore 5
 766              		.cfi_restore 4
 767              		.cfi_def_cfa_offset 0
 768              	.LVL47:
 769              		.loc 1 347 0
 770 0034 FFF7FEBF 		b	_port_switch
 771              	.LVL48:
 772              	.L64:
 773              		.align	2
 774              	.L63:
 775 0038 00000000 		.word	.LANCHOR0
 776              		.cfi_endproc
 777              	.LFE15:
 778              		.size	chSchDoRescheduleAhead, .-chSchDoRescheduleAhead
 779              		.section	.text.chSchRescheduleS,"ax",%progbits
 780              		.align	2
 781              		.p2align 4,,15
 782              		.global	chSchRescheduleS
 783              		.thumb
 784              		.thumb_func
 785              		.type	chSchRescheduleS, %function
 786              	chSchRescheduleS:
 787              	.LFB13:
 788              		.loc 1 253 0
 789              		.cfi_startproc
 790              		@ args = 0, pretend = 0, frame = 0
 791              		@ frame_needed = 0, uses_anonymous_args = 0
 792              		@ link register save eliminated.
 793              		.loc 1 257 0
 794 0000 044B     		ldr	r3, .L68
 795 0002 1A68     		ldr	r2, [r3]
 796 0004 9B69     		ldr	r3, [r3, #24]
 797 0006 9268     		ldr	r2, [r2, #8]
 798 0008 9B68     		ldr	r3, [r3, #8]
ARM GAS  /tmp/ccz8qndh.s 			page 15


 799 000a 9A42     		cmp	r2, r3
 800 000c 00D8     		bhi	.L67
 801 000e 7047     		bx	lr
 802              	.L67:
 803              		.loc 1 258 0
 804 0010 FFF7FEBF 		b	chSchDoRescheduleAhead
 805              	.LVL49:
 806              	.L69:
 807              		.align	2
 808              	.L68:
 809 0014 00000000 		.word	.LANCHOR0
 810              		.cfi_endproc
 811              	.LFE13:
 812              		.size	chSchRescheduleS, .-chSchRescheduleS
 813              		.section	.text.chSchDoReschedule,"ax",%progbits
 814              		.align	2
 815              		.p2align 4,,15
 816              		.global	chSchDoReschedule
 817              		.thumb
 818              		.thumb_func
 819              		.type	chSchDoReschedule, %function
 820              	chSchDoReschedule:
 821              	.LFB16:
 822              		.loc 1 362 0
 823              		.cfi_startproc
 824              		@ args = 0, pretend = 0, frame = 0
 825              		@ frame_needed = 0, uses_anonymous_args = 0
 826              		@ link register save eliminated.
 827              		.loc 1 367 0
 828 0000 034B     		ldr	r3, .L73
 829 0002 9B69     		ldr	r3, [r3, #24]
 830 0004 9B7F     		ldrb	r3, [r3, #30]	@ zero_extendqisi2
 831 0006 0BB1     		cbz	r3, .L72
 832              		.loc 1 375 0
 833 0008 FFF7FEBF 		b	chSchDoRescheduleAhead
 834              	.LVL50:
 835              	.L72:
 836              		.loc 1 370 0
 837 000c FFF7FEBF 		b	chSchDoRescheduleBehind
 838              	.LVL51:
 839              	.L74:
 840              		.align	2
 841              	.L73:
 842 0010 00000000 		.word	.LANCHOR0
 843              		.cfi_endproc
 844              	.LFE16:
 845              		.size	chSchDoReschedule, .-chSchDoReschedule
 846              		.global	rlist
 847              		.section	.bss.rlist,"aw",%nobits
 848              		.align	2
 849              		.set	.LANCHOR0,. + 0
 850              		.type	rlist, %object
 851              		.size	rlist, 28
 852              	rlist:
 853 0000 00000000 		.space	28
 853      00000000 
 853      00000000 
ARM GAS  /tmp/ccz8qndh.s 			page 16


 853      00000000 
 853      00000000 
 854              		.text
 855              	.Letext0:
 856              		.file 3 "/d_drive/axoloti/platform_linux/arm-none-eabi/include/machine/_default_types.h"
 857              		.file 4 "/d_drive/axoloti/platform_linux/arm-none-eabi/include/sys/_stdint.h"
 858              		.file 5 "/d_drive/axoloti/platform_linux/../chibios/os/ports/GCC/ARMCMx/chtypes.h"
 859              		.file 6 "/d_drive/axoloti/platform_linux/../chibios/os/kernel/include/chlists.h"
 860              		.file 7 "/d_drive/axoloti/platform_linux/../chibios/os/kernel/include/chthreads.h"
 861              		.file 8 "/d_drive/axoloti/platform_linux/../chibios/os/ports/GCC/ARMCMx/chcore_v7m.h"
 862              		.file 9 "/d_drive/axoloti/platform_linux/../chibios/os/kernel/include/chvt.h"
 863              		.file 10 "/d_drive/axoloti/platform_linux/../chibios/os/kernel/include/chschd.h"
 864              		.file 11 "/d_drive/axoloti/platform_linux/../chibios/os/kernel/include/chsem.h"
 865              		.file 12 "/d_drive/axoloti/platform_linux/../chibios/os/kernel/include/chmtx.h"