ARM GAS  /tmp/ccARsoUA.s 			page 1


   1              		.syntax unified
   2              		.cpu cortex-m4
   3              		.eabi_attribute 27, 1
   4              		.eabi_attribute 28, 1
   5              		.fpu fpv4-sp-d16
   6              		.eabi_attribute 20, 1
   7              		.eabi_attribute 21, 1
   8              		.eabi_attribute 23, 3
   9              		.eabi_attribute 24, 1
  10              		.eabi_attribute 25, 1
  11              		.eabi_attribute 26, 1
  12              		.eabi_attribute 30, 2
  13              		.eabi_attribute 34, 1
  14              		.eabi_attribute 18, 4
  15              		.thumb
  16              		.file	"chsys.c"
  17              		.text
  18              	.Ltext0:
  19              		.cfi_sections	.debug_frame
  20              		.section	.text._idle_thread,"ax",%progbits
  21              		.align	2
  22              		.p2align 4,,15
  23              		.global	_idle_thread
  24              		.thumb
  25              		.thumb_func
  26              		.type	_idle_thread, %function
  27              	_idle_thread:
  28              	.LFB7:
  29              		.file 1 "/home/sbcu/Dropbox/pcb-layouts/axo-on-discovery-board/axoloti/platform_linux/../chibios/o
  30              		.loc 1 61 0
  31              		.cfi_startproc
  32              		@ Volatile: function does not return.
  33              		@ args = 0, pretend = 0, frame = 0
  34              		@ frame_needed = 0, uses_anonymous_args = 0
  35              		@ link register save eliminated.
  36              	.LVL0:
  37              		.loc 1 64 0
  38 0000 024B     		ldr	r3, .L4
  39 0002 034A     		ldr	r2, .L4+4
  40 0004 9B69     		ldr	r3, [r3, #24]
  41 0006 9A61     		str	r2, [r3, #24]
  42              	.L2:
  43              		.loc 1 68 0 discriminator 1
  44 0008 FEE7     		b	.L2
  45              	.L5:
  46 000a 00BF     		.align	2
  47              	.L4:
  48 000c 00000000 		.word	rlist
  49 0010 00000000 		.word	.LC0
  50              		.cfi_endproc
  51              	.LFE7:
  52              		.size	_idle_thread, .-_idle_thread
  53              		.section	.text.chSysInit,"ax",%progbits
  54              		.align	2
  55              		.p2align 4,,15
  56              		.global	chSysInit
  57              		.thumb
ARM GAS  /tmp/ccARsoUA.s 			page 2


  58              		.thumb_func
  59              		.type	chSysInit, %function
  60              	chSysInit:
  61              	.LFB8:
  62              		.loc 1 84 0
  63              		.cfi_startproc
  64              		@ args = 0, pretend = 0, frame = 0
  65              		@ frame_needed = 0, uses_anonymous_args = 0
  66 0000 00B5     		push	{lr}
  67              		.cfi_def_cfa_offset 4
  68              		.cfi_offset 14, -4
  69 0002 83B0     		sub	sp, sp, #12
  70              		.cfi_def_cfa_offset 16
  71              		.loc 1 90 0
  72 0004 FFF7FEFF 		bl	_port_init
  73              	.LVL1:
  74              		.loc 1 91 0
  75 0008 FFF7FEFF 		bl	_scheduler_init
  76              	.LVL2:
  77              		.loc 1 92 0
  78 000c FFF7FEFF 		bl	_vt_init
  79              	.LVL3:
  80              		.loc 1 104 0
  81 0010 4021     		movs	r1, #64
  82 0012 0C48     		ldr	r0, .L8
  83 0014 FFF7FEFF 		bl	_thread_init
  84              	.LVL4:
  85 0018 0B49     		ldr	r1, .L8+4
  86              		.loc 1 105 0
  87 001a 0122     		movs	r2, #1
  88              		.loc 1 104 0
  89 001c 8861     		str	r0, [r1, #24]
  90              		.loc 1 105 0
  91 001e 0277     		strb	r2, [r0, #28]
  92              	.LBB2:
  93              		.loc 1 111 0
  94 0020 0023     		movs	r3, #0
  95              	@ 111 "/home/sbcu/Dropbox/pcb-layouts/axo-on-discovery-board/axoloti/platform_linux/../chibios/os/k
  96 0022 83F31188 		msr     BASEPRI, r3                    
  97 0026 62B6     		cpsie   i
  98              	@ 0 "" 2
  99              		.thumb
 100              	.LBE2:
 101              		.loc 1 115 0
 102 0028 8969     		ldr	r1, [r1, #24]
 103 002a 0848     		ldr	r0, .L8+8
 104 002c 8861     		str	r0, [r1, #24]
 105              		.loc 1 121 0
 106 002e 0093     		str	r3, [sp]
 107 0030 4FF4B071 		mov	r1, #352
 108 0034 064B     		ldr	r3, .L8+12
 109 0036 0748     		ldr	r0, .L8+16
 110 0038 FFF7FEFF 		bl	chThdCreateStatic
 111              	.LVL5:
 112              		.loc 1 124 0
 113 003c 03B0     		add	sp, sp, #12
 114              		.cfi_def_cfa_offset 4
ARM GAS  /tmp/ccARsoUA.s 			page 3


 115              		@ sp needed
 116 003e 5DF804FB 		ldr	pc, [sp], #4
 117              	.L9:
 118 0042 00BF     		.align	2
 119              	.L8:
 120 0044 00000000 		.word	.LANCHOR0
 121 0048 00000000 		.word	rlist
 122 004c 00000000 		.word	ch_debug
 123 0050 00000000 		.word	_idle_thread
 124 0054 00000000 		.word	.LANCHOR1
 125              		.cfi_endproc
 126              	.LFE8:
 127              		.size	chSysInit, .-chSysInit
 128              		.section	.text.chSysTimerHandlerI,"ax",%progbits
 129              		.align	2
 130              		.p2align 4,,15
 131              		.global	chSysTimerHandlerI
 132              		.thumb
 133              		.thumb_func
 134              		.type	chSysTimerHandlerI, %function
 135              	chSysTimerHandlerI:
 136              	.LFB9:
 137              		.loc 1 137 0
 138              		.cfi_startproc
 139              		@ args = 0, pretend = 0, frame = 0
 140              		@ frame_needed = 0, uses_anonymous_args = 0
 141 0000 70B5     		push	{r4, r5, r6, lr}
 142              		.cfi_def_cfa_offset 16
 143              		.cfi_offset 4, -16
 144              		.cfi_offset 5, -12
 145              		.cfi_offset 6, -8
 146              		.cfi_offset 14, -4
 147              		.loc 1 143 0
 148 0002 134B     		ldr	r3, .L21
 149 0004 9B69     		ldr	r3, [r3, #24]
 150 0006 9A7F     		ldrb	r2, [r3, #30]	@ zero_extendqisi2
 151 0008 0AB1     		cbz	r2, .L11
 152              		.loc 1 145 0
 153 000a 013A     		subs	r2, r2, #1
 154 000c 9A77     		strb	r2, [r3, #30]
 155              	.L11:
 156              		.loc 1 148 0
 157 000e 1A6A     		ldr	r2, [r3, #32]
 158              		.loc 1 150 0
 159 0010 104C     		ldr	r4, .L21+4
 160              		.loc 1 148 0
 161 0012 0132     		adds	r2, r2, #1
 162 0014 1A62     		str	r2, [r3, #32]
 163              		.loc 1 150 0
 164 0016 E368     		ldr	r3, [r4, #12]
 165 0018 2268     		ldr	r2, [r4]
 166 001a 0133     		adds	r3, r3, #1
 167 001c A242     		cmp	r2, r4
 168 001e E360     		str	r3, [r4, #12]
 169 0020 14D0     		beq	.L10
 170              	.LBB3:
 171              		.loc 1 150 0 is_stmt 0 discriminator 1
ARM GAS  /tmp/ccARsoUA.s 			page 4


 172 0022 9668     		ldr	r6, [r2, #8]
 173 0024 013E     		subs	r6, r6, #1
 174 0026 9660     		str	r6, [r2, #8]
 175              	.LVL6:
 176 0028 86B9     		cbnz	r6, .L10
 177              	.L14:
 178              	.LBB4:
 179              		.loc 1 150 0 discriminator 4
 180 002a 1168     		ldr	r1, [r2]
 181 002c D568     		ldr	r5, [r2, #12]
 182              	.LVL7:
 183 002e 2160     		str	r1, [r4]
 184 0030 D660     		str	r6, [r2, #12]
 185              	.LBB5:
 186 0032 0023     		movs	r3, #0
 187              	.LBE5:
 188 0034 4C60     		str	r4, [r1, #4]
 189              	.LBB6:
 190              	@ 150 "/home/sbcu/Dropbox/pcb-layouts/axo-on-discovery-board/axoloti/platform_linux/../chibios/os/k
 191 0036 83F31188 		msr     BASEPRI, r3
 192              	@ 0 "" 2
 193              		.thumb
 194              	.LBE6:
 195 003a 1069     		ldr	r0, [r2, #16]
 196 003c A847     		blx	r5
 197              	.LVL8:
 198              	.LBB7:
 199 003e 2023     		movs	r3, #32
 200              	@ 150 "/home/sbcu/Dropbox/pcb-layouts/axo-on-discovery-board/axoloti/platform_linux/../chibios/os/k
 201 0040 83F31188 		msr     BASEPRI, r3
 202              	@ 0 "" 2
 203              		.thumb
 204              	.LBE7:
 205              	.LBE4:
 206 0044 2268     		ldr	r2, [r4]
 207              	.LVL9:
 208 0046 9368     		ldr	r3, [r2, #8]
 209 0048 002B     		cmp	r3, #0
 210 004a EED0     		beq	.L14
 211              	.LVL10:
 212              	.L10:
 213 004c 70BD     		pop	{r4, r5, r6, pc}
 214              	.L22:
 215 004e 00BF     		.align	2
 216              	.L21:
 217 0050 00000000 		.word	rlist
 218 0054 00000000 		.word	vtlist
 219              	.LBE3:
 220              		.cfi_endproc
 221              	.LFE9:
 222              		.size	chSysTimerHandlerI, .-chSysTimerHandlerI
 223              		.global	_idle_thread_wa
 224              		.section	.bss.mainthread.4698,"aw",%nobits
 225              		.align	2
 226              		.set	.LANCHOR0,. + 0
 227              		.type	mainthread.4698, %object
 228              		.size	mainthread.4698, 68
ARM GAS  /tmp/ccARsoUA.s 			page 5


 229              	mainthread.4698:
 230 0000 00000000 		.space	68
 230      00000000 
 230      00000000 
 230      00000000 
 230      00000000 
 231              		.section	.rodata.str1.4,"aMS",%progbits,1
 232              		.align	2
 233              	.LC0:
 234 0000 69646C65 		.ascii	"idle\000"
 234      00
 235              		.section	.bss._idle_thread_wa,"aw",%nobits
 236              		.align	3
 237              		.set	.LANCHOR1,. + 0
 238              		.type	_idle_thread_wa, %object
 239              		.size	_idle_thread_wa, 352
 240              	_idle_thread_wa:
 241 0000 00000000 		.space	352
 241      00000000 
 241      00000000 
 241      00000000 
 241      00000000 
 242              		.text
 243              	.Letext0:
 244              		.file 2 "/home/sbcu/Dropbox/pcb-layouts/axo-on-discovery-board/axoloti/platform_linux/lib/gcc/arm-
 245              		.file 3 "/home/sbcu/Dropbox/pcb-layouts/axo-on-discovery-board/axoloti/platform_linux/arm-none-eab
 246              		.file 4 "/home/sbcu/Dropbox/pcb-layouts/axo-on-discovery-board/axoloti/platform_linux/arm-none-eab
 247              		.file 5 "/home/sbcu/Dropbox/pcb-layouts/axo-on-discovery-board/axoloti/platform_linux/../chibios/o
 248              		.file 6 "/home/sbcu/Dropbox/pcb-layouts/axo-on-discovery-board/axoloti/platform_linux/../chibios/o
 249              		.file 7 "/home/sbcu/Dropbox/pcb-layouts/axo-on-discovery-board/axoloti/platform_linux/../chibios/o
 250              		.file 8 "/home/sbcu/Dropbox/pcb-layouts/axo-on-discovery-board/axoloti/platform_linux/../chibios/o
 251              		.file 9 "/home/sbcu/Dropbox/pcb-layouts/axo-on-discovery-board/axoloti/platform_linux/../chibios/o
 252              		.file 10 "/home/sbcu/Dropbox/pcb-layouts/axo-on-discovery-board/axoloti/platform_linux/../chibios/
 253              		.file 11 "/home/sbcu/Dropbox/pcb-layouts/axo-on-discovery-board/axoloti/platform_linux/../chibios/
 254              		.file 12 "/home/sbcu/Dropbox/pcb-layouts/axo-on-discovery-board/axoloti/platform_linux/../chibios/