ARM GAS  /tmp/ccIOBx9e.s 			page 1


   1              		.syntax unified
   2              		.cpu cortex-m4
   3              		.eabi_attribute 27, 1
   4              		.eabi_attribute 28, 1
   5              		.fpu fpv4-sp-d16
   6              		.eabi_attribute 20, 1
   7              		.eabi_attribute 21, 1
   8              		.eabi_attribute 23, 3
   9              		.eabi_attribute 24, 1
  10              		.eabi_attribute 25, 1
  11              		.eabi_attribute 26, 1
  12              		.eabi_attribute 30, 2
  13              		.eabi_attribute 34, 1
  14              		.eabi_attribute 18, 4
  15              		.thumb
  16              		.file	"crc32.c"
  17              		.text
  18              	.Ltext0:
  19              		.cfi_sections	.debug_frame
  20              		.section	.text.revbit,"ax",%progbits
  21              		.align	2
  22              		.p2align 4,,15
  23              		.global	revbit
  24              		.thumb
  25              		.thumb_func
  26              		.type	revbit, %function
  27              	revbit:
  28              	.LFB118:
  29              		.file 1 "../crc32.c"
  30              		.loc 1 25 0
  31              		.cfi_startproc
  32              		@ args = 0, pretend = 0, frame = 0
  33              		@ frame_needed = 0, uses_anonymous_args = 0
  34              		@ link register save eliminated.
  35              	.LVL0:
  36              		.loc 1 27 0
  37              	@ 27 "../crc32.c" 1
  38 0000 90FAA0F0 		rbit r0, r0
  39              	@ 0 "" 2
  40              	.LVL1:
  41              		.loc 1 30 0
  42              		.thumb
  43 0004 7047     		bx	lr
  44              		.cfi_endproc
  45              	.LFE118:
  46              		.size	revbit, .-revbit
  47 0006 00BF     		.section	.text.CalcCRC32,"ax",%progbits
  48              		.align	2
  49              		.p2align 4,,15
  50              		.global	CalcCRC32
  51              		.thumb
  52              		.thumb_func
  53              		.type	CalcCRC32, %function
  54              	CalcCRC32:
  55              	.LFB119:
  56              		.loc 1 32 0
  57              		.cfi_startproc
ARM GAS  /tmp/ccIOBx9e.s 			page 2


  58              		@ args = 0, pretend = 0, frame = 8
  59              		@ frame_needed = 0, uses_anonymous_args = 0
  60              	.LVL2:
  61 0000 F0B5     		push	{r4, r5, r6, r7, lr}
  62              		.cfi_def_cfa_offset 20
  63              		.cfi_offset 4, -20
  64              		.cfi_offset 5, -16
  65              		.cfi_offset 6, -12
  66              		.cfi_offset 7, -8
  67              		.cfi_offset 14, -4
  68              		.loc 1 36 0
  69 0002 1E4A     		ldr	r2, .L16
  70              		.loc 1 37 0
  71 0004 1E4E     		ldr	r6, .L16+4
  72              		.loc 1 36 0
  73 0006 136B     		ldr	r3, [r2, #48]
  74              		.loc 1 37 0
  75 0008 0124     		movs	r4, #1
  76              		.loc 1 36 0
  77 000a 43F48053 		orr	r3, r3, #4096
  78 000e 1363     		str	r3, [r2, #48]
  79              		.loc 1 32 0
  80 0010 83B0     		sub	sp, sp, #12
  81              		.cfi_def_cfa_offset 32
  82              		.loc 1 37 0
  83 0012 B460     		str	r4, [r6, #8]
  84              		.loc 1 38 0
  85              	@ 38 "../crc32.c" 1
  86 0014 00BF     		NOP
  87              	@ 0 "" 2
  88              		.loc 1 39 0
  89              	@ 39 "../crc32.c" 1
  90 0016 00BF     		NOP
  91              	@ 0 "" 2
  92              		.loc 1 40 0
  93              	@ 40 "../crc32.c" 1
  94 0018 00BF     		NOP
  95              	@ 0 "" 2
  96              		.loc 1 43 0
  97              		.thumb
  98 001a 8F08     		lsrs	r7, r1, #2
  99              	.LVL3:
 100 001c 7C1E     		subs	r4, r7, #1
 101              		.loc 1 45 0
 102 001e 0546     		mov	r5, r0
 103 0020 06E0     		b	.L3
 104              	.LVL4:
 105              	.L5:
 106              		.loc 1 46 0
 107 0022 55F8043B 		ldr	r3, [r5], #4
 108              	.LVL5:
 109              	.LBB6:
 110              	.LBB7:
 111              		.loc 1 27 0
 112              	@ 27 "../crc32.c" 1
 113 0026 93FAA3F3 		rbit r3, r3
 114              	@ 0 "" 2
ARM GAS  /tmp/ccIOBx9e.s 			page 3


 115              	.LVL6:
 116              		.thumb
 117              	.LBE7:
 118              	.LBE6:
 119              		.loc 1 49 0
 120 002a 3360     		str	r3, [r6]
 121              	.LVL7:
 122              		.loc 1 50 0
 123 002c FCB1     		cbz	r4, .L14
 124              	.LVL8:
 125              	.L4:
 126 002e 013C     		subs	r4, r4, #1
 127              	.LVL9:
 128              	.L3:
 129              		.loc 1 45 0
 130 0030 631C     		adds	r3, r4, #1
 131 0032 F6D1     		bne	.L5
 132              		.loc 1 53 0
 133 0034 124B     		ldr	r3, .L16+4
 134 0036 00EB8704 		add	r4, r0, r7, lsl #2
 135              	.LVL10:
 136 003a 1868     		ldr	r0, [r3]
 137              	.LVL11:
 138              	.LBB8:
 139              	.LBB9:
 140              		.loc 1 27 0
 141              	@ 27 "../crc32.c" 1
 142 003c 90FAA0F0 		rbit r0, r0
 143              	@ 0 "" 2
 144              	.LVL12:
 145              		.thumb
 146              	.LBE9:
 147              	.LBE8:
 148              		.loc 1 56 0
 149 0040 01F00301 		and	r1, r1, #3
 150              	.LVL13:
 151 0044 2144     		add	r1, r1, r4
 152              	.LVL14:
 153              		.loc 1 57 0
 154 0046 8C42     		cmp	r4, r1
 155 0048 0ED0     		beq	.L15
 156              	.LVL15:
 157              	.L10:
 158              		.loc 1 58 0
 159 004a 14F8012B 		ldrb	r2, [r4], #1	@ zero_extendqisi2
 160              	.LVL16:
 161 004e 0823     		movs	r3, #8
 162 0050 5040     		eors	r0, r0, r2
 163              	.LVL17:
 164              	.L9:
 165              		.loc 1 61 0
 166 0052 C507     		lsls	r5, r0, #31
 167              		.loc 1 62 0
 168 0054 4FEA5002 		lsr	r2, r0, #1
 169 0058 4ABF     		itet	mi
 170 005a 0A48     		ldrmi	r0, .L16+8
 171              	.LVL18:
ARM GAS  /tmp/ccIOBx9e.s 			page 4


 172              		.loc 1 64 0
 173 005c 4008     		lsrpl	r0, r0, #1
 174              		.loc 1 62 0
 175 005e 5040     		eormi	r0, r0, r2
 176              	.LVL19:
 177              		.loc 1 60 0
 178 0060 013B     		subs	r3, r3, #1
 179              	.LVL20:
 180 0062 F6D1     		bne	.L9
 181              	.LVL21:
 182              		.loc 1 57 0
 183 0064 8C42     		cmp	r4, r1
 184 0066 F0D1     		bne	.L10
 185              	.LVL22:
 186              	.L15:
 187              		.loc 1 68 0
 188 0068 C043     		mvns	r0, r0
 189              	.LVL23:
 190 006a 03B0     		add	sp, sp, #12
 191              		.cfi_remember_state
 192              		.cfi_def_cfa_offset 20
 193              		@ sp needed
 194 006c F0BD     		pop	{r4, r5, r6, r7, pc}
 195              	.LVL24:
 196              	.L14:
 197              		.cfi_restore_state
 198 006e 8DE80300 		stmia	sp, {r0, r1}
 199              		.loc 1 51 0
 200 0072 FFF7FEFF 		bl	watchdog_feed
 201              	.LVL25:
 202 0076 9DE80300 		ldmia	sp, {r0, r1}
 203 007a D8E7     		b	.L4
 204              	.L17:
 205              		.align	2
 206              	.L16:
 207 007c 00380240 		.word	1073887232
 208 0080 00300240 		.word	1073885184
 209 0084 2083B8ED 		.word	-306674912
 210              		.cfi_endproc
 211              	.LFE119:
 212              		.size	CalcCRC32, .-CalcCRC32
 213              		.text
 214              	.Letext0:
 215              		.file 2 "/home/sbcu/Dropbox/pcb-layouts/axo-on-discovery-board/axoloti/platform_linux/arm-none-eab
 216              		.file 3 "/home/sbcu/Dropbox/pcb-layouts/axo-on-discovery-board/axoloti/platform_linux/arm-none-eab
 217              		.file 4 "/home/sbcu/Dropbox/pcb-layouts/axo-on-discovery-board/axoloti/platform_linux/../chibios/o
 218              		.file 5 "/home/sbcu/Dropbox/pcb-layouts/axo-on-discovery-board/axoloti/platform_linux/../chibios/o
 219              		.file 6 "../exceptions.h"