ARM GAS  /tmp/cc71PXK6.s 			page 1


   1              		.syntax unified
   2              		.cpu cortex-m4
   3              		.eabi_attribute 27, 1
   4              		.eabi_attribute 28, 1
   5              		.fpu fpv4-sp-d16
   6              		.eabi_attribute 20, 1
   7              		.eabi_attribute 21, 1
   8              		.eabi_attribute 23, 3
   9              		.eabi_attribute 24, 1
  10              		.eabi_attribute 25, 1
  11              		.eabi_attribute 26, 1
  12              		.eabi_attribute 30, 2
  13              		.eabi_attribute 34, 1
  14              		.eabi_attribute 18, 4
  15              		.thumb
  16              		.file	"crt0.c"
  17              		.text
  18              	.Ltext0:
  19              		.cfi_sections	.debug_frame
  20              		.section	.text.__early_init,"ax",%progbits
  21              		.align	2
  22              		.p2align 4,,15
  23              		.weak	__early_init
  24              		.thumb
  25              		.thumb_func
  26              		.type	__early_init, %function
  27              	__early_init:
  28              	.LFB0:
  29              		.file 1 "/d_drive/axoloti/platform_linux/../chibios/os/ports/GCC/ARMCMx/crt0.c"
  30              		.loc 1 234 0
  31              		.cfi_startproc
  32              		@ args = 0, pretend = 0, frame = 0
  33              		@ frame_needed = 0, uses_anonymous_args = 0
  34              		@ link register save eliminated.
  35 0000 7047     		bx	lr
  36              		.cfi_endproc
  37              	.LFE0:
  38              		.size	__early_init, .-__early_init
  39 0002 00BF     		.section	.text.__late_init,"ax",%progbits
  40              		.align	2
  41              		.p2align 4,,15
  42              		.weak	__late_init
  43              		.thumb
  44              		.thumb_func
  45              		.type	__late_init, %function
  46              	__late_init:
  47              	.LFB1:
  48              		.loc 1 246 0
  49              		.cfi_startproc
  50              		@ args = 0, pretend = 0, frame = 0
  51              		@ frame_needed = 0, uses_anonymous_args = 0
  52              		@ link register save eliminated.
  53 0000 7047     		bx	lr
  54              		.cfi_endproc
  55              	.LFE1:
  56              		.size	__late_init, .-__late_init
  57 0002 00BF     		.section	.text._default_exit,"ax",%progbits
ARM GAS  /tmp/cc71PXK6.s 			page 2


  58              		.align	2
  59              		.p2align 4,,15
  60              		.weak	_default_exit
  61              		.thumb
  62              		.thumb_func
  63              		.type	_default_exit, %function
  64              	_default_exit:
  65              	.LFB2:
  66              		.loc 1 257 0
  67              		.cfi_startproc
  68              		@ Naked Function: prologue and epilogue provided by programmer.
  69              		@ args = 0, pretend = 0, frame = 0
  70              		@ frame_needed = 0, uses_anonymous_args = 0
  71              	.L4:
  72              		.loc 1 259 0 discriminator 1
  73 0000 FEE7     		b	.L4
  74              		.cfi_endproc
  75              	.LFE2:
  76              		.size	_default_exit, .-_default_exit
  77 0002 00BF     		.section	.text.ResetHandler,"ax",%progbits
  78              		.align	2
  79              		.p2align 4,,15
  80              		.global	ResetHandler
  81              		.thumb
  82              		.thumb_func
  83              		.type	ResetHandler, %function
  84              	ResetHandler:
  85              	.LFB3:
  86              		.loc 1 268 0
  87              		.cfi_startproc
  88              		@ Naked Function: prologue and epilogue provided by programmer.
  89              		@ args = 0, pretend = 0, frame = 0
  90              		@ frame_needed = 0, uses_anonymous_args = 0
  91              		.loc 1 274 0
  92              	@ 274 "/d_drive/axoloti/platform_linux/../chibios/os/ports/GCC/ARMCMx/crt0.c" 1
  93 0000 72B6     		cpsid   i
  94              	@ 0 "" 2
  95              		.loc 1 275 0
  96              		.thumb
  97 0002 3748     		ldr	r0, .L32
  98              	.LVL0:
  99              		.loc 1 276 0
 100              	@ 276 "/d_drive/axoloti/platform_linux/../chibios/os/ports/GCC/ARMCMx/crt0.c" 1
 101 0004 80F30988 		msr     PSP, r0
 102              	@ 0 "" 2
 103              		.loc 1 283 0
 104              		.thumb
 105 0008 364A     		ldr	r2, .L32+4
 106              		.loc 1 280 0
 107 000a 3749     		ldr	r1, .L32+8
 108              		.loc 1 283 0
 109 000c 1368     		ldr	r3, [r2]
 110              		.loc 1 280 0
 111 000e 4FF04044 		mov	r4, #-1073741824
 112              		.loc 1 283 0
 113 0012 43F47003 		orr	r3, r3, #15728640
 114 0016 1360     		str	r3, [r2]
ARM GAS  /tmp/cc71PXK6.s 			page 3


 115              	.LVL1:
 116              		.loc 1 280 0
 117 0018 0C60     		str	r4, [r1]
 118              		.loc 1 287 0
 119 001a 0023     		movs	r3, #0
 120              	@ 287 "/d_drive/axoloti/platform_linux/../chibios/os/ports/GCC/ARMCMx/crt0.c" 1
 121 001c E1EE103A 		vmsr    FPSCR, r3
 122              	@ 0 "" 2
 123              		.loc 1 296 0
 124              		.thumb
 125 0020 0622     		movs	r2, #6
 126              		.loc 1 288 0
 127 0022 8B60     		str	r3, [r1, #8]
 128              	.LVL2:
 129              		.loc 1 296 0
 130              	@ 296 "/d_drive/axoloti/platform_linux/../chibios/os/ports/GCC/ARMCMx/crt0.c" 1
 131 0024 82F31488 		msr     CONTROL, r2
 132              	@ 0 "" 2
 133              		.loc 1 297 0
 134              	@ 297 "/d_drive/axoloti/platform_linux/../chibios/os/ports/GCC/ARMCMx/crt0.c" 1
 135 0028 BFF36F8F 		isb
 136              	@ 0 "" 2
 137              	.LVL3:
 138              		.thumb
 139              	.LBB2:
 140              		.loc 1 301 0
 141 002c 2F4B     		ldr	r3, .L32+12
 142 002e 304A     		ldr	r2, .L32+16
 143 0030 9342     		cmp	r3, r2
 144 0032 0BD2     		bcs	.L10
 145 0034 D943     		mvns	r1, r3
 146 0036 0A44     		add	r2, r2, r1
 147 0038 22F00302 		bic	r2, r2, #3
 148 003c 0432     		adds	r2, r2, #4
 149 003e 1A44     		add	r2, r2, r3
 150 0040 4FF05531 		mov	r1, #1431655765
 151              	.LVL4:
 152              	.L9:
 153              		.loc 1 301 0 is_stmt 0 discriminator 3
 154 0044 43F8041B 		str	r1, [r3], #4
 155              	.LVL5:
 156 0048 9342     		cmp	r3, r2
 157 004a FBD1     		bne	.L9
 158              	.LVL6:
 159              	.L10:
 160              	.LBE2:
 161              	.LBB3:
 162              		.loc 1 304 0 is_stmt 1
 163 004c 294B     		ldr	r3, .L32+20
 164 004e 8342     		cmp	r3, r0
 165 0050 0CD2     		bcs	.L8
 166 0052 294A     		ldr	r2, .L32+24
 167 0054 191D     		adds	r1, r3, #4
 168 0056 521A     		subs	r2, r2, r1
 169 0058 22F00302 		bic	r2, r2, #3
 170 005c 0432     		adds	r2, r2, #4
 171 005e 1A44     		add	r2, r2, r3
ARM GAS  /tmp/cc71PXK6.s 			page 4


 172 0060 4FF05531 		mov	r1, #1431655765
 173              	.LVL7:
 174              	.L13:
 175              		.loc 1 304 0 is_stmt 0 discriminator 3
 176 0064 43F8041B 		str	r1, [r3], #4
 177              	.LVL8:
 178 0068 9342     		cmp	r3, r2
 179 006a FBD1     		bne	.L13
 180              	.LVL9:
 181              	.L8:
 182              	.LBE3:
 183              		.loc 1 310 0 is_stmt 1
 184 006c FFF7FEFF 		bl	__early_init
 185              	.LVL10:
 186              	.LBB4:
 187              		.loc 1 319 0
 188 0070 224A     		ldr	r2, .L32+28
 189 0072 234B     		ldr	r3, .L32+32
 190 0074 9A42     		cmp	r2, r3
 191 0076 0CD2     		bcs	.L12
 192 0078 D043     		mvns	r0, r2
 193 007a 1844     		add	r0, r0, r3
 194 007c 20F00300 		bic	r0, r0, #3
 195 0080 204B     		ldr	r3, .L32+36
 196 0082 0430     		adds	r0, r0, #4
 197 0084 1844     		add	r0, r0, r3
 198              	.LVL11:
 199              	.L16:
 200              		.loc 1 320 0
 201 0086 53F8041B 		ldr	r1, [r3], #4
 202              	.LVL12:
 203 008a 42F8041B 		str	r1, [r2], #4
 204              	.LVL13:
 205              		.loc 1 319 0
 206 008e 8342     		cmp	r3, r0
 207 0090 F9D1     		bne	.L16
 208              	.LVL14:
 209              	.L12:
 210              	.LBE4:
 211              	.LBB5:
 212              		.loc 1 326 0
 213 0092 1D4B     		ldr	r3, .L32+40
 214 0094 1D4A     		ldr	r2, .L32+44
 215 0096 9342     		cmp	r3, r2
 216 0098 0AD2     		bcs	.L15
 217 009a D943     		mvns	r1, r3
 218 009c 0A44     		add	r2, r2, r1
 219 009e 22F00302 		bic	r2, r2, #3
 220 00a2 0432     		adds	r2, r2, #4
 221 00a4 1A44     		add	r2, r2, r3
 222 00a6 0021     		movs	r1, #0
 223              	.LVL15:
 224              	.L19:
 225              		.loc 1 326 0 is_stmt 0 discriminator 3
 226 00a8 43F8041B 		str	r1, [r3], #4
 227              	.LVL16:
 228 00ac 9342     		cmp	r3, r2
ARM GAS  /tmp/cc71PXK6.s 			page 5


 229 00ae FBD1     		bne	.L19
 230              	.LVL17:
 231              	.L15:
 232              	.LBE5:
 233              	.LBB6:
 234              		.loc 1 336 0 is_stmt 1
 235 00b0 174D     		ldr	r5, .L32+48
 236 00b2 184C     		ldr	r4, .L32+52
 237              	.LBE6:
 238              		.loc 1 330 0
 239 00b4 FFF7FEFF 		bl	__late_init
 240              	.LVL18:
 241              	.LBB7:
 242              		.loc 1 336 0
 243 00b8 AC42     		cmp	r4, r5
 244 00ba 04D2     		bcs	.L18
 245              	.LVL19:
 246              	.L17:
 247              		.loc 1 337 0
 248 00bc 54F8043B 		ldr	r3, [r4], #4
 249              	.LVL20:
 250 00c0 9847     		blx	r3
 251              	.LVL21:
 252              		.loc 1 336 0
 253 00c2 AC42     		cmp	r4, r5
 254 00c4 FAD3     		bcc	.L17
 255              	.LVL22:
 256              	.L18:
 257              	.LBE7:
 258              	.LBB8:
 259              		.loc 1 350 0
 260 00c6 144D     		ldr	r5, .L32+56
 261 00c8 144C     		ldr	r4, .L32+60
 262              	.LBE8:
 263              		.loc 1 344 0
 264 00ca FFF7FEFF 		bl	main
 265              	.LVL23:
 266              	.LBB9:
 267              		.loc 1 350 0
 268 00ce AC42     		cmp	r4, r5
 269 00d0 04D2     		bcs	.L21
 270              	.LVL24:
 271              	.L20:
 272              		.loc 1 351 0
 273 00d2 54F8043B 		ldr	r3, [r4], #4
 274              	.LVL25:
 275 00d6 9847     		blx	r3
 276              	.LVL26:
 277              		.loc 1 350 0
 278 00d8 AC42     		cmp	r4, r5
 279 00da FAD3     		bcc	.L20
 280              	.LVL27:
 281              	.L21:
 282              	.LBE9:
 283              		.loc 1 358 0
 284 00dc FFF7FEFF 		bl	_default_exit
 285              	.LVL28:
ARM GAS  /tmp/cc71PXK6.s 			page 6


 286              		.loc 1 359 0
 287              	.L33:
 288              		.align	2
 289              	.L32:
 290 00e0 00000000 		.word	__process_stack_end__
 291 00e4 88ED00E0 		.word	-536810104
 292 00e8 34EF00E0 		.word	-536809676
 293 00ec 00000000 		.word	__main_stack_base__
 294 00f0 00000000 		.word	__main_stack_end__
 295 00f4 00000000 		.word	__process_stack_base__
 296 00f8 03000000 		.word	__process_stack_end__+3
 297 00fc 00000000 		.word	_data
 298 0100 00000000 		.word	_edata
 299 0104 00000000 		.word	_textdata
 300 0108 00000000 		.word	_bss_start
 301 010c 00000000 		.word	_bss_end
 302 0110 00000000 		.word	__init_array_end
 303 0114 00000000 		.word	__init_array_start
 304 0118 00000000 		.word	__fini_array_end
 305 011c 00000000 		.word	__fini_array_start
 306              		.cfi_endproc
 307              	.LFE3:
 308              		.size	ResetHandler, .-ResetHandler
 309              		.text
 310              	.Letext0:
 311              		.file 2 "/d_drive/axoloti/platform_linux/arm-none-eabi/include/machine/_default_types.h"
 312              		.file 3 "/d_drive/axoloti/platform_linux/arm-none-eabi/include/sys/_stdint.h"