ARM GAS  /tmp/ccoHwu3e.s 			page 1


   1              		.syntax unified
   2              		.cpu cortex-m4
   3              		.eabi_attribute 27, 1
   4              		.eabi_attribute 28, 1
   5              		.fpu fpv4-sp-d16
   6              		.eabi_attribute 20, 1
   7              		.eabi_attribute 21, 1
   8              		.eabi_attribute 23, 3
   9              		.eabi_attribute 24, 1
  10              		.eabi_attribute 25, 1
  11              		.eabi_attribute 26, 1
  12              		.eabi_attribute 30, 2
  13              		.eabi_attribute 34, 1
  14              		.eabi_attribute 18, 4
  15              		.thumb
  16              		.file	"hal.c"
  17              		.text
  18              	.Ltext0:
  19              		.cfi_sections	.debug_frame
  20              		.section	.text.halInit,"ax",%progbits
  21              		.align	2
  22              		.p2align 4,,15
  23              		.global	halInit
  24              		.thumb
  25              		.thumb_func
  26              		.type	halInit, %function
  27              	halInit:
  28              	.LFB118:
  29              		.file 1 "/home/sbcu/Dropbox/pcb-layouts/axo-on-discovery-board/axoloti/platform_linux/../chibios/o
  30              		.loc 1 68 0
  31              		.cfi_startproc
  32              		@ args = 0, pretend = 0, frame = 0
  33              		@ frame_needed = 0, uses_anonymous_args = 0
  34 0000 08B5     		push	{r3, lr}
  35              		.cfi_def_cfa_offset 8
  36              		.cfi_offset 3, -8
  37              		.cfi_offset 14, -4
  38              		.loc 1 70 0
  39 0002 FFF7FEFF 		bl	hal_lld_init
  40              	.LVL0:
  41              		.loc 1 76 0
  42 0006 0748     		ldr	r0, .L3
  43 0008 FFF7FEFF 		bl	_pal_lld_init
  44              	.LVL1:
  45              		.loc 1 79 0
  46 000c FFF7FEFF 		bl	adcInit
  47              	.LVL2:
  48              		.loc 1 100 0
  49 0010 FFF7FEFF 		bl	pwmInit
  50              	.LVL3:
  51              		.loc 1 103 0
  52 0014 FFF7FEFF 		bl	sdInit
  53              	.LVL4:
  54              		.loc 1 109 0
  55 0018 FFF7FEFF 		bl	spiInit
  56              	.LVL5:
  57              		.loc 1 128 0
ARM GAS  /tmp/ccoHwu3e.s 			page 2


  58 001c BDE80840 		pop	{r3, lr}
  59              		.cfi_restore 14
  60              		.cfi_restore 3
  61              		.cfi_def_cfa_offset 0
  62              		.loc 1 127 0
  63 0020 FFF7FEBF 		b	boardInit
  64              	.LVL6:
  65              	.L4:
  66              		.align	2
  67              	.L3:
  68 0024 00000000 		.word	pal_default_config
  69              		.cfi_endproc
  70              	.LFE118:
  71              		.size	halInit, .-halInit
  72              		.section	.text.halIsCounterWithin,"ax",%progbits
  73              		.align	2
  74              		.p2align 4,,15
  75              		.global	halIsCounterWithin
  76              		.thumb
  77              		.thumb_func
  78              		.type	halIsCounterWithin, %function
  79              	halIsCounterWithin:
  80              	.LFB119:
  81              		.loc 1 174 0
  82              		.cfi_startproc
  83              		@ args = 0, pretend = 0, frame = 0
  84              		@ frame_needed = 0, uses_anonymous_args = 0
  85              		@ link register save eliminated.
  86              	.LVL7:
  87              		.loc 1 175 0
  88 0000 084B     		ldr	r3, .L15
  89              		.loc 1 177 0
  90 0002 8142     		cmp	r1, r0
  91              		.loc 1 175 0
  92 0004 5B68     		ldr	r3, [r3, #4]
  93              	.LVL8:
  94              		.loc 1 177 0
  95 0006 06D9     		bls	.L6
  96              		.loc 1 177 0 is_stmt 0 discriminator 1
  97 0008 8342     		cmp	r3, r0
  98 000a 08D3     		bcc	.L14
  99              	.L12:
 100 000c 8B42     		cmp	r3, r1
 101 000e 2CBF     		ite	cs
 102 0010 0020     		movcs	r0, #0
 103              	.LVL9:
 104 0012 0120     		movcc	r0, #1
 105 0014 7047     		bx	lr
 106              	.LVL10:
 107              	.L6:
 108              		.loc 1 178 0 is_stmt 1
 109 0016 8342     		cmp	r3, r0
 110 0018 F8D3     		bcc	.L12
 111 001a 0120     		movs	r0, #1
 112              	.LVL11:
 113              		.loc 1 179 0
 114 001c 7047     		bx	lr
ARM GAS  /tmp/ccoHwu3e.s 			page 3


 115              	.LVL12:
 116              	.L14:
 117 001e 0020     		movs	r0, #0
 118              	.LVL13:
 119 0020 7047     		bx	lr
 120              	.L16:
 121 0022 00BF     		.align	2
 122              	.L15:
 123 0024 001000E0 		.word	-536866816
 124              		.cfi_endproc
 125              	.LFE119:
 126              		.size	halIsCounterWithin, .-halIsCounterWithin
 127              		.section	.text.halPolledDelay,"ax",%progbits
 128              		.align	2
 129              		.p2align 4,,15
 130              		.global	halPolledDelay
 131              		.thumb
 132              		.thumb_func
 133              		.type	halPolledDelay, %function
 134              	halPolledDelay:
 135              	.LFB120:
 136              		.loc 1 193 0
 137              		.cfi_startproc
 138              		@ args = 0, pretend = 0, frame = 0
 139              		@ frame_needed = 0, uses_anonymous_args = 0
 140              		@ link register save eliminated.
 141              	.LVL14:
 142              		.loc 1 194 0
 143 0000 0849     		ldr	r1, .L28
 144 0002 4A68     		ldr	r2, [r1, #4]
 145              	.LVL15:
 146              		.loc 1 195 0
 147 0004 1044     		add	r0, r0, r2
 148              	.LVL16:
 149              	.L26:
 150              	.LBB4:
 151              	.LBB5:
 152              		.loc 1 177 0 discriminator 1
 153 0006 8242     		cmp	r2, r0
 154              		.loc 1 175 0 discriminator 1
 155 0008 4B68     		ldr	r3, [r1, #4]
 156              	.LVL17:
 157              		.loc 1 177 0 discriminator 1
 158 000a 02D2     		bcs	.L18
 159              		.loc 1 177 0 is_stmt 0
 160 000c 9A42     		cmp	r2, r3
 161 000e 02D9     		bls	.L27
 162 0010 7047     		bx	lr
 163              	.L18:
 164              		.loc 1 178 0 is_stmt 1
 165 0012 9A42     		cmp	r2, r3
 166 0014 F7D9     		bls	.L26
 167              	.L27:
 168 0016 9842     		cmp	r0, r3
 169 0018 94BF     		ite	ls
 170 001a 0023     		movls	r3, #0
 171              	.LVL18:
ARM GAS  /tmp/ccoHwu3e.s 			page 4


 172 001c 0123     		movhi	r3, #1
 173              	.LBE5:
 174              	.LBE4:
 175              		.loc 1 196 0
 176 001e 002B     		cmp	r3, #0
 177 0020 F1D1     		bne	.L26
 178 0022 7047     		bx	lr
 179              	.L29:
 180              		.align	2
 181              	.L28:
 182 0024 001000E0 		.word	-536866816
 183              		.cfi_endproc
 184              	.LFE120:
 185              		.size	halPolledDelay, .-halPolledDelay
 186              		.text
 187              	.Letext0:
 188              		.file 2 "/home/sbcu/Dropbox/pcb-layouts/axo-on-discovery-board/axoloti/platform_linux/arm-none-eab
 189              		.file 3 "/home/sbcu/Dropbox/pcb-layouts/axo-on-discovery-board/axoloti/platform_linux/arm-none-eab
 190              		.file 4 "/home/sbcu/Dropbox/pcb-layouts/axo-on-discovery-board/axoloti/platform_linux/../chibios/o
 191              		.file 5 "/home/sbcu/Dropbox/pcb-layouts/axo-on-discovery-board/axoloti/platform_linux/../chibios/o
 192              		.file 6 "/home/sbcu/Dropbox/pcb-layouts/axo-on-discovery-board/axoloti/platform_linux/../chibios/o
 193              		.file 7 "/home/sbcu/Dropbox/pcb-layouts/axo-on-discovery-board/axoloti/platform_linux/../chibios/o
 194              		.file 8 "/home/sbcu/Dropbox/pcb-layouts/axo-on-discovery-board/axoloti/platform_linux/../chibios/o
 195              		.file 9 "/home/sbcu/Dropbox/pcb-layouts/axo-on-discovery-board/axoloti/platform_linux/../chibios/o
 196              		.file 10 "/home/sbcu/Dropbox/pcb-layouts/axo-on-discovery-board/axoloti/platform_linux/../chibios/
 197              		.file 11 "/home/sbcu/Dropbox/pcb-layouts/axo-on-discovery-board/axoloti/platform_linux/../chibios/
 198              		.file 12 "/home/sbcu/Dropbox/pcb-layouts/axo-on-discovery-board/axoloti/platform_linux/../chibios/
 199              		.file 13 "../board.h"