ARM GAS  /tmp/ccoJFpTg.s 			page 1


   1              		.syntax unified
   2              		.cpu cortex-m4
   3              		.eabi_attribute 27, 1
   4              		.eabi_attribute 28, 1
   5              		.fpu fpv4-sp-d16
   6              		.eabi_attribute 20, 1
   7              		.eabi_attribute 21, 1
   8              		.eabi_attribute 23, 3
   9              		.eabi_attribute 24, 1
  10              		.eabi_attribute 25, 1
  11              		.eabi_attribute 26, 1
  12              		.eabi_attribute 30, 2
  13              		.eabi_attribute 34, 1
  14              		.eabi_attribute 18, 4
  15              		.thumb
  16              		.file	"hal_lld.c"
  17              		.text
  18              	.Ltext0:
  19              		.cfi_sections	.debug_frame
  20              		.section	.text.hal_lld_init,"ax",%progbits
  21              		.align	2
  22              		.p2align 4,,15
  23              		.global	hal_lld_init
  24              		.thumb
  25              		.thumb_func
  26              		.type	hal_lld_init, %function
  27              	hal_lld_init:
  28              	.LFB119:
  29              		.file 1 "/home/sbcu/Dropbox/pcb-layouts/axo-on-discovery-board/axoloti/platform_linux/../chibios/o
  30              		.loc 1 111 0
  31              		.cfi_startproc
  32              		@ args = 0, pretend = 0, frame = 0
  33              		@ frame_needed = 0, uses_anonymous_args = 0
  34              		.loc 1 115 0
  35 0000 204B     		ldr	r3, .L8
  36              		.loc 1 121 0
  37 0002 2149     		ldr	r1, .L8+4
  38              		.loc 1 115 0
  39 0004 1A69     		ldr	r2, [r3, #16]
  40 0006 4FF0FF30 		mov	r0, #-1
  41 000a 0022     		movs	r2, #0
  42              		.loc 1 111 0
  43 000c F0B5     		push	{r4, r5, r6, r7, lr}
  44              		.cfi_def_cfa_offset 20
  45              		.cfi_offset 4, -20
  46              		.cfi_offset 5, -16
  47              		.cfi_offset 6, -12
  48              		.cfi_offset 7, -8
  49              		.cfi_offset 14, -4
  50              		.loc 1 115 0
  51 000e 1861     		str	r0, [r3, #16]
  52 0010 1A61     		str	r2, [r3, #16]
  53              		.loc 1 116 0
  54 0012 5C69     		ldr	r4, [r3, #20]
  55 0014 5861     		str	r0, [r3, #20]
  56 0016 5A61     		str	r2, [r3, #20]
  57              		.loc 1 117 0
ARM GAS  /tmp/ccoJFpTg.s 			page 2


  58 0018 1C6A     		ldr	r4, [r3, #32]
  59              		.loc 1 128 0
  60 001a 1C4F     		ldr	r7, .L8+8
  61              		.loc 1 121 0
  62 001c DFF878E0 		ldr	lr, .L8+20
  63              		.loc 1 129 0
  64 0020 1B4E     		ldr	r6, .L8+12
  65              	.LBB4:
  66              	.LBB5:
  67              		.loc 1 54 0
  68 0022 1C4D     		ldr	r5, .L8+16
  69              	.LBE5:
  70              	.LBE4:
  71              		.loc 1 117 0
  72 0024 64F08054 		orn	r4, r4, #268435456
  73 0028 1C62     		str	r4, [r3, #32]
  74 002a 1A62     		str	r2, [r3, #32]
  75              		.loc 1 123 0
  76 002c 0724     		movs	r4, #7
  77              		.loc 1 118 0
  78 002e D3F824C0 		ldr	ip, [r3, #36]
  79 0032 5862     		str	r0, [r3, #36]
  80 0034 5A62     		str	r2, [r3, #36]
  81              		.loc 1 121 0
  82 0036 C1F804E0 		str	lr, [r1, #4]
  83              		.loc 1 122 0
  84 003a 8A60     		str	r2, [r1, #8]
  85              		.loc 1 123 0
  86 003c 0C60     		str	r4, [r1]
  87              		.loc 1 128 0
  88 003e F968     		ldr	r1, [r7, #12]
  89 0040 41F08071 		orr	r1, r1, #16777216
  90 0044 F960     		str	r1, [r7, #12]
  91              		.loc 1 129 0
  92 0046 3168     		ldr	r1, [r6]
  93 0048 41F00101 		orr	r1, r1, #1
  94 004c 3160     		str	r1, [r6]
  95              		.loc 1 132 0
  96 004e 196C     		ldr	r1, [r3, #64]
  97 0050 41F08051 		orr	r1, r1, #268435456
  98 0054 1964     		str	r1, [r3, #64]
  99              	.LBB7:
 100              	.LBB6:
 101              		.loc 1 54 0
 102 0056 2968     		ldr	r1, [r5]
 103 0058 41F48071 		orr	r1, r1, #256
 104 005c 2960     		str	r1, [r5]
 105              		.loc 1 57 0
 106 005e 196F     		ldr	r1, [r3, #112]
 107 0060 01F44071 		and	r1, r1, #768
 108 0064 B1F5007F 		cmp	r1, #512
 109 0068 03D0     		beq	.L2
 110              		.loc 1 59 0
 111 006a 4FF48031 		mov	r1, #65536
 112 006e 1967     		str	r1, [r3, #112]
 113              		.loc 1 60 0
 114 0070 1A67     		str	r2, [r3, #112]
ARM GAS  /tmp/ccoJFpTg.s 			page 3


 115              	.L2:
 116              		.loc 1 94 0
 117 0072 084A     		ldr	r2, .L8+16
 118 0074 5368     		ldr	r3, [r2, #4]
 119 0076 23F40073 		bic	r3, r3, #512
 120 007a 5360     		str	r3, [r2, #4]
 121              	.LBE6:
 122              	.LBE7:
 123              		.loc 1 145 0
 124 007c BDE8F040 		pop	{r4, r5, r6, r7, lr}
 125              		.cfi_restore 14
 126              		.cfi_restore 7
 127              		.cfi_restore 6
 128              		.cfi_restore 5
 129              		.cfi_restore 4
 130              		.cfi_def_cfa_offset 0
 131              		.loc 1 138 0
 132 0080 FFF7FEBF 		b	dmaInit
 133              	.LVL0:
 134              	.L9:
 135              		.align	2
 136              	.L8:
 137 0084 00380240 		.word	1073887232
 138 0088 10E000E0 		.word	-536813552
 139 008c F0ED00E0 		.word	-536810000
 140 0090 001000E0 		.word	-536866816
 141 0094 00700040 		.word	1073770496
 142 0098 3F900200 		.word	167999
 143              		.cfi_endproc
 144              	.LFE119:
 145              		.size	hal_lld_init, .-hal_lld_init
 146              		.section	.text.stm32_clock_init,"ax",%progbits
 147              		.align	2
 148              		.p2align 4,,15
 149              		.global	stm32_clock_init
 150              		.thumb
 151              		.thumb_func
 152              		.type	stm32_clock_init, %function
 153              	stm32_clock_init:
 154              	.LFB120:
 155              		.loc 1 154 0
 156              		.cfi_startproc
 157              		@ args = 0, pretend = 0, frame = 0
 158              		@ frame_needed = 0, uses_anonymous_args = 0
 159              		@ link register save eliminated.
 160              		.loc 1 158 0
 161 0000 3249     		ldr	r1, .L34
 162              		.loc 1 162 0
 163 0002 334B     		ldr	r3, .L34+4
 164              		.loc 1 158 0
 165 0004 4FF08050 		mov	r0, #268435456
 166              		.loc 1 162 0
 167 0008 4FF44042 		mov	r2, #49152
 168              		.loc 1 158 0
 169 000c 0864     		str	r0, [r1, #64]
 170              		.loc 1 162 0
 171 000e 1A60     		str	r2, [r3]
ARM GAS  /tmp/ccoJFpTg.s 			page 4


 172              		.loc 1 169 0
 173 0010 0B68     		ldr	r3, [r1]
 174 0012 43F00103 		orr	r3, r3, #1
 175 0016 0B60     		str	r3, [r1]
 176              	.L11:
 177              		.loc 1 170 0 discriminator 1
 178 0018 0A68     		ldr	r2, [r1]
 179 001a 2C4B     		ldr	r3, .L34
 180 001c 9007     		lsls	r0, r2, #30
 181 001e FBD5     		bpl	.L11
 182              		.loc 1 176 0
 183 0020 9A68     		ldr	r2, [r3, #8]
 184 0022 22F00302 		bic	r2, r2, #3
 185 0026 9A60     		str	r2, [r3, #8]
 186              		.loc 1 177 0
 187 0028 9A68     		ldr	r2, [r3, #8]
 188 002a 9A60     		str	r2, [r3, #8]
 189              		.loc 1 178 0
 190 002c 1946     		mov	r1, r3
 191              	.L12:
 192              		.loc 1 178 0 is_stmt 0 discriminator 1
 193 002e 8B68     		ldr	r3, [r1, #8]
 194 0030 264A     		ldr	r2, .L34
 195 0032 13F00C03 		ands	r3, r3, #12
 196 0036 FAD1     		bne	.L12
 197              		.loc 1 182 0 is_stmt 1
 198 0038 1168     		ldr	r1, [r2]
 199 003a 01F0F901 		and	r1, r1, #249
 200 003e 1160     		str	r1, [r2]
 201              		.loc 1 183 0
 202 0040 9360     		str	r3, [r2, #8]
 203              		.loc 1 192 0
 204 0042 1368     		ldr	r3, [r2]
 205 0044 43F48033 		orr	r3, r3, #65536
 206 0048 1360     		str	r3, [r2]
 207              	.L13:
 208              		.loc 1 194 0 discriminator 1
 209 004a 1168     		ldr	r1, [r2]
 210 004c 1F4B     		ldr	r3, .L34
 211 004e 8903     		lsls	r1, r1, #14
 212 0050 FBD5     		bpl	.L13
 213              		.loc 1 200 0
 214 0052 5A6F     		ldr	r2, [r3, #116]
 215 0054 42F00102 		orr	r2, r2, #1
 216 0058 5A67     		str	r2, [r3, #116]
 217              	.L14:
 218              		.loc 1 201 0 discriminator 1
 219 005a 5A6F     		ldr	r2, [r3, #116]
 220 005c 1B49     		ldr	r1, .L34
 221 005e 9207     		lsls	r2, r2, #30
 222 0060 FBD5     		bpl	.L14
 223              		.loc 1 207 0
 224 0062 1C4B     		ldr	r3, .L34+8
 225 0064 4B60     		str	r3, [r1, #4]
 226              		.loc 1 209 0
 227 0066 0B68     		ldr	r3, [r1]
 228              		.loc 1 213 0
ARM GAS  /tmp/ccoJFpTg.s 			page 5


 229 0068 194A     		ldr	r2, .L34+4
 230              		.loc 1 209 0
 231 006a 43F08073 		orr	r3, r3, #16777216
 232 006e 0B60     		str	r3, [r1]
 233              	.L15:
 234              		.loc 1 213 0 discriminator 1
 235 0070 5368     		ldr	r3, [r2, #4]
 236 0072 5B04     		lsls	r3, r3, #17
 237 0074 FCD5     		bpl	.L15
 238              		.loc 1 229 0 discriminator 1
 239 0076 1549     		ldr	r1, .L34
 240              	.L27:
 241 0078 0A68     		ldr	r2, [r1]
 242 007a 144B     		ldr	r3, .L34
 243 007c 9001     		lsls	r0, r2, #6
 244 007e FBD5     		bpl	.L27
 245              		.loc 1 235 0
 246 0080 154A     		ldr	r2, .L34+12
 247 0082 C3F88420 		str	r2, [r3, #132]
 248              		.loc 1 236 0
 249 0086 1A68     		ldr	r2, [r3]
 250 0088 42F08062 		orr	r2, r2, #67108864
 251 008c 1A60     		str	r2, [r3]
 252              		.loc 1 239 0
 253 008e 1A46     		mov	r2, r3
 254              	.L17:
 255              		.loc 1 239 0 is_stmt 0 discriminator 1
 256 0090 1168     		ldr	r1, [r2]
 257 0092 0E4B     		ldr	r3, .L34
 258 0094 0901     		lsls	r1, r1, #4
 259 0096 FBD5     		bpl	.L17
 260              		.loc 1 257 0 is_stmt 1
 261 0098 104A     		ldr	r2, .L34+16
 262              		.loc 1 244 0
 263 009a 1149     		ldr	r1, .L34+20
 264 009c 9960     		str	r1, [r3, #8]
 265              		.loc 1 257 0
 266 009e 40F20571 		movw	r1, #1797
 267 00a2 1160     		str	r1, [r2]
 268              		.loc 1 263 0
 269 00a4 9A68     		ldr	r2, [r3, #8]
 270 00a6 42F00202 		orr	r2, r2, #2
 271 00aa 9A60     		str	r2, [r3, #8]
 272              		.loc 1 264 0
 273 00ac 1A46     		mov	r2, r3
 274              	.L18:
 275              		.loc 1 264 0 is_stmt 0 discriminator 1
 276 00ae 9368     		ldr	r3, [r2, #8]
 277 00b0 0649     		ldr	r1, .L34
 278 00b2 03F00C03 		and	r3, r3, #12
 279 00b6 082B     		cmp	r3, #8
 280 00b8 F9D1     		bne	.L18
 281              		.loc 1 271 0 is_stmt 1
 282 00ba 4B6C     		ldr	r3, [r1, #68]
 283 00bc 43F48043 		orr	r3, r3, #16384
 284 00c0 4B64     		str	r3, [r1, #68]
 285 00c2 4B6E     		ldr	r3, [r1, #100]
ARM GAS  /tmp/ccoJFpTg.s 			page 6


 286 00c4 43F48043 		orr	r3, r3, #16384
 287 00c8 4B66     		str	r3, [r1, #100]
 288 00ca 7047     		bx	lr
 289              	.L35:
 290              		.align	2
 291              	.L34:
 292 00cc 00380240 		.word	1073887232
 293 00d0 00700040 		.word	1073770496
 294 00d4 08544007 		.word	121656328
 295 00d8 80400030 		.word	805322880
 296 00dc 003C0240 		.word	1073888256
 297 00e0 00944838 		.word	944280576
 298              		.cfi_endproc
 299              	.LFE120:
 300              		.size	stm32_clock_init, .-stm32_clock_init
 301              		.text
 302              	.Letext0:
 303              		.file 2 "/home/sbcu/Dropbox/pcb-layouts/axo-on-discovery-board/axoloti/platform_linux/arm-none-eab
 304              		.file 3 "/home/sbcu/Dropbox/pcb-layouts/axo-on-discovery-board/axoloti/platform_linux/arm-none-eab
 305              		.file 4 "/home/sbcu/Dropbox/pcb-layouts/axo-on-discovery-board/axoloti/platform_linux/../chibios/o
 306              		.file 5 "/home/sbcu/Dropbox/pcb-layouts/axo-on-discovery-board/axoloti/platform_linux/../chibios/o
 307              		.file 6 "/home/sbcu/Dropbox/pcb-layouts/axo-on-discovery-board/axoloti/platform_linux/../chibios/o
 308              		.file 7 "/home/sbcu/Dropbox/pcb-layouts/axo-on-discovery-board/axoloti/platform_linux/../chibios/o