ARM GAS  /tmp/cch2FMMK.s 			page 1


   1              		.syntax unified
   2              		.cpu cortex-m4
   3              		.eabi_attribute 27, 1
   4              		.eabi_attribute 28, 1
   5              		.fpu fpv4-sp-d16
   6              		.eabi_attribute 20, 1
   7              		.eabi_attribute 21, 1
   8              		.eabi_attribute 23, 3
   9              		.eabi_attribute 24, 1
  10              		.eabi_attribute 25, 1
  11              		.eabi_attribute 26, 1
  12              		.eabi_attribute 30, 2
  13              		.eabi_attribute 34, 1
  14              		.eabi_attribute 18, 4
  15              		.thumb
  16              		.file	"main.c"
  17              		.text
  18              	.Ltext0:
  19              		.cfi_sections	.debug_frame
  20              		.section	.text.NVIC_SystemReset,"ax",%progbits
  21              		.align	2
  22              		.p2align 4,,15
  23              		.thumb
  24              		.thumb_func
  25              		.type	NVIC_SystemReset, %function
  26              	NVIC_SystemReset:
  27              	.LFB113:
  28              		.file 1 "/home/sbcu/Dropbox/pcb-layouts/axo-on-discovery-board/axoloti/platform_linux/../chibios/o
  29              		.loc 1 1624 0
  30              		.cfi_startproc
  31              		@ Volatile: function does not return.
  32              		@ args = 0, pretend = 0, frame = 0
  33              		@ frame_needed = 0, uses_anonymous_args = 0
  34              		@ link register save eliminated.
  35              	.LBB9:
  36              	.LBB10:
  37              		.file 2 "/home/sbcu/Dropbox/pcb-layouts/axo-on-discovery-board/axoloti/platform_linux/../chibios/o
  38              		.loc 2 343 0
  39              	@ 343 "/home/sbcu/Dropbox/pcb-layouts/axo-on-discovery-board/axoloti/platform_linux/../chibios/os/p
  40 0000 BFF34F8F 		dsb
  41              	@ 0 "" 2
  42              		.thumb
  43              	.LBE10:
  44              	.LBE9:
  45              		.loc 1 1628 0
  46 0004 0449     		ldr	r1, .L4
  47 0006 054B     		ldr	r3, .L4+4
  48 0008 CA68     		ldr	r2, [r1, #12]
  49 000a 02F4E062 		and	r2, r2, #1792
  50 000e 1343     		orrs	r3, r3, r2
  51              		.loc 1 1627 0
  52 0010 CB60     		str	r3, [r1, #12]
  53              	.LBB11:
  54              	.LBB12:
  55              		.loc 2 343 0
  56              	@ 343 "/home/sbcu/Dropbox/pcb-layouts/axo-on-discovery-board/axoloti/platform_linux/../chibios/os/p
  57 0012 BFF34F8F 		dsb
ARM GAS  /tmp/cch2FMMK.s 			page 2


  58              	@ 0 "" 2
  59              		.thumb
  60              	.L2:
  61              	.LBE12:
  62              	.LBE11:
  63              		.loc 1 1631 0 discriminator 1
  64 0016 FEE7     		b	.L2
  65              	.L5:
  66              		.align	2
  67              	.L4:
  68 0018 00ED00E0 		.word	-536810240
  69 001c 0400FA05 		.word	100270084
  70              		.cfi_endproc
  71              	.LFE113:
  72              		.size	NVIC_SystemReset, .-NVIC_SystemReset
  73              		.section	.text.dbgPrintHexDigit,"ax",%progbits
  74              		.align	2
  75              		.p2align 4,,15
  76              		.global	dbgPrintHexDigit
  77              		.thumb
  78              		.thumb_func
  79              		.type	dbgPrintHexDigit, %function
  80              	dbgPrintHexDigit:
  81              	.LFB119:
  82              		.file 3 "main.c"
  83              		.loc 3 42 0
  84              		.cfi_startproc
  85              		@ args = 0, pretend = 0, frame = 0
  86              		@ frame_needed = 0, uses_anonymous_args = 0
  87              		@ link register save eliminated.
  88              	.LVL0:
  89              		.loc 3 43 0
  90 0000 0928     		cmp	r0, #9
  91 0002 07D8     		bhi	.L8
  92              		.loc 3 47 0
  93 0004 00F13001 		add	r1, r0, #48
  94 0008 C9B2     		uxtb	r1, r1
  95 000a 0648     		ldr	r0, .L9
  96              	.LVL1:
  97 000c 4FF0FF32 		mov	r2, #-1
  98 0010 FFF7FEBF 		b	chOQPutTimeout
  99              	.LVL2:
 100              	.L8:
 101              	.LBB15:
 102              	.LBB16:
 103              		.loc 3 44 0
 104 0014 00F15701 		add	r1, r0, #87
 105 0018 C9B2     		uxtb	r1, r1
 106 001a 0248     		ldr	r0, .L9
 107              	.LVL3:
 108 001c 4FF0FF32 		mov	r2, #-1
 109 0020 FFF7FEBF 		b	chOQPutTimeout
 110              	.LVL4:
 111              	.L10:
 112              		.align	2
 113              	.L9:
 114 0024 30000000 		.word	SD2+48
ARM GAS  /tmp/cch2FMMK.s 			page 3


 115              	.LBE16:
 116              	.LBE15:
 117              		.cfi_endproc
 118              	.LFE119:
 119              		.size	dbgPrintHexDigit, .-dbgPrintHexDigit
 120              		.section	.text.refresh_LCD,"ax",%progbits
 121              		.align	2
 122              		.p2align 4,,15
 123              		.global	refresh_LCD
 124              		.thumb
 125              		.thumb_func
 126              		.type	refresh_LCD, %function
 127              	refresh_LCD:
 128              	.LFB120:
 129              		.loc 3 80 0
 130              		.cfi_startproc
 131              		@ args = 0, pretend = 0, frame = 0
 132              		@ frame_needed = 0, uses_anonymous_args = 0
 133              		@ link register save eliminated.
 134 0000 7047     		bx	lr
 135              		.cfi_endproc
 136              	.LFE120:
 137              		.size	refresh_LCD, .-refresh_LCD
 138 0002 00BF     		.section	.text.DispayAbortErr,"ax",%progbits
 139              		.align	2
 140              		.p2align 4,,15
 141              		.global	DispayAbortErr
 142              		.thumb
 143              		.thumb_func
 144              		.type	DispayAbortErr, %function
 145              	DispayAbortErr:
 146              	.LFB121:
 147              		.loc 3 90 0
 148              		.cfi_startproc
 149              		@ args = 0, pretend = 0, frame = 0
 150              		@ frame_needed = 0, uses_anonymous_args = 0
 151              	.LVL5:
 152              		.loc 3 91 0
 153 0000 00F13001 		add	r1, r0, #48
 154              		.loc 3 90 0
 155 0004 70B5     		push	{r4, r5, r6, lr}
 156              		.cfi_def_cfa_offset 16
 157              		.cfi_offset 4, -16
 158              		.cfi_offset 5, -12
 159              		.cfi_offset 6, -8
 160              		.cfi_offset 14, -4
 161              		.loc 3 91 0
 162 0006 C9B2     		uxtb	r1, r1
 163 0008 0D48     		ldr	r0, .L16
 164              	.LVL6:
 165              		.loc 3 98 0
 166 000a 0E4D     		ldr	r5, .L16+4
 167              		.loc 3 91 0
 168 000c 4FF0FF32 		mov	r2, #-1
 169 0010 FFF7FEFF 		bl	chOQPutTimeout
 170              	.LVL7:
 171              		.loc 3 98 0
ARM GAS  /tmp/cch2FMMK.s 			page 4


 172 0014 4FF08053 		mov	r3, #268435456
 173 0018 AB61     		str	r3, [r5, #24]
 174              	.LVL8:
 175 001a 0A24     		movs	r4, #10
 176              		.loc 3 101 0
 177 001c 4FF48046 		mov	r6, #16384
 178              	.LVL9:
 179              	.L13:
 180              		.loc 3 102 0
 181 0020 4FF47A70 		mov	r0, #1000
 182              		.loc 3 101 0
 183 0024 AE61     		str	r6, [r5, #24]
 184              		.loc 3 102 0
 185 0026 FFF7FEFF 		bl	chThdSleep
 186              	.LVL10:
 187              		.loc 3 103 0
 188 002a 4FF08043 		mov	r3, #1073741824
 189 002e AB61     		str	r3, [r5, #24]
 190              		.loc 3 104 0
 191 0030 4FF47A70 		mov	r0, #1000
 192 0034 FFF7FEFF 		bl	chThdSleep
 193              	.LVL11:
 194              		.loc 3 100 0
 195 0038 013C     		subs	r4, r4, #1
 196              	.LVL12:
 197 003a F1D1     		bne	.L13
 198              		.loc 3 106 0
 199 003c FFF7FEFF 		bl	NVIC_SystemReset
 200              	.LVL13:
 201              	.L17:
 202              		.align	2
 203              	.L16:
 204 0040 30000000 		.word	SD2+48
 205 0044 000C0240 		.word	1073875968
 206              		.cfi_endproc
 207              	.LFE121:
 208              		.size	DispayAbortErr, .-DispayAbortErr
 209              		.section	.text.startup.main,"ax",%progbits
 210              		.align	2
 211              		.p2align 4,,15
 212              		.global	main
 213              		.thumb
 214              		.thumb_func
 215              		.type	main, %function
 216              	main:
 217              	.LFB122:
 218              		.loc 3 109 0
 219              		.cfi_startproc
 220              		@ args = 0, pretend = 0, frame = 104
 221              		@ frame_needed = 0, uses_anonymous_args = 0
 222 0000 2DE9F04F 		push	{r4, r5, r6, r7, r8, r9, r10, fp, lr}
 223              		.cfi_def_cfa_offset 36
 224              		.cfi_offset 4, -36
 225              		.cfi_offset 5, -32
 226              		.cfi_offset 6, -28
 227              		.cfi_offset 7, -24
 228              		.cfi_offset 8, -20
ARM GAS  /tmp/cch2FMMK.s 			page 5


 229              		.cfi_offset 9, -16
 230              		.cfi_offset 10, -12
 231              		.cfi_offset 11, -8
 232              		.cfi_offset 14, -4
 233 0004 9BB0     		sub	sp, sp, #108
 234              		.cfi_def_cfa_offset 144
 235              		.loc 3 110 0
 236 0006 FFF7FEFF 		bl	watchdog_feed
 237              	.LVL14:
 238              		.loc 3 117 0
 239 000a B84C     		ldr	r4, .L40
 240              		.loc 3 111 0
 241 000c FFF7FEFF 		bl	halInit
 242              	.LVL15:
 243              		.loc 3 114 0
 244 0010 B748     		ldr	r0, .L40+4
 245 0012 4FF40061 		mov	r1, #2048
 246 0016 0022     		movs	r2, #0
 247 0018 FFF7FEFF 		bl	_pal_lld_setgroupmode
 248              	.LVL16:
 249              		.loc 3 115 0
 250 001c B448     		ldr	r0, .L40+4
 251 001e 4FF48051 		mov	r1, #4096
 252 0022 0022     		movs	r2, #0
 253 0024 FFF7FEFF 		bl	_pal_lld_setgroupmode
 254              	.LVL17:
 255              		.loc 3 117 0
 256 0028 2046     		mov	r0, r4
 257 002a 4FF48051 		mov	r1, #4096
 258 002e 0122     		movs	r2, #1
 259 0030 FFF7FEFF 		bl	_pal_lld_setgroupmode
 260              	.LVL18:
 261              		.loc 3 118 0
 262 0034 4FF48053 		mov	r3, #4096
 263 0038 2383     		strh	r3, [r4, #24]	@ movhi
 264              		.loc 3 120 0
 265 003a 2046     		mov	r0, r4
 266 003c 4FF48041 		mov	r1, #16384
 267 0040 0122     		movs	r2, #1
 268 0042 FFF7FEFF 		bl	_pal_lld_setgroupmode
 269              	.LVL19:
 270              		.loc 3 124 0
 271 0046 2046     		mov	r0, r4
 272 0048 4FF40051 		mov	r1, #8192
 273 004c 0122     		movs	r2, #1
 274 004e FFF7FEFF 		bl	_pal_lld_setgroupmode
 275              	.LVL20:
 276              		.loc 3 127 0
 277 0052 2046     		mov	r0, r4
 278 0054 4FF40041 		mov	r1, #32768
 279 0058 0122     		movs	r2, #1
 280 005a FFF7FEFF 		bl	_pal_lld_setgroupmode
 281              	.LVL21:
 282              		.loc 3 131 0
 283 005e FFF7FEFF 		bl	chSysInit
 284              	.LVL22:
 285              		.loc 3 132 0
ARM GAS  /tmp/cch2FMMK.s 			page 6


 286 0062 FFF7FEFF 		bl	watchdog_feed
 287              	.LVL23:
 288              		.loc 3 133 0
 289 0066 FFF7FEFF 		bl	configSDRAM
 290              	.LVL24:
 291              		.loc 3 137 0
 292 006a A148     		ldr	r0, .L40+4
 293 006c 0821     		movs	r1, #8
 294 006e 40F28232 		movw	r2, #898
 295 0072 FFF7FEFF 		bl	_pal_lld_setgroupmode
 296              	.LVL25:
 297              		.loc 3 138 0
 298 0076 9E48     		ldr	r0, .L40+4
 299 0078 0421     		movs	r1, #4
 300 007a 0122     		movs	r2, #1
 301 007c FFF7FEFF 		bl	_pal_lld_setgroupmode
 302              	.LVL26:
 303              		.loc 3 139 0
 304 0080 40F28232 		movw	r2, #898
 305 0084 9A48     		ldr	r0, .L40+4
 306 0086 0421     		movs	r1, #4
 307 0088 FFF7FEFF 		bl	_pal_lld_setgroupmode
 308              	.LVL27:
 309              		.loc 3 142 0
 310 008c 9948     		ldr	r0, .L40+8
 311 008e 9A49     		ldr	r1, .L40+12
 312 0090 FFF7FEFF 		bl	sdStart
 313              	.LVL28:
 314              		.loc 3 145 0
 315 0094 6121     		movs	r1, #97
 316 0096 4FF0FF32 		mov	r2, #-1
 317 009a 9848     		ldr	r0, .L40+16
 318 009c FFF7FEFF 		bl	chOQPutTimeout
 319              	.LVL29:
 320              		.loc 3 156 0
 321 00a0 4FF04044 		mov	r4, #-1073741824
 322              		.loc 3 148 0
 323 00a4 0AA8     		add	r0, sp, #40
 324 00a6 4FF4A021 		mov	r1, #327680
 325 00aa 1022     		movs	r2, #16
 326 00ac FFF7FEFF 		bl	SDRAM_ReadBuffer
 327              	.LVL30:
 328              		.loc 3 149 0
 329 00b0 7821     		movs	r1, #120
 330 00b2 4FF0FF32 		mov	r2, #-1
 331 00b6 9148     		ldr	r0, .L40+16
 332 00b8 FFF7FEFF 		bl	chOQPutTimeout
 333              	.LVL31:
 334              		.loc 3 151 0
 335 00bc FFF7FEFF 		bl	watchdog_feed
 336              	.LVL32:
 337              		.loc 3 156 0
 338 00c0 2378     		ldrb	r3, [r4]	@ zero_extendqisi2
 339 00c2 662B     		cmp	r3, #102
 340 00c4 02D0     		beq	.L38
 341              	.L19:
 342              		.loc 3 159 0
ARM GAS  /tmp/cch2FMMK.s 			page 7


 343 00c6 0120     		movs	r0, #1
 344 00c8 FFF7FEFF 		bl	DispayAbortErr
 345              	.LVL33:
 346              	.L38:
 347              		.loc 3 156 0 discriminator 1
 348 00cc 8C4B     		ldr	r3, .L40+20
 349 00ce 1B78     		ldrb	r3, [r3]	@ zero_extendqisi2
 350 00d0 6C2B     		cmp	r3, #108
 351 00d2 F8D1     		bne	.L19
 352              		.loc 3 156 0 is_stmt 0 discriminator 2
 353 00d4 8B4B     		ldr	r3, .L40+24
 354 00d6 1B78     		ldrb	r3, [r3]	@ zero_extendqisi2
 355 00d8 612B     		cmp	r3, #97
 356 00da F4D1     		bne	.L19
 357              		.loc 3 157 0 is_stmt 1
 358 00dc 8A4B     		ldr	r3, .L40+28
 359 00de 1B78     		ldrb	r3, [r3]	@ zero_extendqisi2
 360 00e0 732B     		cmp	r3, #115
 361 00e2 F0D1     		bne	.L19
 362              		.loc 3 157 0 is_stmt 0 discriminator 1
 363 00e4 894B     		ldr	r3, .L40+32
 364 00e6 1F78     		ldrb	r7, [r3]	@ zero_extendqisi2
 365 00e8 632F     		cmp	r7, #99
 366 00ea ECD1     		bne	.L19
 367              		.loc 3 157 0 discriminator 2
 368 00ec 0133     		adds	r3, r3, #1
 369 00ee 1B78     		ldrb	r3, [r3]	@ zero_extendqisi2
 370 00f0 6F2B     		cmp	r3, #111
 371 00f2 E8D1     		bne	.L19
 372              		.loc 3 158 0 is_stmt 1
 373 00f4 864B     		ldr	r3, .L40+36
 374 00f6 1B78     		ldrb	r3, [r3]	@ zero_extendqisi2
 375 00f8 702B     		cmp	r3, #112
 376 00fa E4D1     		bne	.L19
 377              		.loc 3 158 0 is_stmt 0 discriminator 1
 378 00fc 854B     		ldr	r3, .L40+40
 379 00fe 1B78     		ldrb	r3, [r3]	@ zero_extendqisi2
 380 0100 792B     		cmp	r3, #121
 381 0102 E0D1     		bne	.L19
 382              		.loc 3 161 0 is_stmt 1
 383 0104 7D48     		ldr	r0, .L40+16
 384 0106 6221     		movs	r1, #98
 385 0108 4FF0FF32 		mov	r2, #-1
 386 010c FFF7FEFF 		bl	chOQPutTimeout
 387              	.LVL34:
 388              		.loc 3 163 0
 389 0110 A568     		ldr	r5, [r4, #8]
 390              	.LVL35:
 391              		.loc 3 164 0
 392 0112 E668     		ldr	r6, [r4, #12]
 393              	.LVL36:
 394              		.loc 3 166 0
 395 0114 B5F5801F 		cmp	r5, #1048576
 396 0118 02D9     		bls	.L21
 397              		.loc 3 167 0
 398 011a 0220     		movs	r0, #2
 399 011c FFF7FEFF 		bl	DispayAbortErr
ARM GAS  /tmp/cch2FMMK.s 			page 8


 400              	.LVL37:
 401              	.L21:
 402              		.loc 3 170 0
 403 0120 3946     		mov	r1, r7
 404 0122 4FF0FF32 		mov	r2, #-1
 405 0126 7548     		ldr	r0, .L40+16
 406 0128 FFF7FEFF 		bl	chOQPutTimeout
 407              	.LVL38:
 408              		.loc 3 172 0
 409 012c 2021     		movs	r1, #32
 410 012e 4FF0FF32 		mov	r2, #-1
 411 0132 7248     		ldr	r0, .L40+16
 412 0134 FFF7FEFF 		bl	chOQPutTimeout
 413              	.LVL39:
 414 0138 3021     		movs	r1, #48
 415 013a 4FF0FF32 		mov	r2, #-1
 416 013e 6F48     		ldr	r0, .L40+16
 417 0140 FFF7FEFF 		bl	chOQPutTimeout
 418              	.LVL40:
 419 0144 7821     		movs	r1, #120
 420 0146 4FF0FF32 		mov	r2, #-1
 421 014a 6C48     		ldr	r0, .L40+16
 422 014c FFF7FEFF 		bl	chOQPutTimeout
 423              	.LVL41:
 424 0150 0020     		movs	r0, #0
 425 0152 FFF7FEFF 		bl	dbgPrintHexDigit
 426              	.LVL42:
 427 0156 C5F30757 		ubfx	r7, r5, #20, #8
 428 015a 0020     		movs	r0, #0
 429 015c FFF7FEFF 		bl	dbgPrintHexDigit
 430              	.LVL43:
 431 0160 C5F30348 		ubfx	r8, r5, #16, #4
 432 0164 3846     		mov	r0, r7
 433 0166 FFF7FEFF 		bl	dbgPrintHexDigit
 434              	.LVL44:
 435 016a 4046     		mov	r0, r8
 436 016c FFF7FEFF 		bl	dbgPrintHexDigit
 437              	.LVL45:
 438 0170 C5F30339 		ubfx	r9, r5, #12, #4
 439 0174 C5F30323 		ubfx	r3, r5, #8, #4
 440 0178 1C46     		mov	r4, r3
 441 017a 4846     		mov	r0, r9
 442 017c 0893     		str	r3, [sp, #32]
 443 017e FFF7FEFF 		bl	dbgPrintHexDigit
 444              	.LVL46:
 445 0182 C5F30313 		ubfx	r3, r5, #4, #4
 446 0186 2046     		mov	r0, r4
 447 0188 0793     		str	r3, [sp, #28]
 448 018a FFF7FEFF 		bl	dbgPrintHexDigit
 449              	.LVL47:
 450 018e 05F00F02 		and	r2, r5, #15
 451 0192 1446     		mov	r4, r2
 452 0194 0798     		ldr	r0, [sp, #28]
 453 0196 0992     		str	r2, [sp, #36]
 454 0198 FFF7FEFF 		bl	dbgPrintHexDigit
 455              	.LVL48:
 456 019c 2046     		mov	r0, r4
ARM GAS  /tmp/cch2FMMK.s 			page 9


 457 019e FFF7FEFF 		bl	dbgPrintHexDigit
 458              	.LVL49:
 459 01a2 0D21     		movs	r1, #13
 460 01a4 4FF0FF32 		mov	r2, #-1
 461 01a8 5448     		ldr	r0, .L40+16
 462 01aa FFF7FEFF 		bl	chOQPutTimeout
 463              	.LVL50:
 464 01ae 4FF0FF32 		mov	r2, #-1
 465 01b2 0A21     		movs	r1, #10
 466 01b4 5148     		ldr	r0, .L40+16
 467 01b6 FFF7FEFF 		bl	chOQPutTimeout
 468              	.LVL51:
 469              		.loc 3 174 0
 470 01ba 2946     		mov	r1, r5
 471 01bc 5648     		ldr	r0, .L40+44
 472 01be FFF7FEFF 		bl	CalcCRC32
 473              	.LVL52:
 474              		.loc 3 176 0
 475 01c2 6421     		movs	r1, #100
 476              		.loc 3 174 0
 477 01c4 0446     		mov	r4, r0
 478              	.LVL53:
 479              		.loc 3 176 0
 480 01c6 4FF0FF32 		mov	r2, #-1
 481 01ca 4C48     		ldr	r0, .L40+16
 482              	.LVL54:
 483 01cc FFF7FEFF 		bl	chOQPutTimeout
 484              	.LVL55:
 485              		.loc 3 178 0
 486 01d0 2021     		movs	r1, #32
 487 01d2 4FF0FF32 		mov	r2, #-1
 488 01d6 4948     		ldr	r0, .L40+16
 489 01d8 FFF7FEFF 		bl	chOQPutTimeout
 490              	.LVL56:
 491 01dc 3021     		movs	r1, #48
 492 01de 4FF0FF32 		mov	r2, #-1
 493 01e2 4648     		ldr	r0, .L40+16
 494 01e4 FFF7FEFF 		bl	chOQPutTimeout
 495              	.LVL57:
 496 01e8 7821     		movs	r1, #120
 497 01ea 4FF0FF32 		mov	r2, #-1
 498 01ee 4348     		ldr	r0, .L40+16
 499 01f0 FFF7FEFF 		bl	chOQPutTimeout
 500              	.LVL58:
 501 01f4 200F     		lsrs	r0, r4, #28
 502 01f6 FFF7FEFF 		bl	dbgPrintHexDigit
 503              	.LVL59:
 504 01fa C4F30360 		ubfx	r0, r4, #24, #4
 505 01fe FFF7FEFF 		bl	dbgPrintHexDigit
 506              	.LVL60:
 507 0202 C4F30350 		ubfx	r0, r4, #20, #4
 508 0206 FFF7FEFF 		bl	dbgPrintHexDigit
 509              	.LVL61:
 510 020a C4F30340 		ubfx	r0, r4, #16, #4
 511 020e FFF7FEFF 		bl	dbgPrintHexDigit
 512              	.LVL62:
 513 0212 C4F30330 		ubfx	r0, r4, #12, #4
ARM GAS  /tmp/cch2FMMK.s 			page 10


 514 0216 FFF7FEFF 		bl	dbgPrintHexDigit
 515              	.LVL63:
 516 021a C4F30320 		ubfx	r0, r4, #8, #4
 517 021e FFF7FEFF 		bl	dbgPrintHexDigit
 518              	.LVL64:
 519 0222 C4F30310 		ubfx	r0, r4, #4, #4
 520 0226 FFF7FEFF 		bl	dbgPrintHexDigit
 521              	.LVL65:
 522 022a 04F00F00 		and	r0, r4, #15
 523 022e FFF7FEFF 		bl	dbgPrintHexDigit
 524              	.LVL66:
 525 0232 0D21     		movs	r1, #13
 526 0234 4FF0FF32 		mov	r2, #-1
 527 0238 3048     		ldr	r0, .L40+16
 528 023a FFF7FEFF 		bl	chOQPutTimeout
 529              	.LVL67:
 530 023e 0A21     		movs	r1, #10
 531 0240 4FF0FF32 		mov	r2, #-1
 532 0244 2D48     		ldr	r0, .L40+16
 533 0246 FFF7FEFF 		bl	chOQPutTimeout
 534              	.LVL68:
 535              		.loc 3 179 0
 536 024a 2021     		movs	r1, #32
 537 024c 4FF0FF32 		mov	r2, #-1
 538 0250 2A48     		ldr	r0, .L40+16
 539 0252 FFF7FEFF 		bl	chOQPutTimeout
 540              	.LVL69:
 541 0256 3021     		movs	r1, #48
 542 0258 4FF0FF32 		mov	r2, #-1
 543 025c 2748     		ldr	r0, .L40+16
 544 025e FFF7FEFF 		bl	chOQPutTimeout
 545              	.LVL70:
 546 0262 4FEA167B 		lsr	fp, r6, #28
 547 0266 7821     		movs	r1, #120
 548 0268 4FF0FF32 		mov	r2, #-1
 549 026c 2348     		ldr	r0, .L40+16
 550 026e FFF7FEFF 		bl	chOQPutTimeout
 551              	.LVL71:
 552 0272 C6F3036A 		ubfx	r10, r6, #24, #4
 553 0276 5846     		mov	r0, fp
 554 0278 FFF7FEFF 		bl	dbgPrintHexDigit
 555              	.LVL72:
 556 027c C6F30353 		ubfx	r3, r6, #20, #4
 557 0280 5046     		mov	r0, r10
 558 0282 0193     		str	r3, [sp, #4]
 559 0284 FFF7FEFF 		bl	dbgPrintHexDigit
 560              	.LVL73:
 561 0288 C6F30342 		ubfx	r2, r6, #16, #4
 562 028c 0198     		ldr	r0, [sp, #4]
 563 028e 0292     		str	r2, [sp, #8]
 564 0290 FFF7FEFF 		bl	dbgPrintHexDigit
 565              	.LVL74:
 566 0294 C6F30333 		ubfx	r3, r6, #12, #4
 567 0298 0298     		ldr	r0, [sp, #8]
 568 029a 0393     		str	r3, [sp, #12]
 569 029c FFF7FEFF 		bl	dbgPrintHexDigit
 570              	.LVL75:
ARM GAS  /tmp/cch2FMMK.s 			page 11


 571 02a0 C6F30322 		ubfx	r2, r6, #8, #4
 572 02a4 0398     		ldr	r0, [sp, #12]
 573 02a6 0492     		str	r2, [sp, #16]
 574 02a8 FFF7FEFF 		bl	dbgPrintHexDigit
 575              	.LVL76:
 576 02ac C6F30313 		ubfx	r3, r6, #4, #4
 577 02b0 0498     		ldr	r0, [sp, #16]
 578 02b2 0593     		str	r3, [sp, #20]
 579 02b4 FFF7FEFF 		bl	dbgPrintHexDigit
 580              	.LVL77:
 581 02b8 06F00F02 		and	r2, r6, #15
 582 02bc 0598     		ldr	r0, [sp, #20]
 583 02be 0692     		str	r2, [sp, #24]
 584 02c0 FFF7FEFF 		bl	dbgPrintHexDigit
 585              	.LVL78:
 586 02c4 0698     		ldr	r0, [sp, #24]
 587 02c6 FFF7FEFF 		bl	dbgPrintHexDigit
 588              	.LVL79:
 589 02ca 0D21     		movs	r1, #13
 590 02cc 4FF0FF32 		mov	r2, #-1
 591 02d0 0A48     		ldr	r0, .L40+16
 592 02d2 FFF7FEFF 		bl	chOQPutTimeout
 593              	.LVL80:
 594 02d6 0948     		ldr	r0, .L40+16
 595 02d8 0A21     		movs	r1, #10
 596 02da 4FF0FF32 		mov	r2, #-1
 597 02de FFF7FEFF 		bl	chOQPutTimeout
 598              	.LVL81:
 599              		.loc 3 181 0
 600 02e2 B442     		cmp	r4, r6
 601 02e4 1AD0     		beq	.L22
 602              		.loc 3 182 0
 603 02e6 0320     		movs	r0, #3
 604 02e8 FFF7FEFF 		bl	DispayAbortErr
 605              	.LVL82:
 606              	.L41:
 607              		.align	2
 608              	.L40:
 609 02ec 000C0240 		.word	1073875968
 610 02f0 00000240 		.word	1073872896
 611 02f4 00000000 		.word	SD2
 612 02f8 00000000 		.word	.LANCHOR0
 613 02fc 30000000 		.word	SD2+48
 614 0300 010000C0 		.word	-1073741823
 615 0304 020000C0 		.word	-1073741822
 616 0308 030000C0 		.word	-1073741821
 617 030c 040000C0 		.word	-1073741820
 618 0310 060000C0 		.word	-1073741818
 619 0314 070000C0 		.word	-1073741817
 620 0318 100000C0 		.word	-1073741808
 621              	.L22:
 622              		.loc 3 185 0
 623 031c 6521     		movs	r1, #101
 624 031e 4FF0FF32 		mov	r2, #-1
 625 0322 9048     		ldr	r0, .L42
 626 0324 FFF7FEFF 		bl	chOQPutTimeout
 627              	.LVL83:
ARM GAS  /tmp/cch2FMMK.s 			page 12


 628              		.loc 3 188 0
 629 0328 8F4B     		ldr	r3, .L42+4
 630 032a 9049     		ldr	r1, .L42+8
 631              		.loc 3 189 0
 632 032c 904A     		ldr	r2, .L42+12
 633              		.loc 3 188 0
 634 032e 5960     		str	r1, [r3, #4]
 635              		.loc 3 193 0
 636 0330 0026     		movs	r6, #0
 637              	.LVL84:
 638              		.loc 3 189 0
 639 0332 5A60     		str	r2, [r3, #4]
 640              	.LVL85:
 641              	.L23:
 642              		.loc 3 194 0 discriminator 3
 643 0334 3046     		mov	r0, r6
 644 0336 FFF7FEFF 		bl	flash_Erase_sector
 645              	.LVL86:
 646              		.loc 3 195 0 discriminator 3
 647 033a 8023     		movs	r3, #128
 648 033c 0020     		movs	r0, #0
 649 033e 0321     		movs	r1, #3
 650 0340 8C4A     		ldr	r2, .L42+16
 651 0342 FFF7FEFF 		bl	LCD_drawStringN
 652              	.LVL87:
 653              		.loc 3 196 0 discriminator 3
 654 0346 0321     		movs	r1, #3
 655 0348 3246     		mov	r2, r6
 656 034a 5020     		movs	r0, #80
 657 034c FFF7FEFF 		bl	LCD_drawNumber3D
 658              	.LVL88:
 659              		.loc 3 198 0 discriminator 3
 660 0350 894A     		ldr	r2, .L42+20
 661 0352 4FF48043 		mov	r3, #16384
 662 0356 9361     		str	r3, [r2, #24]
 663              		.loc 3 199 0 discriminator 3
 664 0358 6420     		movs	r0, #100
 665 035a FFF7FEFF 		bl	chThdSleep
 666              	.LVL89:
 667              		.loc 3 200 0 discriminator 3
 668 035e 864A     		ldr	r2, .L42+20
 669              		.loc 3 201 0 discriminator 3
 670 0360 8048     		ldr	r0, .L42
 671              		.loc 3 200 0 discriminator 3
 672 0362 4FF08043 		mov	r3, #1073741824
 673 0366 9361     		str	r3, [r2, #24]
 674              		.loc 3 201 0 discriminator 3
 675 0368 6621     		movs	r1, #102
 676 036a 4FF0FF32 		mov	r2, #-1
 677 036e FFF7FEFF 		bl	chOQPutTimeout
 678              	.LVL90:
 679              		.loc 3 202 0 discriminator 3
 680 0372 2021     		movs	r1, #32
 681 0374 4FF0FF32 		mov	r2, #-1
 682 0378 7A48     		ldr	r0, .L42
 683 037a FFF7FEFF 		bl	chOQPutTimeout
 684              	.LVL91:
ARM GAS  /tmp/cch2FMMK.s 			page 13


 685 037e 3021     		movs	r1, #48
 686 0380 4FF0FF32 		mov	r2, #-1
 687 0384 7748     		ldr	r0, .L42
 688 0386 FFF7FEFF 		bl	chOQPutTimeout
 689              	.LVL92:
 690 038a 7821     		movs	r1, #120
 691 038c 4FF0FF32 		mov	r2, #-1
 692 0390 7448     		ldr	r0, .L42
 693 0392 FFF7FEFF 		bl	chOQPutTimeout
 694              	.LVL93:
 695 0396 0020     		movs	r0, #0
 696 0398 FFF7FEFF 		bl	dbgPrintHexDigit
 697              	.LVL94:
 698 039c 0020     		movs	r0, #0
 699 039e FFF7FEFF 		bl	dbgPrintHexDigit
 700              	.LVL95:
 701 03a2 0020     		movs	r0, #0
 702 03a4 FFF7FEFF 		bl	dbgPrintHexDigit
 703              	.LVL96:
 704 03a8 0020     		movs	r0, #0
 705 03aa FFF7FEFF 		bl	dbgPrintHexDigit
 706              	.LVL97:
 707 03ae 0020     		movs	r0, #0
 708 03b0 FFF7FEFF 		bl	dbgPrintHexDigit
 709              	.LVL98:
 710 03b4 0020     		movs	r0, #0
 711 03b6 FFF7FEFF 		bl	dbgPrintHexDigit
 712              	.LVL99:
 713 03ba 0020     		movs	r0, #0
 714 03bc FFF7FEFF 		bl	dbgPrintHexDigit
 715              	.LVL100:
 716 03c0 F0B2     		uxtb	r0, r6
 717 03c2 FFF7FEFF 		bl	dbgPrintHexDigit
 718              	.LVL101:
 719 03c6 0D21     		movs	r1, #13
 720 03c8 4FF0FF32 		mov	r2, #-1
 721 03cc 6548     		ldr	r0, .L42
 722 03ce FFF7FEFF 		bl	chOQPutTimeout
 723              	.LVL102:
 724              		.loc 3 193 0 discriminator 3
 725 03d2 0136     		adds	r6, r6, #1
 726              	.LVL103:
 727              		.loc 3 202 0 discriminator 3
 728 03d4 6348     		ldr	r0, .L42
 729 03d6 0A21     		movs	r1, #10
 730 03d8 4FF0FF32 		mov	r2, #-1
 731 03dc FFF7FEFF 		bl	chOQPutTimeout
 732              	.LVL104:
 733              		.loc 3 193 0 discriminator 3
 734 03e0 0C2E     		cmp	r6, #12
 735 03e2 A7D1     		bne	.L23
 736              		.loc 3 205 0
 737 03e4 6721     		movs	r1, #103
 738 03e6 4FF0FF32 		mov	r2, #-1
 739 03ea 5E48     		ldr	r0, .L42
 740 03ec FFF7FEFF 		bl	chOQPutTimeout
 741              	.LVL105:
ARM GAS  /tmp/cch2FMMK.s 			page 14


 742              		.loc 3 207 0
 743 03f0 2021     		movs	r1, #32
 744 03f2 4FF0FF32 		mov	r2, #-1
 745 03f6 5B48     		ldr	r0, .L42
 746 03f8 FFF7FEFF 		bl	chOQPutTimeout
 747              	.LVL106:
 748 03fc 3021     		movs	r1, #48
 749 03fe 4FF0FF32 		mov	r2, #-1
 750 0402 5848     		ldr	r0, .L42
 751 0404 FFF7FEFF 		bl	chOQPutTimeout
 752              	.LVL107:
 753 0408 7821     		movs	r1, #120
 754 040a 4FF0FF32 		mov	r2, #-1
 755 040e 5548     		ldr	r0, .L42
 756 0410 FFF7FEFF 		bl	chOQPutTimeout
 757              	.LVL108:
 758 0414 0020     		movs	r0, #0
 759 0416 FFF7FEFF 		bl	dbgPrintHexDigit
 760              	.LVL109:
 761 041a 0020     		movs	r0, #0
 762 041c FFF7FEFF 		bl	dbgPrintHexDigit
 763              	.LVL110:
 764 0420 3846     		mov	r0, r7
 765 0422 FFF7FEFF 		bl	dbgPrintHexDigit
 766              	.LVL111:
 767 0426 4046     		mov	r0, r8
 768 0428 FFF7FEFF 		bl	dbgPrintHexDigit
 769              	.LVL112:
 770 042c 4846     		mov	r0, r9
 771 042e FFF7FEFF 		bl	dbgPrintHexDigit
 772              	.LVL113:
 773 0432 0898     		ldr	r0, [sp, #32]
 774 0434 FFF7FEFF 		bl	dbgPrintHexDigit
 775              	.LVL114:
 776 0438 0798     		ldr	r0, [sp, #28]
 777 043a FFF7FEFF 		bl	dbgPrintHexDigit
 778              	.LVL115:
 779 043e 0998     		ldr	r0, [sp, #36]
 780 0440 FFF7FEFF 		bl	dbgPrintHexDigit
 781              	.LVL116:
 782 0444 0D21     		movs	r1, #13
 783 0446 4FF0FF32 		mov	r2, #-1
 784 044a 4648     		ldr	r0, .L42
 785 044c FFF7FEFF 		bl	chOQPutTimeout
 786              	.LVL117:
 787 0450 4FF0FF32 		mov	r2, #-1
 788 0454 0A21     		movs	r1, #10
 789 0456 4348     		ldr	r0, .L42
 790 0458 FFF7FEFF 		bl	chOQPutTimeout
 791              	.LVL118:
 792              		.loc 3 209 0
 793 045c 2946     		mov	r1, r5
 794 045e 4748     		ldr	r0, .L42+24
 795 0460 FFF7FEFF 		bl	CalcCRC32
 796              	.LVL119:
 797              		.loc 3 211 0
 798 0464 6821     		movs	r1, #104
ARM GAS  /tmp/cch2FMMK.s 			page 15


 799              		.loc 3 209 0
 800 0466 0646     		mov	r6, r0
 801              	.LVL120:
 802              		.loc 3 211 0
 803 0468 4FF0FF32 		mov	r2, #-1
 804 046c 3D48     		ldr	r0, .L42
 805              	.LVL121:
 806 046e FFF7FEFF 		bl	chOQPutTimeout
 807              	.LVL122:
 808              		.loc 3 213 0
 809 0472 2021     		movs	r1, #32
 810 0474 4FF0FF32 		mov	r2, #-1
 811 0478 3A48     		ldr	r0, .L42
 812 047a FFF7FEFF 		bl	chOQPutTimeout
 813              	.LVL123:
 814 047e 3021     		movs	r1, #48
 815 0480 4FF0FF32 		mov	r2, #-1
 816 0484 3748     		ldr	r0, .L42
 817 0486 FFF7FEFF 		bl	chOQPutTimeout
 818              	.LVL124:
 819 048a 7821     		movs	r1, #120
 820 048c 4FF0FF32 		mov	r2, #-1
 821 0490 3448     		ldr	r0, .L42
 822 0492 FFF7FEFF 		bl	chOQPutTimeout
 823              	.LVL125:
 824 0496 300F     		lsrs	r0, r6, #28
 825 0498 FFF7FEFF 		bl	dbgPrintHexDigit
 826              	.LVL126:
 827 049c C6F30360 		ubfx	r0, r6, #24, #4
 828 04a0 FFF7FEFF 		bl	dbgPrintHexDigit
 829              	.LVL127:
 830 04a4 C6F30350 		ubfx	r0, r6, #20, #4
 831 04a8 FFF7FEFF 		bl	dbgPrintHexDigit
 832              	.LVL128:
 833 04ac C6F30340 		ubfx	r0, r6, #16, #4
 834 04b0 FFF7FEFF 		bl	dbgPrintHexDigit
 835              	.LVL129:
 836 04b4 C6F30330 		ubfx	r0, r6, #12, #4
 837 04b8 FFF7FEFF 		bl	dbgPrintHexDigit
 838              	.LVL130:
 839 04bc C6F30320 		ubfx	r0, r6, #8, #4
 840 04c0 FFF7FEFF 		bl	dbgPrintHexDigit
 841              	.LVL131:
 842 04c4 C6F30310 		ubfx	r0, r6, #4, #4
 843 04c8 FFF7FEFF 		bl	dbgPrintHexDigit
 844              	.LVL132:
 845 04cc 06F00F00 		and	r0, r6, #15
 846 04d0 FFF7FEFF 		bl	dbgPrintHexDigit
 847              	.LVL133:
 848 04d4 0D21     		movs	r1, #13
 849 04d6 4FF0FF32 		mov	r2, #-1
 850 04da 2248     		ldr	r0, .L42
 851 04dc FFF7FEFF 		bl	chOQPutTimeout
 852              	.LVL134:
 853 04e0 0A21     		movs	r1, #10
 854 04e2 4FF0FF32 		mov	r2, #-1
 855 04e6 1F48     		ldr	r0, .L42
ARM GAS  /tmp/cch2FMMK.s 			page 16


 856 04e8 FFF7FEFF 		bl	chOQPutTimeout
 857              	.LVL135:
 858              		.loc 3 214 0
 859 04ec 2021     		movs	r1, #32
 860 04ee 4FF0FF32 		mov	r2, #-1
 861 04f2 1C48     		ldr	r0, .L42
 862 04f4 FFF7FEFF 		bl	chOQPutTimeout
 863              	.LVL136:
 864 04f8 3021     		movs	r1, #48
 865 04fa 4FF0FF32 		mov	r2, #-1
 866 04fe 1948     		ldr	r0, .L42
 867 0500 FFF7FEFF 		bl	chOQPutTimeout
 868              	.LVL137:
 869 0504 7821     		movs	r1, #120
 870 0506 4FF0FF32 		mov	r2, #-1
 871 050a 1648     		ldr	r0, .L42
 872 050c FFF7FEFF 		bl	chOQPutTimeout
 873              	.LVL138:
 874 0510 5846     		mov	r0, fp
 875 0512 FFF7FEFF 		bl	dbgPrintHexDigit
 876              	.LVL139:
 877 0516 5046     		mov	r0, r10
 878 0518 FFF7FEFF 		bl	dbgPrintHexDigit
 879              	.LVL140:
 880 051c 0198     		ldr	r0, [sp, #4]
 881 051e FFF7FEFF 		bl	dbgPrintHexDigit
 882              	.LVL141:
 883 0522 0298     		ldr	r0, [sp, #8]
 884 0524 FFF7FEFF 		bl	dbgPrintHexDigit
 885              	.LVL142:
 886 0528 0398     		ldr	r0, [sp, #12]
 887 052a FFF7FEFF 		bl	dbgPrintHexDigit
 888              	.LVL143:
 889 052e 0498     		ldr	r0, [sp, #16]
 890 0530 FFF7FEFF 		bl	dbgPrintHexDigit
 891              	.LVL144:
 892 0534 0598     		ldr	r0, [sp, #20]
 893 0536 FFF7FEFF 		bl	dbgPrintHexDigit
 894              	.LVL145:
 895 053a 0698     		ldr	r0, [sp, #24]
 896 053c FFF7FEFF 		bl	dbgPrintHexDigit
 897              	.LVL146:
 898 0540 0D21     		movs	r1, #13
 899 0542 4FF0FF32 		mov	r2, #-1
 900 0546 0748     		ldr	r0, .L42
 901 0548 FFF7FEFF 		bl	chOQPutTimeout
 902              	.LVL147:
 903 054c 0548     		ldr	r0, .L42
 904 054e 0A21     		movs	r1, #10
 905 0550 4FF0FF32 		mov	r2, #-1
 906 0554 FFF7FEFF 		bl	chOQPutTimeout
 907              	.LVL148:
 908              		.loc 3 216 0
 909 0558 B442     		cmp	r4, r6
 910 055a 11D0     		beq	.L24
 911              		.loc 3 217 0
 912 055c 0420     		movs	r0, #4
ARM GAS  /tmp/cch2FMMK.s 			page 17


 913 055e FFF7FEFF 		bl	DispayAbortErr
 914              	.LVL149:
 915              	.L43:
 916 0562 00BF     		.align	2
 917              	.L42:
 918 0564 30000000 		.word	SD2+48
 919 0568 003C0240 		.word	1073888256
 920 056c 23016745 		.word	1164378403
 921 0570 AB89EFCD 		.word	-839939669
 922 0574 00000000 		.word	.LC0
 923 0578 000C0240 		.word	1073875968
 924 057c 100000C0 		.word	-1073741808
 925              	.L24:
 926              		.loc 3 220 0
 927 0580 C848     		ldr	r0, .L44
 928              		.loc 3 225 0
 929 0582 C94F     		ldr	r7, .L44+4
 930              	.LBB17:
 931              		.loc 3 228 0
 932 0584 C94E     		ldr	r6, .L44+8
 933              	.LVL150:
 934              	.LBE17:
 935              		.loc 3 220 0
 936 0586 6921     		movs	r1, #105
 937 0588 4FF0FF32 		mov	r2, #-1
 938 058c FFF7FEFF 		bl	chOQPutTimeout
 939              	.LVL151:
 940              		.loc 3 225 0
 941 0590 EB1C     		adds	r3, r5, #3
 942 0592 9B08     		lsrs	r3, r3, #2
 943 0594 0793     		str	r3, [sp, #28]
 944              		.loc 3 222 0
 945 0596 4FF00068 		mov	r8, #134217728
 946              		.loc 3 225 0
 947 059a 4FF00009 		mov	r9, #0
 948              	.LVL152:
 949              	.L25:
 950              		.loc 3 225 0 is_stmt 0 discriminator 1
 951 059e 079B     		ldr	r3, [sp, #28]
 952 05a0 9945     		cmp	r9, r3
 953 05a2 00F0F480 		beq	.L39
 954              	.LVL153:
 955              	.LBB18:
 956              		.loc 3 227 0 is_stmt 1
 957 05a6 4046     		mov	r0, r8
 958 05a8 57F8041F 		ldr	r1, [r7, #4]!
 959              	.LVL154:
 960 05ac FFF7FEFF 		bl	flash_ProgramWord
 961              	.LVL155:
 962              		.loc 3 228 0
 963 05b0 F368     		ldr	r3, [r6, #12]
 964 05b2 002B     		cmp	r3, #0
 965 05b4 4DD0     		beq	.L26
 966              		.loc 3 228 0 is_stmt 0 discriminator 1
 967 05b6 F368     		ldr	r3, [r6, #12]
 968 05b8 012B     		cmp	r3, #1
 969 05ba 4AD0     		beq	.L26
ARM GAS  /tmp/cch2FMMK.s 			page 18


 970              		.loc 3 229 0 is_stmt 1
 971 05bc 7A21     		movs	r1, #122
 972 05be 4FF0FF32 		mov	r2, #-1
 973 05c2 B848     		ldr	r0, .L44
 974 05c4 FFF7FEFF 		bl	chOQPutTimeout
 975              	.LVL156:
 976              		.loc 3 230 0
 977 05c8 2021     		movs	r1, #32
 978 05ca 4FF0FF32 		mov	r2, #-1
 979 05ce B548     		ldr	r0, .L44
 980 05d0 FFF7FEFF 		bl	chOQPutTimeout
 981              	.LVL157:
 982 05d4 3021     		movs	r1, #48
 983 05d6 4FF0FF32 		mov	r2, #-1
 984 05da B248     		ldr	r0, .L44
 985 05dc FFF7FEFF 		bl	chOQPutTimeout
 986              	.LVL158:
 987 05e0 7821     		movs	r1, #120
 988 05e2 4FF0FF32 		mov	r2, #-1
 989 05e6 AF48     		ldr	r0, .L44
 990 05e8 FFF7FEFF 		bl	chOQPutTimeout
 991              	.LVL159:
 992 05ec F068     		ldr	r0, [r6, #12]
 993 05ee 000F     		lsrs	r0, r0, #28
 994 05f0 FFF7FEFF 		bl	dbgPrintHexDigit
 995              	.LVL160:
 996 05f4 F068     		ldr	r0, [r6, #12]
 997 05f6 C0F30360 		ubfx	r0, r0, #24, #4
 998 05fa FFF7FEFF 		bl	dbgPrintHexDigit
 999              	.LVL161:
 1000 05fe F068     		ldr	r0, [r6, #12]
 1001 0600 C0F30350 		ubfx	r0, r0, #20, #4
 1002 0604 FFF7FEFF 		bl	dbgPrintHexDigit
 1003              	.LVL162:
 1004 0608 F068     		ldr	r0, [r6, #12]
 1005 060a C0F30340 		ubfx	r0, r0, #16, #4
 1006 060e FFF7FEFF 		bl	dbgPrintHexDigit
 1007              	.LVL163:
 1008 0612 F068     		ldr	r0, [r6, #12]
 1009 0614 C0F30330 		ubfx	r0, r0, #12, #4
 1010 0618 FFF7FEFF 		bl	dbgPrintHexDigit
 1011              	.LVL164:
 1012 061c F068     		ldr	r0, [r6, #12]
 1013 061e C0F30320 		ubfx	r0, r0, #8, #4
 1014 0622 FFF7FEFF 		bl	dbgPrintHexDigit
 1015              	.LVL165:
 1016 0626 F068     		ldr	r0, [r6, #12]
 1017 0628 C0F30310 		ubfx	r0, r0, #4, #4
 1018 062c FFF7FEFF 		bl	dbgPrintHexDigit
 1019              	.LVL166:
 1020 0630 F068     		ldr	r0, [r6, #12]
 1021 0632 00F00F00 		and	r0, r0, #15
 1022 0636 FFF7FEFF 		bl	dbgPrintHexDigit
 1023              	.LVL167:
 1024 063a 0D21     		movs	r1, #13
 1025 063c 4FF0FF32 		mov	r2, #-1
 1026 0640 9848     		ldr	r0, .L44
ARM GAS  /tmp/cch2FMMK.s 			page 19


 1027 0642 FFF7FEFF 		bl	chOQPutTimeout
 1028              	.LVL168:
 1029 0646 9748     		ldr	r0, .L44
 1030 0648 0A21     		movs	r1, #10
 1031 064a 4FF0FF32 		mov	r2, #-1
 1032 064e FFF7FEFF 		bl	chOQPutTimeout
 1033              	.LVL169:
 1034              	.L26:
 1035              		.loc 3 233 0
 1036 0652 C9F30B03 		ubfx	r3, r9, #0, #12
 1037 0656 002B     		cmp	r3, #0
 1038 0658 40F09480 		bne	.L27
 1039 065c 0893     		str	r3, [sp, #32]
 1040              		.loc 3 234 0
 1041 065e 944B     		ldr	r3, .L44+12
 1042 0660 4FF48042 		mov	r2, #16384
 1043 0664 9A61     		str	r2, [r3, #24]
 1044              		.loc 3 235 0
 1045 0666 6420     		movs	r0, #100
 1046 0668 FFF7FEFF 		bl	chThdSleep
 1047              	.LVL170:
 1048 066c 904B     		ldr	r3, .L44+12
 1049              		.loc 3 236 0
 1050 066e 8D48     		ldr	r0, .L44
 1051              		.loc 3 235 0
 1052 0670 4FF08042 		mov	r2, #1073741824
 1053 0674 9A61     		str	r2, [r3, #24]
 1054              		.loc 3 236 0
 1055 0676 6A21     		movs	r1, #106
 1056 0678 4FF0FF32 		mov	r2, #-1
 1057 067c FFF7FEFF 		bl	chOQPutTimeout
 1058              	.LVL171:
 1059              		.loc 3 237 0
 1060 0680 2021     		movs	r1, #32
 1061 0682 4FF0FF32 		mov	r2, #-1
 1062 0686 8748     		ldr	r0, .L44
 1063 0688 FFF7FEFF 		bl	chOQPutTimeout
 1064              	.LVL172:
 1065 068c 3021     		movs	r1, #48
 1066 068e 4FF0FF32 		mov	r2, #-1
 1067 0692 8448     		ldr	r0, .L44
 1068 0694 FFF7FEFF 		bl	chOQPutTimeout
 1069              	.LVL173:
 1070 0698 7821     		movs	r1, #120
 1071 069a 4FF0FF32 		mov	r2, #-1
 1072 069e 8148     		ldr	r0, .L44
 1073 06a0 FFF7FEFF 		bl	chOQPutTimeout
 1074              	.LVL174:
 1075 06a4 089B     		ldr	r3, [sp, #32]
 1076 06a6 1846     		mov	r0, r3
 1077 06a8 FFF7FEFF 		bl	dbgPrintHexDigit
 1078              	.LVL175:
 1079 06ac 0820     		movs	r0, #8
 1080 06ae FFF7FEFF 		bl	dbgPrintHexDigit
 1081              	.LVL176:
 1082 06b2 C8F30350 		ubfx	r0, r8, #20, #4
 1083 06b6 FFF7FEFF 		bl	dbgPrintHexDigit
ARM GAS  /tmp/cch2FMMK.s 			page 20


 1084              	.LVL177:
 1085 06ba C8F30340 		ubfx	r0, r8, #16, #4
 1086 06be FFF7FEFF 		bl	dbgPrintHexDigit
 1087              	.LVL178:
 1088 06c2 C8F30330 		ubfx	r0, r8, #12, #4
 1089 06c6 FFF7FEFF 		bl	dbgPrintHexDigit
 1090              	.LVL179:
 1091 06ca C8F30320 		ubfx	r0, r8, #8, #4
 1092 06ce FFF7FEFF 		bl	dbgPrintHexDigit
 1093              	.LVL180:
 1094 06d2 C8F30310 		ubfx	r0, r8, #4, #4
 1095 06d6 FFF7FEFF 		bl	dbgPrintHexDigit
 1096              	.LVL181:
 1097 06da 08F00F00 		and	r0, r8, #15
 1098 06de FFF7FEFF 		bl	dbgPrintHexDigit
 1099              	.LVL182:
 1100 06e2 0D21     		movs	r1, #13
 1101 06e4 4FF0FF32 		mov	r2, #-1
 1102 06e8 6E48     		ldr	r0, .L44
 1103 06ea FFF7FEFF 		bl	chOQPutTimeout
 1104              	.LVL183:
 1105 06ee 0A21     		movs	r1, #10
 1106 06f0 4FF0FF32 		mov	r2, #-1
 1107 06f4 6B48     		ldr	r0, .L44
 1108 06f6 FFF7FEFF 		bl	chOQPutTimeout
 1109              	.LVL184:
 1110              		.loc 3 238 0
 1111 06fa 2021     		movs	r1, #32
 1112 06fc 4FF0FF32 		mov	r2, #-1
 1113 0700 6848     		ldr	r0, .L44
 1114 0702 FFF7FEFF 		bl	chOQPutTimeout
 1115              	.LVL185:
 1116 0706 3021     		movs	r1, #48
 1117 0708 4FF0FF32 		mov	r2, #-1
 1118 070c 6548     		ldr	r0, .L44
 1119 070e FFF7FEFF 		bl	chOQPutTimeout
 1120              	.LVL186:
 1121 0712 7821     		movs	r1, #120
 1122 0714 4FF0FF32 		mov	r2, #-1
 1123 0718 6248     		ldr	r0, .L44
 1124 071a FFF7FEFF 		bl	chOQPutTimeout
 1125              	.LVL187:
 1126 071e 3868     		ldr	r0, [r7]
 1127 0720 000F     		lsrs	r0, r0, #28
 1128 0722 FFF7FEFF 		bl	dbgPrintHexDigit
 1129              	.LVL188:
 1130 0726 F878     		ldrb	r0, [r7, #3]	@ zero_extendqisi2
 1131 0728 00F00F00 		and	r0, r0, #15
 1132 072c FFF7FEFF 		bl	dbgPrintHexDigit
 1133              	.LVL189:
 1134 0730 3868     		ldr	r0, [r7]
 1135 0732 C0F30350 		ubfx	r0, r0, #20, #4
 1136 0736 FFF7FEFF 		bl	dbgPrintHexDigit
 1137              	.LVL190:
 1138 073a 7888     		ldrh	r0, [r7, #2]
 1139 073c 00F00F00 		and	r0, r0, #15
 1140 0740 FFF7FEFF 		bl	dbgPrintHexDigit
ARM GAS  /tmp/cch2FMMK.s 			page 21


 1141              	.LVL191:
 1142 0744 3868     		ldr	r0, [r7]
 1143 0746 C0F30330 		ubfx	r0, r0, #12, #4
 1144 074a FFF7FEFF 		bl	dbgPrintHexDigit
 1145              	.LVL192:
 1146 074e 3868     		ldr	r0, [r7]
 1147 0750 C0F30320 		ubfx	r0, r0, #8, #4
 1148 0754 FFF7FEFF 		bl	dbgPrintHexDigit
 1149              	.LVL193:
 1150 0758 3868     		ldr	r0, [r7]
 1151 075a C0F30310 		ubfx	r0, r0, #4, #4
 1152 075e FFF7FEFF 		bl	dbgPrintHexDigit
 1153              	.LVL194:
 1154 0762 3868     		ldr	r0, [r7]
 1155 0764 00F00F00 		and	r0, r0, #15
 1156 0768 FFF7FEFF 		bl	dbgPrintHexDigit
 1157              	.LVL195:
 1158 076c 0D21     		movs	r1, #13
 1159 076e 4FF0FF32 		mov	r2, #-1
 1160 0772 4C48     		ldr	r0, .L44
 1161 0774 FFF7FEFF 		bl	chOQPutTimeout
 1162              	.LVL196:
 1163 0778 4A48     		ldr	r0, .L44
 1164 077a 0A21     		movs	r1, #10
 1165 077c 4FF0FF32 		mov	r2, #-1
 1166 0780 FFF7FEFF 		bl	chOQPutTimeout
 1167              	.LVL197:
 1168              	.L27:
 1169              		.loc 3 240 0 discriminator 2
 1170 0784 08F10408 		add	r8, r8, #4
 1171              	.LVL198:
 1172              	.LBE18:
 1173              		.loc 3 225 0 discriminator 2
 1174 0788 09F10109 		add	r9, r9, #1
 1175              	.LVL199:
 1176 078c 07E7     		b	.L25
 1177              	.L39:
 1178              		.loc 3 244 0
 1179 078e 4FF0FF32 		mov	r2, #-1
 1180 0792 6B21     		movs	r1, #107
 1181 0794 4348     		ldr	r0, .L44
 1182 0796 FFF7FEFF 		bl	chOQPutTimeout
 1183              	.LVL200:
 1184              		.loc 3 246 0
 1185 079a 2946     		mov	r1, r5
 1186 079c 4FF00060 		mov	r0, #134217728
 1187 07a0 FFF7FEFF 		bl	CalcCRC32
 1188              	.LVL201:
 1189              		.loc 3 248 0
 1190 07a4 6C21     		movs	r1, #108
 1191              		.loc 3 246 0
 1192 07a6 0546     		mov	r5, r0
 1193              	.LVL202:
 1194              		.loc 3 248 0
 1195 07a8 4FF0FF32 		mov	r2, #-1
 1196 07ac 3D48     		ldr	r0, .L44
 1197              	.LVL203:
ARM GAS  /tmp/cch2FMMK.s 			page 22


 1198 07ae FFF7FEFF 		bl	chOQPutTimeout
 1199              	.LVL204:
 1200              		.loc 3 250 0
 1201 07b2 2021     		movs	r1, #32
 1202 07b4 4FF0FF32 		mov	r2, #-1
 1203 07b8 3A48     		ldr	r0, .L44
 1204 07ba FFF7FEFF 		bl	chOQPutTimeout
 1205              	.LVL205:
 1206 07be 3021     		movs	r1, #48
 1207 07c0 4FF0FF32 		mov	r2, #-1
 1208 07c4 3748     		ldr	r0, .L44
 1209 07c6 FFF7FEFF 		bl	chOQPutTimeout
 1210              	.LVL206:
 1211 07ca 7821     		movs	r1, #120
 1212 07cc 4FF0FF32 		mov	r2, #-1
 1213 07d0 3448     		ldr	r0, .L44
 1214 07d2 FFF7FEFF 		bl	chOQPutTimeout
 1215              	.LVL207:
 1216 07d6 280F     		lsrs	r0, r5, #28
 1217 07d8 FFF7FEFF 		bl	dbgPrintHexDigit
 1218              	.LVL208:
 1219 07dc C5F30360 		ubfx	r0, r5, #24, #4
 1220 07e0 FFF7FEFF 		bl	dbgPrintHexDigit
 1221              	.LVL209:
 1222 07e4 C5F30350 		ubfx	r0, r5, #20, #4
 1223 07e8 FFF7FEFF 		bl	dbgPrintHexDigit
 1224              	.LVL210:
 1225 07ec C5F30340 		ubfx	r0, r5, #16, #4
 1226 07f0 FFF7FEFF 		bl	dbgPrintHexDigit
 1227              	.LVL211:
 1228 07f4 C5F30330 		ubfx	r0, r5, #12, #4
 1229 07f8 FFF7FEFF 		bl	dbgPrintHexDigit
 1230              	.LVL212:
 1231 07fc C5F30320 		ubfx	r0, r5, #8, #4
 1232 0800 FFF7FEFF 		bl	dbgPrintHexDigit
 1233              	.LVL213:
 1234 0804 C5F30310 		ubfx	r0, r5, #4, #4
 1235 0808 FFF7FEFF 		bl	dbgPrintHexDigit
 1236              	.LVL214:
 1237 080c 05F00F00 		and	r0, r5, #15
 1238 0810 FFF7FEFF 		bl	dbgPrintHexDigit
 1239              	.LVL215:
 1240 0814 0D21     		movs	r1, #13
 1241 0816 4FF0FF32 		mov	r2, #-1
 1242 081a 2248     		ldr	r0, .L44
 1243 081c FFF7FEFF 		bl	chOQPutTimeout
 1244              	.LVL216:
 1245 0820 0A21     		movs	r1, #10
 1246 0822 4FF0FF32 		mov	r2, #-1
 1247 0826 1F48     		ldr	r0, .L44
 1248 0828 FFF7FEFF 		bl	chOQPutTimeout
 1249              	.LVL217:
 1250              		.loc 3 251 0
 1251 082c 2021     		movs	r1, #32
 1252 082e 4FF0FF32 		mov	r2, #-1
 1253 0832 1C48     		ldr	r0, .L44
 1254 0834 FFF7FEFF 		bl	chOQPutTimeout
ARM GAS  /tmp/cch2FMMK.s 			page 23


 1255              	.LVL218:
 1256 0838 3021     		movs	r1, #48
 1257 083a 4FF0FF32 		mov	r2, #-1
 1258 083e 1948     		ldr	r0, .L44
 1259 0840 FFF7FEFF 		bl	chOQPutTimeout
 1260              	.LVL219:
 1261 0844 7821     		movs	r1, #120
 1262 0846 4FF0FF32 		mov	r2, #-1
 1263 084a 1648     		ldr	r0, .L44
 1264 084c FFF7FEFF 		bl	chOQPutTimeout
 1265              	.LVL220:
 1266 0850 5846     		mov	r0, fp
 1267 0852 FFF7FEFF 		bl	dbgPrintHexDigit
 1268              	.LVL221:
 1269 0856 5046     		mov	r0, r10
 1270 0858 FFF7FEFF 		bl	dbgPrintHexDigit
 1271              	.LVL222:
 1272 085c 0198     		ldr	r0, [sp, #4]
 1273 085e FFF7FEFF 		bl	dbgPrintHexDigit
 1274              	.LVL223:
 1275 0862 0298     		ldr	r0, [sp, #8]
 1276 0864 FFF7FEFF 		bl	dbgPrintHexDigit
 1277              	.LVL224:
 1278 0868 0398     		ldr	r0, [sp, #12]
 1279 086a FFF7FEFF 		bl	dbgPrintHexDigit
 1280              	.LVL225:
 1281 086e 0498     		ldr	r0, [sp, #16]
 1282 0870 FFF7FEFF 		bl	dbgPrintHexDigit
 1283              	.LVL226:
 1284 0874 0598     		ldr	r0, [sp, #20]
 1285 0876 FFF7FEFF 		bl	dbgPrintHexDigit
 1286              	.LVL227:
 1287 087a 0698     		ldr	r0, [sp, #24]
 1288 087c FFF7FEFF 		bl	dbgPrintHexDigit
 1289              	.LVL228:
 1290 0880 0D21     		movs	r1, #13
 1291 0882 4FF0FF32 		mov	r2, #-1
 1292 0886 0748     		ldr	r0, .L44
 1293 0888 FFF7FEFF 		bl	chOQPutTimeout
 1294              	.LVL229:
 1295 088c 0548     		ldr	r0, .L44
 1296 088e 0A21     		movs	r1, #10
 1297 0890 4FF0FF32 		mov	r2, #-1
 1298 0894 FFF7FEFF 		bl	chOQPutTimeout
 1299              	.LVL230:
 1300              		.loc 3 253 0
 1301 0898 AC42     		cmp	r4, r5
 1302 089a 0BD0     		beq	.L29
 1303              		.loc 3 254 0
 1304 089c 0520     		movs	r0, #5
 1305 089e FFF7FEFF 		bl	DispayAbortErr
 1306              	.LVL231:
 1307              	.L45:
 1308 08a2 00BF     		.align	2
 1309              	.L44:
 1310 08a4 30000000 		.word	SD2+48
 1311 08a8 0C0000C0 		.word	-1073741812
ARM GAS  /tmp/cch2FMMK.s 			page 24


 1312 08ac 003C0240 		.word	1073888256
 1313 08b0 000C0240 		.word	1073875968
 1314              	.L29:
 1315              		.loc 3 257 0
 1316 08b4 0D21     		movs	r1, #13
 1317 08b6 4FF0FF32 		mov	r2, #-1
 1318 08ba 2248     		ldr	r0, .L46
 1319 08bc FFF7FEFF 		bl	chOQPutTimeout
 1320              	.LVL232:
 1321              		.loc 3 258 0
 1322 08c0 0A21     		movs	r1, #10
 1323 08c2 4FF0FF32 		mov	r2, #-1
 1324 08c6 1F48     		ldr	r0, .L46
 1325 08c8 FFF7FEFF 		bl	chOQPutTimeout
 1326              	.LVL233:
 1327              		.loc 3 259 0
 1328 08cc 5321     		movs	r1, #83
 1329 08ce 4FF0FF32 		mov	r2, #-1
 1330 08d2 1C48     		ldr	r0, .L46
 1331 08d4 FFF7FEFF 		bl	chOQPutTimeout
 1332              	.LVL234:
 1333              		.loc 3 260 0
 1334 08d8 5521     		movs	r1, #85
 1335 08da 4FF0FF32 		mov	r2, #-1
 1336 08de 1948     		ldr	r0, .L46
 1337 08e0 FFF7FEFF 		bl	chOQPutTimeout
 1338              	.LVL235:
 1339              		.loc 3 261 0
 1340 08e4 4321     		movs	r1, #67
 1341 08e6 4FF0FF32 		mov	r2, #-1
 1342 08ea 1648     		ldr	r0, .L46
 1343 08ec FFF7FEFF 		bl	chOQPutTimeout
 1344              	.LVL236:
 1345              		.loc 3 262 0
 1346 08f0 4321     		movs	r1, #67
 1347 08f2 4FF0FF32 		mov	r2, #-1
 1348 08f6 1348     		ldr	r0, .L46
 1349 08f8 FFF7FEFF 		bl	chOQPutTimeout
 1350              	.LVL237:
 1351              		.loc 3 263 0
 1352 08fc 4521     		movs	r1, #69
 1353 08fe 4FF0FF32 		mov	r2, #-1
 1354 0902 1048     		ldr	r0, .L46
 1355 0904 FFF7FEFF 		bl	chOQPutTimeout
 1356              	.LVL238:
 1357              		.loc 3 264 0
 1358 0908 5321     		movs	r1, #83
 1359 090a 4FF0FF32 		mov	r2, #-1
 1360 090e 0D48     		ldr	r0, .L46
 1361 0910 FFF7FEFF 		bl	chOQPutTimeout
 1362              	.LVL239:
 1363              		.loc 3 265 0
 1364 0914 5321     		movs	r1, #83
 1365 0916 4FF0FF32 		mov	r2, #-1
 1366 091a 0A48     		ldr	r0, .L46
 1367 091c FFF7FEFF 		bl	chOQPutTimeout
 1368              	.LVL240:
ARM GAS  /tmp/cch2FMMK.s 			page 25


 1369              		.loc 3 266 0
 1370 0920 0D21     		movs	r1, #13
 1371 0922 4FF0FF32 		mov	r2, #-1
 1372 0926 0748     		ldr	r0, .L46
 1373 0928 FFF7FEFF 		bl	chOQPutTimeout
 1374              	.LVL241:
 1375              		.loc 3 267 0
 1376 092c 0A21     		movs	r1, #10
 1377 092e 4FF0FF32 		mov	r2, #-1
 1378 0932 0448     		ldr	r0, .L46
 1379 0934 FFF7FEFF 		bl	chOQPutTimeout
 1380              	.LVL242:
 1381              		.loc 3 269 0
 1382 0938 4FF47A70 		mov	r0, #1000
 1383 093c FFF7FEFF 		bl	chThdSleep
 1384              	.LVL243:
 1385              		.loc 3 270 0
 1386 0940 FFF7FEFF 		bl	NVIC_SystemReset
 1387              	.LVL244:
 1388              	.L47:
 1389              		.align	2
 1390              	.L46:
 1391 0944 30000000 		.word	SD2+48
 1392              		.cfi_endproc
 1393              	.LFE122:
 1394              		.size	main, .-main
 1395              		.global	EncBuffer
 1396              		.global	Btn_Nav_And
 1397              		.global	Btn_Nav_Or
 1398              		.global	Btn_Nav_PrevStates
 1399              		.global	Btn_Nav_CurStates
 1400              		.section	.bss.Btn_Nav_CurStates,"aw",%nobits
 1401              		.align	2
 1402              		.type	Btn_Nav_CurStates, %object
 1403              		.size	Btn_Nav_CurStates, 4
 1404              	Btn_Nav_CurStates:
 1405 0000 00000000 		.space	4
 1406              		.section	.rodata.sd2Cfg.7086,"a",%progbits
 1407              		.align	2
 1408              		.set	.LANCHOR0,. + 0
 1409              		.type	sd2Cfg.7086, %object
 1410              		.size	sd2Cfg.7086, 12
 1411              	sd2Cfg.7086:
 1412 0000 00C20100 		.word	115200
 1413 0004 0000     		.short	0
 1414 0006 0000     		.short	0
 1415 0008 0000     		.short	0
 1416 000a 0000     		.space	2
 1417              		.section	.bss.Btn_Nav_PrevStates,"aw",%nobits
 1418              		.align	2
 1419              		.type	Btn_Nav_PrevStates, %object
 1420              		.size	Btn_Nav_PrevStates, 4
 1421              	Btn_Nav_PrevStates:
 1422 0000 00000000 		.space	4
 1423              		.section	.rodata.str1.4,"aMS",%progbits,1
 1424              		.align	2
 1425              	.LC0:
ARM GAS  /tmp/cch2FMMK.s 			page 26


 1426 0000 45726173 		.ascii	"Erased sector\000"
 1426      65642073 
 1426      6563746F 
 1426      7200
 1427              		.section	.bss.Btn_Nav_Or,"aw",%nobits
 1428              		.align	2
 1429              		.type	Btn_Nav_Or, %object
 1430              		.size	Btn_Nav_Or, 4
 1431              	Btn_Nav_Or:
 1432 0000 00000000 		.space	4
 1433              		.section	.bss.Btn_Nav_And,"aw",%nobits
 1434              		.align	2
 1435              		.type	Btn_Nav_And, %object
 1436              		.size	Btn_Nav_And, 4
 1437              	Btn_Nav_And:
 1438 0000 00000000 		.space	4
 1439              		.section	.bss.EncBuffer,"aw",%nobits
 1440              		.align	2
 1441              		.type	EncBuffer, %object
 1442              		.size	EncBuffer, 4
 1443              	EncBuffer:
 1444 0000 00000000 		.space	4
 1445              		.text
 1446              	.Letext0:
 1447              		.file 4 "/home/sbcu/Dropbox/pcb-layouts/axo-on-discovery-board/axoloti/platform_linux/lib/gcc/arm-
 1448              		.file 5 "/home/sbcu/Dropbox/pcb-layouts/axo-on-discovery-board/axoloti/platform_linux/arm-none-eab
 1449              		.file 6 "/home/sbcu/Dropbox/pcb-layouts/axo-on-discovery-board/axoloti/platform_linux/arm-none-eab
 1450              		.file 7 "/home/sbcu/Dropbox/pcb-layouts/axo-on-discovery-board/axoloti/platform_linux/../chibios/o
 1451              		.file 8 "/home/sbcu/Dropbox/pcb-layouts/axo-on-discovery-board/axoloti/platform_linux/../chibios/o
 1452              		.file 9 "/home/sbcu/Dropbox/pcb-layouts/axo-on-discovery-board/axoloti/platform_linux/../chibios/o
 1453              		.file 10 "/home/sbcu/Dropbox/pcb-layouts/axo-on-discovery-board/axoloti/platform_linux/../chibios/
 1454              		.file 11 "/home/sbcu/Dropbox/pcb-layouts/axo-on-discovery-board/axoloti/platform_linux/../chibios/
 1455              		.file 12 "/home/sbcu/Dropbox/pcb-layouts/axo-on-discovery-board/axoloti/platform_linux/../chibios/
 1456              		.file 13 "/home/sbcu/Dropbox/pcb-layouts/axo-on-discovery-board/axoloti/platform_linux/../chibios/
 1457              		.file 14 "/home/sbcu/Dropbox/pcb-layouts/axo-on-discovery-board/axoloti/platform_linux/../chibios/
 1458              		.file 15 "/home/sbcu/Dropbox/pcb-layouts/axo-on-discovery-board/axoloti/platform_linux/../chibios/
 1459              		.file 16 "/home/sbcu/Dropbox/pcb-layouts/axo-on-discovery-board/axoloti/platform_linux/../chibios/
 1460              		.file 17 "/home/sbcu/Dropbox/pcb-layouts/axo-on-discovery-board/axoloti/platform_linux/../chibios/
 1461              		.file 18 "../ui.h"
 1462              		.file 19 "../flash.h"
 1463              		.file 20 "../exceptions.h"
 1464              		.file 21 "/home/sbcu/Dropbox/pcb-layouts/axo-on-discovery-board/axoloti/platform_linux/../chibios/
 1465              		.file 22 "/home/sbcu/Dropbox/pcb-layouts/axo-on-discovery-board/axoloti/platform_linux/../chibios/
 1466              		.file 23 "../sdram.h"
 1467              		.file 24 "../crc32.h"
 1468              		.file 25 "../axoloti_control.h"