ARM GAS  /tmp/ccTOfVXV.s 			page 1


   1              		.syntax unified
   2              		.cpu cortex-m4
   3              		.eabi_attribute 27, 1
   4              		.eabi_attribute 28, 1
   5              		.fpu fpv4-sp-d16
   6              		.eabi_attribute 20, 1
   7              		.eabi_attribute 21, 1
   8              		.eabi_attribute 23, 3
   9              		.eabi_attribute 24, 1
  10              		.eabi_attribute 25, 1
  11              		.eabi_attribute 26, 1
  12              		.eabi_attribute 30, 2
  13              		.eabi_attribute 34, 1
  14              		.eabi_attribute 18, 4
  15              		.thumb
  16              		.file	"pwm_lld.c"
  17              		.text
  18              	.Ltext0:
  19              		.cfi_sections	.debug_frame
  20              		.section	.text.pwm_lld_serve_interrupt,"ax",%progbits
  21              		.align	2
  22              		.p2align 4,,15
  23              		.thumb
  24              		.thumb_func
  25              		.type	pwm_lld_serve_interrupt, %function
  26              	pwm_lld_serve_interrupt:
  27              	.LFB118:
  28              		.file 1 "/home/sbcu/Dropbox/pcb-layouts/axo-on-discovery-board/axoloti/platform_linux/../chibios/o
  29              		.loc 1 112 0
  30              		.cfi_startproc
  31              		@ args = 0, pretend = 0, frame = 0
  32              		@ frame_needed = 0, uses_anonymous_args = 0
  33              	.LVL0:
  34              		.loc 1 115 0
  35 0000 0269     		ldr	r2, [r0, #16]
  36              		.loc 1 112 0
  37 0002 70B5     		push	{r4, r5, r6, lr}
  38              		.cfi_def_cfa_offset 16
  39              		.cfi_offset 4, -16
  40              		.cfi_offset 5, -12
  41              		.cfi_offset 6, -8
  42              		.cfi_offset 14, -4
  43              		.loc 1 115 0
  44 0004 1469     		ldr	r4, [r2, #16]
  45              	.LVL1:
  46              		.loc 1 116 0
  47 0006 D368     		ldr	r3, [r2, #12]
  48 0008 DBB2     		uxtb	r3, r3
  49 000a 1C40     		ands	r4, r4, r3
  50              	.LVL2:
  51              		.loc 1 117 0
  52 000c E343     		mvns	r3, r4
  53              		.loc 1 118 0
  54 000e A607     		lsls	r6, r4, #30
  55              		.loc 1 112 0
  56 0010 0546     		mov	r5, r0
  57              		.loc 1 117 0
ARM GAS  /tmp/ccTOfVXV.s 			page 2


  58 0012 1361     		str	r3, [r2, #16]
  59              		.loc 1 118 0
  60 0014 1DD4     		bmi	.L21
  61              	.LVL3:
  62              	.L2:
  63              		.loc 1 120 0
  64 0016 6007     		lsls	r0, r4, #29
  65 0018 16D4     		bmi	.L22
  66              	.L3:
  67              		.loc 1 122 0
  68 001a 2107     		lsls	r1, r4, #28
  69 001c 0FD4     		bmi	.L23
  70              	.L4:
  71              		.loc 1 124 0
  72 001e E206     		lsls	r2, r4, #27
  73 0020 08D4     		bmi	.L24
  74              	.L5:
  75              		.loc 1 126 0
  76 0022 E307     		lsls	r3, r4, #31
  77 0024 00D4     		bmi	.L25
  78 0026 70BD     		pop	{r4, r5, r6, pc}
  79              	.LVL4:
  80              	.L25:
  81              		.loc 1 127 0
  82 0028 6B68     		ldr	r3, [r5, #4]
  83 002a 2846     		mov	r0, r5
  84 002c 9B68     		ldr	r3, [r3, #8]
  85              		.loc 1 128 0
  86 002e BDE87040 		pop	{r4, r5, r6, lr}
  87              		.cfi_remember_state
  88              		.cfi_restore 14
  89              		.cfi_restore 6
  90              		.cfi_restore 5
  91              		.cfi_restore 4
  92              		.cfi_def_cfa_offset 0
  93              	.LVL5:
  94              		.loc 1 127 0
  95 0032 1847     		bx	r3	@ indirect register sibling call
  96              	.LVL6:
  97              	.L24:
  98              		.cfi_restore_state
  99              		.loc 1 125 0
 100 0034 6B68     		ldr	r3, [r5, #4]
 101 0036 2846     		mov	r0, r5
 102 0038 9B6A     		ldr	r3, [r3, #40]
 103 003a 9847     		blx	r3
 104              	.LVL7:
 105 003c F1E7     		b	.L5
 106              	.L23:
 107              		.loc 1 123 0
 108 003e 6B68     		ldr	r3, [r5, #4]
 109 0040 2846     		mov	r0, r5
 110 0042 1B6A     		ldr	r3, [r3, #32]
 111 0044 9847     		blx	r3
 112              	.LVL8:
 113 0046 EAE7     		b	.L4
 114              	.L22:
ARM GAS  /tmp/ccTOfVXV.s 			page 3


 115              		.loc 1 121 0
 116 0048 6B68     		ldr	r3, [r5, #4]
 117 004a 2846     		mov	r0, r5
 118 004c 9B69     		ldr	r3, [r3, #24]
 119 004e 9847     		blx	r3
 120              	.LVL9:
 121 0050 E3E7     		b	.L3
 122              	.LVL10:
 123              	.L21:
 124              		.loc 1 119 0
 125 0052 4368     		ldr	r3, [r0, #4]
 126 0054 1B69     		ldr	r3, [r3, #16]
 127 0056 9847     		blx	r3
 128              	.LVL11:
 129 0058 DDE7     		b	.L2
 130              		.cfi_endproc
 131              	.LFE118:
 132              		.size	pwm_lld_serve_interrupt, .-pwm_lld_serve_interrupt
 133 005a 00BF     		.section	.text.VectorA4,"ax",%progbits
 134              		.align	2
 135              		.p2align 4,,15
 136              		.global	VectorA4
 137              		.thumb
 138              		.thumb_func
 139              		.type	VectorA4, %function
 140              	VectorA4:
 141              	.LFB119:
 142              		.loc 1 147 0
 143              		.cfi_startproc
 144              		@ args = 0, pretend = 0, frame = 0
 145              		@ frame_needed = 0, uses_anonymous_args = 0
 146 0000 08B5     		push	{r3, lr}
 147              		.cfi_def_cfa_offset 8
 148              		.cfi_offset 3, -8
 149              		.cfi_offset 14, -4
 150              		.loc 1 152 0
 151 0002 0648     		ldr	r0, .L28
 152              		.loc 1 151 0
 153 0004 064A     		ldr	r2, .L28+4
 154              		.loc 1 152 0
 155 0006 4368     		ldr	r3, [r0, #4]
 156              		.loc 1 151 0
 157 0008 6FF00101 		mvn	r1, #1
 158              		.loc 1 152 0
 159 000c 9B68     		ldr	r3, [r3, #8]
 160              		.loc 1 151 0
 161 000e 1161     		str	r1, [r2, #16]
 162              		.loc 1 152 0
 163 0010 9847     		blx	r3
 164              	.LVL12:
 165              		.loc 1 155 0
 166 0012 BDE80840 		pop	{r3, lr}
 167              		.cfi_restore 14
 168              		.cfi_restore 3
 169              		.cfi_def_cfa_offset 0
 170              		.loc 1 154 0
 171 0016 FFF7FEBF 		b	_port_irq_epilogue
ARM GAS  /tmp/ccTOfVXV.s 			page 4


 172              	.LVL13:
 173              	.L29:
 174 001a 00BF     		.align	2
 175              	.L28:
 176 001c 00000000 		.word	.LANCHOR0
 177 0020 00000140 		.word	1073807360
 178              		.cfi_endproc
 179              	.LFE119:
 180              		.size	VectorA4, .-VectorA4
 181              		.section	.text.VectorAC,"ax",%progbits
 182              		.align	2
 183              		.p2align 4,,15
 184              		.global	VectorAC
 185              		.thumb
 186              		.thumb_func
 187              		.type	VectorAC, %function
 188              	VectorAC:
 189              	.LFB120:
 190              		.loc 1 168 0
 191              		.cfi_startproc
 192              		@ args = 0, pretend = 0, frame = 0
 193              		@ frame_needed = 0, uses_anonymous_args = 0
 194              		.loc 1 173 0
 195 0000 134B     		ldr	r3, .L51
 196              		.loc 1 168 0
 197 0002 10B5     		push	{r4, lr}
 198              		.cfi_def_cfa_offset 8
 199              		.cfi_offset 4, -8
 200              		.cfi_offset 14, -4
 201              		.loc 1 173 0
 202 0004 1A69     		ldr	r2, [r3, #16]
 203 0006 DC68     		ldr	r4, [r3, #12]
 204 0008 1440     		ands	r4, r4, r2
 205 000a A4B2     		uxth	r4, r4
 206              	.LVL14:
 207              		.loc 1 174 0
 208 000c E2B2     		uxtb	r2, r4
 209 000e D243     		mvns	r2, r2
 210              		.loc 1 175 0
 211 0010 A007     		lsls	r0, r4, #30
 212              		.loc 1 174 0
 213 0012 1A61     		str	r2, [r3, #16]
 214              		.loc 1 175 0
 215 0014 17D4     		bmi	.L48
 216              	.L31:
 217              		.loc 1 177 0
 218 0016 6107     		lsls	r1, r4, #29
 219 0018 10D4     		bmi	.L49
 220              	.L32:
 221              		.loc 1 179 0
 222 001a 2207     		lsls	r2, r4, #28
 223 001c 09D4     		bmi	.L50
 224              	.L33:
 225              		.loc 1 181 0
 226 001e E306     		lsls	r3, r4, #27
 227 0020 03D5     		bpl	.L34
 228              		.loc 1 182 0
ARM GAS  /tmp/ccTOfVXV.s 			page 5


 229 0022 0C48     		ldr	r0, .L51+4
 230 0024 4368     		ldr	r3, [r0, #4]
 231 0026 9B6A     		ldr	r3, [r3, #40]
 232 0028 9847     		blx	r3
 233              	.LVL15:
 234              	.L34:
 235              		.loc 1 185 0
 236 002a BDE81040 		pop	{r4, lr}
 237              		.cfi_remember_state
 238              		.cfi_restore 14
 239              		.cfi_restore 4
 240              		.cfi_def_cfa_offset 0
 241              	.LVL16:
 242              		.loc 1 184 0
 243 002e FFF7FEBF 		b	_port_irq_epilogue
 244              	.LVL17:
 245              	.L50:
 246              		.cfi_restore_state
 247              		.loc 1 180 0
 248 0032 0848     		ldr	r0, .L51+4
 249 0034 4368     		ldr	r3, [r0, #4]
 250 0036 1B6A     		ldr	r3, [r3, #32]
 251 0038 9847     		blx	r3
 252              	.LVL18:
 253 003a F0E7     		b	.L33
 254              	.L49:
 255              		.loc 1 178 0
 256 003c 0548     		ldr	r0, .L51+4
 257 003e 4368     		ldr	r3, [r0, #4]
 258 0040 9B69     		ldr	r3, [r3, #24]
 259 0042 9847     		blx	r3
 260              	.LVL19:
 261 0044 E9E7     		b	.L32
 262              	.L48:
 263              		.loc 1 176 0
 264 0046 0348     		ldr	r0, .L51+4
 265 0048 4368     		ldr	r3, [r0, #4]
 266 004a 1B69     		ldr	r3, [r3, #16]
 267 004c 9847     		blx	r3
 268              	.LVL20:
 269 004e E2E7     		b	.L31
 270              	.L52:
 271              		.align	2
 272              	.L51:
 273 0050 00000140 		.word	1073807360
 274 0054 00000000 		.word	.LANCHOR0
 275              		.cfi_endproc
 276              	.LFE120:
 277              		.size	VectorAC, .-VectorAC
 278              		.section	.text.VectorB4,"ax",%progbits
 279              		.align	2
 280              		.p2align 4,,15
 281              		.global	VectorB4
 282              		.thumb
 283              		.thumb_func
 284              		.type	VectorB4, %function
 285              	VectorB4:
ARM GAS  /tmp/ccTOfVXV.s 			page 6


 286              	.LFB121:
 287              		.loc 1 216 0
 288              		.cfi_startproc
 289              		@ args = 0, pretend = 0, frame = 0
 290              		@ frame_needed = 0, uses_anonymous_args = 0
 291 0000 08B5     		push	{r3, lr}
 292              		.cfi_def_cfa_offset 8
 293              		.cfi_offset 3, -8
 294              		.cfi_offset 14, -4
 295              		.loc 1 220 0
 296 0002 0348     		ldr	r0, .L55
 297 0004 FFF7FEFF 		bl	pwm_lld_serve_interrupt
 298              	.LVL21:
 299              		.loc 1 223 0
 300 0008 BDE80840 		pop	{r3, lr}
 301              		.cfi_restore 14
 302              		.cfi_restore 3
 303              		.cfi_def_cfa_offset 0
 304              		.loc 1 222 0
 305 000c FFF7FEBF 		b	_port_irq_epilogue
 306              	.LVL22:
 307              	.L56:
 308              		.align	2
 309              	.L55:
 310 0010 00000000 		.word	.LANCHOR1
 311              		.cfi_endproc
 312              	.LFE121:
 313              		.size	VectorB4, .-VectorB4
 314              		.section	.text.VectorB8,"ax",%progbits
 315              		.align	2
 316              		.p2align 4,,15
 317              		.global	VectorB8
 318              		.thumb
 319              		.thumb_func
 320              		.type	VectorB8, %function
 321              	VectorB8:
 322              	.LFB122:
 323              		.loc 1 235 0
 324              		.cfi_startproc
 325              		@ args = 0, pretend = 0, frame = 0
 326              		@ frame_needed = 0, uses_anonymous_args = 0
 327 0000 08B5     		push	{r3, lr}
 328              		.cfi_def_cfa_offset 8
 329              		.cfi_offset 3, -8
 330              		.cfi_offset 14, -4
 331              		.loc 1 239 0
 332 0002 0348     		ldr	r0, .L59
 333 0004 FFF7FEFF 		bl	pwm_lld_serve_interrupt
 334              	.LVL23:
 335              		.loc 1 242 0
 336 0008 BDE80840 		pop	{r3, lr}
 337              		.cfi_restore 14
 338              		.cfi_restore 3
 339              		.cfi_def_cfa_offset 0
 340              		.loc 1 241 0
 341 000c FFF7FEBF 		b	_port_irq_epilogue
 342              	.LVL24:
ARM GAS  /tmp/ccTOfVXV.s 			page 7


 343              	.L60:
 344              		.align	2
 345              	.L59:
 346 0010 00000000 		.word	.LANCHOR2
 347              		.cfi_endproc
 348              	.LFE122:
 349              		.size	VectorB8, .-VectorB8
 350              		.section	.text.Vector108,"ax",%progbits
 351              		.align	2
 352              		.p2align 4,,15
 353              		.global	Vector108
 354              		.thumb
 355              		.thumb_func
 356              		.type	Vector108, %function
 357              	Vector108:
 358              	.LFB123:
 359              		.loc 1 254 0
 360              		.cfi_startproc
 361              		@ args = 0, pretend = 0, frame = 0
 362              		@ frame_needed = 0, uses_anonymous_args = 0
 363 0000 08B5     		push	{r3, lr}
 364              		.cfi_def_cfa_offset 8
 365              		.cfi_offset 3, -8
 366              		.cfi_offset 14, -4
 367              		.loc 1 258 0
 368 0002 0348     		ldr	r0, .L63
 369 0004 FFF7FEFF 		bl	pwm_lld_serve_interrupt
 370              	.LVL25:
 371              		.loc 1 261 0
 372 0008 BDE80840 		pop	{r3, lr}
 373              		.cfi_restore 14
 374              		.cfi_restore 3
 375              		.cfi_def_cfa_offset 0
 376              		.loc 1 260 0
 377 000c FFF7FEBF 		b	_port_irq_epilogue
 378              	.LVL26:
 379              	.L64:
 380              		.align	2
 381              	.L63:
 382 0010 00000000 		.word	.LANCHOR3
 383              		.cfi_endproc
 384              	.LFE123:
 385              		.size	Vector108, .-Vector108
 386              		.section	.text.VectorF0,"ax",%progbits
 387              		.align	2
 388              		.p2align 4,,15
 389              		.global	VectorF0
 390              		.thumb
 391              		.thumb_func
 392              		.type	VectorF0, %function
 393              	VectorF0:
 394              	.LFB124:
 395              		.loc 1 276 0
 396              		.cfi_startproc
 397              		@ args = 0, pretend = 0, frame = 0
 398              		@ frame_needed = 0, uses_anonymous_args = 0
 399 0000 08B5     		push	{r3, lr}
ARM GAS  /tmp/ccTOfVXV.s 			page 8


 400              		.cfi_def_cfa_offset 8
 401              		.cfi_offset 3, -8
 402              		.cfi_offset 14, -4
 403              		.loc 1 281 0
 404 0002 0648     		ldr	r0, .L67
 405              		.loc 1 280 0
 406 0004 064A     		ldr	r2, .L67+4
 407              		.loc 1 281 0
 408 0006 4368     		ldr	r3, [r0, #4]
 409              		.loc 1 280 0
 410 0008 6FF00101 		mvn	r1, #1
 411              		.loc 1 281 0
 412 000c 9B68     		ldr	r3, [r3, #8]
 413              		.loc 1 280 0
 414 000e 1161     		str	r1, [r2, #16]
 415              		.loc 1 281 0
 416 0010 9847     		blx	r3
 417              	.LVL27:
 418              		.loc 1 284 0
 419 0012 BDE80840 		pop	{r3, lr}
 420              		.cfi_restore 14
 421              		.cfi_restore 3
 422              		.cfi_def_cfa_offset 0
 423              		.loc 1 283 0
 424 0016 FFF7FEBF 		b	_port_irq_epilogue
 425              	.LVL28:
 426              	.L68:
 427 001a 00BF     		.align	2
 428              	.L67:
 429 001c 00000000 		.word	.LANCHOR4
 430 0020 00040140 		.word	1073808384
 431              		.cfi_endproc
 432              	.LFE124:
 433              		.size	VectorF0, .-VectorF0
 434              		.section	.text.VectorF8,"ax",%progbits
 435              		.align	2
 436              		.p2align 4,,15
 437              		.global	VectorF8
 438              		.thumb
 439              		.thumb_func
 440              		.type	VectorF8, %function
 441              	VectorF8:
 442              	.LFB125:
 443              		.loc 1 297 0
 444              		.cfi_startproc
 445              		@ args = 0, pretend = 0, frame = 0
 446              		@ frame_needed = 0, uses_anonymous_args = 0
 447              		.loc 1 302 0
 448 0000 134B     		ldr	r3, .L90
 449              		.loc 1 297 0
 450 0002 10B5     		push	{r4, lr}
 451              		.cfi_def_cfa_offset 8
 452              		.cfi_offset 4, -8
 453              		.cfi_offset 14, -4
 454              		.loc 1 302 0
 455 0004 1A69     		ldr	r2, [r3, #16]
 456 0006 DC68     		ldr	r4, [r3, #12]
ARM GAS  /tmp/ccTOfVXV.s 			page 9


 457 0008 1440     		ands	r4, r4, r2
 458 000a A4B2     		uxth	r4, r4
 459              	.LVL29:
 460              		.loc 1 303 0
 461 000c E2B2     		uxtb	r2, r4
 462 000e D243     		mvns	r2, r2
 463              		.loc 1 304 0
 464 0010 A007     		lsls	r0, r4, #30
 465              		.loc 1 303 0
 466 0012 1A61     		str	r2, [r3, #16]
 467              		.loc 1 304 0
 468 0014 17D4     		bmi	.L87
 469              	.L70:
 470              		.loc 1 306 0
 471 0016 6107     		lsls	r1, r4, #29
 472 0018 10D4     		bmi	.L88
 473              	.L71:
 474              		.loc 1 308 0
 475 001a 2207     		lsls	r2, r4, #28
 476 001c 09D4     		bmi	.L89
 477              	.L72:
 478              		.loc 1 310 0
 479 001e E306     		lsls	r3, r4, #27
 480 0020 03D5     		bpl	.L73
 481              		.loc 1 311 0
 482 0022 0C48     		ldr	r0, .L90+4
 483 0024 4368     		ldr	r3, [r0, #4]
 484 0026 9B6A     		ldr	r3, [r3, #40]
 485 0028 9847     		blx	r3
 486              	.LVL30:
 487              	.L73:
 488              		.loc 1 314 0
 489 002a BDE81040 		pop	{r4, lr}
 490              		.cfi_remember_state
 491              		.cfi_restore 14
 492              		.cfi_restore 4
 493              		.cfi_def_cfa_offset 0
 494              	.LVL31:
 495              		.loc 1 313 0
 496 002e FFF7FEBF 		b	_port_irq_epilogue
 497              	.LVL32:
 498              	.L89:
 499              		.cfi_restore_state
 500              		.loc 1 309 0
 501 0032 0848     		ldr	r0, .L90+4
 502 0034 4368     		ldr	r3, [r0, #4]
 503 0036 1B6A     		ldr	r3, [r3, #32]
 504 0038 9847     		blx	r3
 505              	.LVL33:
 506 003a F0E7     		b	.L72
 507              	.L88:
 508              		.loc 1 307 0
 509 003c 0548     		ldr	r0, .L90+4
 510 003e 4368     		ldr	r3, [r0, #4]
 511 0040 9B69     		ldr	r3, [r3, #24]
 512 0042 9847     		blx	r3
 513              	.LVL34:
ARM GAS  /tmp/ccTOfVXV.s 			page 10


 514 0044 E9E7     		b	.L71
 515              	.L87:
 516              		.loc 1 305 0
 517 0046 0348     		ldr	r0, .L90+4
 518 0048 4368     		ldr	r3, [r0, #4]
 519 004a 1B69     		ldr	r3, [r3, #16]
 520 004c 9847     		blx	r3
 521              	.LVL35:
 522 004e E2E7     		b	.L70
 523              	.L91:
 524              		.align	2
 525              	.L90:
 526 0050 00040140 		.word	1073808384
 527 0054 00000000 		.word	.LANCHOR4
 528              		.cfi_endproc
 529              	.LFE125:
 530              		.size	VectorF8, .-VectorF8
 531              		.section	.text.pwm_lld_init,"ax",%progbits
 532              		.align	2
 533              		.p2align 4,,15
 534              		.global	pwm_lld_init
 535              		.thumb
 536              		.thumb_func
 537              		.type	pwm_lld_init, %function
 538              	pwm_lld_init:
 539              	.LFB126:
 540              		.loc 1 345 0
 541              		.cfi_startproc
 542              		@ args = 0, pretend = 0, frame = 0
 543              		@ frame_needed = 0, uses_anonymous_args = 0
 544 0000 2DE9F041 		push	{r4, r5, r6, r7, r8, lr}
 545              		.cfi_def_cfa_offset 24
 546              		.cfi_offset 4, -24
 547              		.cfi_offset 5, -20
 548              		.cfi_offset 6, -16
 549              		.cfi_offset 7, -12
 550              		.cfi_offset 8, -8
 551              		.cfi_offset 14, -4
 552              		.loc 1 349 0
 553 0004 DFF86480 		ldr	r8, .L94+36
 554              		.loc 1 361 0
 555 0008 0F4F     		ldr	r7, .L94
 556              		.loc 1 367 0
 557 000a 104E     		ldr	r6, .L94+4
 558              		.loc 1 373 0
 559 000c 104D     		ldr	r5, .L94+8
 560              		.loc 1 379 0
 561 000e 114C     		ldr	r4, .L94+12
 562              		.loc 1 349 0
 563 0010 4046     		mov	r0, r8
 564 0012 FFF7FEFF 		bl	pwmObjectInit
 565              	.LVL36:
 566              		.loc 1 350 0
 567 0016 104B     		ldr	r3, .L94+16
 568 0018 C8F81030 		str	r3, [r8, #16]
 569              		.loc 1 361 0
 570 001c 3846     		mov	r0, r7
ARM GAS  /tmp/ccTOfVXV.s 			page 11


 571 001e FFF7FEFF 		bl	pwmObjectInit
 572              	.LVL37:
 573              		.loc 1 362 0
 574 0022 0E4B     		ldr	r3, .L94+20
 575 0024 3B61     		str	r3, [r7, #16]
 576              		.loc 1 367 0
 577 0026 3046     		mov	r0, r6
 578 0028 FFF7FEFF 		bl	pwmObjectInit
 579              	.LVL38:
 580              		.loc 1 368 0
 581 002c 0C4B     		ldr	r3, .L94+24
 582 002e 3361     		str	r3, [r6, #16]
 583              		.loc 1 373 0
 584 0030 2846     		mov	r0, r5
 585 0032 FFF7FEFF 		bl	pwmObjectInit
 586              	.LVL39:
 587              		.loc 1 374 0
 588 0036 0B4B     		ldr	r3, .L94+28
 589 0038 2B61     		str	r3, [r5, #16]
 590              		.loc 1 379 0
 591 003a 2046     		mov	r0, r4
 592 003c FFF7FEFF 		bl	pwmObjectInit
 593              	.LVL40:
 594              		.loc 1 380 0
 595 0040 094B     		ldr	r3, .L94+32
 596 0042 2361     		str	r3, [r4, #16]
 597 0044 BDE8F081 		pop	{r4, r5, r6, r7, r8, pc}
 598              	.L95:
 599              		.align	2
 600              	.L94:
 601 0048 00000000 		.word	.LANCHOR1
 602 004c 00000000 		.word	.LANCHOR2
 603 0050 00000000 		.word	.LANCHOR3
 604 0054 00000000 		.word	.LANCHOR4
 605 0058 00000140 		.word	1073807360
 606 005c 00040040 		.word	1073742848
 607 0060 00080040 		.word	1073743872
 608 0064 000C0040 		.word	1073744896
 609 0068 00040140 		.word	1073808384
 610 006c 00000000 		.word	.LANCHOR0
 611              		.cfi_endproc
 612              	.LFE126:
 613              		.size	pwm_lld_init, .-pwm_lld_init
 614              		.section	.text.pwm_lld_start,"ax",%progbits
 615              		.align	2
 616              		.p2align 4,,15
 617              		.global	pwm_lld_start
 618              		.thumb
 619              		.thumb_func
 620              		.type	pwm_lld_start, %function
 621              	pwm_lld_start:
 622              	.LFB127:
 623              		.loc 1 399 0
 624              		.cfi_startproc
 625              		@ args = 0, pretend = 0, frame = 0
 626              		@ frame_needed = 0, uses_anonymous_args = 0
 627              	.LVL41:
ARM GAS  /tmp/ccTOfVXV.s 			page 12


 628              		.loc 1 403 0
 629 0000 0378     		ldrb	r3, [r0]	@ zero_extendqisi2
 630 0002 012B     		cmp	r3, #1
 631              		.loc 1 399 0
 632 0004 70B5     		push	{r4, r5, r6, lr}
 633              		.cfi_def_cfa_offset 16
 634              		.cfi_offset 4, -16
 635              		.cfi_offset 5, -12
 636              		.cfi_offset 6, -8
 637              		.cfi_offset 14, -4
 638              		.loc 1 399 0
 639 0006 0446     		mov	r4, r0
 640              		.loc 1 403 0
 641 0008 55D0     		beq	.L129
 642              		.loc 1 491 0
 643 000a 0369     		ldr	r3, [r0, #16]
 644 000c 0022     		movs	r2, #0
 645 000e 1A60     		str	r2, [r3]
 646              		.loc 1 492 0
 647 0010 5A63     		str	r2, [r3, #52]
 648              		.loc 1 493 0
 649 0012 9A63     		str	r2, [r3, #56]
 650              		.loc 1 494 0
 651 0014 DA63     		str	r2, [r3, #60]
 652              		.loc 1 495 0
 653 0016 1A64     		str	r2, [r3, #64]
 654              		.loc 1 496 0
 655 0018 5A62     		str	r2, [r3, #36]
 656              	.LVL42:
 657              	.L103:
 658              		.loc 1 500 0
 659 001a 6168     		ldr	r1, [r4, #4]
 660              	.LVL43:
 661              		.loc 1 505 0
 662 001c 2589     		ldrh	r5, [r4, #8]
 663              		.loc 1 510 0
 664 001e CA68     		ldr	r2, [r1, #12]
 665              		.loc 1 500 0
 666 0020 E068     		ldr	r0, [r4, #12]
 667 0022 0E68     		ldr	r6, [r1]
 668 0024 B0FBF6F0 		udiv	r0, r0, r6
 669              		.loc 1 505 0
 670 0028 6C1E     		subs	r4, r5, #1
 671              	.LVL44:
 672              		.loc 1 500 0
 673 002a 0138     		subs	r0, r0, #1
 674              	.LVL45:
 675              		.loc 1 510 0
 676 002c 02F00F02 		and	r2, r2, #15
 677              		.loc 1 506 0
 678 0030 CD6A     		ldr	r5, [r1, #44]
 679              		.loc 1 504 0
 680 0032 80B2     		uxth	r0, r0
 681              	.LVL46:
 682              		.loc 1 505 0
 683 0034 A4B2     		uxth	r4, r4
 684              		.loc 1 510 0
ARM GAS  /tmp/ccTOfVXV.s 			page 13


 685 0036 012A     		cmp	r2, #1
 686              		.loc 1 504 0
 687 0038 9862     		str	r0, [r3, #40]
 688              	.LVL47:
 689              		.loc 1 505 0
 690 003a DC62     		str	r4, [r3, #44]
 691              		.loc 1 506 0
 692 003c 5D60     		str	r5, [r3, #4]
 693              	.LVL48:
 694              		.loc 1 510 0
 695 003e 03D0     		beq	.L104
 696              		.loc 1 509 0
 697 0040 022A     		cmp	r2, #2
 698 0042 0CBF     		ite	eq
 699 0044 0322     		moveq	r2, #3
 700 0046 0022     		movne	r2, #0
 701              	.L104:
 702              	.LVL49:
 703              		.loc 1 518 0
 704 0048 4869     		ldr	r0, [r1, #20]
 705 004a 00F00F00 		and	r0, r0, #15
 706 004e 0128     		cmp	r0, #1
 707 0050 2ED0     		beq	.L108
 708 0052 0228     		cmp	r0, #2
 709 0054 2AD0     		beq	.L130
 710              	.L107:
 711              		.loc 1 526 0
 712 0056 C869     		ldr	r0, [r1, #28]
 713 0058 00F00F00 		and	r0, r0, #15
 714 005c 0128     		cmp	r0, #1
 715 005e 22D0     		beq	.L111
 716 0060 0228     		cmp	r0, #2
 717 0062 1ED0     		beq	.L131
 718              	.L110:
 719              		.loc 1 534 0
 720 0064 486A     		ldr	r0, [r1, #36]
 721 0066 00F00F00 		and	r0, r0, #15
 722 006a 0128     		cmp	r0, #1
 723 006c 03D0     		beq	.L114
 724 006e 0228     		cmp	r0, #2
 725 0070 03D1     		bne	.L113
 726              		.loc 1 536 0
 727 0072 42F40052 		orr	r2, r2, #8192
 728              	.LVL50:
 729              	.L114:
 730              		.loc 1 538 0
 731 0076 42F48052 		orr	r2, r2, #4096
 732              	.LVL51:
 733              	.L113:
 734              		.loc 1 583 0
 735 007a 086B     		ldr	r0, [r1, #48]
 736              		.loc 1 582 0
 737 007c 8968     		ldr	r1, [r1, #8]
 738              		.loc 1 579 0
 739 007e 1A62     		str	r2, [r3, #32]
 740              		.loc 1 583 0
 741 0080 20F0FF02 		bic	r2, r0, #255
ARM GAS  /tmp/ccTOfVXV.s 			page 14


 742              	.LVL52:
 743              		.loc 1 582 0
 744 0084 0029     		cmp	r1, #0
 745 0086 18BF     		it	ne
 746 0088 42F00102 		orrne	r2, r2, #1
 747              		.loc 1 580 0
 748 008c 0125     		movs	r5, #1
 749              		.loc 1 581 0
 750 008e 0024     		movs	r4, #0
 751              		.loc 1 588 0
 752 0090 4FF40040 		mov	r0, #32768
 753              		.loc 1 592 0
 754 0094 8521     		movs	r1, #133
 755              		.loc 1 580 0
 756 0096 5D61     		str	r5, [r3, #20]
 757              	.LVL53:
 758              		.loc 1 581 0
 759 0098 1C61     		str	r4, [r3, #16]
 760              		.loc 1 582 0
 761 009a DA60     		str	r2, [r3, #12]
 762              		.loc 1 588 0
 763 009c 5864     		str	r0, [r3, #68]
 764              		.loc 1 592 0
 765 009e 1960     		str	r1, [r3]
 766 00a0 70BD     		pop	{r4, r5, r6, pc}
 767              	.LVL54:
 768              	.L131:
 769              		.loc 1 528 0
 770 00a2 42F40072 		orr	r2, r2, #512
 771              	.LVL55:
 772              	.L111:
 773              		.loc 1 530 0
 774 00a6 42F48072 		orr	r2, r2, #256
 775              	.LVL56:
 776 00aa DBE7     		b	.L110
 777              	.L130:
 778              		.loc 1 520 0
 779 00ac 42F02002 		orr	r2, r2, #32
 780              	.LVL57:
 781              	.L108:
 782              		.loc 1 522 0
 783 00b0 42F01002 		orr	r2, r2, #16
 784              	.LVL58:
 785 00b4 CFE7     		b	.L107
 786              	.LVL59:
 787              	.L129:
 788              		.loc 1 406 0
 789 00b6 354B     		ldr	r3, .L137
 790 00b8 9842     		cmp	r0, r3
 791 00ba 27D0     		beq	.L132
 792              		.loc 1 430 0
 793 00bc 344B     		ldr	r3, .L137+4
 794 00be 9842     		cmp	r0, r3
 795 00c0 3AD0     		beq	.L133
 796              		.loc 1 439 0
 797 00c2 344B     		ldr	r3, .L137+8
 798 00c4 9842     		cmp	r0, r3
ARM GAS  /tmp/ccTOfVXV.s 			page 15


 799 00c6 49D0     		beq	.L134
 800              		.loc 1 449 0
 801 00c8 334B     		ldr	r3, .L137+12
 802 00ca 9842     		cmp	r0, r3
 803 00cc 52D0     		beq	.L135
 804              		.loc 1 458 0
 805 00ce 334B     		ldr	r3, .L137+16
 806 00d0 9842     		cmp	r0, r3
 807 00d2 05D0     		beq	.L136
 808              	.LVL60:
 809              	.L99:
 810              		.loc 1 484 0
 811 00d4 2369     		ldr	r3, [r4, #16]
 812 00d6 46F66802 		movw	r2, #26728
 813 00da 9A61     		str	r2, [r3, #24]
 814              		.loc 1 486 0
 815 00dc DA61     		str	r2, [r3, #28]
 816 00de 9CE7     		b	.L103
 817              	.LVL61:
 818              	.L136:
 819              		.loc 1 459 0
 820 00e0 2F4B     		ldr	r3, .L137+20
 821 00e2 5A6C     		ldr	r2, [r3, #68]
 822 00e4 42F00202 		orr	r2, r2, #2
 823 00e8 5A64     		str	r2, [r3, #68]
 824              		.loc 1 460 0
 825 00ea 5A6A     		ldr	r2, [r3, #36]
 826 00ec 0021     		movs	r1, #0
 827 00ee 42F00202 		orr	r2, r2, #2
 828 00f2 5A62     		str	r2, [r3, #36]
 829              		.loc 1 461 0
 830 00f4 2C20     		movs	r0, #44
 831              	.LVL62:
 832              		.loc 1 460 0
 833 00f6 5962     		str	r1, [r3, #36]
 834              		.loc 1 461 0
 835 00f8 7021     		movs	r1, #112
 836 00fa FFF7FEFF 		bl	nvicEnableVector
 837              	.LVL63:
 838              		.loc 1 463 0
 839 00fe 2E20     		movs	r0, #46
 840 0100 7021     		movs	r1, #112
 841 0102 FFF7FEFF 		bl	nvicEnableVector
 842              	.LVL64:
 843              		.loc 1 468 0
 844 0106 274B     		ldr	r3, .L137+24
 845 0108 E360     		str	r3, [r4, #12]
 846 010a E3E7     		b	.L99
 847              	.LVL65:
 848              	.L132:
 849              		.loc 1 407 0
 850 010c 244B     		ldr	r3, .L137+20
 851 010e 5A6C     		ldr	r2, [r3, #68]
 852 0110 42F00102 		orr	r2, r2, #1
 853 0114 5A64     		str	r2, [r3, #68]
 854              		.loc 1 408 0
 855 0116 5A6A     		ldr	r2, [r3, #36]
ARM GAS  /tmp/ccTOfVXV.s 			page 16


 856 0118 0021     		movs	r1, #0
 857 011a 42F00102 		orr	r2, r2, #1
 858 011e 5A62     		str	r2, [r3, #36]
 859              		.loc 1 409 0
 860 0120 1920     		movs	r0, #25
 861              	.LVL66:
 862              		.loc 1 408 0
 863 0122 5962     		str	r1, [r3, #36]
 864              		.loc 1 409 0
 865 0124 7021     		movs	r1, #112
 866 0126 FFF7FEFF 		bl	nvicEnableVector
 867              	.LVL67:
 868              		.loc 1 411 0
 869 012a 1B20     		movs	r0, #27
 870 012c 7021     		movs	r1, #112
 871 012e FFF7FEFF 		bl	nvicEnableVector
 872              	.LVL68:
 873              		.loc 1 416 0
 874 0132 1C4B     		ldr	r3, .L137+24
 875 0134 E360     		str	r3, [r4, #12]
 876 0136 CDE7     		b	.L99
 877              	.LVL69:
 878              	.L133:
 879              		.loc 1 431 0
 880 0138 194B     		ldr	r3, .L137+20
 881 013a 1A6C     		ldr	r2, [r3, #64]
 882 013c 42F00202 		orr	r2, r2, #2
 883 0140 1A64     		str	r2, [r3, #64]
 884              		.loc 1 432 0
 885 0142 1A6A     		ldr	r2, [r3, #32]
 886 0144 42F00202 		orr	r2, r2, #2
 887 0148 0021     		movs	r1, #0
 888 014a 1A62     		str	r2, [r3, #32]
 889              		.loc 1 433 0
 890 014c 1D20     		movs	r0, #29
 891              	.LVL70:
 892              	.L128:
 893              		.loc 1 451 0
 894 014e 1962     		str	r1, [r3, #32]
 895              		.loc 1 452 0
 896 0150 7021     		movs	r1, #112
 897 0152 FFF7FEFF 		bl	nvicEnableVector
 898              	.LVL71:
 899              		.loc 1 454 0
 900 0156 144B     		ldr	r3, .L137+28
 901 0158 E360     		str	r3, [r4, #12]
 902 015a BBE7     		b	.L99
 903              	.LVL72:
 904              	.L134:
 905              		.loc 1 440 0
 906 015c 104B     		ldr	r3, .L137+20
 907 015e 1A6C     		ldr	r2, [r3, #64]
 908 0160 42F00402 		orr	r2, r2, #4
 909 0164 1A64     		str	r2, [r3, #64]
 910              		.loc 1 441 0
 911 0166 1A6A     		ldr	r2, [r3, #32]
 912 0168 42F00402 		orr	r2, r2, #4
ARM GAS  /tmp/ccTOfVXV.s 			page 17


 913 016c 0021     		movs	r1, #0
 914 016e 1A62     		str	r2, [r3, #32]
 915              		.loc 1 442 0
 916 0170 1E20     		movs	r0, #30
 917              	.LVL73:
 918 0172 ECE7     		b	.L128
 919              	.LVL74:
 920              	.L135:
 921              		.loc 1 450 0
 922 0174 0A4B     		ldr	r3, .L137+20
 923 0176 1A6C     		ldr	r2, [r3, #64]
 924 0178 42F00802 		orr	r2, r2, #8
 925 017c 1A64     		str	r2, [r3, #64]
 926              		.loc 1 451 0
 927 017e 1A6A     		ldr	r2, [r3, #32]
 928 0180 42F00802 		orr	r2, r2, #8
 929 0184 0021     		movs	r1, #0
 930 0186 1A62     		str	r2, [r3, #32]
 931              		.loc 1 452 0
 932 0188 3220     		movs	r0, #50
 933              	.LVL75:
 934 018a E0E7     		b	.L128
 935              	.L138:
 936              		.align	2
 937              	.L137:
 938 018c 00000000 		.word	.LANCHOR0
 939 0190 00000000 		.word	.LANCHOR1
 940 0194 00000000 		.word	.LANCHOR2
 941 0198 00000000 		.word	.LANCHOR3
 942 019c 00000000 		.word	.LANCHOR4
 943 01a0 00380240 		.word	1073887232
 944 01a4 007A030A 		.word	168000000
 945 01a8 00BD0105 		.word	84000000
 946              		.cfi_endproc
 947              	.LFE127:
 948              		.size	pwm_lld_start, .-pwm_lld_start
 949              		.section	.text.pwm_lld_stop,"ax",%progbits
 950              		.align	2
 951              		.p2align 4,,15
 952              		.global	pwm_lld_stop
 953              		.thumb
 954              		.thumb_func
 955              		.type	pwm_lld_stop, %function
 956              	pwm_lld_stop:
 957              	.LFB128:
 958              		.loc 1 603 0
 959              		.cfi_startproc
 960              		@ args = 0, pretend = 0, frame = 0
 961              		@ frame_needed = 0, uses_anonymous_args = 0
 962              	.LVL76:
 963 0000 08B5     		push	{r3, lr}
 964              		.cfi_def_cfa_offset 8
 965              		.cfi_offset 3, -8
 966              		.cfi_offset 14, -4
 967              		.loc 1 606 0
 968 0002 0378     		ldrb	r3, [r0]	@ zero_extendqisi2
 969 0004 022B     		cmp	r3, #2
ARM GAS  /tmp/ccTOfVXV.s 			page 18


 970 0006 00D0     		beq	.L148
 971              	.LVL77:
 972              	.L139:
 973 0008 08BD     		pop	{r3, pc}
 974              	.LVL78:
 975              	.L148:
 976              		.loc 1 615 0
 977 000a 2449     		ldr	r1, .L153
 978              		.loc 1 607 0
 979 000c 0369     		ldr	r3, [r0, #16]
 980 000e 0022     		movs	r2, #0
 981              		.loc 1 615 0
 982 0010 8842     		cmp	r0, r1
 983              		.loc 1 607 0
 984 0012 1A60     		str	r2, [r3]
 985              		.loc 1 608 0
 986 0014 DA60     		str	r2, [r3, #12]
 987              		.loc 1 609 0
 988 0016 1A61     		str	r2, [r3, #16]
 989              		.loc 1 611 0
 990 0018 5A64     		str	r2, [r3, #68]
 991              		.loc 1 615 0
 992 001a 17D0     		beq	.L149
 993              		.loc 1 628 0
 994 001c 204B     		ldr	r3, .L153+4
 995 001e 9842     		cmp	r0, r3
 996 0020 20D0     		beq	.L150
 997              		.loc 1 634 0
 998 0022 204B     		ldr	r3, .L153+8
 999 0024 9842     		cmp	r0, r3
 1000 0026 26D0     		beq	.L151
 1001              		.loc 1 640 0
 1002 0028 1F4B     		ldr	r3, .L153+12
 1003 002a 9842     		cmp	r0, r3
 1004 002c 2CD0     		beq	.L152
 1005              		.loc 1 646 0
 1006 002e 1F4B     		ldr	r3, .L153+16
 1007 0030 9842     		cmp	r0, r3
 1008 0032 E9D1     		bne	.L139
 1009              		.loc 1 647 0
 1010 0034 2C20     		movs	r0, #44
 1011              	.LVL79:
 1012 0036 FFF7FEFF 		bl	nvicDisableVector
 1013              	.LVL80:
 1014              		.loc 1 648 0
 1015 003a 2E20     		movs	r0, #46
 1016 003c FFF7FEFF 		bl	nvicDisableVector
 1017              	.LVL81:
 1018              		.loc 1 649 0
 1019 0040 1B4A     		ldr	r2, .L153+20
 1020 0042 536C     		ldr	r3, [r2, #68]
 1021 0044 23F00203 		bic	r3, r3, #2
 1022 0048 5364     		str	r3, [r2, #68]
 1023 004a DDE7     		b	.L139
 1024              	.LVL82:
 1025              	.L149:
 1026              		.loc 1 616 0
ARM GAS  /tmp/ccTOfVXV.s 			page 19


 1027 004c 1920     		movs	r0, #25
 1028              	.LVL83:
 1029 004e FFF7FEFF 		bl	nvicDisableVector
 1030              	.LVL84:
 1031              		.loc 1 617 0
 1032 0052 1B20     		movs	r0, #27
 1033 0054 FFF7FEFF 		bl	nvicDisableVector
 1034              	.LVL85:
 1035              		.loc 1 618 0
 1036 0058 154A     		ldr	r2, .L153+20
 1037 005a 536C     		ldr	r3, [r2, #68]
 1038 005c 23F00103 		bic	r3, r3, #1
 1039 0060 5364     		str	r3, [r2, #68]
 1040 0062 08BD     		pop	{r3, pc}
 1041              	.LVL86:
 1042              	.L150:
 1043              		.loc 1 629 0
 1044 0064 1D20     		movs	r0, #29
 1045              	.LVL87:
 1046 0066 FFF7FEFF 		bl	nvicDisableVector
 1047              	.LVL88:
 1048              		.loc 1 630 0
 1049 006a 114A     		ldr	r2, .L153+20
 1050 006c 136C     		ldr	r3, [r2, #64]
 1051 006e 23F00203 		bic	r3, r3, #2
 1052 0072 1364     		str	r3, [r2, #64]
 1053 0074 08BD     		pop	{r3, pc}
 1054              	.LVL89:
 1055              	.L151:
 1056              		.loc 1 635 0
 1057 0076 1E20     		movs	r0, #30
 1058              	.LVL90:
 1059 0078 FFF7FEFF 		bl	nvicDisableVector
 1060              	.LVL91:
 1061              		.loc 1 636 0
 1062 007c 0C4A     		ldr	r2, .L153+20
 1063 007e 136C     		ldr	r3, [r2, #64]
 1064 0080 23F00403 		bic	r3, r3, #4
 1065 0084 1364     		str	r3, [r2, #64]
 1066 0086 08BD     		pop	{r3, pc}
 1067              	.LVL92:
 1068              	.L152:
 1069              		.loc 1 641 0
 1070 0088 3220     		movs	r0, #50
 1071              	.LVL93:
 1072 008a FFF7FEFF 		bl	nvicDisableVector
 1073              	.LVL94:
 1074              		.loc 1 642 0
 1075 008e 084A     		ldr	r2, .L153+20
 1076 0090 136C     		ldr	r3, [r2, #64]
 1077 0092 23F00803 		bic	r3, r3, #8
 1078 0096 1364     		str	r3, [r2, #64]
 1079 0098 08BD     		pop	{r3, pc}
 1080              	.L154:
 1081 009a 00BF     		.align	2
 1082              	.L153:
 1083 009c 00000000 		.word	.LANCHOR0
ARM GAS  /tmp/ccTOfVXV.s 			page 20


 1084 00a0 00000000 		.word	.LANCHOR1
 1085 00a4 00000000 		.word	.LANCHOR2
 1086 00a8 00000000 		.word	.LANCHOR3
 1087 00ac 00000000 		.word	.LANCHOR4
 1088 00b0 00380240 		.word	1073887232
 1089              		.cfi_endproc
 1090              	.LFE128:
 1091              		.size	pwm_lld_stop, .-pwm_lld_stop
 1092              		.section	.text.pwm_lld_enable_channel,"ax",%progbits
 1093              		.align	2
 1094              		.p2align 4,,15
 1095              		.global	pwm_lld_enable_channel
 1096              		.thumb
 1097              		.thumb_func
 1098              		.type	pwm_lld_enable_channel, %function
 1099              	pwm_lld_enable_channel:
 1100              	.LFB129:
 1101              		.loc 1 675 0
 1102              		.cfi_startproc
 1103              		@ args = 0, pretend = 0, frame = 0
 1104              		@ frame_needed = 0, uses_anonymous_args = 0
 1105              		@ link register save eliminated.
 1106              	.LVL95:
 1107              		.loc 1 680 0
 1108 0000 4368     		ldr	r3, [r0, #4]
 1109              		.loc 1 675 0
 1110 0002 10B4     		push	{r4}
 1111              		.cfi_def_cfa_offset 4
 1112              		.cfi_offset 4, -4
 1113              		.loc 1 677 0
 1114 0004 0469     		ldr	r4, [r0, #16]
 1115              		.loc 1 680 0
 1116 0006 03EBC100 		add	r0, r3, r1, lsl #3
 1117              	.LVL96:
 1118              		.loc 1 677 0
 1119 000a 01F10C03 		add	r3, r1, #12
 1120              		.loc 1 680 0
 1121 000e 0069     		ldr	r0, [r0, #16]
 1122              		.loc 1 677 0
 1123 0010 04EB8303 		add	r3, r4, r3, lsl #2
 1124 0014 5A60     		str	r2, [r3, #4]
 1125              		.loc 1 680 0
 1126 0016 40B1     		cbz	r0, .L155
 1127              	.LBB2:
 1128              		.loc 1 684 0
 1129 0018 0223     		movs	r3, #2
 1130              		.loc 1 681 0
 1131 001a E268     		ldr	r2, [r4, #12]
 1132              	.LVL97:
 1133              		.loc 1 684 0
 1134 001c 8B40     		lsls	r3, r3, r1
 1135 001e 1342     		tst	r3, r2
 1136 0020 03D1     		bne	.L155
 1137              		.loc 1 685 0
 1138 0022 1A43     		orrs	r2, r2, r3
 1139              	.LVL98:
 1140              		.loc 1 686 0
ARM GAS  /tmp/ccTOfVXV.s 			page 21


 1141 0024 DB43     		mvns	r3, r3
 1142              		.loc 1 685 0
 1143 0026 E260     		str	r2, [r4, #12]
 1144              		.loc 1 686 0
 1145 0028 2361     		str	r3, [r4, #16]
 1146              	.L155:
 1147              	.LBE2:
 1148              		.loc 1 689 0
 1149 002a 5DF8044B 		ldr	r4, [sp], #4
 1150              		.cfi_restore 4
 1151              		.cfi_def_cfa_offset 0
 1152 002e 7047     		bx	lr
 1153              		.cfi_endproc
 1154              	.LFE129:
 1155              		.size	pwm_lld_enable_channel, .-pwm_lld_enable_channel
 1156              		.section	.text.pwm_lld_disable_channel,"ax",%progbits
 1157              		.align	2
 1158              		.p2align 4,,15
 1159              		.global	pwm_lld_disable_channel
 1160              		.thumb
 1161              		.thumb_func
 1162              		.type	pwm_lld_disable_channel, %function
 1163              	pwm_lld_disable_channel:
 1164              	.LFB130:
 1165              		.loc 1 703 0
 1166              		.cfi_startproc
 1167              		@ args = 0, pretend = 0, frame = 0
 1168              		@ frame_needed = 0, uses_anonymous_args = 0
 1169              		@ link register save eliminated.
 1170              	.LVL99:
 1171              		.loc 1 705 0
 1172 0000 0369     		ldr	r3, [r0, #16]
 1173 0002 01F10C02 		add	r2, r1, #12
 1174 0006 03EB8202 		add	r2, r3, r2, lsl #2
 1175 000a 0020     		movs	r0, #0
 1176              	.LVL100:
 1177 000c 5060     		str	r0, [r2, #4]
 1178              		.loc 1 706 0
 1179 000e D868     		ldr	r0, [r3, #12]
 1180 0010 0222     		movs	r2, #2
 1181 0012 8A40     		lsls	r2, r2, r1
 1182 0014 20EA0202 		bic	r2, r0, r2
 1183 0018 DA60     		str	r2, [r3, #12]
 1184 001a 7047     		bx	lr
 1185              		.cfi_endproc
 1186              	.LFE130:
 1187              		.size	pwm_lld_disable_channel, .-pwm_lld_disable_channel
 1188              		.global	PWMD8
 1189              		.global	PWMD5
 1190              		.global	PWMD4
 1191              		.global	PWMD3
 1192              		.global	PWMD1
 1193              		.section	.bss.PWMD1,"aw",%nobits
 1194              		.align	2
 1195              		.set	.LANCHOR0,. + 0
 1196              		.type	PWMD1, %object
 1197              		.size	PWMD1, 20
ARM GAS  /tmp/ccTOfVXV.s 			page 22


 1198              	PWMD1:
 1199 0000 00000000 		.space	20
 1199      00000000 
 1199      00000000 
 1199      00000000 
 1199      00000000 
 1200              		.section	.bss.PWMD3,"aw",%nobits
 1201              		.align	2
 1202              		.set	.LANCHOR1,. + 0
 1203              		.type	PWMD3, %object
 1204              		.size	PWMD3, 20
 1205              	PWMD3:
 1206 0000 00000000 		.space	20
 1206      00000000 
 1206      00000000 
 1206      00000000 
 1206      00000000 
 1207              		.section	.bss.PWMD4,"aw",%nobits
 1208              		.align	2
 1209              		.set	.LANCHOR2,. + 0
 1210              		.type	PWMD4, %object
 1211              		.size	PWMD4, 20
 1212              	PWMD4:
 1213 0000 00000000 		.space	20
 1213      00000000 
 1213      00000000 
 1213      00000000 
 1213      00000000 
 1214              		.section	.bss.PWMD5,"aw",%nobits
 1215              		.align	2
 1216              		.set	.LANCHOR3,. + 0
 1217              		.type	PWMD5, %object
 1218              		.size	PWMD5, 20
 1219              	PWMD5:
 1220 0000 00000000 		.space	20
 1220      00000000 
 1220      00000000 
 1220      00000000 
 1220      00000000 
 1221              		.section	.bss.PWMD8,"aw",%nobits
 1222              		.align	2
 1223              		.set	.LANCHOR4,. + 0
 1224              		.type	PWMD8, %object
 1225              		.size	PWMD8, 20
 1226              	PWMD8:
 1227 0000 00000000 		.space	20
 1227      00000000 
 1227      00000000 
 1227      00000000 
 1227      00000000 
 1228              		.text
 1229              	.Letext0:
 1230              		.file 2 "/home/sbcu/Dropbox/pcb-layouts/axo-on-discovery-board/axoloti/platform_linux/arm-none-eab
 1231              		.file 3 "/home/sbcu/Dropbox/pcb-layouts/axo-on-discovery-board/axoloti/platform_linux/arm-none-eab
 1232              		.file 4 "/home/sbcu/Dropbox/pcb-layouts/axo-on-discovery-board/axoloti/platform_linux/../chibios/o
 1233              		.file 5 "/home/sbcu/Dropbox/pcb-layouts/axo-on-discovery-board/axoloti/platform_linux/../chibios/o
 1234              		.file 6 "/home/sbcu/Dropbox/pcb-layouts/axo-on-discovery-board/axoloti/platform_linux/../chibios/o
ARM GAS  /tmp/ccTOfVXV.s 			page 23


 1235              		.file 7 "/home/sbcu/Dropbox/pcb-layouts/axo-on-discovery-board/axoloti/platform_linux/../chibios/o
 1236              		.file 8 "/home/sbcu/Dropbox/pcb-layouts/axo-on-discovery-board/axoloti/platform_linux/../chibios/o
 1237              		.file 9 "/home/sbcu/Dropbox/pcb-layouts/axo-on-discovery-board/axoloti/platform_linux/../chibios/o
 1238              		.file 10 "/home/sbcu/Dropbox/pcb-layouts/axo-on-discovery-board/axoloti/platform_linux/../chibios/