ARM GAS  /tmp/ccTOfVXV.s 			page 1


   1              		.syntax unified
   2              		.cpu cortex-m4
   3              		.eabi_attribute 27, 1
   4              		.eabi_attribute 28, 1
   5              		.fpu fpv4-sp-d16
   6              		.eabi_attribute 20, 1
   7              		.eabi_attribute 21, 1
   8              		.eabi_attribute 23, 3
   9              		.eabi_attribute 24, 1
  10              		.eabi_attribute 25, 1
  11              		.eabi_attribute 26, 1
  12              		.eabi_attribute 30, 2
  13              		.eabi_attribute 34, 1
  14              		.eabi_attribute 18, 4
  15              		.thumb
  16              		.file	"pwm_lld.c"
  17              		.text
  18              	.Ltext0:
  19              		.cfi_sections	.debug_frame
  20              		.section	.text.pwm_lld_serve_interrupt,"ax",%progbits
  21              		.align	2
  22              		.p2align 4,,15
  23              		.thumb
  24              		.thumb_func
  25              		.type	pwm_lld_serve_interrupt, %function
  26              	pwm_lld_serve_interrupt:
  27              	.LFB118:
  28              		.file 1 "/home/sbcu/Dropbox/pcb-layouts/axo-on-discovery-board/axoloti/platform_linux/../chibios/o
  29              		.loc 1 112 0
  30              		.cfi_startproc
  31              		@ args = 0, pretend = 0, frame = 0
  32              		@ frame_needed = 0, uses_anonymous_args = 0
  33              	.LVL0:
  34              		.loc 1 115 0
  35 0000 0269     		ldr	r2, [r0, #16]
  36              		.loc 1 112 0
  37 0002 70B5     		push	{r4, r5, r6, lr}
  38              		.cfi_def_cfa_offset 16
  39              		.cfi_offset 4, -16
  40              		.cfi_offset 5, -12
  41              		.cfi_offset 6, -8
  42              		.cfi_offset 14, -4
  43              		.loc 1 115 0
  44 0004 1469     		ldr	r4, [r2, #16]
  45              	.LVL1:
  46              		.loc 1 116 0
  47 0006 D368     		ldr	r3, [r2, #12]
  48 0008 DBB2     		uxtb	r3, r3
  49 000a 1C40     		ands	r4, r4, r3
  50              	.LVL2:
  51              		.loc 1 117 0
  52 000c E343     		mvns	r3, r4
  53              		.loc 1 118 0
  54 000e A607     		lsls	r6, r4, #30
  55              		.loc 1 112 0
  56 0010 0546     		mov	r5, r0
  57              		.loc 1 117 0
ARM GAS  /tmp/ccTOfVXV.s 			page 2


  58 0012 1361     		str	r3, [r2, #16]
  59              		.loc 1 118 0
  60 0014 1DD4     		bmi	.L21
  61              	.LVL3:
  62              	.L2:
  63              		.loc 1 120 0
  64 0016 6007     		lsls	r0, r4, #29
  65 0018 16D4     		bmi	.L22
  66              	.L3:
  67              		.loc 1 122 0
  68 001a 2107     		lsls	r1, r4, #28
  69 001c 0FD4     		bmi	.L23
  70              	.L4:
  71              		.loc 1 124 0
  72 001e E206     		lsls	r2, r4, #27
  73 0020 08D4     		bmi	.L24
  74              	.L5:
  75              		.loc 1 126 0
  76 0022 E307     		lsls	r3, r4, #31
  77 0024 00D4     		bmi	.L25
  78 0026 70BD     		pop	{r4, r5, r6, pc}
  79              	.LVL4:
  80              	.L25:
  81              		.loc 1 127 0
  82 0028 6B68     		ldr	r3, [r5, #4]
  83 002a 2846     		mov	r0, r5
  84 002c 9B68     		ldr	r3, [r3, #8]
  85              		.loc 1 128 0
  86 002e BDE87040 		pop	{r4, r5, r6, lr}
  87              		.cfi_remember_state
  88              		.cfi_restore 14
  89              		.cfi_restore 6
  90              		.cfi_restore 5
  91              		.cfi_restore 4
  92              		.cfi_def_cfa_offset 0
  93              	.LVL5:
  94              		.loc 1 127 0
  95 0032 1847     		bx	r3	@ indirect register sibling call
  96              	.LVL6:
  97              	.L24:
  98              		.cfi_restore_state
  99              		.loc 1 125 0
 100 0034 6B68     		ldr	r3, [r5, #4]
 101 0036 2846     		mov	r0, r5
 102 0038 9B6A     		ldr	r3, [r3, #40]
 103 003a 9847     		blx	r3
 104              	.LVL7:
 105 003c F1E7     		b	.L5
 106              	.L23:
 107              		.loc 1 123 0
 108 003e 6B68     		ldr	r3, [r5, #4]
 109 0040 2846     		mov	r0, r5
 110 0042 1B6A     		ldr	r3, [r3, #32]
 111 0044 9847     		blx	r3
 112              	.LVL8:
 113 0046 EAE7     		b	.L4
 114              	.L22:
ARM GAS  /tmp/ccTOfVXV.s 			page 3


 115              		.loc 1 121 0
 116 0048 6B68     		ldr	r3, [r5, #4]
 117 004a 2846     		mov	r0, r5
 118 004c 9B69     		ldr	r3, [r3, #24]
 119 004e 9847     		blx	r3
 120              	.LVL9:
 121 0050 E3E7     		b	.L3
 122              	.LVL10:
 123              	.L21:
 124              		.loc 1 119 0
 125 0052 4368     		ldr	r3, [r0, #4]
 126 0054 1B69     		ldr	r3, [r3, #16]
 127 0056 9847     		blx	r3
 128              	.LVL11:
 129 0058 DDE7     		b	.L2
 130              		.cfi_endproc
 131              	.LFE118:
 132              		.size	pwm_lld_serve_interrupt, .-pwm_lld_serve_interrupt
 133 005a 00BF     		.section	.text.VectorA4,"ax",%progbits
 134              		.align	2
 135              		.p2align 4,,15
 136              		.global	VectorA4
 137              		.thumb
 138              		.thumb_func
 139              		.type	VectorA4, %function
 140              	VectorA4:
 141              	.LFB119:
 142              		.loc 1 147 0
 143              		.cfi_startproc
 144              		@ args = 0, pretend = 0, frame = 0
 145              		@ frame_needed = 0, uses_anonymous_args = 0
 146 0000 08B5     		push	{r3, lr}
 147              		.cfi_def_cfa_offset 8
 148              		.cfi_offset 3, -8
 149              		.cfi_offset 14, -4
 150              		.loc 1 152 0
 151 0002 0648     		ldr	r0, .L28
 152              		.loc 1 151 0
 153 0004 064A     		ldr	r2, .L28+4
 154              		.loc 1 152 0
 155 0006 4368     		ldr	r3, [r0, #4]
 156              		.loc 1 151 0
 157 0008 6FF00101 		mvn	r1, #1
 158              		.loc 1 152 0
 159 000c 9B68     		ldr	r3, [r3, #8]
 160              		.loc 1 151 0
 161 000e 1161     		str	r1, [r2, #16]
 162              		.loc 1 152 0
 163 0010 9847     		blx	r3
 164              	.LVL12:
 165              		.loc 1 155 0
 166 0012 BDE80840 		pop	{r3, lr}
 167              		.cfi_restore 14
 168              		.cfi_restore 3
 169              		.cfi_def_cfa_offset 0
 170              		.loc 1 154 0
 171 0016 FFF7FEBF 		b	_port_irq_epilogue
ARM GAS  /tmp/ccTOfVXV.s 			page 4


 172              	.LVL13:
 173              	.L29:
 174 001a 00BF     		.align	2
 175              	.L28:
 176 001c 00000000 		.word	.LANCHOR0
 177 0020 00000140 		.word	1073807360
 178              		.cfi_endproc
 179              	.LFE119:
 180              		.size	VectorA4, .-VectorA4
 181              		.section	.text.VectorAC,"ax",%progbits
 182              		.align	2
 183              		.p2align 4,,15
 184              		.global	VectorAC
 185              		.thumb
 186              		.thumb_func
 187              		.type	VectorAC, %function
 188              	VectorAC:
 189              	.LFB120:
 190              		.loc 1 168 0
 191              		.cfi_startproc
 192              		@ args = 0, pretend = 0, frame = 0
 193              		@ frame_needed = 0, uses_anonymous_args = 0
 194              		.loc 1 173 0
 195 0000 134B     		ldr	r3, .L51
 196              		.loc 1 168 0
 197 0002 10B5     		push	{r4, lr}
 198              		.cfi_def_cfa_offset 8
 199              		.cfi_offset 4, -8
 200              		.cfi_offset 14, -4
 201              		.loc 1 173 0
 202 0004 1A69     		ldr	r2, [r3, #16]
 203 0006 DC68     		ldr	r4, [r3, #12]
 204 0008 1440     		ands	r4, r4, r2
 205 000a A4B2     		uxth	r4, r4
 206              	.LVL14:
 207              		.loc 1 174 0
 208 000c E2B2     		uxtb	r2, r4
 209 000e D243     		mvns	r2, r2
 210              		.loc 1 175 0
 211 0010 A007     		lsls	r0, r4, #30
 212              		.loc 1 174 0
 213 0012 1A61     		str	r2, [r3, #16]
 214              		.loc 1 175 0
 215 0014 17D4     		bmi	.L48
 216              	.L31:
 217              		.loc 1 177 0
 218 0016 6107     		lsls	r1, r4, #29
 219 0018 10D4     		bmi	.L49
 220              	.L32:
 221              		.loc 1 179 0
 222 001a 2207     		lsls	r2, r4, #28
 223 001c 09D4     		bmi	.L50
 224              	.L33:
 225              		.loc 1 181 0
 226 001e E306     		lsls	r3, r4, #27
 227 0020 03D5     		bpl	.L34
 228              		.loc 1 182 0
ARM GAS  /tmp/ccTOfVXV.s 			page 5


 229 0022 0C48     		ldr	r0, .L51+4
 230 0024 4368     		ldr	r3, [r0, #4]
 231 0026 9B6A     		ldr	r3, [r3, #40]
 232 0028 9847     		blx	r3
 233              	.LVL15:
 234              	.L34:
 235              		.loc 1 185 0
 236 002a BDE81040 		pop	{r4, lr}
 237              		.cfi_remember_state
 238              		.cfi_restore 14
 239              		.cfi_restore 4
 240              		.cfi_def_cfa_offset 0
 241              	.LVL16:
 242              		.loc 1 184 0
 243 002e FFF7FEBF 		b	_port_irq_epilogue
 244              	.LVL17:
 245              	.L50:
 246              		.cfi_restore_state
 247              		.loc 1 180 0
 248 0032 0848     		ldr	r0, .L51+4
 249 0034 4368     		ldr	r3, [r0, #4]
 250 0036 1B6A     		ldr	r3, [r3, #32]
 251 0038 9847     		blx	r3
 252              	.LVL18:
 253 003a F0E7     		b	.L33
 254              	.L49:
 255              		.loc 1 178 0
 256 003c 0548     		ldr	r0, .L51+4
 257 003e 4368     		ldr	r3, [r0, #4]
 258 0040 9B69     		ldr	r3, [r3, #24]
 259 0042 9847     		blx	r3
 260              	.LVL19:
 261 0044 E9E7     		b	.L32
 262              	.L48:
 263              		.loc 1 176 0
 264 0046 0348     		ldr	r0, .L51+4
 265 0048 4368     		ldr	r3, [r0, #4]
 266 004a 1B69     		ldr	r3, [r3, #16]
 267 004c 9847     		blx	r3
 268              	.LVL20:
 269 004e E2E7     		b	.L31
 270              	.L52:
 271              		.align	2
 272              	.L51:
 273 0050 00000140 		.word	1073807360
 274 0054 00000000 		.word	.LANCHOR0
 275              		.cfi_endproc
 276              	.LFE120:
 277              		.size	VectorAC, .-VectorAC
 278              		.section	.text.VectorB4,"ax",%progbits
 279              		.align	2
 280              		.p2align 4,,15
 281              		.global	VectorB4
 282              		.thumb
 283              		.thumb_func
 284              		.type	VectorB4, %function
 285              	VectorB4:
ARM GAS  /tmp/ccTOfVXV.s 			page 6


 286              	.LFB121:
 287              		.loc 1 216 0
 288              		.cfi_startproc
 289              		@ args = 0, pretend = 0, frame = 0
 290              		@ frame_needed = 0, uses_anonymous_args = 0
 291 0000 08B5     		push	{r3, lr}
 292              		.cfi_def_cfa_offset 8
 293              		.cfi_offset 3, -8
 294              		.cfi_offset 14, -4
 295              		.loc 1 220 0
 296 0002 0348     		ldr	r0, .L55
 297 0004 FFF7FEFF 		bl	pwm_lld_serve_interrupt
 298              	.LVL21:
 299              		.loc 1 223 0
 300 0008 BDE80840 		pop	{r3, lr}
 301              		.cfi_restore 14
 302              		.cfi_restore 3
 303              		.cfi_def_cfa_offset 0
 304              		.loc 1 222 0
 305 000c FFF7FEBF 		b	_port_irq_epilogue
 306              	.LVL22:
 307              	.L56:
 308              		.align	2
 309              	.L55:
 310 0010 00000000 		.word	.LANCHOR1
 311              		.cfi_endproc
 312              	.LFE121:
 313              		.size	VectorB4, .-VectorB4
 314              		.section	.text.VectorB8,"ax",%progbits
 315              		.align	2
 316              		.p2align 4,,15
 317              		.global	VectorB8
 318              		.thumb
 319              		.thumb_func
 320              		.type	VectorB8, %function
 321              	VectorB8:
 322              	.LFB122:
 323              		.loc 1 235 0
 324              		.cfi_startproc
 325              		@ args = 0, pretend = 0, frame = 0
 326              		@ frame_needed = 0, uses_anonymous_args = 0
 327 0000 08B5     		push	{r3, lr}
 328              		.cfi_def_cfa_offset 8
 329              		.cfi_offset 3, -8
 330              		.cfi_offset 14, -4
 331              		.loc 1 239 0
 332 0002 0348     		ldr	r0, .L59
 333 0004 FFF7FEFF 		bl	pwm_lld_serve_interrupt
 334              	.LVL23:
 335              		.loc 1 242 0
 336 0008 BDE80840 		pop	{r3, lr}
 337              		.cfi_restore 14
 338              		.cfi_restore 3
 339              		.cfi_def_cfa_offset 0
 340              		.loc 1 241 0
 341 000c FFF7FEBF 		b	_port_irq_epilogue
 342              	.LVL24:
ARM GAS  /tmp/ccTOfVXV.s 			page 7


 343              	.L60:
 344              		.align	2
 345              	.L59:
 346 0010 00000000 		.word	.LANCHOR2
 347              		.cfi_endproc
 348              	.LFE122:
 349              		.size	VectorB8, .-VectorB8
 350              		.section	.text.Vector108,"ax",%progbits
 351              		.align	2
 352              		.p2align 4,,15
 353              		.global	Vector108
 354              		.thumb
 355              		.thumb_func
 356              		.type	Vector108, %function
 357              	Vector108:
 358              	.LFB123:
 359              		.loc 1 254 0
 360              		.cfi_startproc
 361              		@ args = 0, pretend = 0, frame = 0
 362              		@ frame_needed = 0, uses_anonymous_args = 0
 363 0000 08B5     		push	{r3, lr}
 364              		.cfi_def_cfa_offset 8
 365              		.cfi_offset 3, -8
 366              		.cfi_offset 14, -4
 367              		.loc 1 258 0
 368 0002 0348     		ldr	r0, .L63
 369 0004 FFF7FEFF 		bl	pwm_lld_serve_interrupt
 370              	.LVL25:
 371              		.loc 1 261 0
 372 0008 BDE80840 		pop	{r3, lr}
 373              		.cfi_restore 14
 374              		.cfi_restore 3
 375              		.cfi_def_cfa_offset 0
 376              		.loc 1 260 0
 377 000c FFF7FEBF 		b	_port_irq_epilogue
 378              	.LVL26:
 379              	.L64:
 380              		.align	2
 381              	.L63:
 382 0010 00000000 		.word	.LANCHOR3
 383              		.cfi_endproc
 384              	.LFE123:
 385              		.size	Vector108, .-Vector108
 386              		.section	.text.VectorF0,"ax",%progbits
 387              		.align	2
 388              		.p2align 4,,15
 389              		.global	VectorF0
 390              		.thumb
 391              		.thumb_func
 392              		.type	VectorF0, %function
 393              	VectorF0:
 394              	.LFB124:
 395              		.loc 1 276 0
 396              		.cfi_startproc
 397              		@ args = 0, pretend = 0, frame = 0
 398              		@ frame_needed = 0, uses_anonymous_args = 0
 399 0000 08B5     		push	{r3, lr}
ARM GAS  /tmp/ccTOfVXV.s 			page 8


 400              		.cfi_def_cfa_offset 8
 401              		.cfi_offset 3, -8
 402              		.cfi_offset 14, -4
 403              		.loc 1 281 0
 404 0002 0648     		ldr	r0, .L67
 405              		.loc 1 280 0
 406 0004 064A     		ldr	r2, .L67+4
 407              		.loc 1 281 0
 408 0006 4368     		ldr	r3, [r0, #4]
 409              		.loc 1 280 0
 410 0008 6FF00101 		mvn	r1, #1
 411              		.loc 1 281 0
 412 000c 9B68     		ldr	r3, [r3, #8]
 413              		.loc 1 280 0
 414 000e 1161     		str	r1, [r2, #16]
 415              		.loc 1 281 0
 416 0010 9847     		blx	r3
 417              	.LVL27:
 418              		.loc 1 284 0
 419 0012 BDE80840 		pop	{r3, lr}
 420              		.cfi_restore 14
 421              		.cfi_restore 3
 422              		.cfi_def_cfa_offset 0
 423              		.loc 1 283 0
 424 0016 FFF7FEBF 		b	_port_irq_epilogue
 425              	.LVL28:
 426              	.L68:
 427 001a 00BF     		.align	2
 428              	.L67:
 429 001c 00000000 		.word	.LANCHOR4
 430 0020 00040140 		.word	1073808384
 431              		.cfi_endproc
 432              	.LFE124:
 433              		.size	VectorF0, .-VectorF0
 434              		.section	.text.VectorF8,"ax",%progbits
 435              		.align	2
 436              		.p2align 4,,15
 437              		.global	VectorF8
 438              		.thumb
 439              		.thumb_func
 440              		.type	VectorF8, %function
 441              	VectorF8:
 442              	.LFB125:
 443              		.loc 1 297 0
 444              		.cfi_startproc
 445              		@ args = 0, pretend = 0, frame = 0
 446              		@ frame_needed = 0, uses_anonymous_args = 0
 447              		.loc 1 302 0
 448 0000 134B     		ldr	r3, .L90
 449              		.loc 1 297 0
 450 0002 10B5     		push	{r4, lr}
 451              		.cfi_def_cfa_offset 8
 452              		.cfi_offset 4, -8
 453              		.cfi_offset 14, -4
 454              		.loc 1 302 0
 455 0004 1A69     		ldr	r2, [r3, #16]
 456 0006 DC68     		ldr	r4, [r3, #12]
ARM GAS  /tmp/ccTOfVXV.s 			page 9


 457 0008 1440     		ands	r4, r4, r2
 458 000a A4B2     		uxth	r4, r4
 459              	.LVL29:
 460              		.loc 1 303 0
 461 000c E2B2     		uxtb	r2, r4
 462 000e D243     		mvns	r2, r2
 463              		.loc 1 304 0
 464 0010 A007     		lsls	r0, r4, #30
 465              		.loc 1 303 0
 466 0012 1A61     		str	r2, [r3, #16]
 467              		.loc 1 304 0
 468 0014 17D4     		bmi	.L87
 469              	.L70:
 470              		.loc 1 306 0
 471 0016 6107     		lsls	r1, r4, #29
 472 0018 10D4     		bmi	.L88
 473              	.L71:
 474              		.loc 1 308 0
 475 001a 2207     		lsls	r2, r4, #28
 476 001c 09D4     		bmi	.L89
 477              	.L72:
 478              		.loc 1 310 0
 479 001e E306     		lsls	r3, r4, #27
 480 0020 03D5     		bpl	.L73
 481              		.loc 1 311 0
 482 0022 0C48     		ldr	r0, .L90+4
 483 0024 4368     		ldr	r3, [r0, #4]
 484 0026 9B6A     		ldr	r3, [r3, #40]
 485 0028 9847     		blx	r3
 486              	.LVL30:
 487              	.L73:
 488              		.loc 1 314 0
 489 002a BDE81040 		pop	{r4, lr}
 490              		.cfi_remember_state
 491              		.cfi_restore 14
 492              		.cfi_restore 4
 493              		.cfi_def_cfa_offset 0
 494              	.LVL31:
 495              		.loc 1 313 0
 496 002e FFF7FEBF 		b	_port_irq_epilogue
 497              	.LVL32:
 498              	.L89:
 499              		.cfi_restore_state
 500              		.loc 1 309 0
 501 0032 0848     		ldr	r0, .L90+4
 502 0034 4368     		ldr	r3, [r0, #4]
 503 0036 1B6A     		ldr	r3, [r3, #32]
 504 0038 9847     		blx	r3
 505              	.LVL33:
 506 003a F0E7     		b	.L72
 507              	.L88:
 508              		.loc 1 307 0
 509 003c 0548     		ldr	r0, .L90+4
 510 003e 4368     		ldr	r3, [r0, #4]
 511 0040 9B69     		ldr	r3, [r3, #24]
 512 0042 9847     		blx	r3
 513              	.LVL34:
ARM GAS  /tmp/ccTOfVXV.s 			page 10


 514 0044 E9E7     		b	.L71
 515              	.L87:
 516              		.loc 1 305 0
 517 0046 0348     		ldr	r0, .L90+4
 518 0048 4368     		ldr	r3, [r0, #4]
 519 004a 1B69     		ldr	r3, [r3, #16]
 520 004c 9847     		blx	r3
 521              	.LVL35:
 522 004e E2E7     		b	.L70
 523              	.L91:
 524              		.align	2
 525              	.L90:
 526 0050 00040140 		.word	1073808384
 527 0054 00000000 		.word	.LANCHOR4
 528              		.cfi_endproc
 529              	.LFE125:
 530              		.size	VectorF8, .-VectorF8
 531              		.section	.text.pwm_lld_init,"ax",%progbits
 532              		.align	2
 533              		.p2align 4,,15
 534              		.global	pwm_lld_init
 535              		.thumb
 536              		.thumb_func
 537              		.type	pwm_lld_init, %function
 538              	pwm_lld_init:
 539              	.LFB126:
 540              		.loc 1 345 0
 541              		.cfi_startproc
 542              		@ args = 0, pretend = 0, frame = 0
 543              		@ frame_needed = 0, uses_anonymous_args = 0
 544 0000 2DE9F041 		push	{r4, r5, r6, r7, r8, lr}
 545              		.cfi_def_cfa_offset 24
 546              		.cfi_offset 4, -24
 547              		.cfi_offset 5, -20
 548              		.cfi_offset 6, -16
 549              		.cfi_offset 7, -12
 550              		.cfi_offset 8, -8
 551              		.cfi_offset 14, -4
 552              		.loc 1 349 0
 553 0004 DFF86480 		ldr	r8, .L94+36
 554              		.loc 1 361 0
 555 0008 0F4F     		ldr	r7, .L94
 556              		.loc 1 367 0
 557 000a 104E     		ldr	r6, .L94+4
 558              		.loc 1 373 0
 559 000c 104D     		ldr	r5, .L94+8
 560              		.loc 1 379 0
 561 000e 114C     		ldr	r4, .L94+12
 562              		.loc 1 349 0
 563 0010 4046     		mov	r0, r8
 564 0012 FFF7FEFF 		bl	pwmObjectInit
 565              	.LVL36:
 566              		.loc 1 350 0
 567 0016 104B     		ldr	r3, .L94+16
 568 0018 C8F81030 		str	r3, [r8, #16]
 569              		.loc 1 361 0
 570 001c 3846     		mov	r0, r7
ARM GAS  /tmp/ccTOfVXV.s 			page 11


 571 001e FFF7FEFF 		bl	pwmObjectInit
 572              	.LVL37:
 573              		.loc 1 362 0
 574 0022 0E4B     		ldr	r3, .L94+20
 575 0024 3B61     		str	r3, [r7, #16]
 576              		.loc 1 367 0
 577 0026 3046     		mov	r0, r6
 578 0028 FFF7FEFF 		bl	pwmObjectInit
 579              	.LVL38:
 580              		.loc 1 368 0
 581 002c 0C4B     		ldr	r3, .L94+24
 582 002e 3361     		str	r3, [r6, #16]
 583              		.loc 1 373 0
 584 0030 2846     		mov	r0, r5
 585 0032 FFF7FEFF 		bl	pwmObjectInit
 586              	.LVL39:
 587              		.loc 1 374 0
 588 0036 0B4B     		ldr	r3, .L94+28
 589 0038 2B61     		str	r3, [r5, #16]
 590              		.loc 1 379 0
 591 003a 2046     		mov	r0, r4
 592 003c FFF7FEFF 		bl	pwmObjectInit
 593              	.LVL40:
 594              		.loc 1 380 0
 595 0040 094B     		ldr	r3, .L94+32
 596 0042 2361     		str	r3, [r4, #16]
 597 0044 BDE8F081 		pop	{r4, r5, r6, r7, r8, pc}
 598              	.L95:
 599              		.align	2
 600              	.L94:
 601 0048 00000000 		.word	.LANCHOR1
 602 004c 00000000 		.word	.LANCHOR2
 603 0050 00000000 		.word	.LANCHOR3
 604 0054 00000000 		.word	.LANCHOR4
 605 0058 00000140 		.word	1073807360
 606 005c 00040040 		.word	1073742848
 607 0060 00080040 		.word	1073743872
 608 0064 000C0040 		.word	1073744896
 609 0068 00040140 		.word	1073808384
 610 006c 00000000 		.word	.LANCHOR0
 611              		.cfi_endproc
 612              	.LFE126:
 613              		.size	pwm_lld_init, .-pwm_lld_init
 614              		.section	.text.pwm_lld_start,"ax",%progbits
 615              		.align	2
 616              		.p2align 4,,15
 617              		.global	pwm_lld_start
 618              		.thumb
 619              		.thumb_func
 620              		.type	pwm_lld_start, %function
 621              	pwm_lld_start:
 622              	.LFB127:
 623              		.loc 1 399 0
 624              		.cfi_startproc
 625              		@ args = 0, pretend = 0, frame = 0
 626              		@ frame_needed = 0, uses_anonymous_args = 0
 627              	.LVL41:
ARM GAS  /tmp/ccTOfVXV.s 			page 12


 628              		.loc 1 403 0
 629 0000 0378     		ldrb	r3, [r0]	@ zero_extendqisi2
 630 0002 012B     		cmp	r3, #1
 631              		.loc 1 399 0
 632 0004 70B5     		push	{r4, r5, r6, lr}
 633              		.cfi_def_cfa_offset 16
 634              		.cfi_offset 4, -16
 635              		.cfi_offset 5, -12
 636              		.cfi_offset 6, -8
 637              		.cfi_offset 14, -4
 638              		.loc 1 399 0
 639 0006 0446     		mov	r4, r0
 640              		.loc 1 403 0
 641 0008 55D0     		beq	.L129
 642              		.loc 1 491 0
 643 000a 0369     		ldr	r3, [r0, #16]
 644 000c 0022     		movs	r2, #0
 645 000e 1A60     		str	r2, [r3]
 646              		.loc 1 492 0
 647 0010 5A63     		str	r2, [r3, #52]
 648              		.loc 1 493 0
 649 0012 9A63     		str	r2, [r3, #56]
 650              		.loc 1 494 0
 651 0014 DA63     		str	r2, [r3, #60]
 652              		.loc 1 495 0
 653 0016 1A64     		str	r2, [r3, #64]
 654              		.loc 1 496 0
 655 0018 5A62     		str	r2, [r3, #36]
 656              	.LVL42:
 657              	.L103:
 658              		.loc 1 500 0
 659 001a 6168     		ldr	r1, [r4, #4]
 660              	.LVL43:
 661              		.loc 1 505 0
 662 001c 2589     		ldrh	r5, [r4, #8]
 663              		.loc 1 510 0
 664 001e CA68     		ldr	r2, [r1, #12]
 665              		.loc 1 500 0
 666 0020 E068     		ldr	r0, [r4, #12]
 667 0022 0E68     		ldr	r6, [r1]
 668 0024 B0FBF6F0 		udiv	r0, r0, r6
 669              		.loc 1 505 0
 670 0028 6C1E     		subs	r4, r5, #1
 671              	.LVL44:
 672              		.loc 1 500 0
 673 002a 0138     		subs	r0, r0, #1
 674              	.LVL45:
 675              		.loc 1 510 0
 676 002c 02F00F02 		and	r2, r2, #15
 677              		.loc 1 506 0
 678 0030 CD6A     		ldr	r5, [r1, #44]
 679              		.loc 1 504 0
 680 0032 80B2     		uxth	r0, r0
 681              	.LVL46:
 682              		.loc 1 505 0
 683 0034 A4B2     		uxth	r4, r4
 684              		.loc 1 510 0
ARM GAS  /tmp/ccTOfVXV.s 			page 13


 685 0036 012A     		cmp	r2, #1
 686              		.loc 1 504 0
 687 0038 9862     		str	r0, [r3, #40]
 688              	.LVL47:
 689              		.loc 1 505 0
 690 003a DC62     		str	r4, [r3, #44]
 691              		.loc 1 506 0
 692 003c 5D60     		str	r5, [r3, #4]
 693              	.LVL48:
 694              		.loc 1 510 0
 695 003e 03D0     		beq	.L104
 696              		.loc 1 509 0
 697 0040 022A     		cmp	r2, #2
 698 0042 0CBF     		ite	eq
 699 0044 0322     		moveq	r2, #3
 700 0046 0022     		movne	r2, #0
 701              	.L104:
 702              	.LVL49:
 703              		.loc 1 518 0
 704 0048 4869     		ldr	r0, [r1, #20]
 705 004a 00F00F00 		and	r0, r0, #15
 706 004e 0128     		cmp	r0, #1
 707 0050 2ED0     		beq	.L108
 708 0052 0228     		cmp	r0, #2
 709 0054 2AD0     		beq	.L130
 710              	.L107:
 711              		.loc 1 526 0
 712 0056 C869     		ldr	r0, [r1, #28]
 713 0058 00F00F00 		and	r0, r0, #15
 714 005c 0128     		cmp	r0, #1
 715 005e 22D0     		beq	.L111
 716 0060 0228     		cmp	r0, #2
 717 0062 1ED0     		beq	.L131
 718              	.L110:
 719              		.loc 1 534 0
 720 0064 486A     		ldr	r0, [r1, #36]
 721 0066 00F00F00 		and	r0, r0, #15
 722 006a 0128     		cmp	r0, #1
 723 006c 03D0     		beq	.L114
 724 006e 0228     		cmp	r0, #2
 725 0070 03D1     		bne	.L113
 726              		.loc 1 536 0
 727 0072 42F40052 		orr	r2, r2, #8192
 728              	.LVL50:
 729              	.L114:
 730              		.loc 1 538 0
 731 0076 42F48052 		orr	r2, r2, #4096
 732              	.LVL51:
 733              	.L113:
 734              		.loc 1 583 0
 735 007a 086B     		ldr	r0, [r1, #48]
 736              		.loc 1 582 0
 737 007c 8968     		ldr	r1, [r1, #8]
 738              		.loc 1 579 0
 739 007e 1A62     		str	r2, [r3, #32]
 740              		.loc 1 583 0
 741 0080 20F0FF02 		bic	r2, r0, #255
ARM GAS  /tmp/ccTOfVXV.s 			page 14


 742              	.LVL52:
 743              		.loc 1 582 0
 744 0084 0029     		cmp	r1, #0
 745 0086 18BF     		it	ne
 746 0088 42F00102 		orrne	r2, r2, #1
 747              		.loc 1 580 0
 748 008c 0125     		movs	r5, #1
 749              		.loc 1 581 0
 750 008e 0024     		movs	r4, #0
 751              		.loc 1 588 0
 752 0090 4FF40040 		mov	r0, #32768
 753              		.loc 1 592 0
 754 0094 8521     		movs	r1, #133
 755              		.loc 1 580 0
 756 0096 5D61     		str	r5, [r3, #20]
 757              	.LVL53:
 758              		.loc 1 581 0
 759 0098 1C61     		str	r4, [r3, #16]
 760              		.loc 1 582 0
 761 009a DA60     		str	r2, [r3, #12]
 762              		.loc 1 588 0
 763 009c 5864     		str	r0, [r3, #68]
 764              		.loc 1 592 0
 765 009e 1960     		str	r1, [r3]
 766 00a0 70BD     		pop	{r4, r5, r6, pc}
 767              	.LVL54:
 768              	.L131:
 769              		.loc 1 528 0
 770 00a2 42F40072 		orr	r2, r2, #512
 771              	.LVL55:
 772              	.L111:
 773              		.loc 1 530 0
 774 00a6 42F48072 		orr	r2, r2, #256
 775              	.LVL56:
 776 00aa DBE7     		b	.L110
 777              	.L130:
 778              		.loc 1 520 0
 779 00ac 42F02002 		orr	r2, r2, #32
 780              	.LVL57:
 781              	.L108:
 782              		.loc 1 522 0
 783 00b0 42F01002 		orr	r2, r2, #16
 784              	.LVL58:
 785 00b4 CFE7     		b	.L107
 786              	.LVL59:
 787              	.L129:
 788              		.loc 1 406 0
 789 00b6 354B     		ldr	r3, .L137
 790 00b8 9842     		cmp	r0, r3
 791 00ba 27D0     		beq	.L132
 792              		.loc 1 430 0
 793 00bc 344B     		ldr	r3, .L137+4
 794 00be 9842     		cmp	r0, r3
 795 00c0 3AD0     		beq	.L133
 796              		.loc 1 439 0
 797 00c2 344B     		ldr	r3, .L137+8
 798 00c4 9842     		cmp	r0, r3
ARM GAS  /tmp/ccTOfVXV.s 			page 15


 799 00c6 49D0     		beq	.L134
 800              		.loc 1 449 0
 801 00c8 334B     		ldr	r3, .L137+12
 802 00ca 9842     		cmp	r0, r3
 803 00cc 52D0     		beq	.L135
 804              		.loc 1 458 0
 805 00ce 334B     		ldr	r3, .L137+16
 806 00d0 9842     		cmp	r0, r3
 807 00d2 05D0     		beq	.L136
 808              	.LVL60:
 809              	.L99:
 810              		.loc 1 484 0
 811 00d4 2369     		ldr	r3, [r4, #16]
 812 00d6 46F66802 		movw	r2, #26728
 813 00da 9A61     		str	r2, [r3, #24]
 814              		.loc 1 486 0
 815 00dc DA61     		str	r2, [r3, #28]
 816 00de 9CE7     		b	.L103
 817              	.LVL61:
 818              	.L136:
 819              		.loc 1 459 0
 820 00e0 2F4B     		ldr	r3, .L137+20
 821 00e2 5A6C     		ldr	r2, [r3, #68]
 822 00e4 42F00202 		orr	r2, r2, #2
 823 00e8 5A64     		str	r2, [r3, #68]
 824              		.loc 1 460 0
 825 00ea 5A6A     		ldr	r2, [r3, #36]
 826 00ec 0021     		movs	r1, #0
 827 00ee 42F00202 		orr	r2, r2, #2
 828 00f2 5A62     		str	r2, [r3, #36]
 829              		.loc 1 461 0
 830 00f4 2C20     		movs	r0, #44
 831              	.LVL62:
 832              		.loc 1 460 0
 833 00f6 5962     		str	r1, [r3, #36]
 834              		.loc 1 461 0
 835 00f8 7021     		movs	r1, #112
 836 00fa FFF7FEFF 		bl	nvicEnableVector
 837              	.LVL63:
 838              		.loc 1 463 0
 839 00fe 2E20     		movs	r0, #46
 840 0100 7021     		movs	r1, #112
 841 0102 FFF7FEFF 		bl	nvicEnableVector
 842              	.LVL64:
 843              		.loc 1 468 0
 844 0106 274B     		ldr	r3, .L137+24
 845 0108 E360     		str	r3, [r4, #12]
 846 010a E3E7     		b	.L99
 847              	.LVL65:
 848              	.L132:
 849              		.loc 1 407 0
 850 010c 244B     		ldr	r3, .L137+20
 851 010e 5A6C     		ldr	r2, [r3, #68]
 852 0110 42F00102 		orr	r2, r2, #1
 853 0114 5A64     		str	r2, [r3, #68]
 854              		.loc 1 408 0
 855 0116 5A6A     		ldr	r2, [r3, #36]
ARM GAS  /tmp/ccTOfVXV.s 			page 16


 856 0118 0021     		movs	r1, #0
 857 011a 42F00102 		orr	r2, r2, #1
 858 011e 5A62     		str	r2, [r3, #36]
 859              		.loc 1 409 0
 860 0120 1920     		movs	r0, #25
 861              	.LVL66:
 862              		.loc 1 408 0
 863 0122 5962     		str	r1, [r3, #36]
 864              		.loc 1 409 0
 865 0124 7021     		movs	r1, #112
 866 0126 FFF7FEFF 		bl	nvicEnableVector
 867              	.LVL67:
 868              		.loc 1 411 0
 869 012a 1B20     		movs	r0, #27
 870 012c 7021     		movs	r1, #112
 871 012e FFF7FEFF 		bl	nvicEnableVector
 872              	.LVL68:
 873              		.loc 1 416 0
 874 0132 1C4B     		ldr	r3, .L137+24
 875 0134 E360     		str	r3, [r4, #12]
 876 0136 CDE7     		b	.L99
 877              	.LVL69:
 878              	.L133:
 879              		.loc 1 431 0
 880 0138 194B     		ldr	r3, .L137+20
 881 013a 1A6C     		ldr	r2, [r3, #64]
 882 013c 42F00202 		orr	r2, r2, #2
 883 0140 1A64     		str	r2, [r3, #64]
 884              		.loc 1 432 0
 885 0142 1A6A     		ldr	r2, [r3, #32]
 886 0144 42F00202 		orr	r2, r2, #2
 887 0148 0021     		movs	r1, #0
 888 014a 1A62     		str	r2, [r3, #32]
 889              		.loc 1 433 0
 890 014c 1D20     		movs	r0, #29
 891              	.LVL70:
 892              	.L128:
 893              		.loc 1 451 0
 894 014e 1962     		str	r1, [r3, #32]
 895              		.loc 1 452 0
 896 0150 7021     		movs	r1, #112
 897 0152 FFF7FEFF 		bl	nvicEnableVector
 898              	.LVL71:
 899              		.loc 1 454 0
 900 0156 144B     		ldr	r3, .L137+28
 901 0158 E360     		str	r3, [r4, #12]
 902 015a BBE7     		b	.L99
 903              	.LVL72:
 904              	.L134:
 905              		.loc 1 440 0
 906 015c 104B     		ldr	r3, .L137+20
 907 015e 1A6C     		ldr	r2, [r3, #64]
 908 0160 42F00402 		orr	r2, r2, #4
 909 0164 1A64     		str	r2, [r3, #64]
 910              		.loc 1 441 0
 911 0166 1A6A     		ldr	r2, [r3, #32]
 912 0168 42F00402 		orr	r2, r2, #4
ARM GAS  /tmp/ccTOfVXV.s 			page 17


 913 016c 0021     		movs	r1, #0
 914 016e 1A62     		str	r2, [r3, #32]
 915              		.loc 1 442 0
 916 0170 1E20     		movs	r0, #30
 917              	.LVL73:
 918 0172 ECE7     		b	.L128
 919              	.LVL74:
 920              	.L135:
 921              		.loc 1 450 0
 922 0174 0A4B     		ldr	r3, .L137+20
 923 0176 1A6C     		ldr	r2, [r3, #64]
 924 0178 42F00802 		orr	r2, r2, #8
 925 017c 1A64     		str	r2, [r3, #64]
 926              		.loc 1 451 0
 927 017e 1A6A     		ldr	r2, [r3, #32]
 928 0180 42F00802 		orr	r2, r2, #8
 929 0184 0021     		movs	r1, #0
 930 0186 1A62     		str	r2, [r3, #32]
 931              		.loc 1 452 0
 932 0188 3220     		movs	r0, #50
 933              	.LVL75:
 934 018a E0E7     		b	.L128
 935              	.L138:
 936              		.align	2
 937              	.L137:
 938 018c 00000000 		.word	.LANCHOR0
 939 0190 00000000 		.word	.LANCHOR1
 940 0194 00000000 		.word	.LANCHOR2
 941 0198 00000000 		.word	.LANCHOR3
 942 019c 00000000 		.word	.LANCHOR4
 943 01a0 00380240 		.word	1073887232
 944 01a4 007A030A 		.word	168000000
 945 01a8 00BD0105 		.word	84000000
 946              		.cfi_endproc
 947              	.LFE127:
 948              		.size	pwm_lld_start, .-pwm_lld_start
 949              		.section	.text.pwm_lld_stop,"ax",%progbits
 950              		.align	2
 951              		.p2align 4,,15
 952              		.global	pwm_lld_stop
 953              		.thumb
 954              		.thumb_func
 955              		.type	pwm_lld_stop, %function
 956              	pwm_lld_stop:
 957              	.LFB128:
 958              		.loc 1 603 0
 959              		.cfi_startproc
 960              		@ args = 0, pretend = 0, frame = 0
 961              		@ frame_needed = 0, uses_anonymous_args = 0
 962              	.LVL76:
 963 0000 08B5     		push	{r3, lr}
 964              		.cfi_def_cfa_offset 8
 965              		.cfi_offset 3, -8
 966              		.cfi_offset 14, -4
 967              		.loc 1 606 0
 968 0002 0378     		ldrb	r3, [r0]	@ zero_extendqisi2
 969 0004 022B     		cmp	r3, #2
ARM GAS  /tmp/ccTOfVXV.s 			page 18


 970 0006 00D0     		beq	.L148
 971              	.LVL77:
 972              	.L139:
 973 0008 08BD     		pop	{r3, pc}
 974              	.LVL78:
 975              	.L148:
 976              		.loc 1 615 0
 977 000a 2449     		ldr	r1, .L153
 978              		.loc 1 607 0
 979 000c 0369     		ldr	r3, [r0, #16]
 980 000e 0022     		movs	r2, #0
 981              		.loc 1 615 0
 982 0010 8842     		cmp	r0, r1
 983              		.loc 1 607 0
 984 0012 1A60     		str	r2, [r3]
 985              		.loc 1 608 0
 986 0014 DA60     		str	r2, [r3, #12]
 987              		.loc 1 609 0
 988 0016 1A61     		str	r2, [r3, #16]
 989              		.loc 1 611 0
 990 0018 5A64     		str	r2, [r3, #68]
 991              		.loc 1 615 0
 992 001a 17D0     		beq	.L149
 993              		.loc 1 628 0
 994 001c 204B     		ldr	r3, .L153+4
 995 001e 9842     		cmp	r0, r3
 996 0020 20D0     		beq	.L150
 997              		.loc 1 634 0
 998 0022 204B     		ldr	r3, .L153+8
 999 0024 9842     		cmp	r0, r3
 1000 0026 26D0     		beq	.L151
 1001              		.loc 1 640 0
 1002 0028 1F4B     		ldr	r3, .L153+12
 1003 002a 9842     		cmp	r0, r3
 1004 002c 2CD0     		beq	.L152
 1005              		.loc 1 646 0
 1006 002e 1F4B     		ldr	r3, .L153+16
 1007 0030 9842     		cmp	r0, r3
 1008 0032 E9D1     		bne	.L139
 1009              		.loc 1 647 0
 1010 0034 2C20     		movs	r0, #44
 1011              	.LVL79:
 1012 0036 FFF7FEFF 		bl	nvicDisableVector
 1013              	.LVL80:
 1014              		.loc 1 648 0
 1015 003a 2E20     		movs	r0, #46
 1016 003c FFF7FEFF 		bl	nvicDisableVector
 1017              	.LVL81:
 1018              		.loc 1 649 0
 1019 0040 1B4A     		ldr	r2, .L153+20
 1020 0042 536C     		ldr	r3, [r2, #68]
 1021 0044 23F00203 		bic	r3, r3, #2
 1022 0048 5364     		str	r3, [r2, #68]
 1023 004a DDE7     		b	.L139
 1024              	.LVL82:
 1025              	.L149:
 1026              		.loc 1 616 0
ARM GAS  /tmp/ccTOfVXV.s 			page 19


 1027 004c 1920     		movs	r0, #25
 1028              	.LVL83:
 1029 004e FFF7FEFF 		bl	nvicDisableVector
 1030              	.LVL84:
 1031              		.loc 1 617 0
 1032 0052 1B20     		movs	r0, #27
 1033 0054 FFF7FEFF 		bl	nvicDisableVector
 1034              	.LVL85:
 1035              		.loc 1 618 0
 1036 0058 154A     		ldr	r2, .L153+20
 1037 005a 536C     		ldr	r3, [r2, #68]
 1038 005c 23F00103 		bic	r3, r3, #1
 1039 0060 5364     		str	r3, [r2, #68]
 1040 0062 08BD     		pop	{r3, pc}
 1041              	.LVL86:
 1042              	.L150:
 1043              		.loc 1 629 0
 1044 0064 1D20     		movs	r0, #29
 1045              	.LVL87:
 1046 0066 FFF7FEFF 		bl	nvicDisableVector
 1047              	.LVL88:
 1048              		.loc 1 630 0
 1049 006a 114A     		ldr	r2, .L153+20
 1050 006c 136C     		ldr	r3, [r2, #64]
 1051 006e 23F00203 		bic	r3, r3, #2
 1052 0072 1364     		str	r3, [r2, #64]
 1053 0074 08BD     		pop	{r3, pc}
 1054              	.LVL89:
 1055              	.L151:
 1056              		.loc 1 635 0
 1057 0076 1E20     		movs	r0, #30
 1058              	.LVL90:
 1059 0078 FFF7FEFF 		bl	nvicDisableVector
 1060              	.LVL91:
 1061              		.loc 1 636 0
 1062 007c 0C4A     		ldr	r2, .L153+20
 1063 007e 136C     		ldr	r3, [r2, #64]
 1064 0080 23F00403 		bic	r3, r3, #4
 1065 0084 1364     		str	r3, [r2, #64]
 1066 0086 08BD     		pop	{r3, pc}
 1067              	.LVL92:
 1068              	.L152:
 1069              		.loc 1 641 0
 1070 0088 3220     		movs	r0, #50
 1071              	.LVL93:
 1072 008a FFF7FEFF 		bl	nvicDisableVector
 1073              	.LVL94:
 1074              		.loc 1 642 0
 1075 008e 084A     		ldr	r2, .L153+20
 1076 0090 136C     		ldr	r3, [r2, #64]
 1077 0092 23F00803 		bic	r3, r3, #8
 1078 0096 1364     		str	r3, [r2, #64]
 1079 0098 08BD     		pop	{r3, pc}
 1080              	.L154:
 1081 009a 00BF     		.align	2
 1082              	.L153:
 1083 009c 00000000 		.word	.LANCHOR0
ARM GAS  /tmp/ccTOfVXV.s 			page 20


 1084 00a0 00000000 		.word	.LANCHOR1
 1085 00a4 00000000 		.word	.LANCHOR2
 1086 00a8 00000000 		.word	.LANCHOR3
 1087 00ac 00000000 		.word	.LANCHOR4
 1088 00b0 00380240 		.word	1073887232
 1089              		.cfi_endproc
 1090              	.LFE128:
 1091              		.size	pwm_lld_stop, .-pwm_lld_stop
 1092              		.section	.text.pwm_lld_enable_channel,"ax",%progbits
 1093              		.align	2
 1094              		.p2align 4,,15
 1095              		.global	pwm_lld_enable_channel
 1096              		.thumb
 1097              		.thumb_func
 1098              		.type	pwm_lld_enable_channel, %function
 1099              	pwm_lld_enable_channel:
 1100              	.LFB129:
 1101              		.loc 1 675 0
 1102              		.cfi_startproc
 1103              		@ args = 0, pretend = 0, frame = 0
 1104              		@ frame_needed = 0, uses_anonymous_args = 0
 1105              		@ link register save eliminated.
 1106              	.LVL95:
 1107              		.loc 1 680 0
 1108 0000 4368     		ldr	r3, [r0, #4]
 1109              		.loc 1 675 0
 1110 0002 10B4     		push	{r4}
 1111              		.cfi_def_cfa_offset 4
 1112              		.cfi_offset 4, -4
 1113              		.loc 1 677 0
 1114 0004 0469     		ldr	r4, [r0, #16]
 1115              		.loc 1 680 0
 1116 0006 03EBC100 		add	r0, r3, r1, lsl #3
 1117              	.LVL96:
 1118              		.loc 1 677 0
 1119 000a 01F10C03 		add	r3, r1, #12
 1120              		.loc 1 680 0
 1121 000e 0069     		ldr	r0, [r0, #16]
 1122              		.loc 1 677 0
 1123 0010 04EB8303 		add	r3, r4, r3, lsl #2
 1124 0014 5A60     		str	r2, [r3, #4]
 1125              		.loc 1 680 0
 1126 0016 40B1     		cbz	r0, .L155
 1127              	.LBB2:
 1128              		.loc 1 684 0
 1129 0018 0223     		movs	r3, #2
 1130              		.loc 1 681 0
 1131 001a E268     		ldr	r2, [r4, #12]
 1132              	.LVL97:
 1133              		.loc 1 684 0
 1134 001c 8B40     		lsls	r3, r3, r1
 1135 001e 1342     		tst	r3, r2
 1136 0020 03D1     		bne	.L155
 1137              		.loc 1 685 0
 1138 0022 1A43     		orrs	r2, r2, r3
 1139              	.LVL98:
 1140              		.loc 1 686 0
ARM GAS  /tmp/ccTOfVXV.s 			page 21


 1141 0024 DB43     		mvns	r3, r3
 1142              		.loc 1 685 0
 1143 0026 E260     		str	r2, [r4, #12]
 1144              		.loc 1 686 0
 1145 0028 2361     		str	r3, [r4, #16]
 1146              	.L155:
 1147              	.LBE2:
 1148              		.loc 1 689 0
 1149 002a 5DF8044B 		ldr	r4, [sp], #4
 1150              		.cfi_restore 4
 1151              		.cfi_def_cfa_offset 0
 1152 002e 7047     		bx	lr
 1153              		.cfi_endproc
 1154              	.LFE129:
 1155              		.size	pwm_lld_enable_channel, .-pwm_lld_enable_channel
 1156              		.section	.text.pwm_lld_disable_channel,"ax",%progbits
 1157              		.align	2
 1158              		.p2align 4,,15
 1159              		.global	pwm_lld_disable_channel
 1160              		.thumb
 1161              		.thumb_func
 1162              		.type	pwm_lld_disable_channel, %function
 1163              	pwm_lld_disable_channel:
 1164              	.LFB130:
 1165              		.loc 1 703 0
 1166              		.cfi_startproc
 1167              		@ args = 0, pretend = 0, frame = 0
 1168              		@ frame_needed = 0, uses_anonymous_args = 0
 1169              		@ link register save eliminated.
 1170              	.LVL99:
 1171              		.loc 1 705 0
 1172 0000 0369     		ldr	r3, [r0, #16]
 1173 0002 01F10C02 		add	r2, r1, #12
 1174 0006 03EB8202 		add	r2, r3, r2, lsl #2
 1175 000a 0020     		movs	r0, #0
 1176              	.LVL100:
 1177 000c 5060     		str	r0, [r2, #4]
 1178              		.loc 1 706 0
 1179 000e D868     		ldr	r0, [r3, #12]
 1180 0010 0222     		movs	r2, #2
 1181 0012 8A40     		lsls	r2, r2, r1
 1182 0014 20EA0202 		bic	r2, r0, r2
 1183 0018 DA60     		str	r2, [r3, #12]
 1184 001a 7047     		bx	lr
 1185              		.cfi_endproc
 1186              	.LFE130:
 1187              		.size	pwm_lld_disable_channel, .-pwm_lld_disable_channel
 1188              		.global	PWMD8
 1189              		.global	PWMD5
 1190              		.global	PWMD4
 1191              		.global	PWMD3
 1192              		.global	PWMD1
 1193              		.section	.bss.PWMD1,"aw",%nobits
 1194              		.align	2
 1195              		.set	.LANCHOR0,. + 0
 1196              		.type	PWMD1, %object
 1197              		.size	PWMD1, 20
ARM GAS  /tmp/ccTOfVXV.s 			page 22


 1198              	PWMD1:
 1199 0000 00000000 		.space	20
 1199      00000000 
 1199      00000000 
 1199      00000000 
 1199      00000000 
 1200              		.section	.bss.PWMD3,"aw",%nobits
 1201              		.align	2
 1202              		.set	.LANCHOR1,. + 0
 1203              		.type	PWMD3, %object
 1204              		.size	PWMD3, 20
 1205              	PWMD3:
 1206 0000 00000000 		.space	20
 1206      00000000 
 1206      00000000 
 1206      00000000 
 1206      00000000 
 1207              		.section	.bss.PWMD4,"aw",%nobits
 1208              		.align	2
 1209              		.set	.LANCHOR2,. + 0
 1210              		.type	PWMD4, %object
 1211              		.size	PWMD4, 20
 1212              	PWMD4:
 1213 0000 00000000 		.space	20
 1213      00000000 
 1213      00000000 
 1213      00000000 
 1213      00000000 
 1214              		.section	.bss.PWMD5,"aw",%nobits
 1215              		.align	2
 1216              		.set	.LANCHOR3,. + 0
 1217              		.type	PWMD5, %object
 1218              		.size	PWMD5, 20
 1219              	PWMD5:
 1220 0000 00000000 		.space	20
 1220      00000000 
 1220      00000000 
 1220      00000000 
 1220      00000000 
 1221              		.section	.bss.PWMD8,"aw",%nobits
 1222              		.align	2
 1223              		.set	.LANCHOR4,. + 0
 1224              		.type	PWMD8, %object
 1225              		.size	PWMD8, 20
 1226              	PWMD8:
 1227 0000 00000000 		.space	20
 1227      00000000 
 1227      00000000 
 1227      00000000 
 1227      00000000 
 1228              		.text
 1229              	.Letext0:
 1230              		.file 2 "/home/sbcu/Dropbox/pcb-layouts/axo-on-discovery-board/axoloti/platform_linux/arm-none-eab
 1231              		.file 3 "/home/sbcu/Dropbox/pcb-layouts/axo-on-discovery-board/axoloti/platform_linux/arm-none-eab
 1232              		.file 4 "/home/sbcu/Dropbox/pcb-layouts/axo-on-discovery-board/axoloti/platform_linux/../chibios/o
 1233              		.file 5 "/home/sbcu/Dropbox/pcb-layouts/axo-on-discovery-board/axoloti/platform_linux/../chibios/o
 1234              		.file 6 "/home/sbcu/Dropbox/pcb-layouts/axo-on-discovery-board/axoloti/platform_linux/../chibios/o
ARM GAS  /tmp/ccTOfVXV.s 			page 23


 1235              		.file 7 "/home/sbcu/Dropbox/pcb-layouts/axo-on-discovery-board/axoloti/platform_linux/../chibios/o
 1236              		.file 8 "/home/sbcu/Dropbox/pcb-layouts/axo-on-discovery-board/axoloti/platform_linux/../chibios/o
 1237              		.file 9 "/home/sbcu/Dropbox/pcb-layouts/axo-on-discovery-board/axoloti/platform_linux/../chibios/o
 1238              		.file 10 "/home/sbcu/Dropbox/pcb-layouts/axo-on-discovery-board/axoloti/platform_linux/../chibios/
 1239              		.section	.debug_info,"",%progbits
 1240              	.Ldebug_info0:
 1241 0000 DE0A0000 		.4byte	0xade
 1242 0004 0400     		.2byte	0x4
 1243 0006 00000000 		.4byte	.Ldebug_abbrev0
 1244 000a 04       		.byte	0x4
 1245 000b 01       		.uleb128 0x1
 1246 000c 88040000 		.4byte	.LASF105
 1247 0010 01       		.byte	0x1
 1248 0011 CB030000 		.4byte	.LASF106
 1249 0015 AB010000 		.4byte	.LASF107
 1250 0019 00000000 		.4byte	.Ldebug_ranges0+0
 1251 001d 00000000 		.4byte	0
 1252 0021 00000000 		.4byte	.Ldebug_line0
 1253 0025 02       		.uleb128 0x2
 1254 0026 04       		.byte	0x4
 1255 0027 07       		.byte	0x7
 1256 0028 8C010000 		.4byte	.LASF0
 1257 002c 03       		.uleb128 0x3
 1258 002d 04       		.byte	0x4
 1259 002e 05       		.byte	0x5
 1260 002f 696E7400 		.ascii	"int\000"
 1261 0033 02       		.uleb128 0x2
 1262 0034 01       		.byte	0x1
 1263 0035 06       		.byte	0x6
 1264 0036 D4000000 		.4byte	.LASF1
 1265 003a 04       		.uleb128 0x4
 1266 003b 3D000000 		.4byte	.LASF4
 1267 003f 02       		.byte	0x2
 1268 0040 1D       		.byte	0x1d
 1269 0041 45000000 		.4byte	0x45
 1270 0045 02       		.uleb128 0x2
 1271 0046 01       		.byte	0x1
 1272 0047 08       		.byte	0x8
 1273 0048 13030000 		.4byte	.LASF2
 1274 004c 02       		.uleb128 0x2
 1275 004d 02       		.byte	0x2
 1276 004e 05       		.byte	0x5
 1277 004f 2E030000 		.4byte	.LASF3
 1278 0053 04       		.uleb128 0x4
 1279 0054 5B010000 		.4byte	.LASF5
 1280 0058 02       		.byte	0x2
 1281 0059 2B       		.byte	0x2b
 1282 005a 5E000000 		.4byte	0x5e
 1283 005e 02       		.uleb128 0x2
 1284 005f 02       		.byte	0x2
 1285 0060 07       		.byte	0x7
 1286 0061 64040000 		.4byte	.LASF6
 1287 0065 04       		.uleb128 0x4
 1288 0066 4A040000 		.4byte	.LASF7
 1289 006a 02       		.byte	0x2
 1290 006b 3F       		.byte	0x3f
 1291 006c 70000000 		.4byte	0x70
ARM GAS  /tmp/ccTOfVXV.s 			page 24


 1292 0070 02       		.uleb128 0x2
 1293 0071 04       		.byte	0x4
 1294 0072 05       		.byte	0x5
 1295 0073 17010000 		.4byte	.LASF8
 1296 0077 04       		.uleb128 0x4
 1297 0078 7B010000 		.4byte	.LASF9
 1298 007c 02       		.byte	0x2
 1299 007d 41       		.byte	0x41
 1300 007e 82000000 		.4byte	0x82
 1301 0082 02       		.uleb128 0x2
 1302 0083 04       		.byte	0x4
 1303 0084 07       		.byte	0x7
 1304 0085 FA010000 		.4byte	.LASF10
 1305 0089 02       		.uleb128 0x2
 1306 008a 08       		.byte	0x8
 1307 008b 05       		.byte	0x5
 1308 008c 3C010000 		.4byte	.LASF11
 1309 0090 02       		.uleb128 0x2
 1310 0091 08       		.byte	0x8
 1311 0092 07       		.byte	0x7
 1312 0093 5D000000 		.4byte	.LASF12
 1313 0097 04       		.uleb128 0x4
 1314 0098 B6050000 		.4byte	.LASF13
 1315 009c 03       		.byte	0x3
 1316 009d 14       		.byte	0x14
 1317 009e 3A000000 		.4byte	0x3a
 1318 00a2 04       		.uleb128 0x4
 1319 00a3 4A010000 		.4byte	.LASF14
 1320 00a7 03       		.byte	0x3
 1321 00a8 1A       		.byte	0x1a
 1322 00a9 53000000 		.4byte	0x53
 1323 00ad 04       		.uleb128 0x4
 1324 00ae 0B030000 		.4byte	.LASF15
 1325 00b2 03       		.byte	0x3
 1326 00b3 1F       		.byte	0x1f
 1327 00b4 65000000 		.4byte	0x65
 1328 00b8 04       		.uleb128 0x4
 1329 00b9 79030000 		.4byte	.LASF16
 1330 00bd 03       		.byte	0x3
 1331 00be 20       		.byte	0x20
 1332 00bf 77000000 		.4byte	0x77
 1333 00c3 02       		.uleb128 0x2
 1334 00c4 01       		.byte	0x1
 1335 00c5 02       		.byte	0x2
 1336 00c6 05030000 		.4byte	.LASF17
 1337 00ca 05       		.uleb128 0x5
 1338 00cb B8000000 		.4byte	0xb8
 1339 00cf 02       		.uleb128 0x2
 1340 00d0 04       		.byte	0x4
 1341 00d1 07       		.byte	0x7
 1342 00d2 7D020000 		.4byte	.LASF18
 1343 00d6 02       		.uleb128 0x2
 1344 00d7 01       		.byte	0x1
 1345 00d8 08       		.byte	0x8
 1346 00d9 AC030000 		.4byte	.LASF19
 1347 00dd 06       		.uleb128 0x6
 1348 00de B8000000 		.4byte	0xb8
ARM GAS  /tmp/ccTOfVXV.s 			page 25


 1349 00e2 ED000000 		.4byte	0xed
 1350 00e6 07       		.uleb128 0x7
 1351 00e7 CF000000 		.4byte	0xcf
 1352 00eb 01       		.byte	0x1
 1353 00ec 00       		.byte	0
 1354 00ed 06       		.uleb128 0x6
 1355 00ee B8000000 		.4byte	0xb8
 1356 00f2 FD000000 		.4byte	0xfd
 1357 00f6 07       		.uleb128 0x7
 1358 00f7 CF000000 		.4byte	0xcf
 1359 00fb 03       		.byte	0x3
 1360 00fc 00       		.byte	0
 1361 00fd 05       		.uleb128 0x5
 1362 00fe AD000000 		.4byte	0xad
 1363 0102 08       		.uleb128 0x8
 1364 0103 90       		.byte	0x90
 1365 0104 04       		.byte	0x4
 1366 0105 5804     		.2byte	0x458
 1367 0107 AB020000 		.4byte	0x2ab
 1368 010b 09       		.uleb128 0x9
 1369 010c 435200   		.ascii	"CR\000"
 1370 010f 04       		.byte	0x4
 1371 0110 5A04     		.2byte	0x45a
 1372 0112 CA000000 		.4byte	0xca
 1373 0116 00       		.byte	0
 1374 0117 0A       		.uleb128 0xa
 1375 0118 53010000 		.4byte	.LASF20
 1376 011c 04       		.byte	0x4
 1377 011d 5B04     		.2byte	0x45b
 1378 011f CA000000 		.4byte	0xca
 1379 0123 04       		.byte	0x4
 1380 0124 0A       		.uleb128 0xa
 1381 0125 E4050000 		.4byte	.LASF21
 1382 0129 04       		.byte	0x4
 1383 012a 5C04     		.2byte	0x45c
 1384 012c CA000000 		.4byte	0xca
 1385 0130 08       		.byte	0x8
 1386 0131 09       		.uleb128 0x9
 1387 0132 43495200 		.ascii	"CIR\000"
 1388 0136 04       		.byte	0x4
 1389 0137 5D04     		.2byte	0x45d
 1390 0139 CA000000 		.4byte	0xca
 1391 013d 0C       		.byte	0xc
 1392 013e 0A       		.uleb128 0xa
 1393 013f E0000000 		.4byte	.LASF22
 1394 0143 04       		.byte	0x4
 1395 0144 5E04     		.2byte	0x45e
 1396 0146 CA000000 		.4byte	0xca
 1397 014a 10       		.byte	0x10
 1398 014b 0A       		.uleb128 0xa
 1399 014c C2030000 		.4byte	.LASF23
 1400 0150 04       		.byte	0x4
 1401 0151 5F04     		.2byte	0x45f
 1402 0153 CA000000 		.4byte	0xca
 1403 0157 14       		.byte	0x14
 1404 0158 0A       		.uleb128 0xa
 1405 0159 2E020000 		.4byte	.LASF24
ARM GAS  /tmp/ccTOfVXV.s 			page 26


 1406 015d 04       		.byte	0x4
 1407 015e 6004     		.2byte	0x460
 1408 0160 CA000000 		.4byte	0xca
 1409 0164 18       		.byte	0x18
 1410 0165 0A       		.uleb128 0xa
 1411 0166 BF020000 		.4byte	.LASF25
 1412 016a 04       		.byte	0x4
 1413 016b 6104     		.2byte	0x461
 1414 016d B8000000 		.4byte	0xb8
 1415 0171 1C       		.byte	0x1c
 1416 0172 0A       		.uleb128 0xa
 1417 0173 9D020000 		.4byte	.LASF26
 1418 0177 04       		.byte	0x4
 1419 0178 6204     		.2byte	0x462
 1420 017a CA000000 		.4byte	0xca
 1421 017e 20       		.byte	0x20
 1422 017f 0A       		.uleb128 0xa
 1423 0180 2E010000 		.4byte	.LASF27
 1424 0184 04       		.byte	0x4
 1425 0185 6304     		.2byte	0x463
 1426 0187 CA000000 		.4byte	0xca
 1427 018b 24       		.byte	0x24
 1428 018c 0A       		.uleb128 0xa
 1429 018d C9020000 		.4byte	.LASF28
 1430 0191 04       		.byte	0x4
 1431 0192 6404     		.2byte	0x464
 1432 0194 DD000000 		.4byte	0xdd
 1433 0198 28       		.byte	0x28
 1434 0199 0A       		.uleb128 0xa
 1435 019a DC050000 		.4byte	.LASF29
 1436 019e 04       		.byte	0x4
 1437 019f 6504     		.2byte	0x465
 1438 01a1 CA000000 		.4byte	0xca
 1439 01a5 30       		.byte	0x30
 1440 01a6 0A       		.uleb128 0xa
 1441 01a7 5C040000 		.4byte	.LASF30
 1442 01ab 04       		.byte	0x4
 1443 01ac 6604     		.2byte	0x466
 1444 01ae CA000000 		.4byte	0xca
 1445 01b2 34       		.byte	0x34
 1446 01b3 0A       		.uleb128 0xa
 1447 01b4 5B030000 		.4byte	.LASF31
 1448 01b8 04       		.byte	0x4
 1449 01b9 6704     		.2byte	0x467
 1450 01bb CA000000 		.4byte	0xca
 1451 01bf 38       		.byte	0x38
 1452 01c0 0A       		.uleb128 0xa
 1453 01c1 D3020000 		.4byte	.LASF32
 1454 01c5 04       		.byte	0x4
 1455 01c6 6804     		.2byte	0x468
 1456 01c8 B8000000 		.4byte	0xb8
 1457 01cc 3C       		.byte	0x3c
 1458 01cd 0A       		.uleb128 0xa
 1459 01ce 54040000 		.4byte	.LASF33
 1460 01d2 04       		.byte	0x4
 1461 01d3 6904     		.2byte	0x469
 1462 01d5 CA000000 		.4byte	0xca
ARM GAS  /tmp/ccTOfVXV.s 			page 27


 1463 01d9 40       		.byte	0x40
 1464 01da 0A       		.uleb128 0xa
 1465 01db 4B030000 		.4byte	.LASF34
 1466 01df 04       		.byte	0x4
 1467 01e0 6A04     		.2byte	0x46a
 1468 01e2 CA000000 		.4byte	0xca
 1469 01e6 44       		.byte	0x44
 1470 01e7 0A       		.uleb128 0xa
 1471 01e8 DD020000 		.4byte	.LASF35
 1472 01ec 04       		.byte	0x4
 1473 01ed 6B04     		.2byte	0x46b
 1474 01ef DD000000 		.4byte	0xdd
 1475 01f3 48       		.byte	0x48
 1476 01f4 0A       		.uleb128 0xa
 1477 01f5 9B000000 		.4byte	.LASF36
 1478 01f9 04       		.byte	0x4
 1479 01fa 6C04     		.2byte	0x46c
 1480 01fc CA000000 		.4byte	0xca
 1481 0200 50       		.byte	0x50
 1482 0201 0A       		.uleb128 0xa
 1483 0202 93020000 		.4byte	.LASF37
 1484 0206 04       		.byte	0x4
 1485 0207 6D04     		.2byte	0x46d
 1486 0209 CA000000 		.4byte	0xca
 1487 020d 54       		.byte	0x54
 1488 020e 0A       		.uleb128 0xa
 1489 020f 38030000 		.4byte	.LASF38
 1490 0213 04       		.byte	0x4
 1491 0214 6E04     		.2byte	0x46e
 1492 0216 CA000000 		.4byte	0xca
 1493 021a 58       		.byte	0x58
 1494 021b 0A       		.uleb128 0xa
 1495 021c E7020000 		.4byte	.LASF39
 1496 0220 04       		.byte	0x4
 1497 0221 6F04     		.2byte	0x46f
 1498 0223 B8000000 		.4byte	0xb8
 1499 0227 5C       		.byte	0x5c
 1500 0228 0A       		.uleb128 0xa
 1501 0229 0D000000 		.4byte	.LASF40
 1502 022d 04       		.byte	0x4
 1503 022e 7004     		.2byte	0x470
 1504 0230 CA000000 		.4byte	0xca
 1505 0234 60       		.byte	0x60
 1506 0235 0A       		.uleb128 0xa
 1507 0236 69020000 		.4byte	.LASF41
 1508 023a 04       		.byte	0x4
 1509 023b 7104     		.2byte	0x471
 1510 023d CA000000 		.4byte	0xca
 1511 0241 64       		.byte	0x64
 1512 0242 0A       		.uleb128 0xa
 1513 0243 F1020000 		.4byte	.LASF42
 1514 0247 04       		.byte	0x4
 1515 0248 7204     		.2byte	0x472
 1516 024a DD000000 		.4byte	0xdd
 1517 024e 68       		.byte	0x68
 1518 024f 0A       		.uleb128 0xa
 1519 0250 B1050000 		.4byte	.LASF43
ARM GAS  /tmp/ccTOfVXV.s 			page 28


 1520 0254 04       		.byte	0x4
 1521 0255 7304     		.2byte	0x473
 1522 0257 CA000000 		.4byte	0xca
 1523 025b 70       		.byte	0x70
 1524 025c 09       		.uleb128 0x9
 1525 025d 43535200 		.ascii	"CSR\000"
 1526 0261 04       		.byte	0x4
 1527 0262 7404     		.2byte	0x474
 1528 0264 CA000000 		.4byte	0xca
 1529 0268 74       		.byte	0x74
 1530 0269 0A       		.uleb128 0xa
 1531 026a FB020000 		.4byte	.LASF44
 1532 026e 04       		.byte	0x4
 1533 026f 7504     		.2byte	0x475
 1534 0271 DD000000 		.4byte	0xdd
 1535 0275 78       		.byte	0x78
 1536 0276 0A       		.uleb128 0xa
 1537 0277 A1050000 		.4byte	.LASF45
 1538 027b 04       		.byte	0x4
 1539 027c 7604     		.2byte	0x476
 1540 027e CA000000 		.4byte	0xca
 1541 0282 80       		.byte	0x80
 1542 0283 0A       		.uleb128 0xa
 1543 0284 23020000 		.4byte	.LASF46
 1544 0288 04       		.byte	0x4
 1545 0289 7704     		.2byte	0x477
 1546 028b CA000000 		.4byte	0xca
 1547 028f 84       		.byte	0x84
 1548 0290 0A       		.uleb128 0xa
 1549 0291 A6020000 		.4byte	.LASF47
 1550 0295 04       		.byte	0x4
 1551 0296 7804     		.2byte	0x478
 1552 0298 CA000000 		.4byte	0xca
 1553 029c 88       		.byte	0x88
 1554 029d 0A       		.uleb128 0xa
 1555 029e C6000000 		.4byte	.LASF48
 1556 02a2 04       		.byte	0x4
 1557 02a3 7904     		.2byte	0x479
 1558 02a5 CA000000 		.4byte	0xca
 1559 02a9 8C       		.byte	0x8c
 1560 02aa 00       		.byte	0
 1561 02ab 0B       		.uleb128 0xb
 1562 02ac 0C020000 		.4byte	.LASF49
 1563 02b0 04       		.byte	0x4
 1564 02b1 7B04     		.2byte	0x47b
 1565 02b3 02010000 		.4byte	0x102
 1566 02b7 0C       		.uleb128 0xc
 1567 02b8 01       		.byte	0x1
 1568 02b9 05       		.byte	0x5
 1569 02ba 55       		.byte	0x55
 1570 02bb D2020000 		.4byte	0x2d2
 1571 02bf 0D       		.uleb128 0xd
 1572 02c0 EF050000 		.4byte	.LASF50
 1573 02c4 00       		.sleb128 0
 1574 02c5 0D       		.uleb128 0xd
 1575 02c6 A3030000 		.4byte	.LASF51
 1576 02ca 01       		.sleb128 1
ARM GAS  /tmp/ccTOfVXV.s 			page 29


 1577 02cb 0D       		.uleb128 0xd
 1578 02cc A5000000 		.4byte	.LASF52
 1579 02d0 02       		.sleb128 2
 1580 02d1 00       		.byte	0
 1581 02d2 04       		.uleb128 0x4
 1582 02d3 C8050000 		.4byte	.LASF53
 1583 02d7 05       		.byte	0x5
 1584 02d8 59       		.byte	0x59
 1585 02d9 B7020000 		.4byte	0x2b7
 1586 02dd 04       		.uleb128 0x4
 1587 02de BE050000 		.4byte	.LASF54
 1588 02e2 05       		.byte	0x5
 1589 02e3 5E       		.byte	0x5e
 1590 02e4 E8020000 		.4byte	0x2e8
 1591 02e8 0E       		.uleb128 0xe
 1592 02e9 BE050000 		.4byte	.LASF54
 1593 02ed 14       		.byte	0x14
 1594 02ee 06       		.byte	0x6
 1595 02ef 6F01     		.2byte	0x16f
 1596 02f1 37030000 		.4byte	0x337
 1597 02f5 0A       		.uleb128 0xa
 1598 02f6 08010000 		.4byte	.LASF55
 1599 02fa 06       		.byte	0x6
 1600 02fb 7301     		.2byte	0x173
 1601 02fd D2020000 		.4byte	0x2d2
 1602 0301 00       		.byte	0
 1603 0302 0A       		.uleb128 0xa
 1604 0303 B6030000 		.4byte	.LASF56
 1605 0307 06       		.byte	0x6
 1606 0308 7701     		.2byte	0x177
 1607 030a 4B050000 		.4byte	0x54b
 1608 030e 04       		.byte	0x4
 1609 030f 0A       		.uleb128 0xa
 1610 0310 4D000000 		.4byte	.LASF57
 1611 0314 06       		.byte	0x6
 1612 0315 7B01     		.2byte	0x17b
 1613 0317 9B040000 		.4byte	0x49b
 1614 031b 08       		.byte	0x8
 1615 031c 0A       		.uleb128 0xa
 1616 031d E9050000 		.4byte	.LASF58
 1617 0321 06       		.byte	0x6
 1618 0322 8301     		.2byte	0x183
 1619 0324 B8000000 		.4byte	0xb8
 1620 0328 0C       		.byte	0xc
 1621 0329 09       		.uleb128 0x9
 1622 032a 74696D00 		.ascii	"tim\000"
 1623 032e 06       		.byte	0x6
 1624 032f 8701     		.2byte	0x187
 1625 0331 56050000 		.4byte	0x556
 1626 0335 10       		.byte	0x10
 1627 0336 00       		.byte	0
 1628 0337 04       		.uleb128 0x4
 1629 0338 B1020000 		.4byte	.LASF59
 1630 033c 05       		.byte	0x5
 1631 033d 65       		.byte	0x65
 1632 033e 42030000 		.4byte	0x342
 1633 0342 0F       		.uleb128 0xf
ARM GAS  /tmp/ccTOfVXV.s 			page 30


 1634 0343 04       		.byte	0x4
 1635 0344 48030000 		.4byte	0x348
 1636 0348 10       		.uleb128 0x10
 1637 0349 53030000 		.4byte	0x353
 1638 034d 11       		.uleb128 0x11
 1639 034e 53030000 		.4byte	0x353
 1640 0352 00       		.byte	0
 1641 0353 0F       		.uleb128 0xf
 1642 0354 04       		.byte	0x4
 1643 0355 DD020000 		.4byte	0x2dd
 1644 0359 08       		.uleb128 0x8
 1645 035a 60       		.byte	0x60
 1646 035b 07       		.byte	0x7
 1647 035c 9E01     		.2byte	0x19e
 1648 035e 72040000 		.4byte	0x472
 1649 0362 09       		.uleb128 0x9
 1650 0363 43523100 		.ascii	"CR1\000"
 1651 0367 07       		.byte	0x7
 1652 0368 9F01     		.2byte	0x19f
 1653 036a CA000000 		.4byte	0xca
 1654 036e 00       		.byte	0
 1655 036f 09       		.uleb128 0x9
 1656 0370 43523200 		.ascii	"CR2\000"
 1657 0374 07       		.byte	0x7
 1658 0375 A001     		.2byte	0x1a0
 1659 0377 CA000000 		.4byte	0xca
 1660 037b 04       		.byte	0x4
 1661 037c 0A       		.uleb128 0xa
 1662 037d 1E020000 		.4byte	.LASF60
 1663 0381 07       		.byte	0x7
 1664 0382 A101     		.2byte	0x1a1
 1665 0384 CA000000 		.4byte	0xca
 1666 0388 08       		.byte	0x8
 1667 0389 0A       		.uleb128 0xa
 1668 038a 17000000 		.4byte	.LASF61
 1669 038e 07       		.byte	0x7
 1670 038f A201     		.2byte	0x1a2
 1671 0391 CA000000 		.4byte	0xca
 1672 0395 0C       		.byte	0xc
 1673 0396 09       		.uleb128 0x9
 1674 0397 535200   		.ascii	"SR\000"
 1675 039a 07       		.byte	0x7
 1676 039b A301     		.2byte	0x1a3
 1677 039d CA000000 		.4byte	0xca
 1678 03a1 10       		.byte	0x10
 1679 03a2 09       		.uleb128 0x9
 1680 03a3 45475200 		.ascii	"EGR\000"
 1681 03a7 07       		.byte	0x7
 1682 03a8 A401     		.2byte	0x1a4
 1683 03aa CA000000 		.4byte	0xca
 1684 03ae 14       		.byte	0x14
 1685 03af 0A       		.uleb128 0xa
 1686 03b0 C0000000 		.4byte	.LASF62
 1687 03b4 07       		.byte	0x7
 1688 03b5 A501     		.2byte	0x1a5
 1689 03b7 CA000000 		.4byte	0xca
 1690 03bb 18       		.byte	0x18
ARM GAS  /tmp/ccTOfVXV.s 			page 31


 1691 03bc 0A       		.uleb128 0xa
 1692 03bd 47000000 		.4byte	.LASF63
 1693 03c1 07       		.byte	0x7
 1694 03c2 A601     		.2byte	0x1a6
 1695 03c4 CA000000 		.4byte	0xca
 1696 03c8 1C       		.byte	0x1c
 1697 03c9 0A       		.uleb128 0xa
 1698 03ca 37010000 		.4byte	.LASF64
 1699 03ce 07       		.byte	0x7
 1700 03cf A701     		.2byte	0x1a7
 1701 03d1 CA000000 		.4byte	0xca
 1702 03d5 20       		.byte	0x20
 1703 03d6 09       		.uleb128 0x9
 1704 03d7 434E5400 		.ascii	"CNT\000"
 1705 03db 07       		.byte	0x7
 1706 03dc A801     		.2byte	0x1a8
 1707 03de CA000000 		.4byte	0xca
 1708 03e2 24       		.byte	0x24
 1709 03e3 09       		.uleb128 0x9
 1710 03e4 50534300 		.ascii	"PSC\000"
 1711 03e8 07       		.byte	0x7
 1712 03e9 A901     		.2byte	0x1a9
 1713 03eb CA000000 		.4byte	0xca
 1714 03ef 28       		.byte	0x28
 1715 03f0 09       		.uleb128 0x9
 1716 03f1 41525200 		.ascii	"ARR\000"
 1717 03f5 07       		.byte	0x7
 1718 03f6 AA01     		.2byte	0x1aa
 1719 03f8 CA000000 		.4byte	0xca
 1720 03fc 2C       		.byte	0x2c
 1721 03fd 09       		.uleb128 0x9
 1722 03fe 52435200 		.ascii	"RCR\000"
 1723 0402 07       		.byte	0x7
 1724 0403 AB01     		.2byte	0x1ab
 1725 0405 CA000000 		.4byte	0xca
 1726 0409 30       		.byte	0x30
 1727 040a 09       		.uleb128 0x9
 1728 040b 43435200 		.ascii	"CCR\000"
 1729 040f 07       		.byte	0x7
 1730 0410 AC01     		.2byte	0x1ac
 1731 0412 72040000 		.4byte	0x472
 1732 0416 34       		.byte	0x34
 1733 0417 0A       		.uleb128 0xa
 1734 0418 8C000000 		.4byte	.LASF65
 1735 041c 07       		.byte	0x7
 1736 041d AD01     		.2byte	0x1ad
 1737 041f CA000000 		.4byte	0xca
 1738 0423 44       		.byte	0x44
 1739 0424 09       		.uleb128 0x9
 1740 0425 44435200 		.ascii	"DCR\000"
 1741 0429 07       		.byte	0x7
 1742 042a AE01     		.2byte	0x1ae
 1743 042c CA000000 		.4byte	0xca
 1744 0430 48       		.byte	0x48
 1745 0431 0A       		.uleb128 0xa
 1746 0432 BD030000 		.4byte	.LASF66
 1747 0436 07       		.byte	0x7
ARM GAS  /tmp/ccTOfVXV.s 			page 32


 1748 0437 AF01     		.2byte	0x1af
 1749 0439 CA000000 		.4byte	0xca
 1750 043d 4C       		.byte	0x4c
 1751 043e 09       		.uleb128 0x9
 1752 043f 4F5200   		.ascii	"OR\000"
 1753 0442 07       		.byte	0x7
 1754 0443 B001     		.2byte	0x1b0
 1755 0445 CA000000 		.4byte	0xca
 1756 0449 50       		.byte	0x50
 1757 044a 0A       		.uleb128 0xa
 1758 044b CE000000 		.4byte	.LASF67
 1759 044f 07       		.byte	0x7
 1760 0450 B101     		.2byte	0x1b1
 1761 0452 CA000000 		.4byte	0xca
 1762 0456 54       		.byte	0x54
 1763 0457 0A       		.uleb128 0xa
 1764 0458 A7050000 		.4byte	.LASF68
 1765 045c 07       		.byte	0x7
 1766 045d B201     		.2byte	0x1b2
 1767 045f CA000000 		.4byte	0xca
 1768 0463 58       		.byte	0x58
 1769 0464 0A       		.uleb128 0xa
 1770 0465 AC050000 		.4byte	.LASF69
 1771 0469 07       		.byte	0x7
 1772 046a B301     		.2byte	0x1b3
 1773 046c CA000000 		.4byte	0xca
 1774 0470 5C       		.byte	0x5c
 1775 0471 00       		.byte	0
 1776 0472 05       		.uleb128 0x5
 1777 0473 ED000000 		.4byte	0xed
 1778 0477 0B       		.uleb128 0xb
 1779 0478 5D020000 		.4byte	.LASF70
 1780 047c 07       		.byte	0x7
 1781 047d B401     		.2byte	0x1b4
 1782 047f 59030000 		.4byte	0x359
 1783 0483 0B       		.uleb128 0xb
 1784 0484 E9000000 		.4byte	.LASF71
 1785 0488 06       		.byte	0x6
 1786 0489 2001     		.2byte	0x120
 1787 048b B8000000 		.4byte	0xb8
 1788 048f 0B       		.uleb128 0xb
 1789 0490 00000000 		.4byte	.LASF72
 1790 0494 06       		.byte	0x6
 1791 0495 2501     		.2byte	0x125
 1792 0497 97000000 		.4byte	0x97
 1793 049b 0B       		.uleb128 0xb
 1794 049c D3050000 		.4byte	.LASF73
 1795 04a0 06       		.byte	0x6
 1796 04a1 2A01     		.2byte	0x12a
 1797 04a3 A2000000 		.4byte	0xa2
 1798 04a7 08       		.uleb128 0x8
 1799 04a8 08       		.byte	0x8
 1800 04a9 06       		.byte	0x6
 1801 04aa 2F01     		.2byte	0x12f
 1802 04ac CB040000 		.4byte	0x4cb
 1803 04b0 0A       		.uleb128 0xa
 1804 04b1 B1030000 		.4byte	.LASF74
ARM GAS  /tmp/ccTOfVXV.s 			page 33


 1805 04b5 06       		.byte	0x6
 1806 04b6 3301     		.2byte	0x133
 1807 04b8 83040000 		.4byte	0x483
 1808 04bc 00       		.byte	0
 1809 04bd 0A       		.uleb128 0xa
 1810 04be 4A020000 		.4byte	.LASF75
 1811 04c2 06       		.byte	0x6
 1812 04c3 3901     		.2byte	0x139
 1813 04c5 37030000 		.4byte	0x337
 1814 04c9 04       		.byte	0x4
 1815 04ca 00       		.byte	0
 1816 04cb 0B       		.uleb128 0xb
 1817 04cc 77040000 		.4byte	.LASF76
 1818 04d0 06       		.byte	0x6
 1819 04d1 3B01     		.2byte	0x13b
 1820 04d3 A7040000 		.4byte	0x4a7
 1821 04d7 08       		.uleb128 0x8
 1822 04d8 34       		.byte	0x34
 1823 04d9 06       		.byte	0x6
 1824 04da 4001     		.2byte	0x140
 1825 04dc 2F050000 		.4byte	0x52f
 1826 04e0 0A       		.uleb128 0xa
 1827 04e1 91000000 		.4byte	.LASF77
 1828 04e5 06       		.byte	0x6
 1829 04e6 4601     		.2byte	0x146
 1830 04e8 B8000000 		.4byte	0xb8
 1831 04ec 00       		.byte	0
 1832 04ed 0A       		.uleb128 0xa
 1833 04ee 4D000000 		.4byte	.LASF57
 1834 04f2 06       		.byte	0x6
 1835 04f3 4C01     		.2byte	0x14c
 1836 04f5 9B040000 		.4byte	0x49b
 1837 04f9 04       		.byte	0x4
 1838 04fa 0A       		.uleb128 0xa
 1839 04fb 4A020000 		.4byte	.LASF75
 1840 04ff 06       		.byte	0x6
 1841 0500 5201     		.2byte	0x152
 1842 0502 37030000 		.4byte	0x337
 1843 0506 08       		.byte	0x8
 1844 0507 0A       		.uleb128 0xa
 1845 0508 0E010000 		.4byte	.LASF78
 1846 050c 06       		.byte	0x6
 1847 050d 5601     		.2byte	0x156
 1848 050f 2F050000 		.4byte	0x52f
 1849 0513 0C       		.byte	0xc
 1850 0514 09       		.uleb128 0x9
 1851 0515 63723200 		.ascii	"cr2\000"
 1852 0519 06       		.byte	0x6
 1853 051a 5C01     		.2byte	0x15c
 1854 051c B8000000 		.4byte	0xb8
 1855 0520 2C       		.byte	0x2c
 1856 0521 0A       		.uleb128 0xa
 1857 0522 08060000 		.4byte	.LASF79
 1858 0526 06       		.byte	0x6
 1859 0527 6901     		.2byte	0x169
 1860 0529 B8000000 		.4byte	0xb8
 1861 052d 30       		.byte	0x30
ARM GAS  /tmp/ccTOfVXV.s 			page 34


 1862 052e 00       		.byte	0
 1863 052f 06       		.uleb128 0x6
 1864 0530 CB040000 		.4byte	0x4cb
 1865 0534 3F050000 		.4byte	0x53f
 1866 0538 07       		.uleb128 0x7
 1867 0539 CF000000 		.4byte	0xcf
 1868 053d 03       		.byte	0x3
 1869 053e 00       		.byte	0
 1870 053f 0B       		.uleb128 0xb
 1871 0540 82030000 		.4byte	.LASF80
 1872 0544 06       		.byte	0x6
 1873 0545 6A01     		.2byte	0x16a
 1874 0547 D7040000 		.4byte	0x4d7
 1875 054b 0F       		.uleb128 0xf
 1876 054c 04       		.byte	0x4
 1877 054d 51050000 		.4byte	0x551
 1878 0551 12       		.uleb128 0x12
 1879 0552 3F050000 		.4byte	0x53f
 1880 0556 0F       		.uleb128 0xf
 1881 0557 04       		.byte	0x4
 1882 0558 77040000 		.4byte	0x477
 1883 055c 13       		.uleb128 0x13
 1884 055d 1C000000 		.4byte	.LASF108
 1885 0561 01       		.byte	0x1
 1886 0562 70       		.byte	0x70
 1887 0563 00000000 		.4byte	.LFB118
 1888 0567 5A000000 		.4byte	.LFE118-.LFB118
 1889 056b 01       		.uleb128 0x1
 1890 056c 9C       		.byte	0x9c
 1891 056d DC050000 		.4byte	0x5dc
 1892 0571 14       		.uleb128 0x14
 1893 0572 78020000 		.4byte	.LASF90
 1894 0576 01       		.byte	0x1
 1895 0577 70       		.byte	0x70
 1896 0578 53030000 		.4byte	0x353
 1897 057c 00000000 		.4byte	.LLST0
 1898 0580 15       		.uleb128 0x15
 1899 0581 737200   		.ascii	"sr\000"
 1900 0584 01       		.byte	0x1
 1901 0585 71       		.byte	0x71
 1902 0586 A2000000 		.4byte	0xa2
 1903 058a 58000000 		.4byte	.LLST1
 1904 058e 16       		.uleb128 0x16
 1905 058f 34000000 		.4byte	.LVL6
 1906 0593 9F050000 		.4byte	0x59f
 1907 0597 17       		.uleb128 0x17
 1908 0598 01       		.uleb128 0x1
 1909 0599 50       		.byte	0x50
 1910 059a 03       		.uleb128 0x3
 1911 059b F3       		.byte	0xf3
 1912 059c 01       		.uleb128 0x1
 1913 059d 50       		.byte	0x50
 1914 059e 00       		.byte	0
 1915 059f 18       		.uleb128 0x18
 1916 05a0 3C000000 		.4byte	.LVL7
 1917 05a4 AF050000 		.4byte	0x5af
 1918 05a8 17       		.uleb128 0x17
ARM GAS  /tmp/ccTOfVXV.s 			page 35


 1919 05a9 01       		.uleb128 0x1
 1920 05aa 50       		.byte	0x50
 1921 05ab 02       		.uleb128 0x2
 1922 05ac 75       		.byte	0x75
 1923 05ad 00       		.sleb128 0
 1924 05ae 00       		.byte	0
 1925 05af 18       		.uleb128 0x18
 1926 05b0 46000000 		.4byte	.LVL8
 1927 05b4 BF050000 		.4byte	0x5bf
 1928 05b8 17       		.uleb128 0x17
 1929 05b9 01       		.uleb128 0x1
 1930 05ba 50       		.byte	0x50
 1931 05bb 02       		.uleb128 0x2
 1932 05bc 75       		.byte	0x75
 1933 05bd 00       		.sleb128 0
 1934 05be 00       		.byte	0
 1935 05bf 18       		.uleb128 0x18
 1936 05c0 50000000 		.4byte	.LVL9
 1937 05c4 CF050000 		.4byte	0x5cf
 1938 05c8 17       		.uleb128 0x17
 1939 05c9 01       		.uleb128 0x1
 1940 05ca 50       		.byte	0x50
 1941 05cb 02       		.uleb128 0x2
 1942 05cc 75       		.byte	0x75
 1943 05cd 00       		.sleb128 0
 1944 05ce 00       		.byte	0
 1945 05cf 19       		.uleb128 0x19
 1946 05d0 58000000 		.4byte	.LVL11
 1947 05d4 17       		.uleb128 0x17
 1948 05d5 01       		.uleb128 0x1
 1949 05d6 50       		.byte	0x50
 1950 05d7 02       		.uleb128 0x2
 1951 05d8 75       		.byte	0x75
 1952 05d9 00       		.sleb128 0
 1953 05da 00       		.byte	0
 1954 05db 00       		.byte	0
 1955 05dc 1A       		.uleb128 0x1a
 1956 05dd 34000000 		.4byte	.LASF81
 1957 05e1 01       		.byte	0x1
 1958 05e2 93       		.byte	0x93
 1959 05e3 00000000 		.4byte	.LFB119
 1960 05e7 24000000 		.4byte	.LFE119-.LFB119
 1961 05eb 01       		.uleb128 0x1
 1962 05ec 9C       		.byte	0x9c
 1963 05ed 0E060000 		.4byte	0x60e
 1964 05f1 18       		.uleb128 0x18
 1965 05f2 12000000 		.4byte	.LVL12
 1966 05f6 04060000 		.4byte	0x604
 1967 05fa 17       		.uleb128 0x17
 1968 05fb 01       		.uleb128 0x1
 1969 05fc 50       		.byte	0x50
 1970 05fd 05       		.uleb128 0x5
 1971 05fe 03       		.byte	0x3
 1972 05ff 00000000 		.4byte	.LANCHOR0
 1973 0603 00       		.byte	0
 1974 0604 1B       		.uleb128 0x1b
 1975 0605 1A000000 		.4byte	.LVL13
ARM GAS  /tmp/ccTOfVXV.s 			page 36


 1976 0609 A30A0000 		.4byte	0xaa3
 1977 060d 00       		.byte	0
 1978 060e 1A       		.uleb128 0x1a
 1979 060f 54000000 		.4byte	.LASF82
 1980 0613 01       		.byte	0x1
 1981 0614 A8       		.byte	0xa8
 1982 0615 00000000 		.4byte	.LFB120
 1983 0619 58000000 		.4byte	.LFE120-.LFB120
 1984 061d 01       		.uleb128 0x1
 1985 061e 9C       		.byte	0x9c
 1986 061f 83060000 		.4byte	0x683
 1987 0623 15       		.uleb128 0x15
 1988 0624 737200   		.ascii	"sr\000"
 1989 0627 01       		.byte	0x1
 1990 0628 A9       		.byte	0xa9
 1991 0629 A2000000 		.4byte	0xa2
 1992 062d 76000000 		.4byte	.LLST2
 1993 0631 18       		.uleb128 0x18
 1994 0632 2A000000 		.4byte	.LVL15
 1995 0636 44060000 		.4byte	0x644
 1996 063a 17       		.uleb128 0x17
 1997 063b 01       		.uleb128 0x1
 1998 063c 50       		.byte	0x50
 1999 063d 05       		.uleb128 0x5
 2000 063e 03       		.byte	0x3
 2001 063f 00000000 		.4byte	.LANCHOR0
 2002 0643 00       		.byte	0
 2003 0644 1B       		.uleb128 0x1b
 2004 0645 32000000 		.4byte	.LVL17
 2005 0649 A30A0000 		.4byte	0xaa3
 2006 064d 18       		.uleb128 0x18
 2007 064e 3A000000 		.4byte	.LVL18
 2008 0652 60060000 		.4byte	0x660
 2009 0656 17       		.uleb128 0x17
 2010 0657 01       		.uleb128 0x1
 2011 0658 50       		.byte	0x50
 2012 0659 05       		.uleb128 0x5
 2013 065a 03       		.byte	0x3
 2014 065b 00000000 		.4byte	.LANCHOR0
 2015 065f 00       		.byte	0
 2016 0660 18       		.uleb128 0x18
 2017 0661 44000000 		.4byte	.LVL19
 2018 0665 73060000 		.4byte	0x673
 2019 0669 17       		.uleb128 0x17
 2020 066a 01       		.uleb128 0x1
 2021 066b 50       		.byte	0x50
 2022 066c 05       		.uleb128 0x5
 2023 066d 03       		.byte	0x3
 2024 066e 00000000 		.4byte	.LANCHOR0
 2025 0672 00       		.byte	0
 2026 0673 19       		.uleb128 0x19
 2027 0674 4E000000 		.4byte	.LVL20
 2028 0678 17       		.uleb128 0x17
 2029 0679 01       		.uleb128 0x1
 2030 067a 50       		.byte	0x50
 2031 067b 05       		.uleb128 0x5
 2032 067c 03       		.byte	0x3
ARM GAS  /tmp/ccTOfVXV.s 			page 37


 2033 067d 00000000 		.4byte	.LANCHOR0
 2034 0681 00       		.byte	0
 2035 0682 00       		.byte	0
 2036 0683 1A       		.uleb128 0x1a
 2037 0684 F9000000 		.4byte	.LASF83
 2038 0688 01       		.byte	0x1
 2039 0689 D8       		.byte	0xd8
 2040 068a 00000000 		.4byte	.LFB121
 2041 068e 14000000 		.4byte	.LFE121-.LFB121
 2042 0692 01       		.uleb128 0x1
 2043 0693 9C       		.byte	0x9c
 2044 0694 B9060000 		.4byte	0x6b9
 2045 0698 1C       		.uleb128 0x1c
 2046 0699 08000000 		.4byte	.LVL21
 2047 069d 5C050000 		.4byte	0x55c
 2048 06a1 AF060000 		.4byte	0x6af
 2049 06a5 17       		.uleb128 0x17
 2050 06a6 01       		.uleb128 0x1
 2051 06a7 50       		.byte	0x50
 2052 06a8 05       		.uleb128 0x5
 2053 06a9 03       		.byte	0x3
 2054 06aa 00000000 		.4byte	.LANCHOR1
 2055 06ae 00       		.byte	0
 2056 06af 1B       		.uleb128 0x1b
 2057 06b0 10000000 		.4byte	.LVL22
 2058 06b4 A30A0000 		.4byte	0xaa3
 2059 06b8 00       		.byte	0
 2060 06b9 1A       		.uleb128 0x1a
 2061 06ba 72010000 		.4byte	.LASF84
 2062 06be 01       		.byte	0x1
 2063 06bf EB       		.byte	0xeb
 2064 06c0 00000000 		.4byte	.LFB122
 2065 06c4 14000000 		.4byte	.LFE122-.LFB122
 2066 06c8 01       		.uleb128 0x1
 2067 06c9 9C       		.byte	0x9c
 2068 06ca EF060000 		.4byte	0x6ef
 2069 06ce 1C       		.uleb128 0x1c
 2070 06cf 08000000 		.4byte	.LVL23
 2071 06d3 5C050000 		.4byte	0x55c
 2072 06d7 E5060000 		.4byte	0x6e5
 2073 06db 17       		.uleb128 0x17
 2074 06dc 01       		.uleb128 0x1
 2075 06dd 50       		.byte	0x50
 2076 06de 05       		.uleb128 0x5
 2077 06df 03       		.byte	0x3
 2078 06e0 00000000 		.4byte	.LANCHOR2
 2079 06e4 00       		.byte	0
 2080 06e5 1B       		.uleb128 0x1b
 2081 06e6 10000000 		.4byte	.LVL24
 2082 06ea A30A0000 		.4byte	0xaa3
 2083 06ee 00       		.byte	0
 2084 06ef 1A       		.uleb128 0x1a
 2085 06f0 53020000 		.4byte	.LASF85
 2086 06f4 01       		.byte	0x1
 2087 06f5 FE       		.byte	0xfe
 2088 06f6 00000000 		.4byte	.LFB123
 2089 06fa 14000000 		.4byte	.LFE123-.LFB123
ARM GAS  /tmp/ccTOfVXV.s 			page 38


 2090 06fe 01       		.uleb128 0x1
 2091 06ff 9C       		.byte	0x9c
 2092 0700 25070000 		.4byte	0x725
 2093 0704 1C       		.uleb128 0x1c
 2094 0705 08000000 		.4byte	.LVL25
 2095 0709 5C050000 		.4byte	0x55c
 2096 070d 1B070000 		.4byte	0x71b
 2097 0711 17       		.uleb128 0x17
 2098 0712 01       		.uleb128 0x1
 2099 0713 50       		.byte	0x50
 2100 0714 05       		.uleb128 0x5
 2101 0715 03       		.byte	0x3
 2102 0716 00000000 		.4byte	.LANCHOR3
 2103 071a 00       		.byte	0
 2104 071b 1B       		.uleb128 0x1b
 2105 071c 10000000 		.4byte	.LVL26
 2106 0720 A30A0000 		.4byte	0xaa3
 2107 0724 00       		.byte	0
 2108 0725 1D       		.uleb128 0x1d
 2109 0726 42030000 		.4byte	.LASF86
 2110 072a 01       		.byte	0x1
 2111 072b 1401     		.2byte	0x114
 2112 072d 00000000 		.4byte	.LFB124
 2113 0731 24000000 		.4byte	.LFE124-.LFB124
 2114 0735 01       		.uleb128 0x1
 2115 0736 9C       		.byte	0x9c
 2116 0737 58070000 		.4byte	0x758
 2117 073b 18       		.uleb128 0x18
 2118 073c 12000000 		.4byte	.LVL27
 2119 0740 4E070000 		.4byte	0x74e
 2120 0744 17       		.uleb128 0x17
 2121 0745 01       		.uleb128 0x1
 2122 0746 50       		.byte	0x50
 2123 0747 05       		.uleb128 0x5
 2124 0748 03       		.byte	0x3
 2125 0749 00000000 		.4byte	.LANCHOR4
 2126 074d 00       		.byte	0
 2127 074e 1B       		.uleb128 0x1b
 2128 074f 1A000000 		.4byte	.LVL28
 2129 0753 A30A0000 		.4byte	0xaa3
 2130 0757 00       		.byte	0
 2131 0758 1D       		.uleb128 0x1d
 2132 0759 63030000 		.4byte	.LASF87
 2133 075d 01       		.byte	0x1
 2134 075e 2901     		.2byte	0x129
 2135 0760 00000000 		.4byte	.LFB125
 2136 0764 58000000 		.4byte	.LFE125-.LFB125
 2137 0768 01       		.uleb128 0x1
 2138 0769 9C       		.byte	0x9c
 2139 076a CF070000 		.4byte	0x7cf
 2140 076e 1E       		.uleb128 0x1e
 2141 076f 737200   		.ascii	"sr\000"
 2142 0772 01       		.byte	0x1
 2143 0773 2A01     		.2byte	0x12a
 2144 0775 A2000000 		.4byte	0xa2
 2145 0779 9E000000 		.4byte	.LLST3
 2146 077d 18       		.uleb128 0x18
ARM GAS  /tmp/ccTOfVXV.s 			page 39


 2147 077e 2A000000 		.4byte	.LVL30
 2148 0782 90070000 		.4byte	0x790
 2149 0786 17       		.uleb128 0x17
 2150 0787 01       		.uleb128 0x1
 2151 0788 50       		.byte	0x50
 2152 0789 05       		.uleb128 0x5
 2153 078a 03       		.byte	0x3
 2154 078b 00000000 		.4byte	.LANCHOR4
 2155 078f 00       		.byte	0
 2156 0790 1B       		.uleb128 0x1b
 2157 0791 32000000 		.4byte	.LVL32
 2158 0795 A30A0000 		.4byte	0xaa3
 2159 0799 18       		.uleb128 0x18
 2160 079a 3A000000 		.4byte	.LVL33
 2161 079e AC070000 		.4byte	0x7ac
 2162 07a2 17       		.uleb128 0x17
 2163 07a3 01       		.uleb128 0x1
 2164 07a4 50       		.byte	0x50
 2165 07a5 05       		.uleb128 0x5
 2166 07a6 03       		.byte	0x3
 2167 07a7 00000000 		.4byte	.LANCHOR4
 2168 07ab 00       		.byte	0
 2169 07ac 18       		.uleb128 0x18
 2170 07ad 44000000 		.4byte	.LVL34
 2171 07b1 BF070000 		.4byte	0x7bf
 2172 07b5 17       		.uleb128 0x17
 2173 07b6 01       		.uleb128 0x1
 2174 07b7 50       		.byte	0x50
 2175 07b8 05       		.uleb128 0x5
 2176 07b9 03       		.byte	0x3
 2177 07ba 00000000 		.4byte	.LANCHOR4
 2178 07be 00       		.byte	0
 2179 07bf 19       		.uleb128 0x19
 2180 07c0 4E000000 		.4byte	.LVL35
 2181 07c4 17       		.uleb128 0x17
 2182 07c5 01       		.uleb128 0x1
 2183 07c6 50       		.byte	0x50
 2184 07c7 05       		.uleb128 0x5
 2185 07c8 03       		.byte	0x3
 2186 07c9 00000000 		.4byte	.LANCHOR4
 2187 07cd 00       		.byte	0
 2188 07ce 00       		.byte	0
 2189 07cf 1D       		.uleb128 0x1d
 2190 07d0 86020000 		.4byte	.LASF88
 2191 07d4 01       		.byte	0x1
 2192 07d5 5901     		.2byte	0x159
 2193 07d7 00000000 		.4byte	.LFB126
 2194 07db 70000000 		.4byte	.LFE126-.LFB126
 2195 07df 01       		.uleb128 0x1
 2196 07e0 9C       		.byte	0x9c
 2197 07e1 46080000 		.4byte	0x846
 2198 07e5 1C       		.uleb128 0x1c
 2199 07e6 16000000 		.4byte	.LVL36
 2200 07ea AB0A0000 		.4byte	0xaab
 2201 07ee F9070000 		.4byte	0x7f9
 2202 07f2 17       		.uleb128 0x17
 2203 07f3 01       		.uleb128 0x1
ARM GAS  /tmp/ccTOfVXV.s 			page 40


 2204 07f4 50       		.byte	0x50
 2205 07f5 02       		.uleb128 0x2
 2206 07f6 78       		.byte	0x78
 2207 07f7 00       		.sleb128 0
 2208 07f8 00       		.byte	0
 2209 07f9 1C       		.uleb128 0x1c
 2210 07fa 22000000 		.4byte	.LVL37
 2211 07fe AB0A0000 		.4byte	0xaab
 2212 0802 0D080000 		.4byte	0x80d
 2213 0806 17       		.uleb128 0x17
 2214 0807 01       		.uleb128 0x1
 2215 0808 50       		.byte	0x50
 2216 0809 02       		.uleb128 0x2
 2217 080a 77       		.byte	0x77
 2218 080b 00       		.sleb128 0
 2219 080c 00       		.byte	0
 2220 080d 1C       		.uleb128 0x1c
 2221 080e 2C000000 		.4byte	.LVL38
 2222 0812 AB0A0000 		.4byte	0xaab
 2223 0816 21080000 		.4byte	0x821
 2224 081a 17       		.uleb128 0x17
 2225 081b 01       		.uleb128 0x1
 2226 081c 50       		.byte	0x50
 2227 081d 02       		.uleb128 0x2
 2228 081e 76       		.byte	0x76
 2229 081f 00       		.sleb128 0
 2230 0820 00       		.byte	0
 2231 0821 1C       		.uleb128 0x1c
 2232 0822 36000000 		.4byte	.LVL39
 2233 0826 AB0A0000 		.4byte	0xaab
 2234 082a 35080000 		.4byte	0x835
 2235 082e 17       		.uleb128 0x17
 2236 082f 01       		.uleb128 0x1
 2237 0830 50       		.byte	0x50
 2238 0831 02       		.uleb128 0x2
 2239 0832 75       		.byte	0x75
 2240 0833 00       		.sleb128 0
 2241 0834 00       		.byte	0
 2242 0835 1F       		.uleb128 0x1f
 2243 0836 40000000 		.4byte	.LVL40
 2244 083a AB0A0000 		.4byte	0xaab
 2245 083e 17       		.uleb128 0x17
 2246 083f 01       		.uleb128 0x1
 2247 0840 50       		.byte	0x50
 2248 0841 02       		.uleb128 0x2
 2249 0842 74       		.byte	0x74
 2250 0843 00       		.sleb128 0
 2251 0844 00       		.byte	0
 2252 0845 00       		.byte	0
 2253 0846 1D       		.uleb128 0x1d
 2254 0847 20010000 		.4byte	.LASF89
 2255 084b 01       		.byte	0x1
 2256 084c 8F01     		.2byte	0x18f
 2257 084e 00000000 		.4byte	.LFB127
 2258 0852 AC010000 		.4byte	.LFE127-.LFB127
 2259 0856 01       		.uleb128 0x1
 2260 0857 9C       		.byte	0x9c
ARM GAS  /tmp/ccTOfVXV.s 			page 41


 2261 0858 03090000 		.4byte	0x903
 2262 085c 20       		.uleb128 0x20
 2263 085d 78020000 		.4byte	.LASF90
 2264 0861 01       		.byte	0x1
 2265 0862 8F01     		.2byte	0x18f
 2266 0864 53030000 		.4byte	0x353
 2267 0868 C6000000 		.4byte	.LLST4
 2268 086c 1E       		.uleb128 0x1e
 2269 086d 70736300 		.ascii	"psc\000"
 2270 0871 01       		.byte	0x1
 2271 0872 9001     		.2byte	0x190
 2272 0874 B8000000 		.4byte	0xb8
 2273 0878 76010000 		.4byte	.LLST5
 2274 087c 21       		.uleb128 0x21
 2275 087d 73020000 		.4byte	.LASF91
 2276 0881 01       		.byte	0x1
 2277 0882 9101     		.2byte	0x191
 2278 0884 B8000000 		.4byte	0xb8
 2279 0888 DD010000 		.4byte	.LLST6
 2280 088c 1C       		.uleb128 0x1c
 2281 088d FE000000 		.4byte	.LVL63
 2282 0891 BC0A0000 		.4byte	0xabc
 2283 0895 A6080000 		.4byte	0x8a6
 2284 0899 17       		.uleb128 0x17
 2285 089a 01       		.uleb128 0x1
 2286 089b 51       		.byte	0x51
 2287 089c 02       		.uleb128 0x2
 2288 089d 08       		.byte	0x8
 2289 089e 70       		.byte	0x70
 2290 089f 17       		.uleb128 0x17
 2291 08a0 01       		.uleb128 0x1
 2292 08a1 50       		.byte	0x50
 2293 08a2 02       		.uleb128 0x2
 2294 08a3 08       		.byte	0x8
 2295 08a4 2C       		.byte	0x2c
 2296 08a5 00       		.byte	0
 2297 08a6 1C       		.uleb128 0x1c
 2298 08a7 06010000 		.4byte	.LVL64
 2299 08ab BC0A0000 		.4byte	0xabc
 2300 08af C0080000 		.4byte	0x8c0
 2301 08b3 17       		.uleb128 0x17
 2302 08b4 01       		.uleb128 0x1
 2303 08b5 51       		.byte	0x51
 2304 08b6 02       		.uleb128 0x2
 2305 08b7 08       		.byte	0x8
 2306 08b8 70       		.byte	0x70
 2307 08b9 17       		.uleb128 0x17
 2308 08ba 01       		.uleb128 0x1
 2309 08bb 50       		.byte	0x50
 2310 08bc 02       		.uleb128 0x2
 2311 08bd 08       		.byte	0x8
 2312 08be 2E       		.byte	0x2e
 2313 08bf 00       		.byte	0
 2314 08c0 1C       		.uleb128 0x1c
 2315 08c1 2A010000 		.4byte	.LVL67
 2316 08c5 BC0A0000 		.4byte	0xabc
 2317 08c9 D9080000 		.4byte	0x8d9
ARM GAS  /tmp/ccTOfVXV.s 			page 42


 2318 08cd 17       		.uleb128 0x17
 2319 08ce 01       		.uleb128 0x1
 2320 08cf 51       		.byte	0x51
 2321 08d0 02       		.uleb128 0x2
 2322 08d1 08       		.byte	0x8
 2323 08d2 70       		.byte	0x70
 2324 08d3 17       		.uleb128 0x17
 2325 08d4 01       		.uleb128 0x1
 2326 08d5 50       		.byte	0x50
 2327 08d6 01       		.uleb128 0x1
 2328 08d7 49       		.byte	0x49
 2329 08d8 00       		.byte	0
 2330 08d9 1C       		.uleb128 0x1c
 2331 08da 32010000 		.4byte	.LVL68
 2332 08de BC0A0000 		.4byte	0xabc
 2333 08e2 F2080000 		.4byte	0x8f2
 2334 08e6 17       		.uleb128 0x17
 2335 08e7 01       		.uleb128 0x1
 2336 08e8 51       		.byte	0x51
 2337 08e9 02       		.uleb128 0x2
 2338 08ea 08       		.byte	0x8
 2339 08eb 70       		.byte	0x70
 2340 08ec 17       		.uleb128 0x17
 2341 08ed 01       		.uleb128 0x1
 2342 08ee 50       		.byte	0x50
 2343 08ef 01       		.uleb128 0x1
 2344 08f0 4B       		.byte	0x4b
 2345 08f1 00       		.byte	0
 2346 08f2 1F       		.uleb128 0x1f
 2347 08f3 56010000 		.4byte	.LVL71
 2348 08f7 BC0A0000 		.4byte	0xabc
 2349 08fb 17       		.uleb128 0x17
 2350 08fc 01       		.uleb128 0x1
 2351 08fd 51       		.byte	0x51
 2352 08fe 02       		.uleb128 0x2
 2353 08ff 08       		.byte	0x8
 2354 0900 70       		.byte	0x70
 2355 0901 00       		.byte	0
 2356 0902 00       		.byte	0
 2357 0903 1D       		.uleb128 0x1d
 2358 0904 6C030000 		.4byte	.LASF92
 2359 0908 01       		.byte	0x1
 2360 0909 5B02     		.2byte	0x25b
 2361 090b 00000000 		.4byte	.LFB128
 2362 090f B4000000 		.4byte	.LFE128-.LFB128
 2363 0913 01       		.uleb128 0x1
 2364 0914 9C       		.byte	0x9c
 2365 0915 AE090000 		.4byte	0x9ae
 2366 0919 20       		.uleb128 0x20
 2367 091a 78020000 		.4byte	.LASF90
 2368 091e 01       		.byte	0x1
 2369 091f 5B02     		.2byte	0x25b
 2370 0921 53030000 		.4byte	0x353
 2371 0925 13020000 		.4byte	.LLST7
 2372 0929 1C       		.uleb128 0x1c
 2373 092a 3A000000 		.4byte	.LVL80
 2374 092e D30A0000 		.4byte	0xad3
ARM GAS  /tmp/ccTOfVXV.s 			page 43


 2375 0932 3D090000 		.4byte	0x93d
 2376 0936 17       		.uleb128 0x17
 2377 0937 01       		.uleb128 0x1
 2378 0938 50       		.byte	0x50
 2379 0939 02       		.uleb128 0x2
 2380 093a 08       		.byte	0x8
 2381 093b 2C       		.byte	0x2c
 2382 093c 00       		.byte	0
 2383 093d 1C       		.uleb128 0x1c
 2384 093e 40000000 		.4byte	.LVL81
 2385 0942 D30A0000 		.4byte	0xad3
 2386 0946 51090000 		.4byte	0x951
 2387 094a 17       		.uleb128 0x17
 2388 094b 01       		.uleb128 0x1
 2389 094c 50       		.byte	0x50
 2390 094d 02       		.uleb128 0x2
 2391 094e 08       		.byte	0x8
 2392 094f 2E       		.byte	0x2e
 2393 0950 00       		.byte	0
 2394 0951 1C       		.uleb128 0x1c
 2395 0952 52000000 		.4byte	.LVL84
 2396 0956 D30A0000 		.4byte	0xad3
 2397 095a 64090000 		.4byte	0x964
 2398 095e 17       		.uleb128 0x17
 2399 095f 01       		.uleb128 0x1
 2400 0960 50       		.byte	0x50
 2401 0961 01       		.uleb128 0x1
 2402 0962 49       		.byte	0x49
 2403 0963 00       		.byte	0
 2404 0964 1C       		.uleb128 0x1c
 2405 0965 58000000 		.4byte	.LVL85
 2406 0969 D30A0000 		.4byte	0xad3
 2407 096d 77090000 		.4byte	0x977
 2408 0971 17       		.uleb128 0x17
 2409 0972 01       		.uleb128 0x1
 2410 0973 50       		.byte	0x50
 2411 0974 01       		.uleb128 0x1
 2412 0975 4B       		.byte	0x4b
 2413 0976 00       		.byte	0
 2414 0977 1C       		.uleb128 0x1c
 2415 0978 6A000000 		.4byte	.LVL88
 2416 097c D30A0000 		.4byte	0xad3
 2417 0980 8A090000 		.4byte	0x98a
 2418 0984 17       		.uleb128 0x17
 2419 0985 01       		.uleb128 0x1
 2420 0986 50       		.byte	0x50
 2421 0987 01       		.uleb128 0x1
 2422 0988 4D       		.byte	0x4d
 2423 0989 00       		.byte	0
 2424 098a 1C       		.uleb128 0x1c
 2425 098b 7C000000 		.4byte	.LVL91
 2426 098f D30A0000 		.4byte	0xad3
 2427 0993 9D090000 		.4byte	0x99d
 2428 0997 17       		.uleb128 0x17
 2429 0998 01       		.uleb128 0x1
 2430 0999 50       		.byte	0x50
 2431 099a 01       		.uleb128 0x1
ARM GAS  /tmp/ccTOfVXV.s 			page 44


 2432 099b 4E       		.byte	0x4e
 2433 099c 00       		.byte	0
 2434 099d 1F       		.uleb128 0x1f
 2435 099e 8E000000 		.4byte	.LVL94
 2436 09a2 D30A0000 		.4byte	0xad3
 2437 09a6 17       		.uleb128 0x17
 2438 09a7 01       		.uleb128 0x1
 2439 09a8 50       		.byte	0x50
 2440 09a9 02       		.uleb128 0x2
 2441 09aa 08       		.byte	0x8
 2442 09ab 32       		.byte	0x32
 2443 09ac 00       		.byte	0
 2444 09ad 00       		.byte	0
 2445 09ae 1D       		.uleb128 0x1d
 2446 09af 8C030000 		.4byte	.LASF93
 2447 09b3 01       		.byte	0x1
 2448 09b4 A102     		.2byte	0x2a1
 2449 09b6 00000000 		.4byte	.LFB129
 2450 09ba 30000000 		.4byte	.LFE129-.LFB129
 2451 09be 01       		.uleb128 0x1
 2452 09bf 9C       		.byte	0x9c
 2453 09c0 0D0A0000 		.4byte	0xa0d
 2454 09c4 20       		.uleb128 0x20
 2455 09c5 78020000 		.4byte	.LASF90
 2456 09c9 01       		.byte	0x1
 2457 09ca A102     		.2byte	0x2a1
 2458 09cc 53030000 		.4byte	0x353
 2459 09d0 B1020000 		.4byte	.LLST8
 2460 09d4 22       		.uleb128 0x22
 2461 09d5 53030000 		.4byte	.LASF94
 2462 09d9 01       		.byte	0x1
 2463 09da A202     		.2byte	0x2a2
 2464 09dc 8F040000 		.4byte	0x48f
 2465 09e0 01       		.uleb128 0x1
 2466 09e1 51       		.byte	0x51
 2467 09e2 20       		.uleb128 0x20
 2468 09e3 18020000 		.4byte	.LASF95
 2469 09e7 01       		.byte	0x1
 2470 09e8 A302     		.2byte	0x2a3
 2471 09ea 9B040000 		.4byte	0x49b
 2472 09ee D2020000 		.4byte	.LLST9
 2473 09f2 23       		.uleb128 0x23
 2474 09f3 18000000 		.4byte	.LBB2
 2475 09f7 12000000 		.4byte	.LBE2-.LBB2
 2476 09fb 21       		.uleb128 0x21
 2477 09fc 08060000 		.4byte	.LASF79
 2478 0a00 01       		.byte	0x1
 2479 0a01 A902     		.2byte	0x2a9
 2480 0a03 B8000000 		.4byte	0xb8
 2481 0a07 F3020000 		.4byte	.LLST10
 2482 0a0b 00       		.byte	0
 2483 0a0c 00       		.byte	0
 2484 0a0d 1D       		.uleb128 0x1d
 2485 0a0e 74000000 		.4byte	.LASF96
 2486 0a12 01       		.byte	0x1
 2487 0a13 BF02     		.2byte	0x2bf
 2488 0a15 00000000 		.4byte	.LFB130
ARM GAS  /tmp/ccTOfVXV.s 			page 45


 2489 0a19 1C000000 		.4byte	.LFE130-.LFB130
 2490 0a1d 01       		.uleb128 0x1
 2491 0a1e 9C       		.byte	0x9c
 2492 0a1f 420A0000 		.4byte	0xa42
 2493 0a23 20       		.uleb128 0x20
 2494 0a24 78020000 		.4byte	.LASF90
 2495 0a28 01       		.byte	0x1
 2496 0a29 BF02     		.2byte	0x2bf
 2497 0a2b 53030000 		.4byte	0x353
 2498 0a2f 06030000 		.4byte	.LLST11
 2499 0a33 22       		.uleb128 0x22
 2500 0a34 53030000 		.4byte	.LASF94
 2501 0a38 01       		.byte	0x1
 2502 0a39 BF02     		.2byte	0x2bf
 2503 0a3b 8F040000 		.4byte	0x48f
 2504 0a3f 01       		.uleb128 0x1
 2505 0a40 51       		.byte	0x51
 2506 0a41 00       		.byte	0
 2507 0a42 24       		.uleb128 0x24
 2508 0a43 21030000 		.4byte	.LASF97
 2509 0a47 08       		.byte	0x8
 2510 0a48 9806     		.2byte	0x698
 2511 0a4a FD000000 		.4byte	0xfd
 2512 0a4e 25       		.uleb128 0x25
 2513 0a4f F3000000 		.4byte	.LASF98
 2514 0a53 01       		.byte	0x1
 2515 0a54 2B       		.byte	0x2b
 2516 0a55 DD020000 		.4byte	0x2dd
 2517 0a59 05       		.uleb128 0x5
 2518 0a5a 03       		.byte	0x3
 2519 0a5b 00000000 		.4byte	PWMD1
 2520 0a5f 25       		.uleb128 0x25
 2521 0a60 66010000 		.4byte	.LASF99
 2522 0a64 01       		.byte	0x1
 2523 0a65 3B       		.byte	0x3b
 2524 0a66 DD020000 		.4byte	0x2dd
 2525 0a6a 05       		.uleb128 0x5
 2526 0a6b 03       		.byte	0x3
 2527 0a6c 00000000 		.4byte	PWMD3
 2528 0a70 25       		.uleb128 0x25
 2529 0a71 6C010000 		.4byte	.LASF100
 2530 0a75 01       		.byte	0x1
 2531 0a76 43       		.byte	0x43
 2532 0a77 DD020000 		.4byte	0x2dd
 2533 0a7b 05       		.uleb128 0x5
 2534 0a7c 03       		.byte	0x3
 2535 0a7d 00000000 		.4byte	PWMD4
 2536 0a81 25       		.uleb128 0x25
 2537 0a82 02010000 		.4byte	.LASF101
 2538 0a86 01       		.byte	0x1
 2539 0a87 4B       		.byte	0x4b
 2540 0a88 DD020000 		.4byte	0x2dd
 2541 0a8c 05       		.uleb128 0x5
 2542 0a8d 03       		.byte	0x3
 2543 0a8e 00000000 		.4byte	PWMD5
 2544 0a92 25       		.uleb128 0x25
 2545 0a93 86010000 		.4byte	.LASF102
ARM GAS  /tmp/ccTOfVXV.s 			page 46


 2546 0a97 01       		.byte	0x1
 2547 0a98 53       		.byte	0x53
 2548 0a99 DD020000 		.4byte	0x2dd
 2549 0a9d 05       		.uleb128 0x5
 2550 0a9e 03       		.byte	0x3
 2551 0a9f 00000000 		.4byte	PWMD8
 2552 0aa3 26       		.uleb128 0x26
 2553 0aa4 37020000 		.4byte	.LASF109
 2554 0aa8 0A       		.byte	0xa
 2555 0aa9 0302     		.2byte	0x203
 2556 0aab 27       		.uleb128 0x27
 2557 0aac FA050000 		.4byte	.LASF103
 2558 0ab0 05       		.byte	0x5
 2559 0ab1 F3       		.byte	0xf3
 2560 0ab2 BC0A0000 		.4byte	0xabc
 2561 0ab6 11       		.uleb128 0x11
 2562 0ab7 53030000 		.4byte	0x353
 2563 0abb 00       		.byte	0
 2564 0abc 28       		.uleb128 0x28
 2565 0abd AF000000 		.4byte	.LASF104
 2566 0ac1 09       		.byte	0x9
 2567 0ac2 2301     		.2byte	0x123
 2568 0ac4 D30A0000 		.4byte	0xad3
 2569 0ac8 11       		.uleb128 0x11
 2570 0ac9 B8000000 		.4byte	0xb8
 2571 0acd 11       		.uleb128 0x11
 2572 0ace B8000000 		.4byte	0xb8
 2573 0ad2 00       		.byte	0
 2574 0ad3 29       		.uleb128 0x29
 2575 0ad4 99010000 		.4byte	.LASF110
 2576 0ad8 09       		.byte	0x9
 2577 0ad9 2401     		.2byte	0x124
 2578 0adb 11       		.uleb128 0x11
 2579 0adc B8000000 		.4byte	0xb8
 2580 0ae0 00       		.byte	0
 2581 0ae1 00       		.byte	0
 2582              		.section	.debug_abbrev,"",%progbits
 2583              	.Ldebug_abbrev0:
 2584 0000 01       		.uleb128 0x1
 2585 0001 11       		.uleb128 0x11
 2586 0002 01       		.byte	0x1
 2587 0003 25       		.uleb128 0x25
 2588 0004 0E       		.uleb128 0xe
 2589 0005 13       		.uleb128 0x13
 2590 0006 0B       		.uleb128 0xb
 2591 0007 03       		.uleb128 0x3
 2592 0008 0E       		.uleb128 0xe
 2593 0009 1B       		.uleb128 0x1b
 2594 000a 0E       		.uleb128 0xe
 2595 000b 55       		.uleb128 0x55
 2596 000c 17       		.uleb128 0x17
 2597 000d 11       		.uleb128 0x11
 2598 000e 01       		.uleb128 0x1
 2599 000f 10       		.uleb128 0x10
 2600 0010 17       		.uleb128 0x17
 2601 0011 00       		.byte	0
 2602 0012 00       		.byte	0
ARM GAS  /tmp/ccTOfVXV.s 			page 47


 2603 0013 02       		.uleb128 0x2
 2604 0014 24       		.uleb128 0x24
 2605 0015 00       		.byte	0
 2606 0016 0B       		.uleb128 0xb
 2607 0017 0B       		.uleb128 0xb
 2608 0018 3E       		.uleb128 0x3e
 2609 0019 0B       		.uleb128 0xb
 2610 001a 03       		.uleb128 0x3
 2611 001b 0E       		.uleb128 0xe
 2612 001c 00       		.byte	0
 2613 001d 00       		.byte	0
 2614 001e 03       		.uleb128 0x3
 2615 001f 24       		.uleb128 0x24
 2616 0020 00       		.byte	0
 2617 0021 0B       		.uleb128 0xb
 2618 0022 0B       		.uleb128 0xb
 2619 0023 3E       		.uleb128 0x3e
 2620 0024 0B       		.uleb128 0xb
 2621 0025 03       		.uleb128 0x3
 2622 0026 08       		.uleb128 0x8
 2623 0027 00       		.byte	0
 2624 0028 00       		.byte	0
 2625 0029 04       		.uleb128 0x4
 2626 002a 16       		.uleb128 0x16
 2627 002b 00       		.byte	0
 2628 002c 03       		.uleb128 0x3
 2629 002d 0E       		.uleb128 0xe
 2630 002e 3A       		.uleb128 0x3a
 2631 002f 0B       		.uleb128 0xb
 2632 0030 3B       		.uleb128 0x3b
 2633 0031 0B       		.uleb128 0xb
 2634 0032 49       		.uleb128 0x49
 2635 0033 13       		.uleb128 0x13
 2636 0034 00       		.byte	0
 2637 0035 00       		.byte	0
 2638 0036 05       		.uleb128 0x5
 2639 0037 35       		.uleb128 0x35
 2640 0038 00       		.byte	0
 2641 0039 49       		.uleb128 0x49
 2642 003a 13       		.uleb128 0x13
 2643 003b 00       		.byte	0
 2644 003c 00       		.byte	0
 2645 003d 06       		.uleb128 0x6
 2646 003e 01       		.uleb128 0x1
 2647 003f 01       		.byte	0x1
 2648 0040 49       		.uleb128 0x49
 2649 0041 13       		.uleb128 0x13
 2650 0042 01       		.uleb128 0x1
 2651 0043 13       		.uleb128 0x13
 2652 0044 00       		.byte	0
 2653 0045 00       		.byte	0
 2654 0046 07       		.uleb128 0x7
 2655 0047 21       		.uleb128 0x21
 2656 0048 00       		.byte	0
 2657 0049 49       		.uleb128 0x49
 2658 004a 13       		.uleb128 0x13
 2659 004b 2F       		.uleb128 0x2f
ARM GAS  /tmp/ccTOfVXV.s 			page 48


 2660 004c 0B       		.uleb128 0xb
 2661 004d 00       		.byte	0
 2662 004e 00       		.byte	0
 2663 004f 08       		.uleb128 0x8
 2664 0050 13       		.uleb128 0x13
 2665 0051 01       		.byte	0x1
 2666 0052 0B       		.uleb128 0xb
 2667 0053 0B       		.uleb128 0xb
 2668 0054 3A       		.uleb128 0x3a
 2669 0055 0B       		.uleb128 0xb
 2670 0056 3B       		.uleb128 0x3b
 2671 0057 05       		.uleb128 0x5
 2672 0058 01       		.uleb128 0x1
 2673 0059 13       		.uleb128 0x13
 2674 005a 00       		.byte	0
 2675 005b 00       		.byte	0
 2676 005c 09       		.uleb128 0x9
 2677 005d 0D       		.uleb128 0xd
 2678 005e 00       		.byte	0
 2679 005f 03       		.uleb128 0x3
 2680 0060 08       		.uleb128 0x8
 2681 0061 3A       		.uleb128 0x3a
 2682 0062 0B       		.uleb128 0xb
 2683 0063 3B       		.uleb128 0x3b
 2684 0064 05       		.uleb128 0x5
 2685 0065 49       		.uleb128 0x49
 2686 0066 13       		.uleb128 0x13
 2687 0067 38       		.uleb128 0x38
 2688 0068 0B       		.uleb128 0xb
 2689 0069 00       		.byte	0
 2690 006a 00       		.byte	0
 2691 006b 0A       		.uleb128 0xa
 2692 006c 0D       		.uleb128 0xd
 2693 006d 00       		.byte	0
 2694 006e 03       		.uleb128 0x3
 2695 006f 0E       		.uleb128 0xe
 2696 0070 3A       		.uleb128 0x3a
 2697 0071 0B       		.uleb128 0xb
 2698 0072 3B       		.uleb128 0x3b
 2699 0073 05       		.uleb128 0x5
 2700 0074 49       		.uleb128 0x49
 2701 0075 13       		.uleb128 0x13
 2702 0076 38       		.uleb128 0x38
 2703 0077 0B       		.uleb128 0xb
 2704 0078 00       		.byte	0
 2705 0079 00       		.byte	0
 2706 007a 0B       		.uleb128 0xb
 2707 007b 16       		.uleb128 0x16
 2708 007c 00       		.byte	0
 2709 007d 03       		.uleb128 0x3
 2710 007e 0E       		.uleb128 0xe
 2711 007f 3A       		.uleb128 0x3a
 2712 0080 0B       		.uleb128 0xb
 2713 0081 3B       		.uleb128 0x3b
 2714 0082 05       		.uleb128 0x5
 2715 0083 49       		.uleb128 0x49
 2716 0084 13       		.uleb128 0x13
ARM GAS  /tmp/ccTOfVXV.s 			page 49


 2717 0085 00       		.byte	0
 2718 0086 00       		.byte	0
 2719 0087 0C       		.uleb128 0xc
 2720 0088 04       		.uleb128 0x4
 2721 0089 01       		.byte	0x1
 2722 008a 0B       		.uleb128 0xb
 2723 008b 0B       		.uleb128 0xb
 2724 008c 3A       		.uleb128 0x3a
 2725 008d 0B       		.uleb128 0xb
 2726 008e 3B       		.uleb128 0x3b
 2727 008f 0B       		.uleb128 0xb
 2728 0090 01       		.uleb128 0x1
 2729 0091 13       		.uleb128 0x13
 2730 0092 00       		.byte	0
 2731 0093 00       		.byte	0
 2732 0094 0D       		.uleb128 0xd
 2733 0095 28       		.uleb128 0x28
 2734 0096 00       		.byte	0
 2735 0097 03       		.uleb128 0x3
 2736 0098 0E       		.uleb128 0xe
 2737 0099 1C       		.uleb128 0x1c
 2738 009a 0D       		.uleb128 0xd
 2739 009b 00       		.byte	0
 2740 009c 00       		.byte	0
 2741 009d 0E       		.uleb128 0xe
 2742 009e 13       		.uleb128 0x13
 2743 009f 01       		.byte	0x1
 2744 00a0 03       		.uleb128 0x3
 2745 00a1 0E       		.uleb128 0xe
 2746 00a2 0B       		.uleb128 0xb
 2747 00a3 0B       		.uleb128 0xb
 2748 00a4 3A       		.uleb128 0x3a
 2749 00a5 0B       		.uleb128 0xb
 2750 00a6 3B       		.uleb128 0x3b
 2751 00a7 05       		.uleb128 0x5
 2752 00a8 01       		.uleb128 0x1
 2753 00a9 13       		.uleb128 0x13
 2754 00aa 00       		.byte	0
 2755 00ab 00       		.byte	0
 2756 00ac 0F       		.uleb128 0xf
 2757 00ad 0F       		.uleb128 0xf
 2758 00ae 00       		.byte	0
 2759 00af 0B       		.uleb128 0xb
 2760 00b0 0B       		.uleb128 0xb
 2761 00b1 49       		.uleb128 0x49
 2762 00b2 13       		.uleb128 0x13
 2763 00b3 00       		.byte	0
 2764 00b4 00       		.byte	0
 2765 00b5 10       		.uleb128 0x10
 2766 00b6 15       		.uleb128 0x15
 2767 00b7 01       		.byte	0x1
 2768 00b8 27       		.uleb128 0x27
 2769 00b9 19       		.uleb128 0x19
 2770 00ba 01       		.uleb128 0x1
 2771 00bb 13       		.uleb128 0x13
 2772 00bc 00       		.byte	0
 2773 00bd 00       		.byte	0
ARM GAS  /tmp/ccTOfVXV.s 			page 50


 2774 00be 11       		.uleb128 0x11
 2775 00bf 05       		.uleb128 0x5
 2776 00c0 00       		.byte	0
 2777 00c1 49       		.uleb128 0x49
 2778 00c2 13       		.uleb128 0x13
 2779 00c3 00       		.byte	0
 2780 00c4 00       		.byte	0
 2781 00c5 12       		.uleb128 0x12
 2782 00c6 26       		.uleb128 0x26
 2783 00c7 00       		.byte	0
 2784 00c8 49       		.uleb128 0x49
 2785 00c9 13       		.uleb128 0x13
 2786 00ca 00       		.byte	0
 2787 00cb 00       		.byte	0
 2788 00cc 13       		.uleb128 0x13
 2789 00cd 2E       		.uleb128 0x2e
 2790 00ce 01       		.byte	0x1
 2791 00cf 03       		.uleb128 0x3
 2792 00d0 0E       		.uleb128 0xe
 2793 00d1 3A       		.uleb128 0x3a
 2794 00d2 0B       		.uleb128 0xb
 2795 00d3 3B       		.uleb128 0x3b
 2796 00d4 0B       		.uleb128 0xb
 2797 00d5 27       		.uleb128 0x27
 2798 00d6 19       		.uleb128 0x19
 2799 00d7 11       		.uleb128 0x11
 2800 00d8 01       		.uleb128 0x1
 2801 00d9 12       		.uleb128 0x12
 2802 00da 06       		.uleb128 0x6
 2803 00db 40       		.uleb128 0x40
 2804 00dc 18       		.uleb128 0x18
 2805 00dd 9742     		.uleb128 0x2117
 2806 00df 19       		.uleb128 0x19
 2807 00e0 01       		.uleb128 0x1
 2808 00e1 13       		.uleb128 0x13
 2809 00e2 00       		.byte	0
 2810 00e3 00       		.byte	0
 2811 00e4 14       		.uleb128 0x14
 2812 00e5 05       		.uleb128 0x5
 2813 00e6 00       		.byte	0
 2814 00e7 03       		.uleb128 0x3
 2815 00e8 0E       		.uleb128 0xe
 2816 00e9 3A       		.uleb128 0x3a
 2817 00ea 0B       		.uleb128 0xb
 2818 00eb 3B       		.uleb128 0x3b
 2819 00ec 0B       		.uleb128 0xb
 2820 00ed 49       		.uleb128 0x49
 2821 00ee 13       		.uleb128 0x13
 2822 00ef 02       		.uleb128 0x2
 2823 00f0 17       		.uleb128 0x17
 2824 00f1 00       		.byte	0
 2825 00f2 00       		.byte	0
 2826 00f3 15       		.uleb128 0x15
 2827 00f4 34       		.uleb128 0x34
 2828 00f5 00       		.byte	0
 2829 00f6 03       		.uleb128 0x3
 2830 00f7 08       		.uleb128 0x8
ARM GAS  /tmp/ccTOfVXV.s 			page 51


 2831 00f8 3A       		.uleb128 0x3a
 2832 00f9 0B       		.uleb128 0xb
 2833 00fa 3B       		.uleb128 0x3b
 2834 00fb 0B       		.uleb128 0xb
 2835 00fc 49       		.uleb128 0x49
 2836 00fd 13       		.uleb128 0x13
 2837 00fe 02       		.uleb128 0x2
 2838 00ff 17       		.uleb128 0x17
 2839 0100 00       		.byte	0
 2840 0101 00       		.byte	0
 2841 0102 16       		.uleb128 0x16
 2842 0103 898201   		.uleb128 0x4109
 2843 0106 01       		.byte	0x1
 2844 0107 11       		.uleb128 0x11
 2845 0108 01       		.uleb128 0x1
 2846 0109 9542     		.uleb128 0x2115
 2847 010b 19       		.uleb128 0x19
 2848 010c 01       		.uleb128 0x1
 2849 010d 13       		.uleb128 0x13
 2850 010e 00       		.byte	0
 2851 010f 00       		.byte	0
 2852 0110 17       		.uleb128 0x17
 2853 0111 8A8201   		.uleb128 0x410a
 2854 0114 00       		.byte	0
 2855 0115 02       		.uleb128 0x2
 2856 0116 18       		.uleb128 0x18
 2857 0117 9142     		.uleb128 0x2111
 2858 0119 18       		.uleb128 0x18
 2859 011a 00       		.byte	0
 2860 011b 00       		.byte	0
 2861 011c 18       		.uleb128 0x18
 2862 011d 898201   		.uleb128 0x4109
 2863 0120 01       		.byte	0x1
 2864 0121 11       		.uleb128 0x11
 2865 0122 01       		.uleb128 0x1
 2866 0123 01       		.uleb128 0x1
 2867 0124 13       		.uleb128 0x13
 2868 0125 00       		.byte	0
 2869 0126 00       		.byte	0
 2870 0127 19       		.uleb128 0x19
 2871 0128 898201   		.uleb128 0x4109
 2872 012b 01       		.byte	0x1
 2873 012c 11       		.uleb128 0x11
 2874 012d 01       		.uleb128 0x1
 2875 012e 00       		.byte	0
 2876 012f 00       		.byte	0
 2877 0130 1A       		.uleb128 0x1a
 2878 0131 2E       		.uleb128 0x2e
 2879 0132 01       		.byte	0x1
 2880 0133 3F       		.uleb128 0x3f
 2881 0134 19       		.uleb128 0x19
 2882 0135 03       		.uleb128 0x3
 2883 0136 0E       		.uleb128 0xe
 2884 0137 3A       		.uleb128 0x3a
 2885 0138 0B       		.uleb128 0xb
 2886 0139 3B       		.uleb128 0x3b
 2887 013a 0B       		.uleb128 0xb
ARM GAS  /tmp/ccTOfVXV.s 			page 52


 2888 013b 27       		.uleb128 0x27
 2889 013c 19       		.uleb128 0x19
 2890 013d 11       		.uleb128 0x11
 2891 013e 01       		.uleb128 0x1
 2892 013f 12       		.uleb128 0x12
 2893 0140 06       		.uleb128 0x6
 2894 0141 40       		.uleb128 0x40
 2895 0142 18       		.uleb128 0x18
 2896 0143 9742     		.uleb128 0x2117
 2897 0145 19       		.uleb128 0x19
 2898 0146 01       		.uleb128 0x1
 2899 0147 13       		.uleb128 0x13
 2900 0148 00       		.byte	0
 2901 0149 00       		.byte	0
 2902 014a 1B       		.uleb128 0x1b
 2903 014b 898201   		.uleb128 0x4109
 2904 014e 00       		.byte	0
 2905 014f 11       		.uleb128 0x11
 2906 0150 01       		.uleb128 0x1
 2907 0151 9542     		.uleb128 0x2115
 2908 0153 19       		.uleb128 0x19
 2909 0154 31       		.uleb128 0x31
 2910 0155 13       		.uleb128 0x13
 2911 0156 00       		.byte	0
 2912 0157 00       		.byte	0
 2913 0158 1C       		.uleb128 0x1c
 2914 0159 898201   		.uleb128 0x4109
 2915 015c 01       		.byte	0x1
 2916 015d 11       		.uleb128 0x11
 2917 015e 01       		.uleb128 0x1
 2918 015f 31       		.uleb128 0x31
 2919 0160 13       		.uleb128 0x13
 2920 0161 01       		.uleb128 0x1
 2921 0162 13       		.uleb128 0x13
 2922 0163 00       		.byte	0
 2923 0164 00       		.byte	0
 2924 0165 1D       		.uleb128 0x1d
 2925 0166 2E       		.uleb128 0x2e
 2926 0167 01       		.byte	0x1
 2927 0168 3F       		.uleb128 0x3f
 2928 0169 19       		.uleb128 0x19
 2929 016a 03       		.uleb128 0x3
 2930 016b 0E       		.uleb128 0xe
 2931 016c 3A       		.uleb128 0x3a
 2932 016d 0B       		.uleb128 0xb
 2933 016e 3B       		.uleb128 0x3b
 2934 016f 05       		.uleb128 0x5
 2935 0170 27       		.uleb128 0x27
 2936 0171 19       		.uleb128 0x19
 2937 0172 11       		.uleb128 0x11
 2938 0173 01       		.uleb128 0x1
 2939 0174 12       		.uleb128 0x12
 2940 0175 06       		.uleb128 0x6
 2941 0176 40       		.uleb128 0x40
 2942 0177 18       		.uleb128 0x18
 2943 0178 9742     		.uleb128 0x2117
 2944 017a 19       		.uleb128 0x19
ARM GAS  /tmp/ccTOfVXV.s 			page 53


 2945 017b 01       		.uleb128 0x1
 2946 017c 13       		.uleb128 0x13
 2947 017d 00       		.byte	0
 2948 017e 00       		.byte	0
 2949 017f 1E       		.uleb128 0x1e
 2950 0180 34       		.uleb128 0x34
 2951 0181 00       		.byte	0
 2952 0182 03       		.uleb128 0x3
 2953 0183 08       		.uleb128 0x8
 2954 0184 3A       		.uleb128 0x3a
 2955 0185 0B       		.uleb128 0xb
 2956 0186 3B       		.uleb128 0x3b
 2957 0187 05       		.uleb128 0x5
 2958 0188 49       		.uleb128 0x49
 2959 0189 13       		.uleb128 0x13
 2960 018a 02       		.uleb128 0x2
 2961 018b 17       		.uleb128 0x17
 2962 018c 00       		.byte	0
 2963 018d 00       		.byte	0
 2964 018e 1F       		.uleb128 0x1f
 2965 018f 898201   		.uleb128 0x4109
 2966 0192 01       		.byte	0x1
 2967 0193 11       		.uleb128 0x11
 2968 0194 01       		.uleb128 0x1
 2969 0195 31       		.uleb128 0x31
 2970 0196 13       		.uleb128 0x13
 2971 0197 00       		.byte	0
 2972 0198 00       		.byte	0
 2973 0199 20       		.uleb128 0x20
 2974 019a 05       		.uleb128 0x5
 2975 019b 00       		.byte	0
 2976 019c 03       		.uleb128 0x3
 2977 019d 0E       		.uleb128 0xe
 2978 019e 3A       		.uleb128 0x3a
 2979 019f 0B       		.uleb128 0xb
 2980 01a0 3B       		.uleb128 0x3b
 2981 01a1 05       		.uleb128 0x5
 2982 01a2 49       		.uleb128 0x49
 2983 01a3 13       		.uleb128 0x13
 2984 01a4 02       		.uleb128 0x2
 2985 01a5 17       		.uleb128 0x17
 2986 01a6 00       		.byte	0
 2987 01a7 00       		.byte	0
 2988 01a8 21       		.uleb128 0x21
 2989 01a9 34       		.uleb128 0x34
 2990 01aa 00       		.byte	0
 2991 01ab 03       		.uleb128 0x3
 2992 01ac 0E       		.uleb128 0xe
 2993 01ad 3A       		.uleb128 0x3a
 2994 01ae 0B       		.uleb128 0xb
 2995 01af 3B       		.uleb128 0x3b
 2996 01b0 05       		.uleb128 0x5
 2997 01b1 49       		.uleb128 0x49
 2998 01b2 13       		.uleb128 0x13
 2999 01b3 02       		.uleb128 0x2
 3000 01b4 17       		.uleb128 0x17
 3001 01b5 00       		.byte	0
ARM GAS  /tmp/ccTOfVXV.s 			page 54


 3002 01b6 00       		.byte	0
 3003 01b7 22       		.uleb128 0x22
 3004 01b8 05       		.uleb128 0x5
 3005 01b9 00       		.byte	0
 3006 01ba 03       		.uleb128 0x3
 3007 01bb 0E       		.uleb128 0xe
 3008 01bc 3A       		.uleb128 0x3a
 3009 01bd 0B       		.uleb128 0xb
 3010 01be 3B       		.uleb128 0x3b
 3011 01bf 05       		.uleb128 0x5
 3012 01c0 49       		.uleb128 0x49
 3013 01c1 13       		.uleb128 0x13
 3014 01c2 02       		.uleb128 0x2
 3015 01c3 18       		.uleb128 0x18
 3016 01c4 00       		.byte	0
 3017 01c5 00       		.byte	0
 3018 01c6 23       		.uleb128 0x23
 3019 01c7 0B       		.uleb128 0xb
 3020 01c8 01       		.byte	0x1
 3021 01c9 11       		.uleb128 0x11
 3022 01ca 01       		.uleb128 0x1
 3023 01cb 12       		.uleb128 0x12
 3024 01cc 06       		.uleb128 0x6
 3025 01cd 00       		.byte	0
 3026 01ce 00       		.byte	0
 3027 01cf 24       		.uleb128 0x24
 3028 01d0 34       		.uleb128 0x34
 3029 01d1 00       		.byte	0
 3030 01d2 03       		.uleb128 0x3
 3031 01d3 0E       		.uleb128 0xe
 3032 01d4 3A       		.uleb128 0x3a
 3033 01d5 0B       		.uleb128 0xb
 3034 01d6 3B       		.uleb128 0x3b
 3035 01d7 05       		.uleb128 0x5
 3036 01d8 49       		.uleb128 0x49
 3037 01d9 13       		.uleb128 0x13
 3038 01da 3F       		.uleb128 0x3f
 3039 01db 19       		.uleb128 0x19
 3040 01dc 3C       		.uleb128 0x3c
 3041 01dd 19       		.uleb128 0x19
 3042 01de 00       		.byte	0
 3043 01df 00       		.byte	0
 3044 01e0 25       		.uleb128 0x25
 3045 01e1 34       		.uleb128 0x34
 3046 01e2 00       		.byte	0
 3047 01e3 03       		.uleb128 0x3
 3048 01e4 0E       		.uleb128 0xe
 3049 01e5 3A       		.uleb128 0x3a
 3050 01e6 0B       		.uleb128 0xb
 3051 01e7 3B       		.uleb128 0x3b
 3052 01e8 0B       		.uleb128 0xb
 3053 01e9 49       		.uleb128 0x49
 3054 01ea 13       		.uleb128 0x13
 3055 01eb 3F       		.uleb128 0x3f
 3056 01ec 19       		.uleb128 0x19
 3057 01ed 02       		.uleb128 0x2
 3058 01ee 18       		.uleb128 0x18
ARM GAS  /tmp/ccTOfVXV.s 			page 55


 3059 01ef 00       		.byte	0
 3060 01f0 00       		.byte	0
 3061 01f1 26       		.uleb128 0x26
 3062 01f2 2E       		.uleb128 0x2e
 3063 01f3 00       		.byte	0
 3064 01f4 3F       		.uleb128 0x3f
 3065 01f5 19       		.uleb128 0x19
 3066 01f6 03       		.uleb128 0x3
 3067 01f7 0E       		.uleb128 0xe
 3068 01f8 3A       		.uleb128 0x3a
 3069 01f9 0B       		.uleb128 0xb
 3070 01fa 3B       		.uleb128 0x3b
 3071 01fb 05       		.uleb128 0x5
 3072 01fc 27       		.uleb128 0x27
 3073 01fd 19       		.uleb128 0x19
 3074 01fe 3C       		.uleb128 0x3c
 3075 01ff 19       		.uleb128 0x19
 3076 0200 00       		.byte	0
 3077 0201 00       		.byte	0
 3078 0202 27       		.uleb128 0x27
 3079 0203 2E       		.uleb128 0x2e
 3080 0204 01       		.byte	0x1
 3081 0205 3F       		.uleb128 0x3f
 3082 0206 19       		.uleb128 0x19
 3083 0207 03       		.uleb128 0x3
 3084 0208 0E       		.uleb128 0xe
 3085 0209 3A       		.uleb128 0x3a
 3086 020a 0B       		.uleb128 0xb
 3087 020b 3B       		.uleb128 0x3b
 3088 020c 0B       		.uleb128 0xb
 3089 020d 27       		.uleb128 0x27
 3090 020e 19       		.uleb128 0x19
 3091 020f 3C       		.uleb128 0x3c
 3092 0210 19       		.uleb128 0x19
 3093 0211 01       		.uleb128 0x1
 3094 0212 13       		.uleb128 0x13
 3095 0213 00       		.byte	0
 3096 0214 00       		.byte	0
 3097 0215 28       		.uleb128 0x28
 3098 0216 2E       		.uleb128 0x2e
 3099 0217 01       		.byte	0x1
 3100 0218 3F       		.uleb128 0x3f
 3101 0219 19       		.uleb128 0x19
 3102 021a 03       		.uleb128 0x3
 3103 021b 0E       		.uleb128 0xe
 3104 021c 3A       		.uleb128 0x3a
 3105 021d 0B       		.uleb128 0xb
 3106 021e 3B       		.uleb128 0x3b
 3107 021f 05       		.uleb128 0x5
 3108 0220 27       		.uleb128 0x27
 3109 0221 19       		.uleb128 0x19
 3110 0222 3C       		.uleb128 0x3c
 3111 0223 19       		.uleb128 0x19
 3112 0224 01       		.uleb128 0x1
 3113 0225 13       		.uleb128 0x13
 3114 0226 00       		.byte	0
 3115 0227 00       		.byte	0
ARM GAS  /tmp/ccTOfVXV.s 			page 56


 3116 0228 29       		.uleb128 0x29
 3117 0229 2E       		.uleb128 0x2e
 3118 022a 01       		.byte	0x1
 3119 022b 3F       		.uleb128 0x3f
 3120 022c 19       		.uleb128 0x19
 3121 022d 03       		.uleb128 0x3
 3122 022e 0E       		.uleb128 0xe
 3123 022f 3A       		.uleb128 0x3a
 3124 0230 0B       		.uleb128 0xb
 3125 0231 3B       		.uleb128 0x3b
 3126 0232 05       		.uleb128 0x5
 3127 0233 27       		.uleb128 0x27
 3128 0234 19       		.uleb128 0x19
 3129 0235 3C       		.uleb128 0x3c
 3130 0236 19       		.uleb128 0x19
 3131 0237 00       		.byte	0
 3132 0238 00       		.byte	0
 3133 0239 00       		.byte	0
 3134              		.section	.debug_loc,"",%progbits
 3135              	.Ldebug_loc0:
 3136              	.LLST0:
 3137 0000 00000000 		.4byte	.LVL0
 3138 0004 16000000 		.4byte	.LVL3
 3139 0008 0100     		.2byte	0x1
 3140 000a 50       		.byte	0x50
 3141 000b 16000000 		.4byte	.LVL3
 3142 000f 32000000 		.4byte	.LVL5
 3143 0013 0100     		.2byte	0x1
 3144 0015 55       		.byte	0x55
 3145 0016 32000000 		.4byte	.LVL5
 3146 001a 33000000 		.4byte	.LVL6-1
 3147 001e 0100     		.2byte	0x1
 3148 0020 50       		.byte	0x50
 3149 0021 33000000 		.4byte	.LVL6-1
 3150 0025 34000000 		.4byte	.LVL6
 3151 0029 0400     		.2byte	0x4
 3152 002b F3       		.byte	0xf3
 3153 002c 01       		.uleb128 0x1
 3154 002d 50       		.byte	0x50
 3155 002e 9F       		.byte	0x9f
 3156 002f 34000000 		.4byte	.LVL6
 3157 0033 52000000 		.4byte	.LVL10
 3158 0037 0100     		.2byte	0x1
 3159 0039 55       		.byte	0x55
 3160 003a 52000000 		.4byte	.LVL10
 3161 003e 57000000 		.4byte	.LVL11-1
 3162 0042 0100     		.2byte	0x1
 3163 0044 50       		.byte	0x50
 3164 0045 57000000 		.4byte	.LVL11-1
 3165 0049 5A000000 		.4byte	.LFE118
 3166 004d 0100     		.2byte	0x1
 3167 004f 55       		.byte	0x55
 3168 0050 00000000 		.4byte	0
 3169 0054 00000000 		.4byte	0
 3170              	.LLST1:
 3171 0058 06000000 		.4byte	.LVL1
 3172 005c 32000000 		.4byte	.LVL5
ARM GAS  /tmp/ccTOfVXV.s 			page 57


 3173 0060 0100     		.2byte	0x1
 3174 0062 54       		.byte	0x54
 3175 0063 34000000 		.4byte	.LVL6
 3176 0067 5A000000 		.4byte	.LFE118
 3177 006b 0100     		.2byte	0x1
 3178 006d 54       		.byte	0x54
 3179 006e 00000000 		.4byte	0
 3180 0072 00000000 		.4byte	0
 3181              	.LLST2:
 3182 0076 0C000000 		.4byte	.LVL14
 3183 007a 2E000000 		.4byte	.LVL16
 3184 007e 0600     		.2byte	0x6
 3185 0080 74       		.byte	0x74
 3186 0081 00       		.sleb128 0
 3187 0082 08       		.byte	0x8
 3188 0083 FF       		.byte	0xff
 3189 0084 1A       		.byte	0x1a
 3190 0085 9F       		.byte	0x9f
 3191 0086 32000000 		.4byte	.LVL17
 3192 008a 58000000 		.4byte	.LFE120
 3193 008e 0600     		.2byte	0x6
 3194 0090 74       		.byte	0x74
 3195 0091 00       		.sleb128 0
 3196 0092 08       		.byte	0x8
 3197 0093 FF       		.byte	0xff
 3198 0094 1A       		.byte	0x1a
 3199 0095 9F       		.byte	0x9f
 3200 0096 00000000 		.4byte	0
 3201 009a 00000000 		.4byte	0
 3202              	.LLST3:
 3203 009e 0C000000 		.4byte	.LVL29
 3204 00a2 2E000000 		.4byte	.LVL31
 3205 00a6 0600     		.2byte	0x6
 3206 00a8 74       		.byte	0x74
 3207 00a9 00       		.sleb128 0
 3208 00aa 08       		.byte	0x8
 3209 00ab FF       		.byte	0xff
 3210 00ac 1A       		.byte	0x1a
 3211 00ad 9F       		.byte	0x9f
 3212 00ae 32000000 		.4byte	.LVL32
 3213 00b2 58000000 		.4byte	.LFE125
 3214 00b6 0600     		.2byte	0x6
 3215 00b8 74       		.byte	0x74
 3216 00b9 00       		.sleb128 0
 3217 00ba 08       		.byte	0x8
 3218 00bb FF       		.byte	0xff
 3219 00bc 1A       		.byte	0x1a
 3220 00bd 9F       		.byte	0x9f
 3221 00be 00000000 		.4byte	0
 3222 00c2 00000000 		.4byte	0
 3223              	.LLST4:
 3224 00c6 00000000 		.4byte	.LVL41
 3225 00ca 1A000000 		.4byte	.LVL42
 3226 00ce 0100     		.2byte	0x1
 3227 00d0 50       		.byte	0x50
 3228 00d1 1A000000 		.4byte	.LVL42
 3229 00d5 2A000000 		.4byte	.LVL44
ARM GAS  /tmp/ccTOfVXV.s 			page 58


 3230 00d9 0100     		.2byte	0x1
 3231 00db 54       		.byte	0x54
 3232 00dc 2A000000 		.4byte	.LVL44
 3233 00e0 B6000000 		.4byte	.LVL59
 3234 00e4 0400     		.2byte	0x4
 3235 00e6 F3       		.byte	0xf3
 3236 00e7 01       		.uleb128 0x1
 3237 00e8 50       		.byte	0x50
 3238 00e9 9F       		.byte	0x9f
 3239 00ea B6000000 		.4byte	.LVL59
 3240 00ee D4000000 		.4byte	.LVL60
 3241 00f2 0100     		.2byte	0x1
 3242 00f4 50       		.byte	0x50
 3243 00f5 D4000000 		.4byte	.LVL60
 3244 00f9 E0000000 		.4byte	.LVL61
 3245 00fd 0100     		.2byte	0x1
 3246 00ff 54       		.byte	0x54
 3247 0100 E0000000 		.4byte	.LVL61
 3248 0104 F6000000 		.4byte	.LVL62
 3249 0108 0100     		.2byte	0x1
 3250 010a 50       		.byte	0x50
 3251 010b F6000000 		.4byte	.LVL62
 3252 010f 0C010000 		.4byte	.LVL65
 3253 0113 0100     		.2byte	0x1
 3254 0115 54       		.byte	0x54
 3255 0116 0C010000 		.4byte	.LVL65
 3256 011a 22010000 		.4byte	.LVL66
 3257 011e 0100     		.2byte	0x1
 3258 0120 50       		.byte	0x50
 3259 0121 22010000 		.4byte	.LVL66
 3260 0125 38010000 		.4byte	.LVL69
 3261 0129 0100     		.2byte	0x1
 3262 012b 54       		.byte	0x54
 3263 012c 38010000 		.4byte	.LVL69
 3264 0130 4E010000 		.4byte	.LVL70
 3265 0134 0100     		.2byte	0x1
 3266 0136 50       		.byte	0x50
 3267 0137 4E010000 		.4byte	.LVL70
 3268 013b 5C010000 		.4byte	.LVL72
 3269 013f 0100     		.2byte	0x1
 3270 0141 54       		.byte	0x54
 3271 0142 5C010000 		.4byte	.LVL72
 3272 0146 72010000 		.4byte	.LVL73
 3273 014a 0100     		.2byte	0x1
 3274 014c 50       		.byte	0x50
 3275 014d 72010000 		.4byte	.LVL73
 3276 0151 74010000 		.4byte	.LVL74
 3277 0155 0100     		.2byte	0x1
 3278 0157 54       		.byte	0x54
 3279 0158 74010000 		.4byte	.LVL74
 3280 015c 8A010000 		.4byte	.LVL75
 3281 0160 0100     		.2byte	0x1
 3282 0162 50       		.byte	0x50
 3283 0163 8A010000 		.4byte	.LVL75
 3284 0167 AC010000 		.4byte	.LFE127
 3285 016b 0100     		.2byte	0x1
 3286 016d 54       		.byte	0x54
ARM GAS  /tmp/ccTOfVXV.s 			page 59


 3287 016e 00000000 		.4byte	0
 3288 0172 00000000 		.4byte	0
 3289              	.LLST5:
 3290 0176 1C000000 		.4byte	.LVL43
 3291 017a 2A000000 		.4byte	.LVL44
 3292 017e 1000     		.2byte	0x10
 3293 0180 74       		.byte	0x74
 3294 0181 0C       		.sleb128 12
 3295 0182 06       		.byte	0x6
 3296 0183 F7       		.byte	0xf7
 3297 0184 25       		.uleb128 0x25
 3298 0185 71       		.byte	0x71
 3299 0186 00       		.sleb128 0
 3300 0187 06       		.byte	0x6
 3301 0188 F7       		.byte	0xf7
 3302 0189 25       		.uleb128 0x25
 3303 018a 1B       		.byte	0x1b
 3304 018b F7       		.byte	0xf7
 3305 018c 00       		.uleb128 0
 3306 018d 31       		.byte	0x31
 3307 018e 1C       		.byte	0x1c
 3308 018f 9F       		.byte	0x9f
 3309 0190 2A000000 		.4byte	.LVL44
 3310 0194 2C000000 		.4byte	.LVL45
 3311 0198 1300     		.2byte	0x13
 3312 019a F3       		.byte	0xf3
 3313 019b 01       		.uleb128 0x1
 3314 019c 50       		.byte	0x50
 3315 019d 23       		.byte	0x23
 3316 019e 0C       		.uleb128 0xc
 3317 019f 06       		.byte	0x6
 3318 01a0 F7       		.byte	0xf7
 3319 01a1 25       		.uleb128 0x25
 3320 01a2 71       		.byte	0x71
 3321 01a3 00       		.sleb128 0
 3322 01a4 06       		.byte	0x6
 3323 01a5 F7       		.byte	0xf7
 3324 01a6 25       		.uleb128 0x25
 3325 01a7 1B       		.byte	0x1b
 3326 01a8 F7       		.byte	0xf7
 3327 01a9 00       		.uleb128 0
 3328 01aa 31       		.byte	0x31
 3329 01ab 1C       		.byte	0x1c
 3330 01ac 9F       		.byte	0x9f
 3331 01ad 2C000000 		.4byte	.LVL45
 3332 01b1 34000000 		.4byte	.LVL46
 3333 01b5 0100     		.2byte	0x1
 3334 01b7 50       		.byte	0x50
 3335 01b8 34000000 		.4byte	.LVL46
 3336 01bc 3A000000 		.4byte	.LVL47
 3337 01c0 1300     		.2byte	0x13
 3338 01c2 F3       		.byte	0xf3
 3339 01c3 01       		.uleb128 0x1
 3340 01c4 50       		.byte	0x50
 3341 01c5 23       		.byte	0x23
 3342 01c6 0C       		.uleb128 0xc
 3343 01c7 06       		.byte	0x6
ARM GAS  /tmp/ccTOfVXV.s 			page 60


 3344 01c8 F7       		.byte	0xf7
 3345 01c9 25       		.uleb128 0x25
 3346 01ca 71       		.byte	0x71
 3347 01cb 00       		.sleb128 0
 3348 01cc 06       		.byte	0x6
 3349 01cd F7       		.byte	0xf7
 3350 01ce 25       		.uleb128 0x25
 3351 01cf 1B       		.byte	0x1b
 3352 01d0 F7       		.byte	0xf7
 3353 01d1 00       		.uleb128 0
 3354 01d2 31       		.byte	0x31
 3355 01d3 1C       		.byte	0x1c
 3356 01d4 9F       		.byte	0x9f
 3357 01d5 00000000 		.4byte	0
 3358 01d9 00000000 		.4byte	0
 3359              	.LLST6:
 3360 01dd 3E000000 		.4byte	.LVL48
 3361 01e1 48000000 		.4byte	.LVL49
 3362 01e5 0200     		.2byte	0x2
 3363 01e7 30       		.byte	0x30
 3364 01e8 9F       		.byte	0x9f
 3365 01e9 48000000 		.4byte	.LVL49
 3366 01ed 84000000 		.4byte	.LVL52
 3367 01f1 0100     		.2byte	0x1
 3368 01f3 52       		.byte	0x52
 3369 01f4 84000000 		.4byte	.LVL52
 3370 01f8 98000000 		.4byte	.LVL53
 3371 01fc 0200     		.2byte	0x2
 3372 01fe 73       		.byte	0x73
 3373 01ff 20       		.sleb128 32
 3374 0200 A2000000 		.4byte	.LVL54
 3375 0204 B6000000 		.4byte	.LVL59
 3376 0208 0100     		.2byte	0x1
 3377 020a 52       		.byte	0x52
 3378 020b 00000000 		.4byte	0
 3379 020f 00000000 		.4byte	0
 3380              	.LLST7:
 3381 0213 00000000 		.4byte	.LVL76
 3382 0217 08000000 		.4byte	.LVL77
 3383 021b 0100     		.2byte	0x1
 3384 021d 50       		.byte	0x50
 3385 021e 08000000 		.4byte	.LVL77
 3386 0222 0A000000 		.4byte	.LVL78
 3387 0226 0400     		.2byte	0x4
 3388 0228 F3       		.byte	0xf3
 3389 0229 01       		.uleb128 0x1
 3390 022a 50       		.byte	0x50
 3391 022b 9F       		.byte	0x9f
 3392 022c 0A000000 		.4byte	.LVL78
 3393 0230 36000000 		.4byte	.LVL79
 3394 0234 0100     		.2byte	0x1
 3395 0236 50       		.byte	0x50
 3396 0237 36000000 		.4byte	.LVL79
 3397 023b 4C000000 		.4byte	.LVL82
 3398 023f 0400     		.2byte	0x4
 3399 0241 F3       		.byte	0xf3
 3400 0242 01       		.uleb128 0x1
ARM GAS  /tmp/ccTOfVXV.s 			page 61


 3401 0243 50       		.byte	0x50
 3402 0244 9F       		.byte	0x9f
 3403 0245 4C000000 		.4byte	.LVL82
 3404 0249 4E000000 		.4byte	.LVL83
 3405 024d 0100     		.2byte	0x1
 3406 024f 50       		.byte	0x50
 3407 0250 4E000000 		.4byte	.LVL83
 3408 0254 64000000 		.4byte	.LVL86
 3409 0258 0400     		.2byte	0x4
 3410 025a F3       		.byte	0xf3
 3411 025b 01       		.uleb128 0x1
 3412 025c 50       		.byte	0x50
 3413 025d 9F       		.byte	0x9f
 3414 025e 64000000 		.4byte	.LVL86
 3415 0262 66000000 		.4byte	.LVL87
 3416 0266 0100     		.2byte	0x1
 3417 0268 50       		.byte	0x50
 3418 0269 66000000 		.4byte	.LVL87
 3419 026d 76000000 		.4byte	.LVL89
 3420 0271 0400     		.2byte	0x4
 3421 0273 F3       		.byte	0xf3
 3422 0274 01       		.uleb128 0x1
 3423 0275 50       		.byte	0x50
 3424 0276 9F       		.byte	0x9f
 3425 0277 76000000 		.4byte	.LVL89
 3426 027b 78000000 		.4byte	.LVL90
 3427 027f 0100     		.2byte	0x1
 3428 0281 50       		.byte	0x50
 3429 0282 78000000 		.4byte	.LVL90
 3430 0286 88000000 		.4byte	.LVL92
 3431 028a 0400     		.2byte	0x4
 3432 028c F3       		.byte	0xf3
 3433 028d 01       		.uleb128 0x1
 3434 028e 50       		.byte	0x50
 3435 028f 9F       		.byte	0x9f
 3436 0290 88000000 		.4byte	.LVL92
 3437 0294 8A000000 		.4byte	.LVL93
 3438 0298 0100     		.2byte	0x1
 3439 029a 50       		.byte	0x50
 3440 029b 8A000000 		.4byte	.LVL93
 3441 029f B4000000 		.4byte	.LFE128
 3442 02a3 0400     		.2byte	0x4
 3443 02a5 F3       		.byte	0xf3
 3444 02a6 01       		.uleb128 0x1
 3445 02a7 50       		.byte	0x50
 3446 02a8 9F       		.byte	0x9f
 3447 02a9 00000000 		.4byte	0
 3448 02ad 00000000 		.4byte	0
 3449              	.LLST8:
 3450 02b1 00000000 		.4byte	.LVL95
 3451 02b5 0A000000 		.4byte	.LVL96
 3452 02b9 0100     		.2byte	0x1
 3453 02bb 50       		.byte	0x50
 3454 02bc 0A000000 		.4byte	.LVL96
 3455 02c0 30000000 		.4byte	.LFE129
 3456 02c4 0400     		.2byte	0x4
 3457 02c6 F3       		.byte	0xf3
ARM GAS  /tmp/ccTOfVXV.s 			page 62


 3458 02c7 01       		.uleb128 0x1
 3459 02c8 50       		.byte	0x50
 3460 02c9 9F       		.byte	0x9f
 3461 02ca 00000000 		.4byte	0
 3462 02ce 00000000 		.4byte	0
 3463              	.LLST9:
 3464 02d2 00000000 		.4byte	.LVL95
 3465 02d6 1C000000 		.4byte	.LVL97
 3466 02da 0100     		.2byte	0x1
 3467 02dc 52       		.byte	0x52
 3468 02dd 1C000000 		.4byte	.LVL97
 3469 02e1 30000000 		.4byte	.LFE129
 3470 02e5 0400     		.2byte	0x4
 3471 02e7 F3       		.byte	0xf3
 3472 02e8 01       		.uleb128 0x1
 3473 02e9 52       		.byte	0x52
 3474 02ea 9F       		.byte	0x9f
 3475 02eb 00000000 		.4byte	0
 3476 02ef 00000000 		.4byte	0
 3477              	.LLST10:
 3478 02f3 1C000000 		.4byte	.LVL97
 3479 02f7 24000000 		.4byte	.LVL98
 3480 02fb 0100     		.2byte	0x1
 3481 02fd 52       		.byte	0x52
 3482 02fe 00000000 		.4byte	0
 3483 0302 00000000 		.4byte	0
 3484              	.LLST11:
 3485 0306 00000000 		.4byte	.LVL99
 3486 030a 0C000000 		.4byte	.LVL100
 3487 030e 0100     		.2byte	0x1
 3488 0310 50       		.byte	0x50
 3489 0311 0C000000 		.4byte	.LVL100
 3490 0315 1C000000 		.4byte	.LFE130
 3491 0319 0400     		.2byte	0x4
 3492 031b F3       		.byte	0xf3
 3493 031c 01       		.uleb128 0x1
 3494 031d 50       		.byte	0x50
 3495 031e 9F       		.byte	0x9f
 3496 031f 00000000 		.4byte	0
 3497 0323 00000000 		.4byte	0
 3498              		.section	.debug_aranges,"",%progbits
 3499 0000 7C000000 		.4byte	0x7c
 3500 0004 0200     		.2byte	0x2
 3501 0006 00000000 		.4byte	.Ldebug_info0
 3502 000a 04       		.byte	0x4
 3503 000b 00       		.byte	0
 3504 000c 0000     		.2byte	0
 3505 000e 0000     		.2byte	0
 3506 0010 00000000 		.4byte	.LFB118
 3507 0014 5A000000 		.4byte	.LFE118-.LFB118
 3508 0018 00000000 		.4byte	.LFB119
 3509 001c 24000000 		.4byte	.LFE119-.LFB119
 3510 0020 00000000 		.4byte	.LFB120
 3511 0024 58000000 		.4byte	.LFE120-.LFB120
 3512 0028 00000000 		.4byte	.LFB121
 3513 002c 14000000 		.4byte	.LFE121-.LFB121
 3514 0030 00000000 		.4byte	.LFB122
ARM GAS  /tmp/ccTOfVXV.s 			page 63


 3515 0034 14000000 		.4byte	.LFE122-.LFB122
 3516 0038 00000000 		.4byte	.LFB123
 3517 003c 14000000 		.4byte	.LFE123-.LFB123
 3518 0040 00000000 		.4byte	.LFB124
 3519 0044 24000000 		.4byte	.LFE124-.LFB124
 3520 0048 00000000 		.4byte	.LFB125
 3521 004c 58000000 		.4byte	.LFE125-.LFB125
 3522 0050 00000000 		.4byte	.LFB126
 3523 0054 70000000 		.4byte	.LFE126-.LFB126
 3524 0058 00000000 		.4byte	.LFB127
 3525 005c AC010000 		.4byte	.LFE127-.LFB127
 3526 0060 00000000 		.4byte	.LFB128
 3527 0064 B4000000 		.4byte	.LFE128-.LFB128
 3528 0068 00000000 		.4byte	.LFB129
 3529 006c 30000000 		.4byte	.LFE129-.LFB129
 3530 0070 00000000 		.4byte	.LFB130
 3531 0074 1C000000 		.4byte	.LFE130-.LFB130
 3532 0078 00000000 		.4byte	0
 3533 007c 00000000 		.4byte	0
 3534              		.section	.debug_ranges,"",%progbits
 3535              	.Ldebug_ranges0:
 3536 0000 00000000 		.4byte	.LFB118
 3537 0004 5A000000 		.4byte	.LFE118
 3538 0008 00000000 		.4byte	.LFB119
 3539 000c 24000000 		.4byte	.LFE119
 3540 0010 00000000 		.4byte	.LFB120
 3541 0014 58000000 		.4byte	.LFE120
 3542 0018 00000000 		.4byte	.LFB121
 3543 001c 14000000 		.4byte	.LFE121
 3544 0020 00000000 		.4byte	.LFB122
 3545 0024 14000000 		.4byte	.LFE122
 3546 0028 00000000 		.4byte	.LFB123
 3547 002c 14000000 		.4byte	.LFE123
 3548 0030 00000000 		.4byte	.LFB124
 3549 0034 24000000 		.4byte	.LFE124
 3550 0038 00000000 		.4byte	.LFB125
 3551 003c 58000000 		.4byte	.LFE125
 3552 0040 00000000 		.4byte	.LFB126
 3553 0044 70000000 		.4byte	.LFE126
 3554 0048 00000000 		.4byte	.LFB127
 3555 004c AC010000 		.4byte	.LFE127
 3556 0050 00000000 		.4byte	.LFB128
 3557 0054 B4000000 		.4byte	.LFE128
 3558 0058 00000000 		.4byte	.LFB129
 3559 005c 30000000 		.4byte	.LFE129
 3560 0060 00000000 		.4byte	.LFB130
 3561 0064 1C000000 		.4byte	.LFE130
 3562 0068 00000000 		.4byte	0
 3563 006c 00000000 		.4byte	0
 3564              		.section	.debug_line,"",%progbits
 3565              	.Ldebug_line0:
 3566 0000 05060000 		.section	.debug_str,"MS",%progbits,1
 3566      02001604 
 3566      00000201 
 3566      FB0E0D00 
 3566      01010101 
 3567              	.LASF72:
ARM GAS  /tmp/ccTOfVXV.s 			page 64


 3568 0000 70776D63 		.ascii	"pwmchannel_t\000"
 3568      68616E6E 
 3568      656C5F74 
 3568      00
 3569              	.LASF40:
 3570 000d 41504231 		.ascii	"APB1LPENR\000"
 3570      4C50454E 
 3570      5200
 3571              	.LASF61:
 3572 0017 44494552 		.ascii	"DIER\000"
 3572      00
 3573              	.LASF108:
 3574 001c 70776D5F 		.ascii	"pwm_lld_serve_interrupt\000"
 3574      6C6C645F 
 3574      73657276 
 3574      655F696E 
 3574      74657272 
 3575              	.LASF81:
 3576 0034 56656374 		.ascii	"VectorA4\000"
 3576      6F724134 
 3576      00
 3577              	.LASF4:
 3578 003d 5F5F7569 		.ascii	"__uint8_t\000"
 3578      6E74385F 
 3578      7400
 3579              	.LASF63:
 3580 0047 43434D52 		.ascii	"CCMR2\000"
 3580      3200
 3581              	.LASF57:
 3582 004d 70657269 		.ascii	"period\000"
 3582      6F6400
 3583              	.LASF82:
 3584 0054 56656374 		.ascii	"VectorAC\000"
 3584      6F724143 
 3584      00
 3585              	.LASF12:
 3586 005d 6C6F6E67 		.ascii	"long long unsigned int\000"
 3586      206C6F6E 
 3586      6720756E 
 3586      7369676E 
 3586      65642069 
 3587              	.LASF96:
 3588 0074 70776D5F 		.ascii	"pwm_lld_disable_channel\000"
 3588      6C6C645F 
 3588      64697361 
 3588      626C655F 
 3588      6368616E 
 3589              	.LASF65:
 3590 008c 42445452 		.ascii	"BDTR\000"
 3590      00
 3591              	.LASF77:
 3592 0091 66726571 		.ascii	"frequency\000"
 3592      75656E63 
 3592      7900
 3593              	.LASF36:
 3594 009b 41484231 		.ascii	"AHB1LPENR\000"
 3594      4C50454E 
ARM GAS  /tmp/ccTOfVXV.s 			page 65


 3594      5200
 3595              	.LASF52:
 3596 00a5 50574D5F 		.ascii	"PWM_READY\000"
 3596      52454144 
 3596      5900
 3597              	.LASF104:
 3598 00af 6E766963 		.ascii	"nvicEnableVector\000"
 3598      456E6162 
 3598      6C655665 
 3598      63746F72 
 3598      00
 3599              	.LASF62:
 3600 00c0 43434D52 		.ascii	"CCMR1\000"
 3600      3100
 3601              	.LASF48:
 3602 00c6 44434B43 		.ascii	"DCKCFGR\000"
 3602      46475200 
 3603              	.LASF67:
 3604 00ce 43434D52 		.ascii	"CCMR3\000"
 3604      3300
 3605              	.LASF1:
 3606 00d4 7369676E 		.ascii	"signed char\000"
 3606      65642063 
 3606      68617200 
 3607              	.LASF22:
 3608 00e0 41484231 		.ascii	"AHB1RSTR\000"
 3608      52535452 
 3608      00
 3609              	.LASF71:
 3610 00e9 70776D6D 		.ascii	"pwmmode_t\000"
 3610      6F64655F 
 3610      7400
 3611              	.LASF98:
 3612 00f3 50574D44 		.ascii	"PWMD1\000"
 3612      3100
 3613              	.LASF83:
 3614 00f9 56656374 		.ascii	"VectorB4\000"
 3614      6F724234 
 3614      00
 3615              	.LASF101:
 3616 0102 50574D44 		.ascii	"PWMD5\000"
 3616      3500
 3617              	.LASF55:
 3618 0108 73746174 		.ascii	"state\000"
 3618      6500
 3619              	.LASF78:
 3620 010e 6368616E 		.ascii	"channels\000"
 3620      6E656C73 
 3620      00
 3621              	.LASF8:
 3622 0117 6C6F6E67 		.ascii	"long int\000"
 3622      20696E74 
 3622      00
 3623              	.LASF89:
 3624 0120 70776D5F 		.ascii	"pwm_lld_start\000"
 3624      6C6C645F 
 3624      73746172 
ARM GAS  /tmp/ccTOfVXV.s 			page 66


 3624      7400
 3625              	.LASF27:
 3626 012e 41504232 		.ascii	"APB2RSTR\000"
 3626      52535452 
 3626      00
 3627              	.LASF64:
 3628 0137 43434552 		.ascii	"CCER\000"
 3628      00
 3629              	.LASF11:
 3630 013c 6C6F6E67 		.ascii	"long long int\000"
 3630      206C6F6E 
 3630      6720696E 
 3630      7400
 3631              	.LASF14:
 3632 014a 75696E74 		.ascii	"uint16_t\000"
 3632      31365F74 
 3632      00
 3633              	.LASF20:
 3634 0153 504C4C43 		.ascii	"PLLCFGR\000"
 3634      46475200 
 3635              	.LASF5:
 3636 015b 5F5F7569 		.ascii	"__uint16_t\000"
 3636      6E743136 
 3636      5F7400
 3637              	.LASF99:
 3638 0166 50574D44 		.ascii	"PWMD3\000"
 3638      3300
 3639              	.LASF100:
 3640 016c 50574D44 		.ascii	"PWMD4\000"
 3640      3400
 3641              	.LASF84:
 3642 0172 56656374 		.ascii	"VectorB8\000"
 3642      6F724238 
 3642      00
 3643              	.LASF9:
 3644 017b 5F5F7569 		.ascii	"__uint32_t\000"
 3644      6E743332 
 3644      5F7400
 3645              	.LASF102:
 3646 0186 50574D44 		.ascii	"PWMD8\000"
 3646      3800
 3647              	.LASF0:
 3648 018c 756E7369 		.ascii	"unsigned int\000"
 3648      676E6564 
 3648      20696E74 
 3648      00
 3649              	.LASF110:
 3650 0199 6E766963 		.ascii	"nvicDisableVector\000"
 3650      44697361 
 3650      626C6556 
 3650      6563746F 
 3650      7200
 3651              	.LASF107:
 3652 01ab 2F686F6D 		.ascii	"/home/sbcu/Dropbox/pcb-layouts/axo-on-discovery-boa"
 3652      652F7362 
 3652      63752F44 
 3652      726F7062 
ARM GAS  /tmp/ccTOfVXV.s 			page 67


 3652      6F782F70 
 3653 01de 72642F61 		.ascii	"rd/axoloti/firmware/flasher\000"
 3653      786F6C6F 
 3653      74692F66 
 3653      69726D77 
 3653      6172652F 
 3654              	.LASF10:
 3655 01fa 6C6F6E67 		.ascii	"long unsigned int\000"
 3655      20756E73 
 3655      69676E65 
 3655      6420696E 
 3655      7400
 3656              	.LASF49:
 3657 020c 5243435F 		.ascii	"RCC_TypeDef\000"
 3657      54797065 
 3657      44656600 
 3658              	.LASF95:
 3659 0218 77696474 		.ascii	"width\000"
 3659      6800
 3660              	.LASF60:
 3661 021e 534D4352 		.ascii	"SMCR\000"
 3661      00
 3662              	.LASF46:
 3663 0223 504C4C49 		.ascii	"PLLI2SCFGR\000"
 3663      32534346 
 3663      475200
 3664              	.LASF24:
 3665 022e 41484233 		.ascii	"AHB3RSTR\000"
 3665      52535452 
 3665      00
 3666              	.LASF109:
 3667 0237 5F706F72 		.ascii	"_port_irq_epilogue\000"
 3667      745F6972 
 3667      715F6570 
 3667      696C6F67 
 3667      756500
 3668              	.LASF75:
 3669 024a 63616C6C 		.ascii	"callback\000"
 3669      6261636B 
 3669      00
 3670              	.LASF85:
 3671 0253 56656374 		.ascii	"Vector108\000"
 3671      6F723130 
 3671      3800
 3672              	.LASF70:
 3673 025d 73746D33 		.ascii	"stm32_tim_t\000"
 3673      325F7469 
 3673      6D5F7400 
 3674              	.LASF41:
 3675 0269 41504232 		.ascii	"APB2LPENR\000"
 3675      4C50454E 
 3675      5200
 3676              	.LASF91:
 3677 0273 63636572 		.ascii	"ccer\000"
 3677      00
 3678              	.LASF90:
 3679 0278 70776D70 		.ascii	"pwmp\000"
ARM GAS  /tmp/ccTOfVXV.s 			page 68


 3679      00
 3680              	.LASF18:
 3681 027d 73697A65 		.ascii	"sizetype\000"
 3681      74797065 
 3681      00
 3682              	.LASF88:
 3683 0286 70776D5F 		.ascii	"pwm_lld_init\000"
 3683      6C6C645F 
 3683      696E6974 
 3683      00
 3684              	.LASF37:
 3685 0293 41484232 		.ascii	"AHB2LPENR\000"
 3685      4C50454E 
 3685      5200
 3686              	.LASF26:
 3687 029d 41504231 		.ascii	"APB1RSTR\000"
 3687      52535452 
 3687      00
 3688              	.LASF47:
 3689 02a6 504C4C53 		.ascii	"PLLSAICFGR\000"
 3689      41494346 
 3689      475200
 3690              	.LASF59:
 3691 02b1 70776D63 		.ascii	"pwmcallback_t\000"
 3691      616C6C62 
 3691      61636B5F 
 3691      7400
 3692              	.LASF25:
 3693 02bf 52455345 		.ascii	"RESERVED0\000"
 3693      52564544 
 3693      3000
 3694              	.LASF28:
 3695 02c9 52455345 		.ascii	"RESERVED1\000"
 3695      52564544 
 3695      3100
 3696              	.LASF32:
 3697 02d3 52455345 		.ascii	"RESERVED2\000"
 3697      52564544 
 3697      3200
 3698              	.LASF35:
 3699 02dd 52455345 		.ascii	"RESERVED3\000"
 3699      52564544 
 3699      3300
 3700              	.LASF39:
 3701 02e7 52455345 		.ascii	"RESERVED4\000"
 3701      52564544 
 3701      3400
 3702              	.LASF42:
 3703 02f1 52455345 		.ascii	"RESERVED5\000"
 3703      52564544 
 3703      3500
 3704              	.LASF44:
 3705 02fb 52455345 		.ascii	"RESERVED6\000"
 3705      52564544 
 3705      3600
 3706              	.LASF17:
 3707 0305 5F426F6F 		.ascii	"_Bool\000"
ARM GAS  /tmp/ccTOfVXV.s 			page 69


 3707      6C00
 3708              	.LASF15:
 3709 030b 696E7433 		.ascii	"int32_t\000"
 3709      325F7400 
 3710              	.LASF2:
 3711 0313 756E7369 		.ascii	"unsigned char\000"
 3711      676E6564 
 3711      20636861 
 3711      7200
 3712              	.LASF97:
 3713 0321 49544D5F 		.ascii	"ITM_RxBuffer\000"
 3713      52784275 
 3713      66666572 
 3713      00
 3714              	.LASF3:
 3715 032e 73686F72 		.ascii	"short int\000"
 3715      7420696E 
 3715      7400
 3716              	.LASF38:
 3717 0338 41484233 		.ascii	"AHB3LPENR\000"
 3717      4C50454E 
 3717      5200
 3718              	.LASF86:
 3719 0342 56656374 		.ascii	"VectorF0\000"
 3719      6F724630 
 3719      00
 3720              	.LASF34:
 3721 034b 41504232 		.ascii	"APB2ENR\000"
 3721      454E5200 
 3722              	.LASF94:
 3723 0353 6368616E 		.ascii	"channel\000"
 3723      6E656C00 
 3724              	.LASF31:
 3725 035b 41484233 		.ascii	"AHB3ENR\000"
 3725      454E5200 
 3726              	.LASF87:
 3727 0363 56656374 		.ascii	"VectorF8\000"
 3727      6F724638 
 3727      00
 3728              	.LASF92:
 3729 036c 70776D5F 		.ascii	"pwm_lld_stop\000"
 3729      6C6C645F 
 3729      73746F70 
 3729      00
 3730              	.LASF16:
 3731 0379 75696E74 		.ascii	"uint32_t\000"
 3731      33325F74 
 3731      00
 3732              	.LASF80:
 3733 0382 50574D43 		.ascii	"PWMConfig\000"
 3733      6F6E6669 
 3733      6700
 3734              	.LASF93:
 3735 038c 70776D5F 		.ascii	"pwm_lld_enable_channel\000"
 3735      6C6C645F 
 3735      656E6162 
 3735      6C655F63 
ARM GAS  /tmp/ccTOfVXV.s 			page 70


 3735      68616E6E 
 3736              	.LASF51:
 3737 03a3 50574D5F 		.ascii	"PWM_STOP\000"
 3737      53544F50 
 3737      00
 3738              	.LASF19:
 3739 03ac 63686172 		.ascii	"char\000"
 3739      00
 3740              	.LASF74:
 3741 03b1 6D6F6465 		.ascii	"mode\000"
 3741      00
 3742              	.LASF56:
 3743 03b6 636F6E66 		.ascii	"config\000"
 3743      696700
 3744              	.LASF66:
 3745 03bd 444D4152 		.ascii	"DMAR\000"
 3745      00
 3746              	.LASF23:
 3747 03c2 41484232 		.ascii	"AHB2RSTR\000"
 3747      52535452 
 3747      00
 3748              	.LASF106:
 3749 03cb 2F686F6D 		.ascii	"/home/sbcu/Dropbox/pcb-layouts/axo-on-discovery-boa"
 3749      652F7362 
 3749      63752F44 
 3749      726F7062 
 3749      6F782F70 
 3750 03fe 72642F61 		.ascii	"rd/axoloti/platform_linux/../chibios/os/hal/platfor"
 3750      786F6C6F 
 3750      74692F70 
 3750      6C617466 
 3750      6F726D5F 
 3751 0431 6D732F53 		.ascii	"ms/STM32/TIMv1/pwm_lld.c\000"
 3751      544D3332 
 3751      2F54494D 
 3751      76312F70 
 3751      776D5F6C 
 3752              	.LASF7:
 3753 044a 5F5F696E 		.ascii	"__int32_t\000"
 3753      7433325F 
 3753      7400
 3754              	.LASF33:
 3755 0454 41504231 		.ascii	"APB1ENR\000"
 3755      454E5200 
 3756              	.LASF30:
 3757 045c 41484232 		.ascii	"AHB2ENR\000"
 3757      454E5200 
 3758              	.LASF6:
 3759 0464 73686F72 		.ascii	"short unsigned int\000"
 3759      7420756E 
 3759      7369676E 
 3759      65642069 
 3759      6E7400
 3760              	.LASF76:
 3761 0477 50574D43 		.ascii	"PWMChannelConfig\000"
 3761      68616E6E 
 3761      656C436F 
ARM GAS  /tmp/ccTOfVXV.s 			page 71


 3761      6E666967 
 3761      00
 3762              	.LASF105:
 3763 0488 474E5520 		.ascii	"GNU C 4.9.3 20150529 (release) [ARM/embedded-4_9-br"
 3763      4320342E 
 3763      392E3320 
 3763      32303135 
 3763      30353239 
 3764 04bb 616E6368 		.ascii	"anch revision 224288] -mcpu=cortex-m4 -mfloat-abi=h"
 3764      20726576 
 3764      6973696F 
 3764      6E203232 
 3764      34323838 
 3765 04ee 61726420 		.ascii	"ard -mfpu=fpv4-sp-d16 -mno-thumb-interwork -mthumb "
 3765      2D6D6670 
 3765      753D6670 
 3765      76342D73 
 3765      702D6431 
 3766 0521 2D676764 		.ascii	"-ggdb -O2 -fomit-frame-pointer -falign-functions=16"
 3766      62202D4F 
 3766      32202D66 
 3766      6F6D6974 
 3766      2D667261 
 3767 0554 202D6666 		.ascii	" -ffunction-sections -fdata-sections -fno-common -f"
 3767      756E6374 
 3767      696F6E2D 
 3767      73656374 
 3767      696F6E73 
 3768 0587 73696E67 		.ascii	"single-precision-constant\000"
 3768      6C652D70 
 3768      72656369 
 3768      73696F6E 
 3768      2D636F6E 
 3769              	.LASF45:
 3770 05a1 53534347 		.ascii	"SSCGR\000"
 3770      5200
 3771              	.LASF68:
 3772 05a7 43435235 		.ascii	"CCR5\000"
 3772      00
 3773              	.LASF69:
 3774 05ac 43435236 		.ascii	"CCR6\000"
 3774      00
 3775              	.LASF43:
 3776 05b1 42444352 		.ascii	"BDCR\000"
 3776      00
 3777              	.LASF13:
 3778 05b6 75696E74 		.ascii	"uint8_t\000"
 3778      385F7400 
 3779              	.LASF54:
 3780 05be 50574D44 		.ascii	"PWMDriver\000"
 3780      72697665 
 3780      7200
 3781              	.LASF53:
 3782 05c8 70776D73 		.ascii	"pwmstate_t\000"
 3782      74617465 
 3782      5F7400
 3783              	.LASF73:
ARM GAS  /tmp/ccTOfVXV.s 			page 72


 3784 05d3 70776D63 		.ascii	"pwmcnt_t\000"
 3784      6E745F74 
 3784      00
 3785              	.LASF29:
 3786 05dc 41484231 		.ascii	"AHB1ENR\000"
 3786      454E5200 
 3787              	.LASF21:
 3788 05e4 43464752 		.ascii	"CFGR\000"
 3788      00
 3789              	.LASF58:
 3790 05e9 636C6F63 		.ascii	"clock\000"
 3790      6B00
 3791              	.LASF50:
 3792 05ef 50574D5F 		.ascii	"PWM_UNINIT\000"
 3792      554E494E 
 3792      495400
 3793              	.LASF103:
 3794 05fa 70776D4F 		.ascii	"pwmObjectInit\000"
 3794      626A6563 
 3794      74496E69 
 3794      7400
 3795              	.LASF79:
 3796 0608 64696572 		.ascii	"dier\000"
 3796      00
 3797              		.ident	"GCC: (GNU Tools for ARM Embedded Processors) 4.9.3 20150529 (release) [ARM/embedded-4_9-br
ARM GAS  /tmp/ccTOfVXV.s 			page 73


DEFINED SYMBOLS
                            *ABS*:00000000 pwm_lld.c
     /tmp/ccTOfVXV.s:21     .text.pwm_lld_serve_interrupt:00000000 $t
     /tmp/ccTOfVXV.s:26     .text.pwm_lld_serve_interrupt:00000000 pwm_lld_serve_interrupt
     /tmp/ccTOfVXV.s:134    .text.VectorA4:00000000 $t
     /tmp/ccTOfVXV.s:140    .text.VectorA4:00000000 VectorA4
     /tmp/ccTOfVXV.s:176    .text.VectorA4:0000001c $d
     /tmp/ccTOfVXV.s:182    .text.VectorAC:00000000 $t
     /tmp/ccTOfVXV.s:188    .text.VectorAC:00000000 VectorAC
     /tmp/ccTOfVXV.s:273    .text.VectorAC:00000050 $d
     /tmp/ccTOfVXV.s:279    .text.VectorB4:00000000 $t
     /tmp/ccTOfVXV.s:285    .text.VectorB4:00000000 VectorB4
     /tmp/ccTOfVXV.s:310    .text.VectorB4:00000010 $d
     /tmp/ccTOfVXV.s:315    .text.VectorB8:00000000 $t
     /tmp/ccTOfVXV.s:321    .text.VectorB8:00000000 VectorB8
     /tmp/ccTOfVXV.s:346    .text.VectorB8:00000010 $d
     /tmp/ccTOfVXV.s:351    .text.Vector108:00000000 $t
     /tmp/ccTOfVXV.s:357    .text.Vector108:00000000 Vector108
     /tmp/ccTOfVXV.s:382    .text.Vector108:00000010 $d
     /tmp/ccTOfVXV.s:387    .text.VectorF0:00000000 $t
     /tmp/ccTOfVXV.s:393    .text.VectorF0:00000000 VectorF0
     /tmp/ccTOfVXV.s:429    .text.VectorF0:0000001c $d
     /tmp/ccTOfVXV.s:435    .text.VectorF8:00000000 $t
     /tmp/ccTOfVXV.s:441    .text.VectorF8:00000000 VectorF8
     /tmp/ccTOfVXV.s:526    .text.VectorF8:00000050 $d
     /tmp/ccTOfVXV.s:532    .text.pwm_lld_init:00000000 $t
     /tmp/ccTOfVXV.s:538    .text.pwm_lld_init:00000000 pwm_lld_init
     /tmp/ccTOfVXV.s:601    .text.pwm_lld_init:00000048 $d
     /tmp/ccTOfVXV.s:615    .text.pwm_lld_start:00000000 $t
     /tmp/ccTOfVXV.s:621    .text.pwm_lld_start:00000000 pwm_lld_start
     /tmp/ccTOfVXV.s:938    .text.pwm_lld_start:0000018c $d
     /tmp/ccTOfVXV.s:950    .text.pwm_lld_stop:00000000 $t
     /tmp/ccTOfVXV.s:956    .text.pwm_lld_stop:00000000 pwm_lld_stop
     /tmp/ccTOfVXV.s:1083   .text.pwm_lld_stop:0000009c $d
     /tmp/ccTOfVXV.s:1093   .text.pwm_lld_enable_channel:00000000 $t
     /tmp/ccTOfVXV.s:1099   .text.pwm_lld_enable_channel:00000000 pwm_lld_enable_channel
     /tmp/ccTOfVXV.s:1157   .text.pwm_lld_disable_channel:00000000 $t
     /tmp/ccTOfVXV.s:1163   .text.pwm_lld_disable_channel:00000000 pwm_lld_disable_channel
     /tmp/ccTOfVXV.s:1226   .bss.PWMD8:00000000 PWMD8
     /tmp/ccTOfVXV.s:1219   .bss.PWMD5:00000000 PWMD5
     /tmp/ccTOfVXV.s:1212   .bss.PWMD4:00000000 PWMD4
     /tmp/ccTOfVXV.s:1205   .bss.PWMD3:00000000 PWMD3
     /tmp/ccTOfVXV.s:1198   .bss.PWMD1:00000000 PWMD1
     /tmp/ccTOfVXV.s:1194   .bss.PWMD1:00000000 $d
     /tmp/ccTOfVXV.s:1201   .bss.PWMD3:00000000 $d
     /tmp/ccTOfVXV.s:1208   .bss.PWMD4:00000000 $d
     /tmp/ccTOfVXV.s:1215   .bss.PWMD5:00000000 $d
     /tmp/ccTOfVXV.s:1222   .bss.PWMD8:00000000 $d
                     .debug_frame:00000010 $d

UNDEFINED SYMBOLS
_port_irq_epilogue
pwmObjectInit
nvicEnableVector
nvicDisableVector
