ARM GAS  /tmp/cc3MmEyx.s 			page 1


   1              		.syntax unified
   2              		.cpu cortex-m4
   3              		.eabi_attribute 27, 1
   4              		.eabi_attribute 28, 1
   5              		.fpu fpv4-sp-d16
   6              		.eabi_attribute 20, 1
   7              		.eabi_attribute 21, 1
   8              		.eabi_attribute 23, 3
   9              		.eabi_attribute 24, 1
  10              		.eabi_attribute 25, 1
  11              		.eabi_attribute 26, 1
  12              		.eabi_attribute 30, 2
  13              		.eabi_attribute 34, 1
  14              		.eabi_attribute 18, 4
  15              		.thumb
  16              		.file	"sdram.c"
  17              		.text
  18              	.Ltext0:
  19              		.cfi_sections	.debug_frame
  20              		.section	.text.memTest,"ax",%progbits
  21              		.align	2
  22              		.p2align 4,,15
  23              		.global	memTest
  24              		.thumb
  25              		.thumb_func
  26              		.type	memTest, %function
  27              	memTest:
  28              	.LFB120:
  29              		.file 1 "../sdram.c"
  30              		.loc 1 129 0
  31              		.cfi_startproc
  32              		@ args = 0, pretend = 0, frame = 16
  33              		@ frame_needed = 0, uses_anonymous_args = 0
  34              	.LVL0:
  35 0000 10B5     		push	{r4, lr}
  36              		.cfi_def_cfa_offset 8
  37              		.cfi_offset 4, -8
  38              		.cfi_offset 14, -4
  39 0002 84B0     		sub	sp, sp, #16
  40              		.cfi_def_cfa_offset 24
  41              		.loc 1 138 0
  42 0004 0023     		movs	r3, #0
  43              		.loc 1 139 0
  44 0006 1022     		movs	r2, #16
  45              		.loc 1 138 0
  46 0008 0193     		str	r3, [sp, #4]
  47              		.loc 1 139 0
  48 000a 0292     		str	r2, [sp, #8]
  49              		.loc 1 140 0
  50 000c 0392     		str	r2, [sp, #12]
  51              		.loc 1 143 0
  52 000e 0193     		str	r3, [sp, #4]
  53 0010 019B     		ldr	r3, [sp, #4]
  54 0012 029A     		ldr	r2, [sp, #8]
  55 0014 9A42     		cmp	r2, r3
  56 0016 28DD     		ble	.L9
  57              	.LBB2:
ARM GAS  /tmp/cc3MmEyx.s 			page 2


  58              		.loc 1 147 0
  59 0018 3049     		ldr	r1, .L26
  60              	.L15:
  61              		.loc 1 144 0
  62 001a 019B     		ldr	r3, [sp, #4]
  63              	.LVL1:
  64 001c 4FF04042 		mov	r2, #-1073741824
  65              	.LVL2:
  66              	.L5:
  67              		.loc 1 147 0 discriminator 3
  68 0020 01FB03F3 		mul	r3, r1, r3
  69              	.LVL3:
  70 0024 0133     		adds	r3, r3, #1
  71              	.LVL4:
  72              		.loc 1 149 0 discriminator 3
  73 0026 42F8043B 		str	r3, [r2], #4
  74              		.loc 1 146 0 discriminator 3
  75 002a 12F17E5F 		cmn	r2, #1065353216
  76 002e F7D1     		bne	.L5
  77              		.loc 1 152 0
  78 0030 0198     		ldr	r0, [sp, #4]
  79              	.LVL5:
  80 0032 4FF04043 		mov	r3, #-1073741824
  81 0036 02E0     		b	.L8
  82              	.LVL6:
  83              	.L6:
  84              		.loc 1 153 0 discriminator 2
  85 0038 13F17E5F 		cmn	r3, #1065353216
  86 003c 0ED0     		beq	.L24
  87              	.L8:
  88              		.loc 1 154 0
  89 003e 01FB00F2 		mul	r2, r1, r0
  90              	.LVL7:
  91              		.loc 1 155 0
  92 0042 1868     		ldr	r0, [r3]
  93              	.LVL8:
  94              		.loc 1 154 0
  95 0044 0132     		adds	r2, r2, #1
  96              		.loc 1 155 0
  97 0046 9042     		cmp	r0, r2
  98 0048 03F10403 		add	r3, r3, #4
  99 004c F4D0     		beq	.L6
 100              		.loc 1 156 0
 101 004e 0520     		movs	r0, #5
 102              	.LVL9:
 103 0050 FFF7FEFF 		bl	setErrorFlag
 104              	.LVL10:
 105              	.L7:
 106              		.loc 1 158 0 discriminator 1
 107 0054 6420     		movs	r0, #100
 108 0056 FFF7FEFF 		bl	chThdSleep
 109              	.LVL11:
 110              		.loc 1 159 0 discriminator 1
 111 005a FBE7     		b	.L7
 112              	.LVL12:
 113              	.L24:
 114              	.LBE2:
ARM GAS  /tmp/cc3MmEyx.s 			page 3


 115              		.loc 1 143 0 discriminator 2
 116 005c 019B     		ldr	r3, [sp, #4]
 117 005e 0133     		adds	r3, r3, #1
 118 0060 0193     		str	r3, [sp, #4]
 119 0062 019A     		ldr	r2, [sp, #4]
 120 0064 029B     		ldr	r3, [sp, #8]
 121 0066 9A42     		cmp	r2, r3
 122 0068 D7DB     		blt	.L15
 123              	.LVL13:
 124              	.L9:
 125              		.loc 1 166 0
 126 006a 0023     		movs	r3, #0
 127 006c 0193     		str	r3, [sp, #4]
 128 006e 019B     		ldr	r3, [sp, #4]
 129 0070 039A     		ldr	r2, [sp, #12]
 130 0072 9A42     		cmp	r2, r3
 131 0074 30DD     		ble	.L1
 132              	.LBB3:
 133              		.loc 1 170 0
 134 0076 194C     		ldr	r4, .L26
 135              	.L14:
 136              		.loc 1 167 0
 137 0078 019B     		ldr	r3, [sp, #4]
 138              	.LVL14:
 139              		.loc 1 169 0
 140 007a 0022     		movs	r2, #0
 141              	.LVL15:
 142              	.L10:
 143              		.loc 1 170 0 discriminator 3
 144 007c 04FB03F3 		mul	r3, r4, r3
 145              	.LVL16:
 146 0080 0133     		adds	r3, r3, #1
 147              	.LVL17:
 148              		.loc 1 171 0 discriminator 3
 149 0082 C3F31601 		ubfx	r1, r3, #0, #23
 150 0086 D0B2     		uxtb	r0, r2
 151 0088 01F14041 		add	r1, r1, #-1073741824
 152              		.loc 1 169 0 discriminator 3
 153 008c 0132     		adds	r2, r2, #1
 154              	.LVL18:
 155 008e B2F5801F 		cmp	r2, #1048576
 156              		.loc 1 171 0 discriminator 3
 157 0092 0870     		strb	r0, [r1]
 158              		.loc 1 169 0 discriminator 3
 159 0094 F2D1     		bne	.L10
 160              		.loc 1 174 0
 161 0096 019B     		ldr	r3, [sp, #4]
 162              	.LVL19:
 163              		.loc 1 175 0
 164 0098 0022     		movs	r2, #0
 165 009a 02E0     		b	.L13
 166              	.LVL20:
 167              	.L11:
 168              		.loc 1 175 0 is_stmt 0 discriminator 2
 169 009c B2F5801F 		cmp	r2, #1048576
 170 00a0 13D0     		beq	.L25
 171              	.LVL21:
ARM GAS  /tmp/cc3MmEyx.s 			page 4


 172              	.L13:
 173              		.loc 1 176 0 is_stmt 1
 174 00a2 04FB03F3 		mul	r3, r4, r3
 175              	.LVL22:
 176 00a6 0133     		adds	r3, r3, #1
 177              	.LVL23:
 178              		.loc 1 177 0
 179 00a8 C3F31600 		ubfx	r0, r3, #0, #23
 180 00ac 00F14040 		add	r0, r0, #-1073741824
 181 00b0 D1B2     		uxtb	r1, r2
 182 00b2 0078     		ldrb	r0, [r0]	@ zero_extendqisi2
 183 00b4 8842     		cmp	r0, r1
 184 00b6 02F10102 		add	r2, r2, #1
 185              	.LVL24:
 186 00ba EFD0     		beq	.L11
 187              		.loc 1 178 0
 188 00bc 0520     		movs	r0, #5
 189 00be FFF7FEFF 		bl	setErrorFlag
 190              	.LVL25:
 191              	.L12:
 192              		.loc 1 180 0 discriminator 1
 193 00c2 6420     		movs	r0, #100
 194 00c4 FFF7FEFF 		bl	chThdSleep
 195              	.LVL26:
 196              		.loc 1 181 0 discriminator 1
 197 00c8 FBE7     		b	.L12
 198              	.LVL27:
 199              	.L25:
 200              	.LBE3:
 201              		.loc 1 166 0 discriminator 2
 202 00ca 019B     		ldr	r3, [sp, #4]
 203              	.LVL28:
 204 00cc 0133     		adds	r3, r3, #1
 205 00ce 0193     		str	r3, [sp, #4]
 206 00d0 019A     		ldr	r2, [sp, #4]
 207              	.LVL29:
 208 00d2 039B     		ldr	r3, [sp, #12]
 209 00d4 9A42     		cmp	r2, r3
 210 00d6 CFDB     		blt	.L14
 211              	.L1:
 212              		.loc 1 185 0
 213 00d8 04B0     		add	sp, sp, #16
 214              		.cfi_def_cfa_offset 8
 215              		@ sp needed
 216 00da 10BD     		pop	{r4, pc}
 217              	.L27:
 218              		.align	2
 219              	.L26:
 220 00dc 354E5A01 		.word	22695477
 221              		.cfi_endproc
 222              	.LFE120:
 223              		.size	memTest, .-memTest
 224              		.section	.text.SDRAM_InitSequence,"ax",%progbits
 225              		.align	2
 226              		.p2align 4,,15
 227              		.global	SDRAM_InitSequence
 228              		.thumb
ARM GAS  /tmp/cc3MmEyx.s 			page 5


 229              		.thumb_func
 230              		.type	SDRAM_InitSequence, %function
 231              	SDRAM_InitSequence:
 232              	.LFB121:
 233              		.loc 1 192 0
 234              		.cfi_startproc
 235              		@ args = 0, pretend = 0, frame = 16
 236              		@ frame_needed = 0, uses_anonymous_args = 0
 237              	.LVL30:
 238 0000 10B5     		push	{r4, lr}
 239              		.cfi_def_cfa_offset 8
 240              		.cfi_offset 4, -8
 241              		.cfi_offset 14, -4
 242 0002 84B0     		sub	sp, sp, #16
 243              		.cfi_def_cfa_offset 24
 244              		.loc 1 198 0
 245 0004 0123     		movs	r3, #1
 246              		.loc 1 199 0
 247 0006 1021     		movs	r1, #16
 248              		.loc 1 201 0
 249 0008 0022     		movs	r2, #0
 250              		.loc 1 198 0
 251 000a 0093     		str	r3, [sp]
 252              		.loc 1 200 0
 253 000c 0293     		str	r3, [sp, #8]
 254              		.loc 1 199 0
 255 000e 0191     		str	r1, [sp, #4]
 256              		.loc 1 201 0
 257 0010 0392     		str	r2, [sp, #12]
 258              	.L29:
 259              		.loc 1 203 0 discriminator 1
 260 0012 0020     		movs	r0, #0
 261 0014 2021     		movs	r1, #32
 262 0016 FFF7FEFF 		bl	FMC_GetFlagStatus
 263              	.LVL31:
 264 001a 0446     		mov	r4, r0
 265 001c 0028     		cmp	r0, #0
 266 001e F8D1     		bne	.L29
 267              		.loc 1 206 0
 268 0020 6846     		mov	r0, sp
 269 0022 FFF7FEFF 		bl	FMC_SDRAMCmdConfig
 270              	.LVL32:
 271              		.loc 1 214 0
 272 0026 0120     		movs	r0, #1
 273 0028 FFF7FEFF 		bl	chThdSleep
 274              	.LVL33:
 275              		.loc 1 218 0
 276 002c 0221     		movs	r1, #2
 277              		.loc 1 219 0
 278 002e 1022     		movs	r2, #16
 279              		.loc 1 220 0
 280 0030 0123     		movs	r3, #1
 281 0032 8DE81E00 		stmia	sp, {r1, r2, r3, r4}
 282              	.L30:
 283              		.loc 1 223 0 discriminator 1
 284 0036 0020     		movs	r0, #0
 285 0038 2021     		movs	r1, #32
ARM GAS  /tmp/cc3MmEyx.s 			page 6


 286 003a FFF7FEFF 		bl	FMC_GetFlagStatus
 287              	.LVL34:
 288 003e 0446     		mov	r4, r0
 289 0040 0028     		cmp	r0, #0
 290 0042 F8D1     		bne	.L30
 291              		.loc 1 226 0
 292 0044 6846     		mov	r0, sp
 293 0046 FFF7FEFF 		bl	FMC_SDRAMCmdConfig
 294              	.LVL35:
 295              		.loc 1 230 0
 296 004a 0321     		movs	r1, #3
 297              		.loc 1 231 0
 298 004c 1022     		movs	r2, #16
 299              		.loc 1 232 0
 300 004e 0423     		movs	r3, #4
 301 0050 8DE81E00 		stmia	sp, {r1, r2, r3, r4}
 302              	.L31:
 303              		.loc 1 235 0 discriminator 1
 304 0054 0020     		movs	r0, #0
 305 0056 2021     		movs	r1, #32
 306 0058 FFF7FEFF 		bl	FMC_GetFlagStatus
 307              	.LVL36:
 308 005c 0028     		cmp	r0, #0
 309 005e F9D1     		bne	.L31
 310              		.loc 1 238 0
 311 0060 6846     		mov	r0, sp
 312 0062 FFF7FEFF 		bl	FMC_SDRAMCmdConfig
 313              	.LVL37:
 314              	.L32:
 315              		.loc 1 241 0 discriminator 1
 316 0066 0020     		movs	r0, #0
 317 0068 2021     		movs	r1, #32
 318 006a FFF7FEFF 		bl	FMC_GetFlagStatus
 319              	.LVL38:
 320 006e 0028     		cmp	r0, #0
 321 0070 F9D1     		bne	.L32
 322              		.loc 1 244 0
 323 0072 6846     		mov	r0, sp
 324 0074 FFF7FEFF 		bl	FMC_SDRAMCmdConfig
 325              	.LVL39:
 326              		.loc 1 258 0
 327 0078 0420     		movs	r0, #4
 328 007a 1021     		movs	r1, #16
 329 007c 0122     		movs	r2, #1
 330 007e 40F22123 		movw	r3, #545
 331 0082 8DE80F00 		stmia	sp, {r0, r1, r2, r3}
 332              	.L33:
 333              		.loc 1 260 0 discriminator 1
 334 0086 0020     		movs	r0, #0
 335 0088 2021     		movs	r1, #32
 336 008a FFF7FEFF 		bl	FMC_GetFlagStatus
 337              	.LVL40:
 338 008e 0028     		cmp	r0, #0
 339 0090 F9D1     		bne	.L33
 340              		.loc 1 263 0
 341 0092 6846     		mov	r0, sp
 342 0094 FFF7FEFF 		bl	FMC_SDRAMCmdConfig
ARM GAS  /tmp/cc3MmEyx.s 			page 7


 343              	.LVL41:
 344              		.loc 1 270 0
 345 0098 40F2AB20 		movw	r0, #683
 346 009c FFF7FEFF 		bl	FMC_SetRefreshCount
 347              	.LVL42:
 348              	.L34:
 349              		.loc 1 272 0 discriminator 1
 350 00a0 2021     		movs	r1, #32
 351 00a2 0020     		movs	r0, #0
 352 00a4 FFF7FEFF 		bl	FMC_GetFlagStatus
 353              	.LVL43:
 354 00a8 0146     		mov	r1, r0
 355 00aa 0028     		cmp	r0, #0
 356 00ac F8D1     		bne	.L34
 357              		.loc 1 275 0
 358 00ae FFF7FEFF 		bl	FMC_SDRAMWriteProtectionConfig
 359              	.LVL44:
 360              		.loc 1 276 0
 361 00b2 04B0     		add	sp, sp, #16
 362              		.cfi_def_cfa_offset 8
 363              		@ sp needed
 364 00b4 10BD     		pop	{r4, pc}
 365              		.cfi_endproc
 366              	.LFE121:
 367              		.size	SDRAM_InitSequence, .-SDRAM_InitSequence
 368 00b6 00BF     		.section	.text.SDRAM_Init,"ax",%progbits
 369              		.align	2
 370              		.p2align 4,,15
 371              		.global	SDRAM_Init
 372              		.thumb
 373              		.thumb_func
 374              		.type	SDRAM_Init, %function
 375              	SDRAM_Init:
 376              	.LFB118:
 377              		.loc 1 61 0
 378              		.cfi_startproc
 379              		@ args = 0, pretend = 0, frame = 72
 380              		@ frame_needed = 0, uses_anonymous_args = 0
 381 0000 2DE9F041 		push	{r4, r5, r6, r7, r8, lr}
 382              		.cfi_def_cfa_offset 24
 383              		.cfi_offset 4, -24
 384              		.cfi_offset 5, -20
 385              		.cfi_offset 6, -16
 386              		.cfi_offset 7, -12
 387              		.cfi_offset 8, -8
 388              		.cfi_offset 14, -4
 389              		.loc 1 66 0
 390 0004 194A     		ldr	r2, .L44
 391 0006 936B     		ldr	r3, [r2, #56]
 392              		.loc 1 61 0
 393 0008 92B0     		sub	sp, sp, #72
 394              		.cfi_def_cfa_offset 96
 395              		.loc 1 66 0
 396 000a 43F00103 		orr	r3, r3, #1
 397 000e 9363     		str	r3, [r2, #56]
 398              		.loc 1 76 0
 399 0010 0421     		movs	r1, #4
ARM GAS  /tmp/cc3MmEyx.s 			page 8


 400              		.loc 1 72 0
 401 0012 0223     		movs	r3, #2
 402              		.loc 1 87 0
 403 0014 0022     		movs	r2, #0
 404              		.loc 1 93 0
 405 0016 4FF0400C 		mov	ip, #64
 406              		.loc 1 94 0
 407 001a 4FF4807E 		mov	lr, #256
 408              		.loc 1 74 0
 409 001e 0724     		movs	r4, #7
 410              		.loc 1 102 0
 411 0020 07A8     		add	r0, sp, #28
 412              		.loc 1 92 0
 413 0022 4FF01008 		mov	r8, #16
 414              		.loc 1 96 0
 415 0026 4FF40067 		mov	r7, #2048
 416              		.loc 1 97 0
 417 002a 4FF48056 		mov	r6, #4096
 418              		.loc 1 98 0
 419 002e 4FF40055 		mov	r5, #8192
 420              		.loc 1 72 0
 421 0032 0093     		str	r3, [sp]
 422              		.loc 1 80 0
 423 0034 0493     		str	r3, [sp, #16]
 424              		.loc 1 82 0
 425 0036 0593     		str	r3, [sp, #20]
 426              		.loc 1 84 0
 427 0038 0693     		str	r3, [sp, #24]
 428              		.loc 1 76 0
 429 003a 0291     		str	r1, [sp, #8]
 430              		.loc 1 91 0
 431 003c 0991     		str	r1, [sp, #36]
 432              		.loc 1 87 0
 433 003e 0792     		str	r2, [sp, #28]
 434              		.loc 1 89 0
 435 0040 0892     		str	r2, [sp, #32]
 436              		.loc 1 95 0
 437 0042 0D92     		str	r2, [sp, #52]
 438              		.loc 1 93 0
 439 0044 CDF82CC0 		str	ip, [sp, #44]
 440              		.loc 1 94 0
 441 0048 CDF830E0 		str	lr, [sp, #48]
 442              		.loc 1 74 0
 443 004c 0194     		str	r4, [sp, #4]
 444              		.loc 1 78 0
 445 004e 0394     		str	r4, [sp, #12]
 446              		.loc 1 92 0
 447 0050 CDF82880 		str	r8, [sp, #40]
 448              		.loc 1 96 0
 449 0054 0E97     		str	r7, [sp, #56]
 450              		.loc 1 97 0
 451 0056 0F96     		str	r6, [sp, #60]
 452              		.loc 1 98 0
 453 0058 1095     		str	r5, [sp, #64]
 454              		.loc 1 99 0
 455 005a CDF844D0 		str	sp, [sp, #68]
 456              		.loc 1 102 0
ARM GAS  /tmp/cc3MmEyx.s 			page 9


 457 005e FFF7FEFF 		bl	FMC_SDRAMInit
 458              	.LVL45:
 459              		.loc 1 105 0
 460 0062 FFF7FEFF 		bl	SDRAM_InitSequence
 461              	.LVL46:
 462              		.loc 1 107 0
 463 0066 12B0     		add	sp, sp, #72
 464              		.cfi_def_cfa_offset 24
 465              		@ sp needed
 466 0068 BDE8F081 		pop	{r4, r5, r6, r7, r8, pc}
 467              	.L45:
 468              		.align	2
 469              	.L44:
 470 006c 00380240 		.word	1073887232
 471              		.cfi_endproc
 472              	.LFE118:
 473              		.size	SDRAM_Init, .-SDRAM_Init
 474              		.section	.text.configSDRAM,"ax",%progbits
 475              		.align	2
 476              		.p2align 4,,15
 477              		.global	configSDRAM
 478              		.thumb
 479              		.thumb_func
 480              		.type	configSDRAM, %function
 481              	configSDRAM:
 482              	.LFB119:
 483              		.loc 1 109 0
 484              		.cfi_startproc
 485              		@ args = 0, pretend = 0, frame = 0
 486              		@ frame_needed = 0, uses_anonymous_args = 0
 487              		@ link register save eliminated.
 488              		.loc 1 110 0
 489 0000 FFF7FEBF 		b	SDRAM_Init
 490              	.LVL47:
 491              		.cfi_endproc
 492              	.LFE119:
 493              		.size	configSDRAM, .-configSDRAM
 494              		.section	.text.SDRAM_WriteBuffer,"ax",%progbits
 495              		.align	2
 496              		.p2align 4,,15
 497              		.global	SDRAM_WriteBuffer
 498              		.thumb
 499              		.thumb_func
 500              		.type	SDRAM_WriteBuffer, %function
 501              	SDRAM_WriteBuffer:
 502              	.LFB122:
 503              		.loc 1 287 0
 504              		.cfi_startproc
 505              		@ args = 0, pretend = 0, frame = 8
 506              		@ frame_needed = 0, uses_anonymous_args = 0
 507              	.LVL48:
 508 0000 30B5     		push	{r4, r5, lr}
 509              		.cfi_def_cfa_offset 12
 510              		.cfi_offset 4, -12
 511              		.cfi_offset 5, -8
 512              		.cfi_offset 14, -4
 513 0002 0546     		mov	r5, r0
ARM GAS  /tmp/cc3MmEyx.s 			page 10


 514 0004 83B0     		sub	sp, sp, #12
 515              		.cfi_def_cfa_offset 24
 516              		.loc 1 292 0
 517 0006 0020     		movs	r0, #0
 518              	.LVL49:
 519              		.loc 1 287 0
 520 0008 0B46     		mov	r3, r1
 521              		.loc 1 292 0
 522 000a 0146     		mov	r1, r0
 523              	.LVL50:
 524              		.loc 1 289 0
 525 000c 0193     		str	r3, [sp, #4]
 526              		.loc 1 287 0
 527 000e 1446     		mov	r4, r2
 528              		.loc 1 292 0
 529 0010 FFF7FEFF 		bl	FMC_SDRAMWriteProtectionConfig
 530              	.LVL51:
 531              	.L48:
 532              		.loc 1 295 0 discriminator 1
 533 0014 0020     		movs	r0, #0
 534 0016 2021     		movs	r1, #32
 535 0018 FFF7FEFF 		bl	FMC_GetFlagStatus
 536              	.LVL52:
 537 001c 0028     		cmp	r0, #0
 538 001e F9D1     		bne	.L48
 539              		.loc 1 299 0 discriminator 1
 540 0020 54B1     		cbz	r4, .L47
 541              	.LVL53:
 542              	.L50:
 543              		.loc 1 301 0 discriminator 2
 544 0022 019A     		ldr	r2, [sp, #4]
 545              	.LVL54:
 546              		.loc 1 304 0 discriminator 2
 547 0024 019B     		ldr	r3, [sp, #4]
 548              		.loc 1 301 0 discriminator 2
 549 0026 55F8041B 		ldr	r1, [r5], #4
 550              	.LVL55:
 551 002a 02F14042 		add	r2, r2, #-1073741824
 552              		.loc 1 304 0 discriminator 2
 553 002e 0433     		adds	r3, r3, #4
 554              		.loc 1 299 0 discriminator 2
 555 0030 013C     		subs	r4, r4, #1
 556              	.LVL56:
 557              		.loc 1 301 0 discriminator 2
 558 0032 1160     		str	r1, [r2]
 559              		.loc 1 304 0 discriminator 2
 560 0034 0193     		str	r3, [sp, #4]
 561              		.loc 1 299 0 discriminator 2
 562 0036 F4D1     		bne	.L50
 563              	.L47:
 564              		.loc 1 307 0
 565 0038 03B0     		add	sp, sp, #12
 566              		.cfi_def_cfa_offset 12
 567              		@ sp needed
 568 003a 30BD     		pop	{r4, r5, pc}
 569              		.cfi_endproc
 570              	.LFE122:
ARM GAS  /tmp/cc3MmEyx.s 			page 11


 571              		.size	SDRAM_WriteBuffer, .-SDRAM_WriteBuffer
 572              		.section	.text.SDRAM_ReadBuffer,"ax",%progbits
 573              		.align	2
 574              		.p2align 4,,15
 575              		.global	SDRAM_ReadBuffer
 576              		.thumb
 577              		.thumb_func
 578              		.type	SDRAM_ReadBuffer, %function
 579              	SDRAM_ReadBuffer:
 580              	.LFB123:
 581              		.loc 1 318 0
 582              		.cfi_startproc
 583              		@ args = 0, pretend = 0, frame = 8
 584              		@ frame_needed = 0, uses_anonymous_args = 0
 585              	.LVL57:
 586 0000 30B5     		push	{r4, r5, lr}
 587              		.cfi_def_cfa_offset 12
 588              		.cfi_offset 4, -12
 589              		.cfi_offset 5, -8
 590              		.cfi_offset 14, -4
 591 0002 83B0     		sub	sp, sp, #12
 592              		.cfi_def_cfa_offset 24
 593              		.loc 1 318 0
 594 0004 0546     		mov	r5, r0
 595              		.loc 1 320 0
 596 0006 0191     		str	r1, [sp, #4]
 597              		.loc 1 318 0
 598 0008 1446     		mov	r4, r2
 599              	.LVL58:
 600              	.L56:
 601              		.loc 1 323 0 discriminator 1
 602 000a 0020     		movs	r0, #0
 603 000c 2021     		movs	r1, #32
 604 000e FFF7FEFF 		bl	FMC_GetFlagStatus
 605              	.LVL59:
 606 0012 0028     		cmp	r0, #0
 607 0014 F9D1     		bne	.L56
 608              		.loc 1 327 0 discriminator 1
 609 0016 5CB1     		cbz	r4, .L55
 610              	.LVL60:
 611              	.L58:
 612              		.loc 1 328 0 discriminator 2
 613 0018 019B     		ldr	r3, [sp, #4]
 614 001a 03F14043 		add	r3, r3, #-1073741824
 615              		.loc 1 327 0 discriminator 2
 616 001e 013C     		subs	r4, r4, #1
 617              	.LVL61:
 618              		.loc 1 328 0 discriminator 2
 619 0020 1A68     		ldr	r2, [r3]
 620              		.loc 1 331 0 discriminator 2
 621 0022 019B     		ldr	r3, [sp, #4]
 622              		.loc 1 328 0 discriminator 2
 623 0024 45F8042B 		str	r2, [r5], #4
 624              	.LVL62:
 625              		.loc 1 331 0 discriminator 2
 626 0028 03F10403 		add	r3, r3, #4
 627 002c 0193     		str	r3, [sp, #4]
ARM GAS  /tmp/cc3MmEyx.s 			page 12


 628              		.loc 1 327 0 discriminator 2
 629 002e F3D1     		bne	.L58
 630              	.L55:
 631              		.loc 1 333 0
 632 0030 03B0     		add	sp, sp, #12
 633              		.cfi_def_cfa_offset 12
 634              		@ sp needed
 635 0032 30BD     		pop	{r4, r5, pc}
 636              		.cfi_endproc
 637              	.LFE123:
 638              		.size	SDRAM_ReadBuffer, .-SDRAM_ReadBuffer
 639              		.text
 640              	.Letext0:
 641              		.file 2 "/home/sbcu/Dropbox/pcb-layouts/axo-on-discovery-board/axoloti/platform_linux/arm-none-eab
 642              		.file 3 "/home/sbcu/Dropbox/pcb-layouts/axo-on-discovery-board/axoloti/platform_linux/arm-none-eab
 643              		.file 4 "/home/sbcu/Dropbox/pcb-layouts/axo-on-discovery-board/axoloti/platform_linux/../chibios/o
 644              		.file 5 "../stm32f4xx_fmc.h"
 645              		.file 6 "/home/sbcu/Dropbox/pcb-layouts/axo-on-discovery-board/axoloti/platform_linux/../chibios/o
 646              		.file 7 "../sysmon.h"
 647              		.file 8 "/home/sbcu/Dropbox/pcb-layouts/axo-on-discovery-board/axoloti/platform_linux/../chibios/o
 648              		.file 9 "/home/sbcu/Dropbox/pcb-layouts/axo-on-discovery-board/axoloti/platform_linux/../chibios/o
 649              		.section	.debug_info,"",%progbits
 650              	.Ldebug_info0:
 651 0000 06090000 		.4byte	0x906
 652 0004 0400     		.2byte	0x4
 653 0006 00000000 		.4byte	.Ldebug_abbrev0
 654 000a 04       		.byte	0x4
 655 000b 01       		.uleb128 0x1
 656 000c E6050000 		.4byte	.LASF116
 657 0010 01       		.byte	0x1
 658 0011 48020000 		.4byte	.LASF117
 659 0015 AC020000 		.4byte	.LASF118
 660 0019 00000000 		.4byte	.Ldebug_ranges0+0
 661 001d 00000000 		.4byte	0
 662 0021 00000000 		.4byte	.Ldebug_line0
 663 0025 02       		.uleb128 0x2
 664 0026 01       		.byte	0x1
 665 0027 06       		.byte	0x6
 666 0028 26010000 		.4byte	.LASF0
 667 002c 03       		.uleb128 0x3
 668 002d 9A000000 		.4byte	.LASF3
 669 0031 02       		.byte	0x2
 670 0032 1D       		.byte	0x1d
 671 0033 37000000 		.4byte	0x37
 672 0037 02       		.uleb128 0x2
 673 0038 01       		.byte	0x1
 674 0039 08       		.byte	0x8
 675 003a B1040000 		.4byte	.LASF1
 676 003e 02       		.uleb128 0x2
 677 003f 02       		.byte	0x2
 678 0040 05       		.byte	0x5
 679 0041 9E030000 		.4byte	.LASF2
 680 0045 03       		.uleb128 0x3
 681 0046 75050000 		.4byte	.LASF4
 682 004a 02       		.byte	0x2
 683 004b 2B       		.byte	0x2b
 684 004c 50000000 		.4byte	0x50
ARM GAS  /tmp/cc3MmEyx.s 			page 13


 685 0050 02       		.uleb128 0x2
 686 0051 02       		.byte	0x2
 687 0052 07       		.byte	0x7
 688 0053 52030000 		.4byte	.LASF5
 689 0057 03       		.uleb128 0x3
 690 0058 93050000 		.4byte	.LASF6
 691 005c 02       		.byte	0x2
 692 005d 3F       		.byte	0x3f
 693 005e 62000000 		.4byte	0x62
 694 0062 02       		.uleb128 0x2
 695 0063 04       		.byte	0x4
 696 0064 05       		.byte	0x5
 697 0065 64010000 		.4byte	.LASF7
 698 0069 03       		.uleb128 0x3
 699 006a 2B020000 		.4byte	.LASF8
 700 006e 02       		.byte	0x2
 701 006f 41       		.byte	0x41
 702 0070 74000000 		.4byte	0x74
 703 0074 02       		.uleb128 0x2
 704 0075 04       		.byte	0x4
 705 0076 07       		.byte	0x7
 706 0077 FB020000 		.4byte	.LASF9
 707 007b 02       		.uleb128 0x2
 708 007c 08       		.byte	0x8
 709 007d 05       		.byte	0x5
 710 007e 18010000 		.4byte	.LASF10
 711 0082 02       		.uleb128 0x2
 712 0083 08       		.byte	0x8
 713 0084 07       		.byte	0x7
 714 0085 42010000 		.4byte	.LASF11
 715 0089 04       		.uleb128 0x4
 716 008a 04       		.byte	0x4
 717 008b 05       		.byte	0x5
 718 008c 696E7400 		.ascii	"int\000"
 719 0090 02       		.uleb128 0x2
 720 0091 04       		.byte	0x4
 721 0092 07       		.byte	0x7
 722 0093 91020000 		.4byte	.LASF12
 723 0097 03       		.uleb128 0x3
 724 0098 37070000 		.4byte	.LASF13
 725 009c 03       		.byte	0x3
 726 009d 14       		.byte	0x14
 727 009e 2C000000 		.4byte	0x2c
 728 00a2 03       		.uleb128 0x3
 729 00a3 E8010000 		.4byte	.LASF14
 730 00a7 03       		.byte	0x3
 731 00a8 1A       		.byte	0x1a
 732 00a9 45000000 		.4byte	0x45
 733 00ad 03       		.uleb128 0x3
 734 00ae A9040000 		.4byte	.LASF15
 735 00b2 03       		.byte	0x3
 736 00b3 1F       		.byte	0x1f
 737 00b4 57000000 		.4byte	0x57
 738 00b8 03       		.uleb128 0x3
 739 00b9 51050000 		.4byte	.LASF16
 740 00bd 03       		.byte	0x3
 741 00be 20       		.byte	0x20
ARM GAS  /tmp/cc3MmEyx.s 			page 14


 742 00bf 69000000 		.4byte	0x69
 743 00c3 02       		.uleb128 0x2
 744 00c4 04       		.byte	0x4
 745 00c5 07       		.byte	0x7
 746 00c6 BE030000 		.4byte	.LASF17
 747 00ca 05       		.uleb128 0x5
 748 00cb B8000000 		.4byte	0xb8
 749 00cf 06       		.uleb128 0x6
 750 00d0 B8000000 		.4byte	0xb8
 751 00d4 DF000000 		.4byte	0xdf
 752 00d8 07       		.uleb128 0x7
 753 00d9 C3000000 		.4byte	0xc3
 754 00dd 01       		.byte	0x1
 755 00de 00       		.byte	0
 756 00df 05       		.uleb128 0x5
 757 00e0 AD000000 		.4byte	0xad
 758 00e4 08       		.uleb128 0x8
 759 00e5 B8000000 		.4byte	0xb8
 760 00e9 09       		.uleb128 0x9
 761 00ea 01       		.byte	0x1
 762 00eb 04       		.byte	0x4
 763 00ec F701     		.2byte	0x1f7
 764 00ee FF000000 		.4byte	0xff
 765 00f2 0A       		.uleb128 0xa
 766 00f3 9D040000 		.4byte	.LASF18
 767 00f7 00       		.sleb128 0
 768 00f8 0B       		.uleb128 0xb
 769 00f9 53455400 		.ascii	"SET\000"
 770 00fd 01       		.sleb128 1
 771 00fe 00       		.byte	0
 772 00ff 0C       		.uleb128 0xc
 773 0100 5E000000 		.4byte	.LASF19
 774 0104 04       		.byte	0x4
 775 0105 F701     		.2byte	0x1f7
 776 0107 E9000000 		.4byte	0xe9
 777 010b 09       		.uleb128 0x9
 778 010c 01       		.byte	0x1
 779 010d 04       		.byte	0x4
 780 010e F901     		.2byte	0x1f9
 781 0110 21010000 		.4byte	0x121
 782 0114 0A       		.uleb128 0xa
 783 0115 AC000000 		.4byte	.LASF20
 784 0119 00       		.sleb128 0
 785 011a 0A       		.uleb128 0xa
 786 011b B8010000 		.4byte	.LASF21
 787 011f 01       		.sleb128 1
 788 0120 00       		.byte	0
 789 0121 0C       		.uleb128 0xc
 790 0122 05040000 		.4byte	.LASF22
 791 0126 04       		.byte	0x4
 792 0127 F901     		.2byte	0x1f9
 793 0129 0B010000 		.4byte	0x10b
 794 012d 0D       		.uleb128 0xd
 795 012e 90       		.byte	0x90
 796 012f 04       		.byte	0x4
 797 0130 5804     		.2byte	0x458
 798 0132 D6020000 		.4byte	0x2d6
ARM GAS  /tmp/cc3MmEyx.s 			page 15


 799 0136 0E       		.uleb128 0xe
 800 0137 435200   		.ascii	"CR\000"
 801 013a 04       		.byte	0x4
 802 013b 5A04     		.2byte	0x45a
 803 013d CA000000 		.4byte	0xca
 804 0141 00       		.byte	0
 805 0142 0F       		.uleb128 0xf
 806 0143 7D030000 		.4byte	.LASF23
 807 0147 04       		.byte	0x4
 808 0148 5B04     		.2byte	0x45b
 809 014a CA000000 		.4byte	0xca
 810 014e 04       		.byte	0x4
 811 014f 0F       		.uleb128 0xf
 812 0150 6F070000 		.4byte	.LASF24
 813 0154 04       		.byte	0x4
 814 0155 5C04     		.2byte	0x45c
 815 0157 CA000000 		.4byte	0xca
 816 015b 08       		.byte	0x8
 817 015c 0E       		.uleb128 0xe
 818 015d 43495200 		.ascii	"CIR\000"
 819 0161 04       		.byte	0x4
 820 0162 5D04     		.2byte	0x45d
 821 0164 CA000000 		.4byte	0xca
 822 0168 0C       		.byte	0xc
 823 0169 0F       		.uleb128 0xf
 824 016a 39010000 		.4byte	.LASF25
 825 016e 04       		.byte	0x4
 826 016f 5E04     		.2byte	0x45e
 827 0171 CA000000 		.4byte	0xca
 828 0175 10       		.byte	0x10
 829 0176 0F       		.uleb128 0xf
 830 0177 80050000 		.4byte	.LASF26
 831 017b 04       		.byte	0x4
 832 017c 5F04     		.2byte	0x45f
 833 017e CA000000 		.4byte	0xca
 834 0182 14       		.byte	0x14
 835 0183 0F       		.uleb128 0xf
 836 0184 F5040000 		.4byte	.LASF27
 837 0188 04       		.byte	0x4
 838 0189 6004     		.2byte	0x460
 839 018b CA000000 		.4byte	0xca
 840 018f 18       		.byte	0x18
 841 0190 0F       		.uleb128 0xf
 842 0191 4F040000 		.4byte	.LASF28
 843 0195 04       		.byte	0x4
 844 0196 6104     		.2byte	0x461
 845 0198 B8000000 		.4byte	0xb8
 846 019c 1C       		.byte	0x1c
 847 019d 0F       		.uleb128 0xf
 848 019e 05070000 		.4byte	.LASF29
 849 01a2 04       		.byte	0x4
 850 01a3 6204     		.2byte	0x462
 851 01a5 CA000000 		.4byte	0xca
 852 01a9 20       		.byte	0x20
 853 01aa 0F       		.uleb128 0xf
 854 01ab 6D010000 		.4byte	.LASF30
 855 01af 04       		.byte	0x4
ARM GAS  /tmp/cc3MmEyx.s 			page 16


 856 01b0 6304     		.2byte	0x463
 857 01b2 CA000000 		.4byte	0xca
 858 01b6 24       		.byte	0x24
 859 01b7 0F       		.uleb128 0xf
 860 01b8 59040000 		.4byte	.LASF31
 861 01bc 04       		.byte	0x4
 862 01bd 6404     		.2byte	0x464
 863 01bf CF000000 		.4byte	0xcf
 864 01c3 28       		.byte	0x28
 865 01c4 0F       		.uleb128 0xf
 866 01c5 67070000 		.4byte	.LASF32
 867 01c9 04       		.byte	0x4
 868 01ca 6504     		.2byte	0x465
 869 01cc CA000000 		.4byte	0xca
 870 01d0 30       		.byte	0x30
 871 01d1 0F       		.uleb128 0xf
 872 01d2 CD050000 		.4byte	.LASF33
 873 01d6 04       		.byte	0x4
 874 01d7 6604     		.2byte	0x466
 875 01d9 CA000000 		.4byte	0xca
 876 01dd 34       		.byte	0x34
 877 01de 0F       		.uleb128 0xf
 878 01df 10050000 		.4byte	.LASF34
 879 01e3 04       		.byte	0x4
 880 01e4 6704     		.2byte	0x467
 881 01e6 CA000000 		.4byte	0xca
 882 01ea 38       		.byte	0x38
 883 01eb 0F       		.uleb128 0xf
 884 01ec 63040000 		.4byte	.LASF35
 885 01f0 04       		.byte	0x4
 886 01f1 6804     		.2byte	0x468
 887 01f3 B8000000 		.4byte	0xb8
 888 01f7 3C       		.byte	0x3c
 889 01f8 0F       		.uleb128 0xf
 890 01f9 B8050000 		.4byte	.LASF36
 891 01fd 04       		.byte	0x4
 892 01fe 6904     		.2byte	0x469
 893 0200 CA000000 		.4byte	0xca
 894 0204 40       		.byte	0x40
 895 0205 0F       		.uleb128 0xf
 896 0206 ED040000 		.4byte	.LASF37
 897 020a 04       		.byte	0x4
 898 020b 6A04     		.2byte	0x46a
 899 020d CA000000 		.4byte	0xca
 900 0211 44       		.byte	0x44
 901 0212 0F       		.uleb128 0xf
 902 0213 18050000 		.4byte	.LASF38
 903 0217 04       		.byte	0x4
 904 0218 6B04     		.2byte	0x46b
 905 021a CF000000 		.4byte	0xcf
 906 021e 48       		.byte	0x48
 907 021f 0F       		.uleb128 0xf
 908 0220 06010000 		.4byte	.LASF39
 909 0224 04       		.byte	0x4
 910 0225 6C04     		.2byte	0x46c
 911 0227 CA000000 		.4byte	0xca
 912 022b 50       		.byte	0x50
ARM GAS  /tmp/cc3MmEyx.s 			page 17


 913 022c 0F       		.uleb128 0xf
 914 022d FB030000 		.4byte	.LASF40
 915 0231 04       		.byte	0x4
 916 0232 6D04     		.2byte	0x46d
 917 0234 CA000000 		.4byte	0xca
 918 0238 54       		.byte	0x54
 919 0239 0F       		.uleb128 0xf
 920 023a E3040000 		.4byte	.LASF41
 921 023e 04       		.byte	0x4
 922 023f 6E04     		.2byte	0x46e
 923 0241 CA000000 		.4byte	0xca
 924 0245 58       		.byte	0x58
 925 0246 0F       		.uleb128 0xf
 926 0247 7F040000 		.4byte	.LASF42
 927 024b 04       		.byte	0x4
 928 024c 6F04     		.2byte	0x46f
 929 024e B8000000 		.4byte	0xb8
 930 0252 5C       		.byte	0x5c
 931 0253 0F       		.uleb128 0xf
 932 0254 0D000000 		.4byte	.LASF43
 933 0258 04       		.byte	0x4
 934 0259 7004     		.2byte	0x470
 935 025b CA000000 		.4byte	0xca
 936 025f 60       		.byte	0x60
 937 0260 0F       		.uleb128 0xf
 938 0261 94030000 		.4byte	.LASF44
 939 0265 04       		.byte	0x4
 940 0266 7104     		.2byte	0x471
 941 0268 CA000000 		.4byte	0xca
 942 026c 64       		.byte	0x64
 943 026d 0F       		.uleb128 0xf
 944 026e 89040000 		.4byte	.LASF45
 945 0272 04       		.byte	0x4
 946 0273 7204     		.2byte	0x472
 947 0275 CF000000 		.4byte	0xcf
 948 0279 68       		.byte	0x68
 949 027a 0F       		.uleb128 0xf
 950 027b 22070000 		.4byte	.LASF46
 951 027f 04       		.byte	0x4
 952 0280 7304     		.2byte	0x473
 953 0282 CA000000 		.4byte	0xca
 954 0286 70       		.byte	0x70
 955 0287 0E       		.uleb128 0xe
 956 0288 43535200 		.ascii	"CSR\000"
 957 028c 04       		.byte	0x4
 958 028d 7404     		.2byte	0x474
 959 028f CA000000 		.4byte	0xca
 960 0293 74       		.byte	0x74
 961 0294 0F       		.uleb128 0xf
 962 0295 93040000 		.4byte	.LASF47
 963 0299 04       		.byte	0x4
 964 029a 7504     		.2byte	0x475
 965 029c CF000000 		.4byte	0xcf
 966 02a0 78       		.byte	0x78
 967 02a1 0F       		.uleb128 0xf
 968 02a2 FF060000 		.4byte	.LASF48
 969 02a6 04       		.byte	0x4
ARM GAS  /tmp/cc3MmEyx.s 			page 18


 970 02a7 7604     		.2byte	0x476
 971 02a9 CA000000 		.4byte	0xca
 972 02ad 80       		.byte	0x80
 973 02ae 0F       		.uleb128 0xf
 974 02af 72030000 		.4byte	.LASF49
 975 02b3 04       		.byte	0x4
 976 02b4 7704     		.2byte	0x477
 977 02b6 CA000000 		.4byte	0xca
 978 02ba 84       		.byte	0x84
 979 02bb 0F       		.uleb128 0xf
 980 02bc 32040000 		.4byte	.LASF50
 981 02c0 04       		.byte	0x4
 982 02c1 7804     		.2byte	0x478
 983 02c3 CA000000 		.4byte	0xca
 984 02c7 88       		.byte	0x88
 985 02c8 0F       		.uleb128 0xf
 986 02c9 10010000 		.4byte	.LASF51
 987 02cd 04       		.byte	0x4
 988 02ce 7904     		.2byte	0x479
 989 02d0 CA000000 		.4byte	0xca
 990 02d4 8C       		.byte	0x8c
 991 02d5 00       		.byte	0
 992 02d6 0C       		.uleb128 0xc
 993 02d7 1D030000 		.4byte	.LASF52
 994 02db 04       		.byte	0x4
 995 02dc 7B04     		.2byte	0x47b
 996 02de 2D010000 		.4byte	0x12d
 997 02e2 10       		.uleb128 0x10
 998 02e3 1C       		.byte	0x1c
 999 02e4 05       		.byte	0x5
 1000 02e5 F5       		.byte	0xf5
 1001 02e6 43030000 		.4byte	0x343
 1002 02ea 11       		.uleb128 0x11
 1003 02eb 5A050000 		.4byte	.LASF53
 1004 02ef 05       		.byte	0x5
 1005 02f0 F7       		.byte	0xf7
 1006 02f1 B8000000 		.4byte	0xb8
 1007 02f5 00       		.byte	0
 1008 02f6 11       		.uleb128 0x11
 1009 02f7 9F010000 		.4byte	.LASF54
 1010 02fb 05       		.byte	0x5
 1011 02fc FB       		.byte	0xfb
 1012 02fd B8000000 		.4byte	0xb8
 1013 0301 04       		.byte	0x4
 1014 0302 11       		.uleb128 0x11
 1015 0303 86000000 		.4byte	.LASF55
 1016 0307 05       		.byte	0x5
 1017 0308 FF       		.byte	0xff
 1018 0309 B8000000 		.4byte	0xb8
 1019 030d 08       		.byte	0x8
 1020 030e 0F       		.uleb128 0xf
 1021 030f 40030000 		.4byte	.LASF56
 1022 0313 05       		.byte	0x5
 1023 0314 0301     		.2byte	0x103
 1024 0316 B8000000 		.4byte	0xb8
 1025 031a 0C       		.byte	0xc
 1026 031b 0F       		.uleb128 0xf
ARM GAS  /tmp/cc3MmEyx.s 			page 19


 1027 031c E3000000 		.4byte	.LASF57
 1028 0320 05       		.byte	0x5
 1029 0321 0801     		.2byte	0x108
 1030 0323 B8000000 		.4byte	0xb8
 1031 0327 10       		.byte	0x10
 1032 0328 0F       		.uleb128 0xf
 1033 0329 AD030000 		.4byte	.LASF58
 1034 032d 05       		.byte	0x5
 1035 032e 0B01     		.2byte	0x10b
 1036 0330 B8000000 		.4byte	0xb8
 1037 0334 14       		.byte	0x14
 1038 0335 0F       		.uleb128 0xf
 1039 0336 53020000 		.4byte	.LASF59
 1040 033a 05       		.byte	0x5
 1041 033b 0F01     		.2byte	0x10f
 1042 033d B8000000 		.4byte	0xb8
 1043 0341 18       		.byte	0x18
 1044 0342 00       		.byte	0
 1045 0343 0C       		.uleb128 0xc
 1046 0344 9D050000 		.4byte	.LASF60
 1047 0348 05       		.byte	0x5
 1048 0349 1301     		.2byte	0x113
 1049 034b E2020000 		.4byte	0x2e2
 1050 034f 0D       		.uleb128 0xd
 1051 0350 10       		.byte	0x10
 1052 0351 05       		.byte	0x5
 1053 0352 1A01     		.2byte	0x11a
 1054 0354 8D030000 		.4byte	0x38d
 1055 0358 0F       		.uleb128 0xf
 1056 0359 27070000 		.4byte	.LASF61
 1057 035d 05       		.byte	0x5
 1058 035e 1C01     		.2byte	0x11c
 1059 0360 B8000000 		.4byte	0xb8
 1060 0364 00       		.byte	0
 1061 0365 0F       		.uleb128 0xf
 1062 0366 3D040000 		.4byte	.LASF62
 1063 036a 05       		.byte	0x5
 1064 036b 1F01     		.2byte	0x11f
 1065 036d B8000000 		.4byte	0xb8
 1066 0371 04       		.byte	0x4
 1067 0372 0F       		.uleb128 0xf
 1068 0373 15020000 		.4byte	.LASF63
 1069 0377 05       		.byte	0x5
 1070 0378 2201     		.2byte	0x122
 1071 037a B8000000 		.4byte	0xb8
 1072 037e 08       		.byte	0x8
 1073 037f 0F       		.uleb128 0xf
 1074 0380 76010000 		.4byte	.LASF64
 1075 0384 05       		.byte	0x5
 1076 0385 2601     		.2byte	0x126
 1077 0387 B8000000 		.4byte	0xb8
 1078 038b 0C       		.byte	0xc
 1079 038c 00       		.byte	0
 1080 038d 0C       		.uleb128 0xc
 1081 038e 39050000 		.4byte	.LASF65
 1082 0392 05       		.byte	0x5
 1083 0393 2801     		.2byte	0x128
ARM GAS  /tmp/cc3MmEyx.s 			page 20


 1084 0395 4F030000 		.4byte	0x34f
 1085 0399 0D       		.uleb128 0xd
 1086 039a 2C       		.byte	0x2c
 1087 039b 05       		.byte	0x5
 1088 039c 2E01     		.2byte	0x12e
 1089 039e 32040000 		.4byte	0x432
 1090 03a2 0F       		.uleb128 0xf
 1091 03a3 15040000 		.4byte	.LASF66
 1092 03a7 05       		.byte	0x5
 1093 03a8 3001     		.2byte	0x130
 1094 03aa B8000000 		.4byte	0xb8
 1095 03ae 00       		.byte	0
 1096 03af 0F       		.uleb128 0xf
 1097 03b0 DA030000 		.4byte	.LASF67
 1098 03b4 05       		.byte	0x5
 1099 03b5 3301     		.2byte	0x133
 1100 03b7 B8000000 		.4byte	0xb8
 1101 03bb 04       		.byte	0x4
 1102 03bc 0F       		.uleb128 0xf
 1103 03bd BF040000 		.4byte	.LASF68
 1104 03c1 05       		.byte	0x5
 1105 03c2 3601     		.2byte	0x136
 1106 03c4 B8000000 		.4byte	0xb8
 1107 03c8 08       		.byte	0x8
 1108 03c9 0F       		.uleb128 0xf
 1109 03ca D2010000 		.4byte	.LASF69
 1110 03ce 05       		.byte	0x5
 1111 03cf 3901     		.2byte	0x139
 1112 03d1 B8000000 		.4byte	0xb8
 1113 03d5 0C       		.byte	0xc
 1114 03d6 0F       		.uleb128 0xf
 1115 03d7 29030000 		.4byte	.LASF70
 1116 03db 05       		.byte	0x5
 1117 03dc 3C01     		.2byte	0x13c
 1118 03de B8000000 		.4byte	0xb8
 1119 03e2 10       		.byte	0x10
 1120 03e3 0F       		.uleb128 0xf
 1121 03e4 77000000 		.4byte	.LASF71
 1122 03e8 05       		.byte	0x5
 1123 03e9 3F01     		.2byte	0x13f
 1124 03eb B8000000 		.4byte	0xb8
 1125 03ef 14       		.byte	0x14
 1126 03f0 0F       		.uleb128 0xf
 1127 03f1 0E070000 		.4byte	.LASF72
 1128 03f5 05       		.byte	0x5
 1129 03f6 4201     		.2byte	0x142
 1130 03f8 B8000000 		.4byte	0xb8
 1131 03fc 18       		.byte	0x18
 1132 03fd 0F       		.uleb128 0xf
 1133 03fe FE040000 		.4byte	.LASF73
 1134 0402 05       		.byte	0x5
 1135 0403 4501     		.2byte	0x145
 1136 0405 B8000000 		.4byte	0xb8
 1137 0409 1C       		.byte	0x1c
 1138 040a 0F       		.uleb128 0xf
 1139 040b 9E020000 		.4byte	.LASF74
 1140 040f 05       		.byte	0x5
ARM GAS  /tmp/cc3MmEyx.s 			page 21


 1141 0410 4901     		.2byte	0x149
 1142 0412 B8000000 		.4byte	0xb8
 1143 0416 20       		.byte	0x20
 1144 0417 0F       		.uleb128 0xf
 1145 0418 36020000 		.4byte	.LASF75
 1146 041c 05       		.byte	0x5
 1147 041d 4D01     		.2byte	0x14d
 1148 041f B8000000 		.4byte	0xb8
 1149 0423 24       		.byte	0x24
 1150 0424 0F       		.uleb128 0xf
 1151 0425 3F070000 		.4byte	.LASF76
 1152 0429 05       		.byte	0x5
 1153 042a 5001     		.2byte	0x150
 1154 042c 32040000 		.4byte	0x432
 1155 0430 28       		.byte	0x28
 1156 0431 00       		.byte	0
 1157 0432 12       		.uleb128 0x12
 1158 0433 04       		.byte	0x4
 1159 0434 43030000 		.4byte	0x343
 1160 0438 0C       		.uleb128 0xc
 1161 0439 B4000000 		.4byte	.LASF77
 1162 043d 05       		.byte	0x5
 1163 043e 5201     		.2byte	0x152
 1164 0440 99030000 		.4byte	0x399
 1165 0444 02       		.uleb128 0x2
 1166 0445 01       		.byte	0x1
 1167 0446 02       		.byte	0x2
 1168 0447 A3040000 		.4byte	.LASF78
 1169 044b 03       		.uleb128 0x3
 1170 044c 89050000 		.4byte	.LASF79
 1171 0450 06       		.byte	0x6
 1172 0451 35       		.byte	0x35
 1173 0452 B8000000 		.4byte	0xb8
 1174 0456 13       		.uleb128 0x13
 1175 0457 04       		.byte	0x4
 1176 0458 02       		.uleb128 0x2
 1177 0459 01       		.byte	0x1
 1178 045a 08       		.byte	0x8
 1179 045b 70050000 		.4byte	.LASF80
 1180 045f 14       		.uleb128 0x14
 1181 0460 01       		.byte	0x1
 1182 0461 07       		.byte	0x7
 1183 0462 23       		.byte	0x23
 1184 0463 98040000 		.4byte	0x498
 1185 0467 0A       		.uleb128 0xa
 1186 0468 22050000 		.4byte	.LASF81
 1187 046c 00       		.sleb128 0
 1188 046d 0A       		.uleb128 0xa
 1189 046e 55070000 		.4byte	.LASF82
 1190 0472 01       		.sleb128 1
 1191 0473 0A       		.uleb128 0xa
 1192 0474 D1040000 		.4byte	.LASF83
 1193 0478 02       		.sleb128 2
 1194 0479 0A       		.uleb128 0xa
 1195 047a 74070000 		.4byte	.LASF84
 1196 047e 03       		.sleb128 3
 1197 047f 0A       		.uleb128 0xa
ARM GAS  /tmp/cc3MmEyx.s 			page 22


 1198 0480 4B000000 		.4byte	.LASF85
 1199 0484 04       		.sleb128 4
 1200 0485 0A       		.uleb128 0xa
 1201 0486 22000000 		.4byte	.LASF86
 1202 048a 05       		.sleb128 5
 1203 048b 0A       		.uleb128 0xa
 1204 048c C0050000 		.4byte	.LASF87
 1205 0490 06       		.sleb128 6
 1206 0491 0A       		.uleb128 0xa
 1207 0492 81020000 		.4byte	.LASF88
 1208 0496 07       		.sleb128 7
 1209 0497 00       		.byte	0
 1210 0498 03       		.uleb128 0x3
 1211 0499 74020000 		.4byte	.LASF89
 1212 049d 07       		.byte	0x7
 1213 049e 2C       		.byte	0x2c
 1214 049f 5F040000 		.4byte	0x45f
 1215 04a3 15       		.uleb128 0x15
 1216 04a4 A4000000 		.4byte	.LASF95
 1217 04a8 01       		.byte	0x1
 1218 04a9 81       		.byte	0x81
 1219 04aa 00000000 		.4byte	.LFB120
 1220 04ae E0000000 		.4byte	.LFE120-.LFB120
 1221 04b2 01       		.uleb128 0x1
 1222 04b3 9C       		.byte	0x9c
 1223 04b4 9E050000 		.4byte	0x59e
 1224 04b8 16       		.uleb128 0x16
 1225 04b9 15030000 		.4byte	.LASF90
 1226 04bd 01       		.byte	0x1
 1227 04be 82       		.byte	0x82
 1228 04bf 89000000 		.4byte	0x89
 1229 04c3 00008000 		.4byte	0x800000
 1230 04c7 17       		.uleb128 0x17
 1231 04c8 B9030000 		.4byte	.LASF91
 1232 04cc 01       		.byte	0x1
 1233 04cd 83       		.byte	0x83
 1234 04ce 56040000 		.4byte	0x456
 1235 04d2 80808080 		.sleb128 -1073741824
 1235      7C
 1236 04d7 18       		.uleb128 0x18
 1237 04d8 6900     		.ascii	"i\000"
 1238 04da 01       		.byte	0x1
 1239 04db 85       		.byte	0x85
 1240 04dc 89000000 		.4byte	0x89
 1241 04e0 00000000 		.4byte	.LLST0
 1242 04e4 19       		.uleb128 0x19
 1243 04e5 6100     		.ascii	"a\000"
 1244 04e7 01       		.byte	0x1
 1245 04e8 87       		.byte	0x87
 1246 04e9 E4000000 		.4byte	0xe4
 1247 04ed 354E5A01 		.4byte	0x15a4e35
 1248 04f1 1A       		.uleb128 0x1a
 1249 04f2 6300     		.ascii	"c\000"
 1250 04f4 01       		.byte	0x1
 1251 04f5 88       		.byte	0x88
 1252 04f6 E4000000 		.4byte	0xe4
 1253 04fa 01       		.byte	0x1
ARM GAS  /tmp/cc3MmEyx.s 			page 23


 1254 04fb 1B       		.uleb128 0x1b
 1255 04fc A8030000 		.4byte	.LASF92
 1256 0500 01       		.byte	0x1
 1257 0501 8A       		.byte	0x8a
 1258 0502 9E050000 		.4byte	0x59e
 1259 0506 02       		.uleb128 0x2
 1260 0507 91       		.byte	0x91
 1261 0508 6C       		.sleb128 -20
 1262 0509 1B       		.uleb128 0x1b
 1263 050a 1E040000 		.4byte	.LASF93
 1264 050e 01       		.byte	0x1
 1265 050f 8B       		.byte	0x8b
 1266 0510 9E050000 		.4byte	0x59e
 1267 0514 02       		.uleb128 0x2
 1268 0515 91       		.byte	0x91
 1269 0516 70       		.sleb128 -16
 1270 0517 1B       		.uleb128 0x1b
 1271 0518 32010000 		.4byte	.LASF94
 1272 051c 01       		.byte	0x1
 1273 051d 8C       		.byte	0x8c
 1274 051e 9E050000 		.4byte	0x59e
 1275 0522 02       		.uleb128 0x2
 1276 0523 91       		.byte	0x91
 1277 0524 74       		.sleb128 -12
 1278 0525 1C       		.uleb128 0x1c
 1279 0526 18000000 		.4byte	.LBB2
 1280 052a 44000000 		.4byte	.LBE2-.LBB2
 1281 052e 63050000 		.4byte	0x563
 1282 0532 18       		.uleb128 0x18
 1283 0533 7800     		.ascii	"x\000"
 1284 0535 01       		.byte	0x1
 1285 0536 90       		.byte	0x90
 1286 0537 B8000000 		.4byte	0xb8
 1287 053b 75000000 		.4byte	.LLST1
 1288 053f 1D       		.uleb128 0x1d
 1289 0540 54000000 		.4byte	.LVL10
 1290 0544 72080000 		.4byte	0x872
 1291 0548 52050000 		.4byte	0x552
 1292 054c 1E       		.uleb128 0x1e
 1293 054d 01       		.uleb128 0x1
 1294 054e 50       		.byte	0x50
 1295 054f 01       		.uleb128 0x1
 1296 0550 35       		.byte	0x35
 1297 0551 00       		.byte	0
 1298 0552 1F       		.uleb128 0x1f
 1299 0553 5A000000 		.4byte	.LVL11
 1300 0557 83080000 		.4byte	0x883
 1301 055b 1E       		.uleb128 0x1e
 1302 055c 01       		.uleb128 0x1
 1303 055d 50       		.byte	0x50
 1304 055e 02       		.uleb128 0x2
 1305 055f 08       		.byte	0x8
 1306 0560 64       		.byte	0x64
 1307 0561 00       		.byte	0
 1308 0562 00       		.byte	0
 1309 0563 20       		.uleb128 0x20
 1310 0564 76000000 		.4byte	.LBB3
ARM GAS  /tmp/cc3MmEyx.s 			page 24


 1311 0568 54000000 		.4byte	.LBE3-.LBB3
 1312 056c 18       		.uleb128 0x18
 1313 056d 7800     		.ascii	"x\000"
 1314 056f 01       		.byte	0x1
 1315 0570 A7       		.byte	0xa7
 1316 0571 B8000000 		.4byte	0xb8
 1317 0575 C1000000 		.4byte	.LLST2
 1318 0579 1D       		.uleb128 0x1d
 1319 057a C2000000 		.4byte	.LVL25
 1320 057e 72080000 		.4byte	0x872
 1321 0582 8C050000 		.4byte	0x58c
 1322 0586 1E       		.uleb128 0x1e
 1323 0587 01       		.uleb128 0x1
 1324 0588 50       		.byte	0x50
 1325 0589 01       		.uleb128 0x1
 1326 058a 35       		.byte	0x35
 1327 058b 00       		.byte	0
 1328 058c 1F       		.uleb128 0x1f
 1329 058d C8000000 		.4byte	.LVL26
 1330 0591 83080000 		.4byte	0x883
 1331 0595 1E       		.uleb128 0x1e
 1332 0596 01       		.uleb128 0x1
 1333 0597 50       		.byte	0x50
 1334 0598 02       		.uleb128 0x2
 1335 0599 08       		.byte	0x8
 1336 059a 64       		.byte	0x64
 1337 059b 00       		.byte	0
 1338 059c 00       		.byte	0
 1339 059d 00       		.byte	0
 1340 059e 05       		.uleb128 0x5
 1341 059f 89000000 		.4byte	0x89
 1342 05a3 15       		.uleb128 0x15
 1343 05a4 C7030000 		.4byte	.LASF96
 1344 05a8 01       		.byte	0x1
 1345 05a9 C0       		.byte	0xc0
 1346 05aa 00000000 		.4byte	.LFB121
 1347 05ae B6000000 		.4byte	.LFE121-.LFB121
 1348 05b2 01       		.uleb128 0x1
 1349 05b3 9C       		.byte	0x9c
 1350 05b4 01070000 		.4byte	0x701
 1351 05b8 1B       		.uleb128 0x1b
 1352 05b9 C9000000 		.4byte	.LASF97
 1353 05bd 01       		.byte	0x1
 1354 05be C1       		.byte	0xc1
 1355 05bf 8D030000 		.4byte	0x38d
 1356 05c3 02       		.uleb128 0x2
 1357 05c4 91       		.byte	0x91
 1358 05c5 68       		.sleb128 -24
 1359 05c6 21       		.uleb128 0x21
 1360 05c7 10020000 		.4byte	.LASF98
 1361 05cb 01       		.byte	0x1
 1362 05cc C2       		.byte	0xc2
 1363 05cd B8000000 		.4byte	0xb8
 1364 05d1 F5000000 		.4byte	.LLST3
 1365 05d5 1D       		.uleb128 0x1d
 1366 05d6 1A000000 		.4byte	.LVL31
 1367 05da 95080000 		.4byte	0x895
ARM GAS  /tmp/cc3MmEyx.s 			page 25


 1368 05de EE050000 		.4byte	0x5ee
 1369 05e2 1E       		.uleb128 0x1e
 1370 05e3 01       		.uleb128 0x1
 1371 05e4 51       		.byte	0x51
 1372 05e5 02       		.uleb128 0x2
 1373 05e6 08       		.byte	0x8
 1374 05e7 20       		.byte	0x20
 1375 05e8 1E       		.uleb128 0x1e
 1376 05e9 01       		.uleb128 0x1
 1377 05ea 50       		.byte	0x50
 1378 05eb 01       		.uleb128 0x1
 1379 05ec 30       		.byte	0x30
 1380 05ed 00       		.byte	0
 1381 05ee 1D       		.uleb128 0x1d
 1382 05ef 26000000 		.4byte	.LVL32
 1383 05f3 B0080000 		.4byte	0x8b0
 1384 05f7 02060000 		.4byte	0x602
 1385 05fb 1E       		.uleb128 0x1e
 1386 05fc 01       		.uleb128 0x1
 1387 05fd 50       		.byte	0x50
 1388 05fe 02       		.uleb128 0x2
 1389 05ff 7D       		.byte	0x7d
 1390 0600 00       		.sleb128 0
 1391 0601 00       		.byte	0
 1392 0602 1D       		.uleb128 0x1d
 1393 0603 2C000000 		.4byte	.LVL33
 1394 0607 83080000 		.4byte	0x883
 1395 060b 15060000 		.4byte	0x615
 1396 060f 1E       		.uleb128 0x1e
 1397 0610 01       		.uleb128 0x1
 1398 0611 50       		.byte	0x50
 1399 0612 01       		.uleb128 0x1
 1400 0613 31       		.byte	0x31
 1401 0614 00       		.byte	0
 1402 0615 1D       		.uleb128 0x1d
 1403 0616 3E000000 		.4byte	.LVL34
 1404 061a 95080000 		.4byte	0x895
 1405 061e 2E060000 		.4byte	0x62e
 1406 0622 1E       		.uleb128 0x1e
 1407 0623 01       		.uleb128 0x1
 1408 0624 51       		.byte	0x51
 1409 0625 02       		.uleb128 0x2
 1410 0626 08       		.byte	0x8
 1411 0627 20       		.byte	0x20
 1412 0628 1E       		.uleb128 0x1e
 1413 0629 01       		.uleb128 0x1
 1414 062a 50       		.byte	0x50
 1415 062b 01       		.uleb128 0x1
 1416 062c 30       		.byte	0x30
 1417 062d 00       		.byte	0
 1418 062e 1D       		.uleb128 0x1d
 1419 062f 4A000000 		.4byte	.LVL35
 1420 0633 B0080000 		.4byte	0x8b0
 1421 0637 42060000 		.4byte	0x642
 1422 063b 1E       		.uleb128 0x1e
 1423 063c 01       		.uleb128 0x1
 1424 063d 50       		.byte	0x50
ARM GAS  /tmp/cc3MmEyx.s 			page 26


 1425 063e 02       		.uleb128 0x2
 1426 063f 7D       		.byte	0x7d
 1427 0640 00       		.sleb128 0
 1428 0641 00       		.byte	0
 1429 0642 1D       		.uleb128 0x1d
 1430 0643 5C000000 		.4byte	.LVL36
 1431 0647 95080000 		.4byte	0x895
 1432 064b 5B060000 		.4byte	0x65b
 1433 064f 1E       		.uleb128 0x1e
 1434 0650 01       		.uleb128 0x1
 1435 0651 51       		.byte	0x51
 1436 0652 02       		.uleb128 0x2
 1437 0653 08       		.byte	0x8
 1438 0654 20       		.byte	0x20
 1439 0655 1E       		.uleb128 0x1e
 1440 0656 01       		.uleb128 0x1
 1441 0657 50       		.byte	0x50
 1442 0658 01       		.uleb128 0x1
 1443 0659 30       		.byte	0x30
 1444 065a 00       		.byte	0
 1445 065b 1D       		.uleb128 0x1d
 1446 065c 66000000 		.4byte	.LVL37
 1447 0660 B0080000 		.4byte	0x8b0
 1448 0664 6F060000 		.4byte	0x66f
 1449 0668 1E       		.uleb128 0x1e
 1450 0669 01       		.uleb128 0x1
 1451 066a 50       		.byte	0x50
 1452 066b 02       		.uleb128 0x2
 1453 066c 7D       		.byte	0x7d
 1454 066d 00       		.sleb128 0
 1455 066e 00       		.byte	0
 1456 066f 1D       		.uleb128 0x1d
 1457 0670 6E000000 		.4byte	.LVL38
 1458 0674 95080000 		.4byte	0x895
 1459 0678 88060000 		.4byte	0x688
 1460 067c 1E       		.uleb128 0x1e
 1461 067d 01       		.uleb128 0x1
 1462 067e 51       		.byte	0x51
 1463 067f 02       		.uleb128 0x2
 1464 0680 08       		.byte	0x8
 1465 0681 20       		.byte	0x20
 1466 0682 1E       		.uleb128 0x1e
 1467 0683 01       		.uleb128 0x1
 1468 0684 50       		.byte	0x50
 1469 0685 01       		.uleb128 0x1
 1470 0686 30       		.byte	0x30
 1471 0687 00       		.byte	0
 1472 0688 1D       		.uleb128 0x1d
 1473 0689 78000000 		.4byte	.LVL39
 1474 068d B0080000 		.4byte	0x8b0
 1475 0691 9C060000 		.4byte	0x69c
 1476 0695 1E       		.uleb128 0x1e
 1477 0696 01       		.uleb128 0x1
 1478 0697 50       		.byte	0x50
 1479 0698 02       		.uleb128 0x2
 1480 0699 7D       		.byte	0x7d
 1481 069a 00       		.sleb128 0
ARM GAS  /tmp/cc3MmEyx.s 			page 27


 1482 069b 00       		.byte	0
 1483 069c 1D       		.uleb128 0x1d
 1484 069d 8E000000 		.4byte	.LVL40
 1485 06a1 95080000 		.4byte	0x895
 1486 06a5 B5060000 		.4byte	0x6b5
 1487 06a9 1E       		.uleb128 0x1e
 1488 06aa 01       		.uleb128 0x1
 1489 06ab 51       		.byte	0x51
 1490 06ac 02       		.uleb128 0x2
 1491 06ad 08       		.byte	0x8
 1492 06ae 20       		.byte	0x20
 1493 06af 1E       		.uleb128 0x1e
 1494 06b0 01       		.uleb128 0x1
 1495 06b1 50       		.byte	0x50
 1496 06b2 01       		.uleb128 0x1
 1497 06b3 30       		.byte	0x30
 1498 06b4 00       		.byte	0
 1499 06b5 1D       		.uleb128 0x1d
 1500 06b6 98000000 		.4byte	.LVL41
 1501 06ba B0080000 		.4byte	0x8b0
 1502 06be C9060000 		.4byte	0x6c9
 1503 06c2 1E       		.uleb128 0x1e
 1504 06c3 01       		.uleb128 0x1
 1505 06c4 50       		.byte	0x50
 1506 06c5 02       		.uleb128 0x2
 1507 06c6 7D       		.byte	0x7d
 1508 06c7 00       		.sleb128 0
 1509 06c8 00       		.byte	0
 1510 06c9 1D       		.uleb128 0x1d
 1511 06ca A0000000 		.4byte	.LVL42
 1512 06ce C8080000 		.4byte	0x8c8
 1513 06d2 DE060000 		.4byte	0x6de
 1514 06d6 1E       		.uleb128 0x1e
 1515 06d7 01       		.uleb128 0x1
 1516 06d8 50       		.byte	0x50
 1517 06d9 03       		.uleb128 0x3
 1518 06da 0A       		.byte	0xa
 1519 06db AB02     		.2byte	0x2ab
 1520 06dd 00       		.byte	0
 1521 06de 1D       		.uleb128 0x1d
 1522 06df A8000000 		.4byte	.LVL43
 1523 06e3 95080000 		.4byte	0x895
 1524 06e7 F7060000 		.4byte	0x6f7
 1525 06eb 1E       		.uleb128 0x1e
 1526 06ec 01       		.uleb128 0x1
 1527 06ed 51       		.byte	0x51
 1528 06ee 02       		.uleb128 0x2
 1529 06ef 08       		.byte	0x8
 1530 06f0 20       		.byte	0x20
 1531 06f1 1E       		.uleb128 0x1e
 1532 06f2 01       		.uleb128 0x1
 1533 06f3 50       		.byte	0x50
 1534 06f4 01       		.uleb128 0x1
 1535 06f5 30       		.byte	0x30
 1536 06f6 00       		.byte	0
 1537 06f7 22       		.uleb128 0x22
 1538 06f8 B2000000 		.4byte	.LVL44
ARM GAS  /tmp/cc3MmEyx.s 			page 28


 1539 06fc DA080000 		.4byte	0x8da
 1540 0700 00       		.byte	0
 1541 0701 15       		.uleb128 0x15
 1542 0702 59010000 		.4byte	.LASF99
 1543 0706 01       		.byte	0x1
 1544 0707 3D       		.byte	0x3d
 1545 0708 00000000 		.4byte	.LFB118
 1546 070c 70000000 		.4byte	.LFE118-.LFB118
 1547 0710 01       		.uleb128 0x1
 1548 0711 9C       		.byte	0x9c
 1549 0712 53070000 		.4byte	0x753
 1550 0716 1B       		.uleb128 0x1b
 1551 0717 87070000 		.4byte	.LASF100
 1552 071b 01       		.byte	0x1
 1553 071c 3E       		.byte	0x3e
 1554 071d 38040000 		.4byte	0x438
 1555 0721 03       		.uleb128 0x3
 1556 0722 91       		.byte	0x91
 1557 0723 BC7F     		.sleb128 -68
 1558 0725 1B       		.uleb128 0x1b
 1559 0726 2E000000 		.4byte	.LASF101
 1560 072a 01       		.byte	0x1
 1561 072b 3F       		.byte	0x3f
 1562 072c 43030000 		.4byte	0x343
 1563 0730 03       		.uleb128 0x3
 1564 0731 91       		.byte	0x91
 1565 0732 A07F     		.sleb128 -96
 1566 0734 1D       		.uleb128 0x1d
 1567 0735 62000000 		.4byte	.LVL45
 1568 0739 F1080000 		.4byte	0x8f1
 1569 073d 49070000 		.4byte	0x749
 1570 0741 1E       		.uleb128 0x1e
 1571 0742 01       		.uleb128 0x1
 1572 0743 50       		.byte	0x50
 1573 0744 03       		.uleb128 0x3
 1574 0745 91       		.byte	0x91
 1575 0746 BC7F     		.sleb128 -68
 1576 0748 00       		.byte	0
 1577 0749 22       		.uleb128 0x22
 1578 074a 66000000 		.4byte	.LVL46
 1579 074e A3050000 		.4byte	0x5a3
 1580 0752 00       		.byte	0
 1581 0753 15       		.uleb128 0x15
 1582 0754 EF030000 		.4byte	.LASF102
 1583 0758 01       		.byte	0x1
 1584 0759 6D       		.byte	0x6d
 1585 075a 00000000 		.4byte	.LFB119
 1586 075e 04000000 		.4byte	.LFE119-.LFB119
 1587 0762 01       		.uleb128 0x1
 1588 0763 9C       		.byte	0x9c
 1589 0764 72070000 		.4byte	0x772
 1590 0768 23       		.uleb128 0x23
 1591 0769 04000000 		.4byte	.LVL47
 1592 076d 01070000 		.4byte	0x701
 1593 0771 00       		.byte	0
 1594 0772 24       		.uleb128 0x24
 1595 0773 9E070000 		.4byte	.LASF103
ARM GAS  /tmp/cc3MmEyx.s 			page 29


 1596 0777 01       		.byte	0x1
 1597 0778 1E01     		.2byte	0x11e
 1598 077a 00000000 		.4byte	.LFB122
 1599 077e 3C000000 		.4byte	.LFE122-.LFB122
 1600 0782 01       		.uleb128 0x1
 1601 0783 9C       		.byte	0x9c
 1602 0784 F5070000 		.4byte	0x7f5
 1603 0788 25       		.uleb128 0x25
 1604 0789 0D030000 		.4byte	.LASF104
 1605 078d 01       		.byte	0x1
 1606 078e 1E01     		.2byte	0x11e
 1607 0790 F5070000 		.4byte	0x7f5
 1608 0794 17010000 		.4byte	.LLST4
 1609 0798 25       		.uleb128 0x25
 1610 0799 85030000 		.4byte	.LASF105
 1611 079d 01       		.byte	0x1
 1612 079e 1E01     		.2byte	0x11e
 1613 07a0 B8000000 		.4byte	0xb8
 1614 07a4 35010000 		.4byte	.LLST5
 1615 07a8 25       		.uleb128 0x25
 1616 07a9 00000000 		.4byte	.LASF106
 1617 07ad 01       		.byte	0x1
 1618 07ae 1F01     		.2byte	0x11f
 1619 07b0 B8000000 		.4byte	0xb8
 1620 07b4 6D010000 		.4byte	.LLST6
 1621 07b8 26       		.uleb128 0x26
 1622 07b9 24040000 		.4byte	.LASF107
 1623 07bd 01       		.byte	0x1
 1624 07be 2101     		.2byte	0x121
 1625 07c0 CA000000 		.4byte	0xca
 1626 07c4 02       		.uleb128 0x2
 1627 07c5 91       		.byte	0x91
 1628 07c6 6C       		.sleb128 -20
 1629 07c7 1D       		.uleb128 0x1d
 1630 07c8 14000000 		.4byte	.LVL51
 1631 07cc DA080000 		.4byte	0x8da
 1632 07d0 DF070000 		.4byte	0x7df
 1633 07d4 1E       		.uleb128 0x1e
 1634 07d5 01       		.uleb128 0x1
 1635 07d6 51       		.byte	0x51
 1636 07d7 01       		.uleb128 0x1
 1637 07d8 30       		.byte	0x30
 1638 07d9 1E       		.uleb128 0x1e
 1639 07da 01       		.uleb128 0x1
 1640 07db 50       		.byte	0x50
 1641 07dc 01       		.uleb128 0x1
 1642 07dd 30       		.byte	0x30
 1643 07de 00       		.byte	0
 1644 07df 1F       		.uleb128 0x1f
 1645 07e0 1C000000 		.4byte	.LVL52
 1646 07e4 95080000 		.4byte	0x895
 1647 07e8 1E       		.uleb128 0x1e
 1648 07e9 01       		.uleb128 0x1
 1649 07ea 51       		.byte	0x51
 1650 07eb 02       		.uleb128 0x2
 1651 07ec 08       		.byte	0x8
 1652 07ed 20       		.byte	0x20
ARM GAS  /tmp/cc3MmEyx.s 			page 30


 1653 07ee 1E       		.uleb128 0x1e
 1654 07ef 01       		.uleb128 0x1
 1655 07f0 50       		.byte	0x50
 1656 07f1 01       		.uleb128 0x1
 1657 07f2 30       		.byte	0x30
 1658 07f3 00       		.byte	0
 1659 07f4 00       		.byte	0
 1660 07f5 12       		.uleb128 0x12
 1661 07f6 04       		.byte	0x4
 1662 07f7 B8000000 		.4byte	0xb8
 1663 07fb 24       		.uleb128 0x24
 1664 07fc D5050000 		.4byte	.LASF108
 1665 0800 01       		.byte	0x1
 1666 0801 3D01     		.2byte	0x13d
 1667 0803 00000000 		.4byte	.LFB123
 1668 0807 34000000 		.4byte	.LFE123-.LFB123
 1669 080b 01       		.uleb128 0x1
 1670 080c 9C       		.byte	0x9c
 1671 080d 66080000 		.4byte	0x866
 1672 0811 25       		.uleb128 0x25
 1673 0812 0D030000 		.4byte	.LASF104
 1674 0816 01       		.byte	0x1
 1675 0817 3D01     		.2byte	0x13d
 1676 0819 F5070000 		.4byte	0x7f5
 1677 081d A3010000 		.4byte	.LLST7
 1678 0821 25       		.uleb128 0x25
 1679 0822 91010000 		.4byte	.LASF109
 1680 0826 01       		.byte	0x1
 1681 0827 3D01     		.2byte	0x13d
 1682 0829 B8000000 		.4byte	0xb8
 1683 082d C1010000 		.4byte	.LLST8
 1684 0831 25       		.uleb128 0x25
 1685 0832 00000000 		.4byte	.LASF106
 1686 0836 01       		.byte	0x1
 1687 0837 3E01     		.2byte	0x13e
 1688 0839 B8000000 		.4byte	0xb8
 1689 083d EE010000 		.4byte	.LLST9
 1690 0841 26       		.uleb128 0x26
 1691 0842 24040000 		.4byte	.LASF107
 1692 0846 01       		.byte	0x1
 1693 0847 4001     		.2byte	0x140
 1694 0849 CA000000 		.4byte	0xca
 1695 084d 02       		.uleb128 0x2
 1696 084e 91       		.byte	0x91
 1697 084f 6C       		.sleb128 -20
 1698 0850 1F       		.uleb128 0x1f
 1699 0851 12000000 		.4byte	.LVL59
 1700 0855 95080000 		.4byte	0x895
 1701 0859 1E       		.uleb128 0x1e
 1702 085a 01       		.uleb128 0x1
 1703 085b 51       		.byte	0x51
 1704 085c 02       		.uleb128 0x2
 1705 085d 08       		.byte	0x8
 1706 085e 20       		.byte	0x20
 1707 085f 1E       		.uleb128 0x1e
 1708 0860 01       		.uleb128 0x1
 1709 0861 50       		.byte	0x50
ARM GAS  /tmp/cc3MmEyx.s 			page 31


 1710 0862 01       		.uleb128 0x1
 1711 0863 30       		.byte	0x30
 1712 0864 00       		.byte	0
 1713 0865 00       		.byte	0
 1714 0866 27       		.uleb128 0x27
 1715 0867 F9000000 		.4byte	.LASF119
 1716 086b 09       		.byte	0x9
 1717 086c 9806     		.2byte	0x698
 1718 086e DF000000 		.4byte	0xdf
 1719 0872 28       		.uleb128 0x28
 1720 0873 65030000 		.4byte	.LASF110
 1721 0877 07       		.byte	0x7
 1722 0878 2E       		.byte	0x2e
 1723 0879 83080000 		.4byte	0x883
 1724 087d 29       		.uleb128 0x29
 1725 087e 98040000 		.4byte	0x498
 1726 0882 00       		.byte	0
 1727 0883 2A       		.uleb128 0x2a
 1728 0884 17000000 		.4byte	.LASF111
 1729 0888 08       		.byte	0x8
 1730 0889 7501     		.2byte	0x175
 1731 088b 95080000 		.4byte	0x895
 1732 088f 29       		.uleb128 0x29
 1733 0890 4B040000 		.4byte	0x44b
 1734 0894 00       		.byte	0
 1735 0895 2B       		.uleb128 0x2b
 1736 0896 6D040000 		.4byte	.LASF120
 1737 089a 05       		.byte	0x5
 1738 089b 6204     		.2byte	0x462
 1739 089d FF000000 		.4byte	0xff
 1740 08a1 B0080000 		.4byte	0x8b0
 1741 08a5 29       		.uleb128 0x29
 1742 08a6 B8000000 		.4byte	0xb8
 1743 08aa 29       		.uleb128 0x29
 1744 08ab B8000000 		.4byte	0xb8
 1745 08af 00       		.byte	0
 1746 08b0 2A       		.uleb128 0x2a
 1747 08b1 BF010000 		.4byte	.LASF112
 1748 08b5 05       		.byte	0x5
 1749 08b6 5A04     		.2byte	0x45a
 1750 08b8 C2080000 		.4byte	0x8c2
 1751 08bc 29       		.uleb128 0x29
 1752 08bd C2080000 		.4byte	0x8c2
 1753 08c1 00       		.byte	0
 1754 08c2 12       		.uleb128 0x12
 1755 08c3 04       		.byte	0x4
 1756 08c4 8D030000 		.4byte	0x38d
 1757 08c8 2A       		.uleb128 0x2a
 1758 08c9 60020000 		.4byte	.LASF113
 1759 08cd 05       		.byte	0x5
 1760 08ce 5C04     		.2byte	0x45c
 1761 08d0 DA080000 		.4byte	0x8da
 1762 08d4 29       		.uleb128 0x29
 1763 08d5 B8000000 		.4byte	0xb8
 1764 08d9 00       		.byte	0
 1765 08da 2A       		.uleb128 0x2a
 1766 08db F1010000 		.4byte	.LASF114
ARM GAS  /tmp/cc3MmEyx.s 			page 32


 1767 08df 05       		.byte	0x5
 1768 08e0 5E04     		.2byte	0x45e
 1769 08e2 F1080000 		.4byte	0x8f1
 1770 08e6 29       		.uleb128 0x29
 1771 08e7 B8000000 		.4byte	0xb8
 1772 08eb 29       		.uleb128 0x29
 1773 08ec 21010000 		.4byte	0x121
 1774 08f0 00       		.byte	0
 1775 08f1 2A       		.uleb128 0x2a
 1776 08f2 69000000 		.4byte	.LASF115
 1777 08f6 05       		.byte	0x5
 1778 08f7 5804     		.2byte	0x458
 1779 08f9 03090000 		.4byte	0x903
 1780 08fd 29       		.uleb128 0x29
 1781 08fe 03090000 		.4byte	0x903
 1782 0902 00       		.byte	0
 1783 0903 12       		.uleb128 0x12
 1784 0904 04       		.byte	0x4
 1785 0905 38040000 		.4byte	0x438
 1786 0909 00       		.byte	0
 1787              		.section	.debug_abbrev,"",%progbits
 1788              	.Ldebug_abbrev0:
 1789 0000 01       		.uleb128 0x1
 1790 0001 11       		.uleb128 0x11
 1791 0002 01       		.byte	0x1
 1792 0003 25       		.uleb128 0x25
 1793 0004 0E       		.uleb128 0xe
 1794 0005 13       		.uleb128 0x13
 1795 0006 0B       		.uleb128 0xb
 1796 0007 03       		.uleb128 0x3
 1797 0008 0E       		.uleb128 0xe
 1798 0009 1B       		.uleb128 0x1b
 1799 000a 0E       		.uleb128 0xe
 1800 000b 55       		.uleb128 0x55
 1801 000c 17       		.uleb128 0x17
 1802 000d 11       		.uleb128 0x11
 1803 000e 01       		.uleb128 0x1
 1804 000f 10       		.uleb128 0x10
 1805 0010 17       		.uleb128 0x17
 1806 0011 00       		.byte	0
 1807 0012 00       		.byte	0
 1808 0013 02       		.uleb128 0x2
 1809 0014 24       		.uleb128 0x24
 1810 0015 00       		.byte	0
 1811 0016 0B       		.uleb128 0xb
 1812 0017 0B       		.uleb128 0xb
 1813 0018 3E       		.uleb128 0x3e
 1814 0019 0B       		.uleb128 0xb
 1815 001a 03       		.uleb128 0x3
 1816 001b 0E       		.uleb128 0xe
 1817 001c 00       		.byte	0
 1818 001d 00       		.byte	0
 1819 001e 03       		.uleb128 0x3
 1820 001f 16       		.uleb128 0x16
 1821 0020 00       		.byte	0
 1822 0021 03       		.uleb128 0x3
 1823 0022 0E       		.uleb128 0xe
ARM GAS  /tmp/cc3MmEyx.s 			page 33


 1824 0023 3A       		.uleb128 0x3a
 1825 0024 0B       		.uleb128 0xb
 1826 0025 3B       		.uleb128 0x3b
 1827 0026 0B       		.uleb128 0xb
 1828 0027 49       		.uleb128 0x49
 1829 0028 13       		.uleb128 0x13
 1830 0029 00       		.byte	0
 1831 002a 00       		.byte	0
 1832 002b 04       		.uleb128 0x4
 1833 002c 24       		.uleb128 0x24
 1834 002d 00       		.byte	0
 1835 002e 0B       		.uleb128 0xb
 1836 002f 0B       		.uleb128 0xb
 1837 0030 3E       		.uleb128 0x3e
 1838 0031 0B       		.uleb128 0xb
 1839 0032 03       		.uleb128 0x3
 1840 0033 08       		.uleb128 0x8
 1841 0034 00       		.byte	0
 1842 0035 00       		.byte	0
 1843 0036 05       		.uleb128 0x5
 1844 0037 35       		.uleb128 0x35
 1845 0038 00       		.byte	0
 1846 0039 49       		.uleb128 0x49
 1847 003a 13       		.uleb128 0x13
 1848 003b 00       		.byte	0
 1849 003c 00       		.byte	0
 1850 003d 06       		.uleb128 0x6
 1851 003e 01       		.uleb128 0x1
 1852 003f 01       		.byte	0x1
 1853 0040 49       		.uleb128 0x49
 1854 0041 13       		.uleb128 0x13
 1855 0042 01       		.uleb128 0x1
 1856 0043 13       		.uleb128 0x13
 1857 0044 00       		.byte	0
 1858 0045 00       		.byte	0
 1859 0046 07       		.uleb128 0x7
 1860 0047 21       		.uleb128 0x21
 1861 0048 00       		.byte	0
 1862 0049 49       		.uleb128 0x49
 1863 004a 13       		.uleb128 0x13
 1864 004b 2F       		.uleb128 0x2f
 1865 004c 0B       		.uleb128 0xb
 1866 004d 00       		.byte	0
 1867 004e 00       		.byte	0
 1868 004f 08       		.uleb128 0x8
 1869 0050 26       		.uleb128 0x26
 1870 0051 00       		.byte	0
 1871 0052 49       		.uleb128 0x49
 1872 0053 13       		.uleb128 0x13
 1873 0054 00       		.byte	0
 1874 0055 00       		.byte	0
 1875 0056 09       		.uleb128 0x9
 1876 0057 04       		.uleb128 0x4
 1877 0058 01       		.byte	0x1
 1878 0059 0B       		.uleb128 0xb
 1879 005a 0B       		.uleb128 0xb
 1880 005b 3A       		.uleb128 0x3a
ARM GAS  /tmp/cc3MmEyx.s 			page 34


 1881 005c 0B       		.uleb128 0xb
 1882 005d 3B       		.uleb128 0x3b
 1883 005e 05       		.uleb128 0x5
 1884 005f 01       		.uleb128 0x1
 1885 0060 13       		.uleb128 0x13
 1886 0061 00       		.byte	0
 1887 0062 00       		.byte	0
 1888 0063 0A       		.uleb128 0xa
 1889 0064 28       		.uleb128 0x28
 1890 0065 00       		.byte	0
 1891 0066 03       		.uleb128 0x3
 1892 0067 0E       		.uleb128 0xe
 1893 0068 1C       		.uleb128 0x1c
 1894 0069 0D       		.uleb128 0xd
 1895 006a 00       		.byte	0
 1896 006b 00       		.byte	0
 1897 006c 0B       		.uleb128 0xb
 1898 006d 28       		.uleb128 0x28
 1899 006e 00       		.byte	0
 1900 006f 03       		.uleb128 0x3
 1901 0070 08       		.uleb128 0x8
 1902 0071 1C       		.uleb128 0x1c
 1903 0072 0D       		.uleb128 0xd
 1904 0073 00       		.byte	0
 1905 0074 00       		.byte	0
 1906 0075 0C       		.uleb128 0xc
 1907 0076 16       		.uleb128 0x16
 1908 0077 00       		.byte	0
 1909 0078 03       		.uleb128 0x3
 1910 0079 0E       		.uleb128 0xe
 1911 007a 3A       		.uleb128 0x3a
 1912 007b 0B       		.uleb128 0xb
 1913 007c 3B       		.uleb128 0x3b
 1914 007d 05       		.uleb128 0x5
 1915 007e 49       		.uleb128 0x49
 1916 007f 13       		.uleb128 0x13
 1917 0080 00       		.byte	0
 1918 0081 00       		.byte	0
 1919 0082 0D       		.uleb128 0xd
 1920 0083 13       		.uleb128 0x13
 1921 0084 01       		.byte	0x1
 1922 0085 0B       		.uleb128 0xb
 1923 0086 0B       		.uleb128 0xb
 1924 0087 3A       		.uleb128 0x3a
 1925 0088 0B       		.uleb128 0xb
 1926 0089 3B       		.uleb128 0x3b
 1927 008a 05       		.uleb128 0x5
 1928 008b 01       		.uleb128 0x1
 1929 008c 13       		.uleb128 0x13
 1930 008d 00       		.byte	0
 1931 008e 00       		.byte	0
 1932 008f 0E       		.uleb128 0xe
 1933 0090 0D       		.uleb128 0xd
 1934 0091 00       		.byte	0
 1935 0092 03       		.uleb128 0x3
 1936 0093 08       		.uleb128 0x8
 1937 0094 3A       		.uleb128 0x3a
ARM GAS  /tmp/cc3MmEyx.s 			page 35


 1938 0095 0B       		.uleb128 0xb
 1939 0096 3B       		.uleb128 0x3b
 1940 0097 05       		.uleb128 0x5
 1941 0098 49       		.uleb128 0x49
 1942 0099 13       		.uleb128 0x13
 1943 009a 38       		.uleb128 0x38
 1944 009b 0B       		.uleb128 0xb
 1945 009c 00       		.byte	0
 1946 009d 00       		.byte	0
 1947 009e 0F       		.uleb128 0xf
 1948 009f 0D       		.uleb128 0xd
 1949 00a0 00       		.byte	0
 1950 00a1 03       		.uleb128 0x3
 1951 00a2 0E       		.uleb128 0xe
 1952 00a3 3A       		.uleb128 0x3a
 1953 00a4 0B       		.uleb128 0xb
 1954 00a5 3B       		.uleb128 0x3b
 1955 00a6 05       		.uleb128 0x5
 1956 00a7 49       		.uleb128 0x49
 1957 00a8 13       		.uleb128 0x13
 1958 00a9 38       		.uleb128 0x38
 1959 00aa 0B       		.uleb128 0xb
 1960 00ab 00       		.byte	0
 1961 00ac 00       		.byte	0
 1962 00ad 10       		.uleb128 0x10
 1963 00ae 13       		.uleb128 0x13
 1964 00af 01       		.byte	0x1
 1965 00b0 0B       		.uleb128 0xb
 1966 00b1 0B       		.uleb128 0xb
 1967 00b2 3A       		.uleb128 0x3a
 1968 00b3 0B       		.uleb128 0xb
 1969 00b4 3B       		.uleb128 0x3b
 1970 00b5 0B       		.uleb128 0xb
 1971 00b6 01       		.uleb128 0x1
 1972 00b7 13       		.uleb128 0x13
 1973 00b8 00       		.byte	0
 1974 00b9 00       		.byte	0
 1975 00ba 11       		.uleb128 0x11
 1976 00bb 0D       		.uleb128 0xd
 1977 00bc 00       		.byte	0
 1978 00bd 03       		.uleb128 0x3
 1979 00be 0E       		.uleb128 0xe
 1980 00bf 3A       		.uleb128 0x3a
 1981 00c0 0B       		.uleb128 0xb
 1982 00c1 3B       		.uleb128 0x3b
 1983 00c2 0B       		.uleb128 0xb
 1984 00c3 49       		.uleb128 0x49
 1985 00c4 13       		.uleb128 0x13
 1986 00c5 38       		.uleb128 0x38
 1987 00c6 0B       		.uleb128 0xb
 1988 00c7 00       		.byte	0
 1989 00c8 00       		.byte	0
 1990 00c9 12       		.uleb128 0x12
 1991 00ca 0F       		.uleb128 0xf
 1992 00cb 00       		.byte	0
 1993 00cc 0B       		.uleb128 0xb
 1994 00cd 0B       		.uleb128 0xb
ARM GAS  /tmp/cc3MmEyx.s 			page 36


 1995 00ce 49       		.uleb128 0x49
 1996 00cf 13       		.uleb128 0x13
 1997 00d0 00       		.byte	0
 1998 00d1 00       		.byte	0
 1999 00d2 13       		.uleb128 0x13
 2000 00d3 0F       		.uleb128 0xf
 2001 00d4 00       		.byte	0
 2002 00d5 0B       		.uleb128 0xb
 2003 00d6 0B       		.uleb128 0xb
 2004 00d7 00       		.byte	0
 2005 00d8 00       		.byte	0
 2006 00d9 14       		.uleb128 0x14
 2007 00da 04       		.uleb128 0x4
 2008 00db 01       		.byte	0x1
 2009 00dc 0B       		.uleb128 0xb
 2010 00dd 0B       		.uleb128 0xb
 2011 00de 3A       		.uleb128 0x3a
 2012 00df 0B       		.uleb128 0xb
 2013 00e0 3B       		.uleb128 0x3b
 2014 00e1 0B       		.uleb128 0xb
 2015 00e2 01       		.uleb128 0x1
 2016 00e3 13       		.uleb128 0x13
 2017 00e4 00       		.byte	0
 2018 00e5 00       		.byte	0
 2019 00e6 15       		.uleb128 0x15
 2020 00e7 2E       		.uleb128 0x2e
 2021 00e8 01       		.byte	0x1
 2022 00e9 3F       		.uleb128 0x3f
 2023 00ea 19       		.uleb128 0x19
 2024 00eb 03       		.uleb128 0x3
 2025 00ec 0E       		.uleb128 0xe
 2026 00ed 3A       		.uleb128 0x3a
 2027 00ee 0B       		.uleb128 0xb
 2028 00ef 3B       		.uleb128 0x3b
 2029 00f0 0B       		.uleb128 0xb
 2030 00f1 27       		.uleb128 0x27
 2031 00f2 19       		.uleb128 0x19
 2032 00f3 11       		.uleb128 0x11
 2033 00f4 01       		.uleb128 0x1
 2034 00f5 12       		.uleb128 0x12
 2035 00f6 06       		.uleb128 0x6
 2036 00f7 40       		.uleb128 0x40
 2037 00f8 18       		.uleb128 0x18
 2038 00f9 9742     		.uleb128 0x2117
 2039 00fb 19       		.uleb128 0x19
 2040 00fc 01       		.uleb128 0x1
 2041 00fd 13       		.uleb128 0x13
 2042 00fe 00       		.byte	0
 2043 00ff 00       		.byte	0
 2044 0100 16       		.uleb128 0x16
 2045 0101 34       		.uleb128 0x34
 2046 0102 00       		.byte	0
 2047 0103 03       		.uleb128 0x3
 2048 0104 0E       		.uleb128 0xe
 2049 0105 3A       		.uleb128 0x3a
 2050 0106 0B       		.uleb128 0xb
 2051 0107 3B       		.uleb128 0x3b
ARM GAS  /tmp/cc3MmEyx.s 			page 37


 2052 0108 0B       		.uleb128 0xb
 2053 0109 49       		.uleb128 0x49
 2054 010a 13       		.uleb128 0x13
 2055 010b 1C       		.uleb128 0x1c
 2056 010c 06       		.uleb128 0x6
 2057 010d 00       		.byte	0
 2058 010e 00       		.byte	0
 2059 010f 17       		.uleb128 0x17
 2060 0110 34       		.uleb128 0x34
 2061 0111 00       		.byte	0
 2062 0112 03       		.uleb128 0x3
 2063 0113 0E       		.uleb128 0xe
 2064 0114 3A       		.uleb128 0x3a
 2065 0115 0B       		.uleb128 0xb
 2066 0116 3B       		.uleb128 0x3b
 2067 0117 0B       		.uleb128 0xb
 2068 0118 49       		.uleb128 0x49
 2069 0119 13       		.uleb128 0x13
 2070 011a 1C       		.uleb128 0x1c
 2071 011b 0D       		.uleb128 0xd
 2072 011c 00       		.byte	0
 2073 011d 00       		.byte	0
 2074 011e 18       		.uleb128 0x18
 2075 011f 34       		.uleb128 0x34
 2076 0120 00       		.byte	0
 2077 0121 03       		.uleb128 0x3
 2078 0122 08       		.uleb128 0x8
 2079 0123 3A       		.uleb128 0x3a
 2080 0124 0B       		.uleb128 0xb
 2081 0125 3B       		.uleb128 0x3b
 2082 0126 0B       		.uleb128 0xb
 2083 0127 49       		.uleb128 0x49
 2084 0128 13       		.uleb128 0x13
 2085 0129 02       		.uleb128 0x2
 2086 012a 17       		.uleb128 0x17
 2087 012b 00       		.byte	0
 2088 012c 00       		.byte	0
 2089 012d 19       		.uleb128 0x19
 2090 012e 34       		.uleb128 0x34
 2091 012f 00       		.byte	0
 2092 0130 03       		.uleb128 0x3
 2093 0131 08       		.uleb128 0x8
 2094 0132 3A       		.uleb128 0x3a
 2095 0133 0B       		.uleb128 0xb
 2096 0134 3B       		.uleb128 0x3b
 2097 0135 0B       		.uleb128 0xb
 2098 0136 49       		.uleb128 0x49
 2099 0137 13       		.uleb128 0x13
 2100 0138 1C       		.uleb128 0x1c
 2101 0139 06       		.uleb128 0x6
 2102 013a 00       		.byte	0
 2103 013b 00       		.byte	0
 2104 013c 1A       		.uleb128 0x1a
 2105 013d 34       		.uleb128 0x34
 2106 013e 00       		.byte	0
 2107 013f 03       		.uleb128 0x3
 2108 0140 08       		.uleb128 0x8
ARM GAS  /tmp/cc3MmEyx.s 			page 38


 2109 0141 3A       		.uleb128 0x3a
 2110 0142 0B       		.uleb128 0xb
 2111 0143 3B       		.uleb128 0x3b
 2112 0144 0B       		.uleb128 0xb
 2113 0145 49       		.uleb128 0x49
 2114 0146 13       		.uleb128 0x13
 2115 0147 1C       		.uleb128 0x1c
 2116 0148 0B       		.uleb128 0xb
 2117 0149 00       		.byte	0
 2118 014a 00       		.byte	0
 2119 014b 1B       		.uleb128 0x1b
 2120 014c 34       		.uleb128 0x34
 2121 014d 00       		.byte	0
 2122 014e 03       		.uleb128 0x3
 2123 014f 0E       		.uleb128 0xe
 2124 0150 3A       		.uleb128 0x3a
 2125 0151 0B       		.uleb128 0xb
 2126 0152 3B       		.uleb128 0x3b
 2127 0153 0B       		.uleb128 0xb
 2128 0154 49       		.uleb128 0x49
 2129 0155 13       		.uleb128 0x13
 2130 0156 02       		.uleb128 0x2
 2131 0157 18       		.uleb128 0x18
 2132 0158 00       		.byte	0
 2133 0159 00       		.byte	0
 2134 015a 1C       		.uleb128 0x1c
 2135 015b 0B       		.uleb128 0xb
 2136 015c 01       		.byte	0x1
 2137 015d 11       		.uleb128 0x11
 2138 015e 01       		.uleb128 0x1
 2139 015f 12       		.uleb128 0x12
 2140 0160 06       		.uleb128 0x6
 2141 0161 01       		.uleb128 0x1
 2142 0162 13       		.uleb128 0x13
 2143 0163 00       		.byte	0
 2144 0164 00       		.byte	0
 2145 0165 1D       		.uleb128 0x1d
 2146 0166 898201   		.uleb128 0x4109
 2147 0169 01       		.byte	0x1
 2148 016a 11       		.uleb128 0x11
 2149 016b 01       		.uleb128 0x1
 2150 016c 31       		.uleb128 0x31
 2151 016d 13       		.uleb128 0x13
 2152 016e 01       		.uleb128 0x1
 2153 016f 13       		.uleb128 0x13
 2154 0170 00       		.byte	0
 2155 0171 00       		.byte	0
 2156 0172 1E       		.uleb128 0x1e
 2157 0173 8A8201   		.uleb128 0x410a
 2158 0176 00       		.byte	0
 2159 0177 02       		.uleb128 0x2
 2160 0178 18       		.uleb128 0x18
 2161 0179 9142     		.uleb128 0x2111
 2162 017b 18       		.uleb128 0x18
 2163 017c 00       		.byte	0
 2164 017d 00       		.byte	0
 2165 017e 1F       		.uleb128 0x1f
ARM GAS  /tmp/cc3MmEyx.s 			page 39


 2166 017f 898201   		.uleb128 0x4109
 2167 0182 01       		.byte	0x1
 2168 0183 11       		.uleb128 0x11
 2169 0184 01       		.uleb128 0x1
 2170 0185 31       		.uleb128 0x31
 2171 0186 13       		.uleb128 0x13
 2172 0187 00       		.byte	0
 2173 0188 00       		.byte	0
 2174 0189 20       		.uleb128 0x20
 2175 018a 0B       		.uleb128 0xb
 2176 018b 01       		.byte	0x1
 2177 018c 11       		.uleb128 0x11
 2178 018d 01       		.uleb128 0x1
 2179 018e 12       		.uleb128 0x12
 2180 018f 06       		.uleb128 0x6
 2181 0190 00       		.byte	0
 2182 0191 00       		.byte	0
 2183 0192 21       		.uleb128 0x21
 2184 0193 34       		.uleb128 0x34
 2185 0194 00       		.byte	0
 2186 0195 03       		.uleb128 0x3
 2187 0196 0E       		.uleb128 0xe
 2188 0197 3A       		.uleb128 0x3a
 2189 0198 0B       		.uleb128 0xb
 2190 0199 3B       		.uleb128 0x3b
 2191 019a 0B       		.uleb128 0xb
 2192 019b 49       		.uleb128 0x49
 2193 019c 13       		.uleb128 0x13
 2194 019d 02       		.uleb128 0x2
 2195 019e 17       		.uleb128 0x17
 2196 019f 00       		.byte	0
 2197 01a0 00       		.byte	0
 2198 01a1 22       		.uleb128 0x22
 2199 01a2 898201   		.uleb128 0x4109
 2200 01a5 00       		.byte	0
 2201 01a6 11       		.uleb128 0x11
 2202 01a7 01       		.uleb128 0x1
 2203 01a8 31       		.uleb128 0x31
 2204 01a9 13       		.uleb128 0x13
 2205 01aa 00       		.byte	0
 2206 01ab 00       		.byte	0
 2207 01ac 23       		.uleb128 0x23
 2208 01ad 898201   		.uleb128 0x4109
 2209 01b0 00       		.byte	0
 2210 01b1 11       		.uleb128 0x11
 2211 01b2 01       		.uleb128 0x1
 2212 01b3 9542     		.uleb128 0x2115
 2213 01b5 19       		.uleb128 0x19
 2214 01b6 31       		.uleb128 0x31
 2215 01b7 13       		.uleb128 0x13
 2216 01b8 00       		.byte	0
 2217 01b9 00       		.byte	0
 2218 01ba 24       		.uleb128 0x24
 2219 01bb 2E       		.uleb128 0x2e
 2220 01bc 01       		.byte	0x1
 2221 01bd 3F       		.uleb128 0x3f
 2222 01be 19       		.uleb128 0x19
ARM GAS  /tmp/cc3MmEyx.s 			page 40


 2223 01bf 03       		.uleb128 0x3
 2224 01c0 0E       		.uleb128 0xe
 2225 01c1 3A       		.uleb128 0x3a
 2226 01c2 0B       		.uleb128 0xb
 2227 01c3 3B       		.uleb128 0x3b
 2228 01c4 05       		.uleb128 0x5
 2229 01c5 27       		.uleb128 0x27
 2230 01c6 19       		.uleb128 0x19
 2231 01c7 11       		.uleb128 0x11
 2232 01c8 01       		.uleb128 0x1
 2233 01c9 12       		.uleb128 0x12
 2234 01ca 06       		.uleb128 0x6
 2235 01cb 40       		.uleb128 0x40
 2236 01cc 18       		.uleb128 0x18
 2237 01cd 9742     		.uleb128 0x2117
 2238 01cf 19       		.uleb128 0x19
 2239 01d0 01       		.uleb128 0x1
 2240 01d1 13       		.uleb128 0x13
 2241 01d2 00       		.byte	0
 2242 01d3 00       		.byte	0
 2243 01d4 25       		.uleb128 0x25
 2244 01d5 05       		.uleb128 0x5
 2245 01d6 00       		.byte	0
 2246 01d7 03       		.uleb128 0x3
 2247 01d8 0E       		.uleb128 0xe
 2248 01d9 3A       		.uleb128 0x3a
 2249 01da 0B       		.uleb128 0xb
 2250 01db 3B       		.uleb128 0x3b
 2251 01dc 05       		.uleb128 0x5
 2252 01dd 49       		.uleb128 0x49
 2253 01de 13       		.uleb128 0x13
 2254 01df 02       		.uleb128 0x2
 2255 01e0 17       		.uleb128 0x17
 2256 01e1 00       		.byte	0
 2257 01e2 00       		.byte	0
 2258 01e3 26       		.uleb128 0x26
 2259 01e4 34       		.uleb128 0x34
 2260 01e5 00       		.byte	0
 2261 01e6 03       		.uleb128 0x3
 2262 01e7 0E       		.uleb128 0xe
 2263 01e8 3A       		.uleb128 0x3a
 2264 01e9 0B       		.uleb128 0xb
 2265 01ea 3B       		.uleb128 0x3b
 2266 01eb 05       		.uleb128 0x5
 2267 01ec 49       		.uleb128 0x49
 2268 01ed 13       		.uleb128 0x13
 2269 01ee 02       		.uleb128 0x2
 2270 01ef 18       		.uleb128 0x18
 2271 01f0 00       		.byte	0
 2272 01f1 00       		.byte	0
 2273 01f2 27       		.uleb128 0x27
 2274 01f3 34       		.uleb128 0x34
 2275 01f4 00       		.byte	0
 2276 01f5 03       		.uleb128 0x3
 2277 01f6 0E       		.uleb128 0xe
 2278 01f7 3A       		.uleb128 0x3a
 2279 01f8 0B       		.uleb128 0xb
ARM GAS  /tmp/cc3MmEyx.s 			page 41


 2280 01f9 3B       		.uleb128 0x3b
 2281 01fa 05       		.uleb128 0x5
 2282 01fb 49       		.uleb128 0x49
 2283 01fc 13       		.uleb128 0x13
 2284 01fd 3F       		.uleb128 0x3f
 2285 01fe 19       		.uleb128 0x19
 2286 01ff 3C       		.uleb128 0x3c
 2287 0200 19       		.uleb128 0x19
 2288 0201 00       		.byte	0
 2289 0202 00       		.byte	0
 2290 0203 28       		.uleb128 0x28
 2291 0204 2E       		.uleb128 0x2e
 2292 0205 01       		.byte	0x1
 2293 0206 3F       		.uleb128 0x3f
 2294 0207 19       		.uleb128 0x19
 2295 0208 03       		.uleb128 0x3
 2296 0209 0E       		.uleb128 0xe
 2297 020a 3A       		.uleb128 0x3a
 2298 020b 0B       		.uleb128 0xb
 2299 020c 3B       		.uleb128 0x3b
 2300 020d 0B       		.uleb128 0xb
 2301 020e 27       		.uleb128 0x27
 2302 020f 19       		.uleb128 0x19
 2303 0210 3C       		.uleb128 0x3c
 2304 0211 19       		.uleb128 0x19
 2305 0212 01       		.uleb128 0x1
 2306 0213 13       		.uleb128 0x13
 2307 0214 00       		.byte	0
 2308 0215 00       		.byte	0
 2309 0216 29       		.uleb128 0x29
 2310 0217 05       		.uleb128 0x5
 2311 0218 00       		.byte	0
 2312 0219 49       		.uleb128 0x49
 2313 021a 13       		.uleb128 0x13
 2314 021b 00       		.byte	0
 2315 021c 00       		.byte	0
 2316 021d 2A       		.uleb128 0x2a
 2317 021e 2E       		.uleb128 0x2e
 2318 021f 01       		.byte	0x1
 2319 0220 3F       		.uleb128 0x3f
 2320 0221 19       		.uleb128 0x19
 2321 0222 03       		.uleb128 0x3
 2322 0223 0E       		.uleb128 0xe
 2323 0224 3A       		.uleb128 0x3a
 2324 0225 0B       		.uleb128 0xb
 2325 0226 3B       		.uleb128 0x3b
 2326 0227 05       		.uleb128 0x5
 2327 0228 27       		.uleb128 0x27
 2328 0229 19       		.uleb128 0x19
 2329 022a 3C       		.uleb128 0x3c
 2330 022b 19       		.uleb128 0x19
 2331 022c 01       		.uleb128 0x1
 2332 022d 13       		.uleb128 0x13
 2333 022e 00       		.byte	0
 2334 022f 00       		.byte	0
 2335 0230 2B       		.uleb128 0x2b
 2336 0231 2E       		.uleb128 0x2e
ARM GAS  /tmp/cc3MmEyx.s 			page 42


 2337 0232 01       		.byte	0x1
 2338 0233 3F       		.uleb128 0x3f
 2339 0234 19       		.uleb128 0x19
 2340 0235 03       		.uleb128 0x3
 2341 0236 0E       		.uleb128 0xe
 2342 0237 3A       		.uleb128 0x3a
 2343 0238 0B       		.uleb128 0xb
 2344 0239 3B       		.uleb128 0x3b
 2345 023a 05       		.uleb128 0x5
 2346 023b 27       		.uleb128 0x27
 2347 023c 19       		.uleb128 0x19
 2348 023d 49       		.uleb128 0x49
 2349 023e 13       		.uleb128 0x13
 2350 023f 3C       		.uleb128 0x3c
 2351 0240 19       		.uleb128 0x19
 2352 0241 01       		.uleb128 0x1
 2353 0242 13       		.uleb128 0x13
 2354 0243 00       		.byte	0
 2355 0244 00       		.byte	0
 2356 0245 00       		.byte	0
 2357              		.section	.debug_loc,"",%progbits
 2358              	.Ldebug_loc0:
 2359              	.LLST0:
 2360 0000 1C000000 		.4byte	.LVL1
 2361 0004 20000000 		.4byte	.LVL2
 2362 0008 0200     		.2byte	0x2
 2363 000a 30       		.byte	0x30
 2364 000b 9F       		.byte	0x9f
 2365 000c 32000000 		.4byte	.LVL5
 2366 0010 38000000 		.4byte	.LVL6
 2367 0014 0200     		.2byte	0x2
 2368 0016 30       		.byte	0x30
 2369 0017 9F       		.byte	0x9f
 2370 0018 7A000000 		.4byte	.LVL14
 2371 001c 7C000000 		.4byte	.LVL15
 2372 0020 0200     		.2byte	0x2
 2373 0022 30       		.byte	0x30
 2374 0023 9F       		.byte	0x9f
 2375 0024 7C000000 		.4byte	.LVL15
 2376 0028 98000000 		.4byte	.LVL19
 2377 002c 0100     		.2byte	0x1
 2378 002e 52       		.byte	0x52
 2379 002f 98000000 		.4byte	.LVL19
 2380 0033 9C000000 		.4byte	.LVL20
 2381 0037 0200     		.2byte	0x2
 2382 0039 30       		.byte	0x30
 2383 003a 9F       		.byte	0x9f
 2384 003b 9C000000 		.4byte	.LVL20
 2385 003f A2000000 		.4byte	.LVL21
 2386 0043 0300     		.2byte	0x3
 2387 0045 72       		.byte	0x72
 2388 0046 7F       		.sleb128 -1
 2389 0047 9F       		.byte	0x9f
 2390 0048 A2000000 		.4byte	.LVL21
 2391 004c BA000000 		.4byte	.LVL24
 2392 0050 0100     		.2byte	0x1
 2393 0052 52       		.byte	0x52
ARM GAS  /tmp/cc3MmEyx.s 			page 43


 2394 0053 BA000000 		.4byte	.LVL24
 2395 0057 C1000000 		.4byte	.LVL25-1
 2396 005b 0300     		.2byte	0x3
 2397 005d 72       		.byte	0x72
 2398 005e 7F       		.sleb128 -1
 2399 005f 9F       		.byte	0x9f
 2400 0060 CA000000 		.4byte	.LVL27
 2401 0064 D2000000 		.4byte	.LVL29
 2402 0068 0300     		.2byte	0x3
 2403 006a 72       		.byte	0x72
 2404 006b 7F       		.sleb128 -1
 2405 006c 9F       		.byte	0x9f
 2406 006d 00000000 		.4byte	0
 2407 0071 00000000 		.4byte	0
 2408              	.LLST1:
 2409 0075 1C000000 		.4byte	.LVL1
 2410 0079 24000000 		.4byte	.LVL3
 2411 007d 0100     		.2byte	0x1
 2412 007f 53       		.byte	0x53
 2413 0080 26000000 		.4byte	.LVL4
 2414 0084 32000000 		.4byte	.LVL5
 2415 0088 0100     		.2byte	0x1
 2416 008a 53       		.byte	0x53
 2417 008b 32000000 		.4byte	.LVL5
 2418 008f 42000000 		.4byte	.LVL7
 2419 0093 0100     		.2byte	0x1
 2420 0095 50       		.byte	0x50
 2421 0096 42000000 		.4byte	.LVL7
 2422 009a 44000000 		.4byte	.LVL8
 2423 009e 0300     		.2byte	0x3
 2424 00a0 72       		.byte	0x72
 2425 00a1 01       		.sleb128 1
 2426 00a2 9F       		.byte	0x9f
 2427 00a3 44000000 		.4byte	.LVL8
 2428 00a7 50000000 		.4byte	.LVL9
 2429 00ab 0100     		.2byte	0x1
 2430 00ad 50       		.byte	0x50
 2431 00ae 5C000000 		.4byte	.LVL12
 2432 00b2 6A000000 		.4byte	.LVL13
 2433 00b6 0100     		.2byte	0x1
 2434 00b8 50       		.byte	0x50
 2435 00b9 00000000 		.4byte	0
 2436 00bd 00000000 		.4byte	0
 2437              	.LLST2:
 2438 00c1 7A000000 		.4byte	.LVL14
 2439 00c5 80000000 		.4byte	.LVL16
 2440 00c9 0100     		.2byte	0x1
 2441 00cb 53       		.byte	0x53
 2442 00cc 82000000 		.4byte	.LVL17
 2443 00d0 A6000000 		.4byte	.LVL22
 2444 00d4 0100     		.2byte	0x1
 2445 00d6 53       		.byte	0x53
 2446 00d7 A8000000 		.4byte	.LVL23
 2447 00db C1000000 		.4byte	.LVL25-1
 2448 00df 0100     		.2byte	0x1
 2449 00e1 53       		.byte	0x53
 2450 00e2 CA000000 		.4byte	.LVL27
ARM GAS  /tmp/cc3MmEyx.s 			page 44


 2451 00e6 CC000000 		.4byte	.LVL28
 2452 00ea 0100     		.2byte	0x1
 2453 00ec 53       		.byte	0x53
 2454 00ed 00000000 		.4byte	0
 2455 00f1 00000000 		.4byte	0
 2456              	.LLST3:
 2457 00f5 00000000 		.4byte	.LVL30
 2458 00f9 78000000 		.4byte	.LVL39
 2459 00fd 0200     		.2byte	0x2
 2460 00ff 30       		.byte	0x30
 2461 0100 9F       		.byte	0x9f
 2462 0101 78000000 		.4byte	.LVL39
 2463 0105 B6000000 		.4byte	.LFE121
 2464 0109 0400     		.2byte	0x4
 2465 010b 0A       		.byte	0xa
 2466 010c 2102     		.2byte	0x221
 2467 010e 9F       		.byte	0x9f
 2468 010f 00000000 		.4byte	0
 2469 0113 00000000 		.4byte	0
 2470              	.LLST4:
 2471 0117 00000000 		.4byte	.LVL48
 2472 011b 08000000 		.4byte	.LVL49
 2473 011f 0100     		.2byte	0x1
 2474 0121 50       		.byte	0x50
 2475 0122 08000000 		.4byte	.LVL49
 2476 0126 3C000000 		.4byte	.LFE122
 2477 012a 0100     		.2byte	0x1
 2478 012c 55       		.byte	0x55
 2479 012d 00000000 		.4byte	0
 2480 0131 00000000 		.4byte	0
 2481              	.LLST5:
 2482 0135 00000000 		.4byte	.LVL48
 2483 0139 0C000000 		.4byte	.LVL50
 2484 013d 0100     		.2byte	0x1
 2485 013f 51       		.byte	0x51
 2486 0140 0C000000 		.4byte	.LVL50
 2487 0144 13000000 		.4byte	.LVL51-1
 2488 0148 0100     		.2byte	0x1
 2489 014a 53       		.byte	0x53
 2490 014b 13000000 		.4byte	.LVL51-1
 2491 014f 22000000 		.4byte	.LVL53
 2492 0153 0200     		.2byte	0x2
 2493 0155 91       		.byte	0x91
 2494 0156 6C       		.sleb128 -20
 2495 0157 22000000 		.4byte	.LVL53
 2496 015b 3C000000 		.4byte	.LFE122
 2497 015f 0400     		.2byte	0x4
 2498 0161 F3       		.byte	0xf3
 2499 0162 01       		.uleb128 0x1
 2500 0163 51       		.byte	0x51
 2501 0164 9F       		.byte	0x9f
 2502 0165 00000000 		.4byte	0
 2503 0169 00000000 		.4byte	0
 2504              	.LLST6:
 2505 016d 00000000 		.4byte	.LVL48
 2506 0171 13000000 		.4byte	.LVL51-1
 2507 0175 0100     		.2byte	0x1
ARM GAS  /tmp/cc3MmEyx.s 			page 45


 2508 0177 52       		.byte	0x52
 2509 0178 13000000 		.4byte	.LVL51-1
 2510 017c 24000000 		.4byte	.LVL54
 2511 0180 0100     		.2byte	0x1
 2512 0182 54       		.byte	0x54
 2513 0183 24000000 		.4byte	.LVL54
 2514 0187 32000000 		.4byte	.LVL56
 2515 018b 0300     		.2byte	0x3
 2516 018d 74       		.byte	0x74
 2517 018e 7F       		.sleb128 -1
 2518 018f 9F       		.byte	0x9f
 2519 0190 32000000 		.4byte	.LVL56
 2520 0194 3C000000 		.4byte	.LFE122
 2521 0198 0100     		.2byte	0x1
 2522 019a 54       		.byte	0x54
 2523 019b 00000000 		.4byte	0
 2524 019f 00000000 		.4byte	0
 2525              	.LLST7:
 2526 01a3 00000000 		.4byte	.LVL57
 2527 01a7 0A000000 		.4byte	.LVL58
 2528 01ab 0100     		.2byte	0x1
 2529 01ad 50       		.byte	0x50
 2530 01ae 0A000000 		.4byte	.LVL58
 2531 01b2 34000000 		.4byte	.LFE123
 2532 01b6 0100     		.2byte	0x1
 2533 01b8 55       		.byte	0x55
 2534 01b9 00000000 		.4byte	0
 2535 01bd 00000000 		.4byte	0
 2536              	.LLST8:
 2537 01c1 00000000 		.4byte	.LVL57
 2538 01c5 0A000000 		.4byte	.LVL58
 2539 01c9 0100     		.2byte	0x1
 2540 01cb 51       		.byte	0x51
 2541 01cc 0A000000 		.4byte	.LVL58
 2542 01d0 18000000 		.4byte	.LVL60
 2543 01d4 0200     		.2byte	0x2
 2544 01d6 91       		.byte	0x91
 2545 01d7 6C       		.sleb128 -20
 2546 01d8 18000000 		.4byte	.LVL60
 2547 01dc 34000000 		.4byte	.LFE123
 2548 01e0 0400     		.2byte	0x4
 2549 01e2 F3       		.byte	0xf3
 2550 01e3 01       		.uleb128 0x1
 2551 01e4 51       		.byte	0x51
 2552 01e5 9F       		.byte	0x9f
 2553 01e6 00000000 		.4byte	0
 2554 01ea 00000000 		.4byte	0
 2555              	.LLST9:
 2556 01ee 00000000 		.4byte	.LVL57
 2557 01f2 0A000000 		.4byte	.LVL58
 2558 01f6 0100     		.2byte	0x1
 2559 01f8 52       		.byte	0x52
 2560 01f9 0A000000 		.4byte	.LVL58
 2561 01fd 18000000 		.4byte	.LVL60
 2562 0201 0100     		.2byte	0x1
 2563 0203 54       		.byte	0x54
 2564 0204 18000000 		.4byte	.LVL60
ARM GAS  /tmp/cc3MmEyx.s 			page 46


 2565 0208 20000000 		.4byte	.LVL61
 2566 020c 0300     		.2byte	0x3
 2567 020e 74       		.byte	0x74
 2568 020f 7F       		.sleb128 -1
 2569 0210 9F       		.byte	0x9f
 2570 0211 20000000 		.4byte	.LVL61
 2571 0215 34000000 		.4byte	.LFE123
 2572 0219 0100     		.2byte	0x1
 2573 021b 54       		.byte	0x54
 2574 021c 00000000 		.4byte	0
 2575 0220 00000000 		.4byte	0
 2576              		.section	.debug_aranges,"",%progbits
 2577 0000 44000000 		.4byte	0x44
 2578 0004 0200     		.2byte	0x2
 2579 0006 00000000 		.4byte	.Ldebug_info0
 2580 000a 04       		.byte	0x4
 2581 000b 00       		.byte	0
 2582 000c 0000     		.2byte	0
 2583 000e 0000     		.2byte	0
 2584 0010 00000000 		.4byte	.LFB120
 2585 0014 E0000000 		.4byte	.LFE120-.LFB120
 2586 0018 00000000 		.4byte	.LFB121
 2587 001c B6000000 		.4byte	.LFE121-.LFB121
 2588 0020 00000000 		.4byte	.LFB118
 2589 0024 70000000 		.4byte	.LFE118-.LFB118
 2590 0028 00000000 		.4byte	.LFB119
 2591 002c 04000000 		.4byte	.LFE119-.LFB119
 2592 0030 00000000 		.4byte	.LFB122
 2593 0034 3C000000 		.4byte	.LFE122-.LFB122
 2594 0038 00000000 		.4byte	.LFB123
 2595 003c 34000000 		.4byte	.LFE123-.LFB123
 2596 0040 00000000 		.4byte	0
 2597 0044 00000000 		.4byte	0
 2598              		.section	.debug_ranges,"",%progbits
 2599              	.Ldebug_ranges0:
 2600 0000 00000000 		.4byte	.LFB120
 2601 0004 E0000000 		.4byte	.LFE120
 2602 0008 00000000 		.4byte	.LFB121
 2603 000c B6000000 		.4byte	.LFE121
 2604 0010 00000000 		.4byte	.LFB118
 2605 0014 70000000 		.4byte	.LFE118
 2606 0018 00000000 		.4byte	.LFB119
 2607 001c 04000000 		.4byte	.LFE119
 2608 0020 00000000 		.4byte	.LFB122
 2609 0024 3C000000 		.4byte	.LFE122
 2610 0028 00000000 		.4byte	.LFB123
 2611 002c 34000000 		.4byte	.LFE123
 2612 0030 00000000 		.4byte	0
 2613 0034 00000000 		.4byte	0
 2614              		.section	.debug_line,"",%progbits
 2615              	.Ldebug_line0:
 2616 0000 E4040000 		.section	.debug_str,"MS",%progbits,1
 2616      02003203 
 2616      00000201 
 2616      FB0E0D00 
 2616      01010101 
 2617              	.LASF106:
ARM GAS  /tmp/cc3MmEyx.s 			page 47


 2618 0000 75774275 		.ascii	"uwBufferSize\000"
 2618      66666572 
 2618      53697A65 
 2618      00
 2619              	.LASF43:
 2620 000d 41504231 		.ascii	"APB1LPENR\000"
 2620      4C50454E 
 2620      5200
 2621              	.LASF111:
 2622 0017 63685468 		.ascii	"chThdSleep\000"
 2622      64536C65 
 2622      657000
 2623              	.LASF86:
 2624 0022 4552524F 		.ascii	"ERROR_SDRAM\000"
 2624      525F5344 
 2624      52414D00 
 2625              	.LASF101:
 2626 002e 464D435F 		.ascii	"FMC_SDRAMTimingInitStructure\000"
 2626      53445241 
 2626      4D54696D 
 2626      696E6749 
 2626      6E697453 
 2627              	.LASF85:
 2628 004b 4552524F 		.ascii	"ERROR_UNDERVOLT_33\000"
 2628      525F554E 
 2628      44455256 
 2628      4F4C545F 
 2628      333300
 2629              	.LASF19:
 2630 005e 466C6167 		.ascii	"FlagStatus\000"
 2630      53746174 
 2630      757300
 2631              	.LASF115:
 2632 0069 464D435F 		.ascii	"FMC_SDRAMInit\000"
 2632      53445241 
 2632      4D496E69 
 2632      7400
 2633              	.LASF71:
 2634 0077 464D435F 		.ascii	"FMC_CASLatency\000"
 2634      4341534C 
 2634      6174656E 
 2634      637900
 2635              	.LASF55:
 2636 0086 464D435F 		.ascii	"FMC_SelfRefreshTime\000"
 2636      53656C66 
 2636      52656672 
 2636      65736854 
 2636      696D6500 
 2637              	.LASF3:
 2638 009a 5F5F7569 		.ascii	"__uint8_t\000"
 2638      6E74385F 
 2638      7400
 2639              	.LASF95:
 2640 00a4 6D656D54 		.ascii	"memTest\000"
 2640      65737400 
 2641              	.LASF20:
 2642 00ac 44495341 		.ascii	"DISABLE\000"
ARM GAS  /tmp/cc3MmEyx.s 			page 48


 2642      424C4500 
 2643              	.LASF77:
 2644 00b4 464D435F 		.ascii	"FMC_SDRAMInitTypeDef\000"
 2644      53445241 
 2644      4D496E69 
 2644      74547970 
 2644      65446566 
 2645              	.LASF97:
 2646 00c9 464D435F 		.ascii	"FMC_SDRAMCommandStructure\000"
 2646      53445241 
 2646      4D436F6D 
 2646      6D616E64 
 2646      53747275 
 2647              	.LASF57:
 2648 00e3 464D435F 		.ascii	"FMC_WriteRecoveryTime\000"
 2648      57726974 
 2648      65526563 
 2648      6F766572 
 2648      7954696D 
 2649              	.LASF119:
 2650 00f9 49544D5F 		.ascii	"ITM_RxBuffer\000"
 2650      52784275 
 2650      66666572 
 2650      00
 2651              	.LASF39:
 2652 0106 41484231 		.ascii	"AHB1LPENR\000"
 2652      4C50454E 
 2652      5200
 2653              	.LASF51:
 2654 0110 44434B43 		.ascii	"DCKCFGR\000"
 2654      46475200 
 2655              	.LASF10:
 2656 0118 6C6F6E67 		.ascii	"long long int\000"
 2656      206C6F6E 
 2656      6720696E 
 2656      7400
 2657              	.LASF0:
 2658 0126 7369676E 		.ascii	"signed char\000"
 2658      65642063 
 2658      68617200 
 2659              	.LASF94:
 2660 0132 6E697465 		.ascii	"niter2\000"
 2660      723200
 2661              	.LASF25:
 2662 0139 41484231 		.ascii	"AHB1RSTR\000"
 2662      52535452 
 2662      00
 2663              	.LASF11:
 2664 0142 6C6F6E67 		.ascii	"long long unsigned int\000"
 2664      206C6F6E 
 2664      6720756E 
 2664      7369676E 
 2664      65642069 
 2665              	.LASF99:
 2666 0159 53445241 		.ascii	"SDRAM_Init\000"
 2666      4D5F496E 
 2666      697400
ARM GAS  /tmp/cc3MmEyx.s 			page 49


 2667              	.LASF7:
 2668 0164 6C6F6E67 		.ascii	"long int\000"
 2668      20696E74 
 2668      00
 2669              	.LASF30:
 2670 016d 41504232 		.ascii	"APB2RSTR\000"
 2670      52535452 
 2670      00
 2671              	.LASF64:
 2672 0176 464D435F 		.ascii	"FMC_ModeRegisterDefinition\000"
 2672      4D6F6465 
 2672      52656769 
 2672      73746572 
 2672      44656669 
 2673              	.LASF109:
 2674 0191 75775265 		.ascii	"uwReadAddress\000"
 2674      61644164 
 2674      64726573 
 2674      7300
 2675              	.LASF54:
 2676 019f 464D435F 		.ascii	"FMC_ExitSelfRefreshDelay\000"
 2676      45786974 
 2676      53656C66 
 2676      52656672 
 2676      65736844 
 2677              	.LASF21:
 2678 01b8 454E4142 		.ascii	"ENABLE\000"
 2678      4C4500
 2679              	.LASF112:
 2680 01bf 464D435F 		.ascii	"FMC_SDRAMCmdConfig\000"
 2680      53445241 
 2680      4D436D64 
 2680      436F6E66 
 2680      696700
 2681              	.LASF69:
 2682 01d2 464D435F 		.ascii	"FMC_SDMemoryDataWidth\000"
 2682      53444D65 
 2682      6D6F7279 
 2682      44617461 
 2682      57696474 
 2683              	.LASF14:
 2684 01e8 75696E74 		.ascii	"uint16_t\000"
 2684      31365F74 
 2684      00
 2685              	.LASF114:
 2686 01f1 464D435F 		.ascii	"FMC_SDRAMWriteProtectionConfig\000"
 2686      53445241 
 2686      4D577269 
 2686      74655072 
 2686      6F746563 
 2687              	.LASF98:
 2688 0210 746D7072 		.ascii	"tmpr\000"
 2688      00
 2689              	.LASF63:
 2690 0215 464D435F 		.ascii	"FMC_AutoRefreshNumber\000"
 2690      4175746F 
 2690      52656672 
ARM GAS  /tmp/cc3MmEyx.s 			page 50


 2690      6573684E 
 2690      756D6265 
 2691              	.LASF8:
 2692 022b 5F5F7569 		.ascii	"__uint32_t\000"
 2692      6E743332 
 2692      5F7400
 2693              	.LASF75:
 2694 0236 464D435F 		.ascii	"FMC_ReadPipeDelay\000"
 2694      52656164 
 2694      50697065 
 2694      44656C61 
 2694      7900
 2695              	.LASF117:
 2696 0248 2E2E2F73 		.ascii	"../sdram.c\000"
 2696      6472616D 
 2696      2E6300
 2697              	.LASF59:
 2698 0253 464D435F 		.ascii	"FMC_RCDDelay\000"
 2698      52434444 
 2698      656C6179 
 2698      00
 2699              	.LASF113:
 2700 0260 464D435F 		.ascii	"FMC_SetRefreshCount\000"
 2700      53657452 
 2700      65667265 
 2700      7368436F 
 2700      756E7400 
 2701              	.LASF89:
 2702 0274 6572726F 		.ascii	"error_flag_t\000"
 2702      725F666C 
 2702      61675F74 
 2702      00
 2703              	.LASF88:
 2704 0281 4552524F 		.ascii	"ERROR_CODEC_I2C\000"
 2704      525F434F 
 2704      4445435F 
 2704      49324300 
 2705              	.LASF12:
 2706 0291 756E7369 		.ascii	"unsigned int\000"
 2706      676E6564 
 2706      20696E74 
 2706      00
 2707              	.LASF74:
 2708 029e 464D435F 		.ascii	"FMC_ReadBurst\000"
 2708      52656164 
 2708      42757273 
 2708      7400
 2709              	.LASF118:
 2710 02ac 2F686F6D 		.ascii	"/home/sbcu/Dropbox/pcb-layouts/axo-on-discovery-boa"
 2710      652F7362 
 2710      63752F44 
 2710      726F7062 
 2710      6F782F70 
 2711 02df 72642F61 		.ascii	"rd/axoloti/firmware/flasher\000"
 2711      786F6C6F 
 2711      74692F66 
 2711      69726D77 
ARM GAS  /tmp/cc3MmEyx.s 			page 51


 2711      6172652F 
 2712              	.LASF9:
 2713 02fb 6C6F6E67 		.ascii	"long unsigned int\000"
 2713      20756E73 
 2713      69676E65 
 2713      6420696E 
 2713      7400
 2714              	.LASF104:
 2715 030d 70427566 		.ascii	"pBuffer\000"
 2715      66657200 
 2716              	.LASF90:
 2717 0315 6D656D53 		.ascii	"memSize\000"
 2717      697A6500 
 2718              	.LASF52:
 2719 031d 5243435F 		.ascii	"RCC_TypeDef\000"
 2719      54797065 
 2719      44656600 
 2720              	.LASF70:
 2721 0329 464D435F 		.ascii	"FMC_InternalBankNumber\000"
 2721      496E7465 
 2721      726E616C 
 2721      42616E6B 
 2721      4E756D62 
 2722              	.LASF56:
 2723 0340 464D435F 		.ascii	"FMC_RowCycleDelay\000"
 2723      526F7743 
 2723      79636C65 
 2723      44656C61 
 2723      7900
 2724              	.LASF5:
 2725 0352 73686F72 		.ascii	"short unsigned int\000"
 2725      7420756E 
 2725      7369676E 
 2725      65642069 
 2725      6E7400
 2726              	.LASF110:
 2727 0365 73657445 		.ascii	"setErrorFlag\000"
 2727      72726F72 
 2727      466C6167 
 2727      00
 2728              	.LASF49:
 2729 0372 504C4C49 		.ascii	"PLLI2SCFGR\000"
 2729      32534346 
 2729      475200
 2730              	.LASF23:
 2731 037d 504C4C43 		.ascii	"PLLCFGR\000"
 2731      46475200 
 2732              	.LASF105:
 2733 0385 75775772 		.ascii	"uwWriteAddress\000"
 2733      69746541 
 2733      64647265 
 2733      737300
 2734              	.LASF44:
 2735 0394 41504232 		.ascii	"APB2LPENR\000"
 2735      4C50454E 
 2735      5200
 2736              	.LASF2:
ARM GAS  /tmp/cc3MmEyx.s 			page 52


 2737 039e 73686F72 		.ascii	"short int\000"
 2737      7420696E 
 2737      7400
 2738              	.LASF92:
 2739 03a8 69746572 		.ascii	"iter\000"
 2739      00
 2740              	.LASF58:
 2741 03ad 464D435F 		.ascii	"FMC_RPDelay\000"
 2741      52504465 
 2741      6C617900 
 2742              	.LASF91:
 2743 03b9 62617365 		.ascii	"base\000"
 2743      00
 2744              	.LASF17:
 2745 03be 73697A65 		.ascii	"sizetype\000"
 2745      74797065 
 2745      00
 2746              	.LASF96:
 2747 03c7 53445241 		.ascii	"SDRAM_InitSequence\000"
 2747      4D5F496E 
 2747      69745365 
 2747      7175656E 
 2747      636500
 2748              	.LASF67:
 2749 03da 464D435F 		.ascii	"FMC_ColumnBitsNumber\000"
 2749      436F6C75 
 2749      6D6E4269 
 2749      74734E75 
 2749      6D626572 
 2750              	.LASF102:
 2751 03ef 636F6E66 		.ascii	"configSDRAM\000"
 2751      69675344 
 2751      52414D00 
 2752              	.LASF40:
 2753 03fb 41484232 		.ascii	"AHB2LPENR\000"
 2753      4C50454E 
 2753      5200
 2754              	.LASF22:
 2755 0405 46756E63 		.ascii	"FunctionalState\000"
 2755      74696F6E 
 2755      616C5374 
 2755      61746500 
 2756              	.LASF66:
 2757 0415 464D435F 		.ascii	"FMC_Bank\000"
 2757      42616E6B 
 2757      00
 2758              	.LASF93:
 2759 041e 6E697465 		.ascii	"niter\000"
 2759      7200
 2760              	.LASF107:
 2761 0424 77726974 		.ascii	"write_pointer\000"
 2761      655F706F 
 2761      696E7465 
 2761      7200
 2762              	.LASF50:
 2763 0432 504C4C53 		.ascii	"PLLSAICFGR\000"
 2763      41494346 
ARM GAS  /tmp/cc3MmEyx.s 			page 53


 2763      475200
 2764              	.LASF62:
 2765 043d 464D435F 		.ascii	"FMC_CommandTarget\000"
 2765      436F6D6D 
 2765      616E6454 
 2765      61726765 
 2765      7400
 2766              	.LASF28:
 2767 044f 52455345 		.ascii	"RESERVED0\000"
 2767      52564544 
 2767      3000
 2768              	.LASF31:
 2769 0459 52455345 		.ascii	"RESERVED1\000"
 2769      52564544 
 2769      3100
 2770              	.LASF35:
 2771 0463 52455345 		.ascii	"RESERVED2\000"
 2771      52564544 
 2771      3200
 2772              	.LASF120:
 2773 046d 464D435F 		.ascii	"FMC_GetFlagStatus\000"
 2773      47657446 
 2773      6C616753 
 2773      74617475 
 2773      7300
 2774              	.LASF42:
 2775 047f 52455345 		.ascii	"RESERVED4\000"
 2775      52564544 
 2775      3400
 2776              	.LASF45:
 2777 0489 52455345 		.ascii	"RESERVED5\000"
 2777      52564544 
 2777      3500
 2778              	.LASF47:
 2779 0493 52455345 		.ascii	"RESERVED6\000"
 2779      52564544 
 2779      3600
 2780              	.LASF18:
 2781 049d 52455345 		.ascii	"RESET\000"
 2781      5400
 2782              	.LASF78:
 2783 04a3 5F426F6F 		.ascii	"_Bool\000"
 2783      6C00
 2784              	.LASF15:
 2785 04a9 696E7433 		.ascii	"int32_t\000"
 2785      325F7400 
 2786              	.LASF1:
 2787 04b1 756E7369 		.ascii	"unsigned char\000"
 2787      676E6564 
 2787      20636861 
 2787      7200
 2788              	.LASF68:
 2789 04bf 464D435F 		.ascii	"FMC_RowBitsNumber\000"
 2789      526F7742 
 2789      6974734E 
 2789      756D6265 
 2789      7200
ARM GAS  /tmp/cc3MmEyx.s 			page 54


 2790              	.LASF83:
 2791 04d1 4552524F 		.ascii	"ERROR_OVERVOLT_33\000"
 2791      525F4F56 
 2791      4552564F 
 2791      4C545F33 
 2791      3300
 2792              	.LASF41:
 2793 04e3 41484233 		.ascii	"AHB3LPENR\000"
 2793      4C50454E 
 2793      5200
 2794              	.LASF37:
 2795 04ed 41504232 		.ascii	"APB2ENR\000"
 2795      454E5200 
 2796              	.LASF27:
 2797 04f5 41484233 		.ascii	"AHB3RSTR\000"
 2797      52535452 
 2797      00
 2798              	.LASF73:
 2799 04fe 464D435F 		.ascii	"FMC_SDClockPeriod\000"
 2799      5344436C 
 2799      6F636B50 
 2799      6572696F 
 2799      6400
 2800              	.LASF34:
 2801 0510 41484233 		.ascii	"AHB3ENR\000"
 2801      454E5200 
 2802              	.LASF38:
 2803 0518 52455345 		.ascii	"RESERVED3\000"
 2803      52564544 
 2803      3300
 2804              	.LASF81:
 2805 0522 4552524F 		.ascii	"ERROR_USBH_OVERCURRENT\000"
 2805      525F5553 
 2805      42485F4F 
 2805      56455243 
 2805      55525245 
 2806              	.LASF65:
 2807 0539 464D435F 		.ascii	"FMC_SDRAMCommandTypeDef\000"
 2807      53445241 
 2807      4D436F6D 
 2807      6D616E64 
 2807      54797065 
 2808              	.LASF16:
 2809 0551 75696E74 		.ascii	"uint32_t\000"
 2809      33325F74 
 2809      00
 2810              	.LASF53:
 2811 055a 464D435F 		.ascii	"FMC_LoadToActiveDelay\000"
 2811      4C6F6164 
 2811      546F4163 
 2811      74697665 
 2811      44656C61 
 2812              	.LASF80:
 2813 0570 63686172 		.ascii	"char\000"
 2813      00
 2814              	.LASF4:
 2815 0575 5F5F7569 		.ascii	"__uint16_t\000"
ARM GAS  /tmp/cc3MmEyx.s 			page 55


 2815      6E743136 
 2815      5F7400
 2816              	.LASF26:
 2817 0580 41484232 		.ascii	"AHB2RSTR\000"
 2817      52535452 
 2817      00
 2818              	.LASF79:
 2819 0589 73797374 		.ascii	"systime_t\000"
 2819      696D655F 
 2819      7400
 2820              	.LASF6:
 2821 0593 5F5F696E 		.ascii	"__int32_t\000"
 2821      7433325F 
 2821      7400
 2822              	.LASF60:
 2823 059d 464D435F 		.ascii	"FMC_SDRAMTimingInitTypeDef\000"
 2823      53445241 
 2823      4D54696D 
 2823      696E6749 
 2823      6E697454 
 2824              	.LASF36:
 2825 05b8 41504231 		.ascii	"APB1ENR\000"
 2825      454E5200 
 2826              	.LASF87:
 2827 05c0 4552524F 		.ascii	"ERROR_SDCARD\000"
 2827      525F5344 
 2827      43415244 
 2827      00
 2828              	.LASF33:
 2829 05cd 41484232 		.ascii	"AHB2ENR\000"
 2829      454E5200 
 2830              	.LASF108:
 2831 05d5 53445241 		.ascii	"SDRAM_ReadBuffer\000"
 2831      4D5F5265 
 2831      61644275 
 2831      66666572 
 2831      00
 2832              	.LASF116:
 2833 05e6 474E5520 		.ascii	"GNU C 4.9.3 20150529 (release) [ARM/embedded-4_9-br"
 2833      4320342E 
 2833      392E3320 
 2833      32303135 
 2833      30353239 
 2834 0619 616E6368 		.ascii	"anch revision 224288] -mcpu=cortex-m4 -mfloat-abi=h"
 2834      20726576 
 2834      6973696F 
 2834      6E203232 
 2834      34323838 
 2835 064c 61726420 		.ascii	"ard -mfpu=fpv4-sp-d16 -mno-thumb-interwork -mthumb "
 2835      2D6D6670 
 2835      753D6670 
 2835      76342D73 
 2835      702D6431 
 2836 067f 2D676764 		.ascii	"-ggdb -O2 -fomit-frame-pointer -falign-functions=16"
 2836      62202D4F 
 2836      32202D66 
 2836      6F6D6974 
ARM GAS  /tmp/cc3MmEyx.s 			page 56


 2836      2D667261 
 2837 06b2 202D6666 		.ascii	" -ffunction-sections -fdata-sections -fno-common -f"
 2837      756E6374 
 2837      696F6E2D 
 2837      73656374 
 2837      696F6E73 
 2838 06e5 73696E67 		.ascii	"single-precision-constant\000"
 2838      6C652D70 
 2838      72656369 
 2838      73696F6E 
 2838      2D636F6E 
 2839              	.LASF48:
 2840 06ff 53534347 		.ascii	"SSCGR\000"
 2840      5200
 2841              	.LASF29:
 2842 0705 41504231 		.ascii	"APB1RSTR\000"
 2842      52535452 
 2842      00
 2843              	.LASF72:
 2844 070e 464D435F 		.ascii	"FMC_WriteProtection\000"
 2844      57726974 
 2844      6550726F 
 2844      74656374 
 2844      696F6E00 
 2845              	.LASF46:
 2846 0722 42444352 		.ascii	"BDCR\000"
 2846      00
 2847              	.LASF61:
 2848 0727 464D435F 		.ascii	"FMC_CommandMode\000"
 2848      436F6D6D 
 2848      616E644D 
 2848      6F646500 
 2849              	.LASF13:
 2850 0737 75696E74 		.ascii	"uint8_t\000"
 2850      385F7400 
 2851              	.LASF76:
 2852 073f 464D435F 		.ascii	"FMC_SDRAMTimingStruct\000"
 2852      53445241 
 2852      4D54696D 
 2852      696E6753 
 2852      74727563 
 2853              	.LASF82:
 2854 0755 4552524F 		.ascii	"ERROR_OVERVOLT_50\000"
 2854      525F4F56 
 2854      4552564F 
 2854      4C545F35 
 2854      3000
 2855              	.LASF32:
 2856 0767 41484231 		.ascii	"AHB1ENR\000"
 2856      454E5200 
 2857              	.LASF24:
 2858 076f 43464752 		.ascii	"CFGR\000"
 2858      00
 2859              	.LASF84:
 2860 0774 4552524F 		.ascii	"ERROR_UNDERVOLT_50\000"
 2860      525F554E 
 2860      44455256 
ARM GAS  /tmp/cc3MmEyx.s 			page 57


 2860      4F4C545F 
 2860      353000
 2861              	.LASF100:
 2862 0787 464D435F 		.ascii	"FMC_SDRAMInitStructure\000"
 2862      53445241 
 2862      4D496E69 
 2862      74537472 
 2862      75637475 
 2863              	.LASF103:
 2864 079e 53445241 		.ascii	"SDRAM_WriteBuffer\000"
 2864      4D5F5772 
 2864      69746542 
 2864      75666665 
 2864      7200
 2865              		.ident	"GCC: (GNU Tools for ARM Embedded Processors) 4.9.3 20150529 (release) [ARM/embedded-4_9-br
ARM GAS  /tmp/cc3MmEyx.s 			page 58


DEFINED SYMBOLS
                            *ABS*:00000000 sdram.c
     /tmp/cc3MmEyx.s:21     .text.memTest:00000000 $t
     /tmp/cc3MmEyx.s:27     .text.memTest:00000000 memTest
     /tmp/cc3MmEyx.s:220    .text.memTest:000000dc $d
     /tmp/cc3MmEyx.s:225    .text.SDRAM_InitSequence:00000000 $t
     /tmp/cc3MmEyx.s:231    .text.SDRAM_InitSequence:00000000 SDRAM_InitSequence
     /tmp/cc3MmEyx.s:369    .text.SDRAM_Init:00000000 $t
     /tmp/cc3MmEyx.s:375    .text.SDRAM_Init:00000000 SDRAM_Init
     /tmp/cc3MmEyx.s:470    .text.SDRAM_Init:0000006c $d
     /tmp/cc3MmEyx.s:475    .text.configSDRAM:00000000 $t
     /tmp/cc3MmEyx.s:481    .text.configSDRAM:00000000 configSDRAM
     /tmp/cc3MmEyx.s:495    .text.SDRAM_WriteBuffer:00000000 $t
     /tmp/cc3MmEyx.s:501    .text.SDRAM_WriteBuffer:00000000 SDRAM_WriteBuffer
     /tmp/cc3MmEyx.s:573    .text.SDRAM_ReadBuffer:00000000 $t
     /tmp/cc3MmEyx.s:579    .text.SDRAM_ReadBuffer:00000000 SDRAM_ReadBuffer
                     .debug_frame:00000010 $d

UNDEFINED SYMBOLS
setErrorFlag
chThdSleep
FMC_GetFlagStatus
FMC_SDRAMCmdConfig
FMC_SetRefreshCount
FMC_SDRAMWriteProtectionConfig
FMC_SDRAMInit
