ARM GAS  /tmp/cc3MmEyx.s 			page 1


   1              		.syntax unified
   2              		.cpu cortex-m4
   3              		.eabi_attribute 27, 1
   4              		.eabi_attribute 28, 1
   5              		.fpu fpv4-sp-d16
   6              		.eabi_attribute 20, 1
   7              		.eabi_attribute 21, 1
   8              		.eabi_attribute 23, 3
   9              		.eabi_attribute 24, 1
  10              		.eabi_attribute 25, 1
  11              		.eabi_attribute 26, 1
  12              		.eabi_attribute 30, 2
  13              		.eabi_attribute 34, 1
  14              		.eabi_attribute 18, 4
  15              		.thumb
  16              		.file	"sdram.c"
  17              		.text
  18              	.Ltext0:
  19              		.cfi_sections	.debug_frame
  20              		.section	.text.memTest,"ax",%progbits
  21              		.align	2
  22              		.p2align 4,,15
  23              		.global	memTest
  24              		.thumb
  25              		.thumb_func
  26              		.type	memTest, %function
  27              	memTest:
  28              	.LFB120:
  29              		.file 1 "../sdram.c"
  30              		.loc 1 129 0
  31              		.cfi_startproc
  32              		@ args = 0, pretend = 0, frame = 16
  33              		@ frame_needed = 0, uses_anonymous_args = 0
  34              	.LVL0:
  35 0000 10B5     		push	{r4, lr}
  36              		.cfi_def_cfa_offset 8
  37              		.cfi_offset 4, -8
  38              		.cfi_offset 14, -4
  39 0002 84B0     		sub	sp, sp, #16
  40              		.cfi_def_cfa_offset 24
  41              		.loc 1 138 0
  42 0004 0023     		movs	r3, #0
  43              		.loc 1 139 0
  44 0006 1022     		movs	r2, #16
  45              		.loc 1 138 0
  46 0008 0193     		str	r3, [sp, #4]
  47              		.loc 1 139 0
  48 000a 0292     		str	r2, [sp, #8]
  49              		.loc 1 140 0
  50 000c 0392     		str	r2, [sp, #12]
  51              		.loc 1 143 0
  52 000e 0193     		str	r3, [sp, #4]
  53 0010 019B     		ldr	r3, [sp, #4]
  54 0012 029A     		ldr	r2, [sp, #8]
  55 0014 9A42     		cmp	r2, r3
  56 0016 28DD     		ble	.L9
  57              	.LBB2:
ARM GAS  /tmp/cc3MmEyx.s 			page 2


  58              		.loc 1 147 0
  59 0018 3049     		ldr	r1, .L26
  60              	.L15:
  61              		.loc 1 144 0
  62 001a 019B     		ldr	r3, [sp, #4]
  63              	.LVL1:
  64 001c 4FF04042 		mov	r2, #-1073741824
  65              	.LVL2:
  66              	.L5:
  67              		.loc 1 147 0 discriminator 3
  68 0020 01FB03F3 		mul	r3, r1, r3
  69              	.LVL3:
  70 0024 0133     		adds	r3, r3, #1
  71              	.LVL4:
  72              		.loc 1 149 0 discriminator 3
  73 0026 42F8043B 		str	r3, [r2], #4
  74              		.loc 1 146 0 discriminator 3
  75 002a 12F17E5F 		cmn	r2, #1065353216
  76 002e F7D1     		bne	.L5
  77              		.loc 1 152 0
  78 0030 0198     		ldr	r0, [sp, #4]
  79              	.LVL5:
  80 0032 4FF04043 		mov	r3, #-1073741824
  81 0036 02E0     		b	.L8
  82              	.LVL6:
  83              	.L6:
  84              		.loc 1 153 0 discriminator 2
  85 0038 13F17E5F 		cmn	r3, #1065353216
  86 003c 0ED0     		beq	.L24
  87              	.L8:
  88              		.loc 1 154 0
  89 003e 01FB00F2 		mul	r2, r1, r0
  90              	.LVL7:
  91              		.loc 1 155 0
  92 0042 1868     		ldr	r0, [r3]
  93              	.LVL8:
  94              		.loc 1 154 0
  95 0044 0132     		adds	r2, r2, #1
  96              		.loc 1 155 0
  97 0046 9042     		cmp	r0, r2
  98 0048 03F10403 		add	r3, r3, #4
  99 004c F4D0     		beq	.L6
 100              		.loc 1 156 0
 101 004e 0520     		movs	r0, #5
 102              	.LVL9:
 103 0050 FFF7FEFF 		bl	setErrorFlag
 104              	.LVL10:
 105              	.L7:
 106              		.loc 1 158 0 discriminator 1
 107 0054 6420     		movs	r0, #100
 108 0056 FFF7FEFF 		bl	chThdSleep
 109              	.LVL11:
 110              		.loc 1 159 0 discriminator 1
 111 005a FBE7     		b	.L7
 112              	.LVL12:
 113              	.L24:
 114              	.LBE2:
ARM GAS  /tmp/cc3MmEyx.s 			page 3


 115              		.loc 1 143 0 discriminator 2
 116 005c 019B     		ldr	r3, [sp, #4]
 117 005e 0133     		adds	r3, r3, #1
 118 0060 0193     		str	r3, [sp, #4]
 119 0062 019A     		ldr	r2, [sp, #4]
 120 0064 029B     		ldr	r3, [sp, #8]
 121 0066 9A42     		cmp	r2, r3
 122 0068 D7DB     		blt	.L15
 123              	.LVL13:
 124              	.L9:
 125              		.loc 1 166 0
 126 006a 0023     		movs	r3, #0
 127 006c 0193     		str	r3, [sp, #4]
 128 006e 019B     		ldr	r3, [sp, #4]
 129 0070 039A     		ldr	r2, [sp, #12]
 130 0072 9A42     		cmp	r2, r3
 131 0074 30DD     		ble	.L1
 132              	.LBB3:
 133              		.loc 1 170 0
 134 0076 194C     		ldr	r4, .L26
 135              	.L14:
 136              		.loc 1 167 0
 137 0078 019B     		ldr	r3, [sp, #4]
 138              	.LVL14:
 139              		.loc 1 169 0
 140 007a 0022     		movs	r2, #0
 141              	.LVL15:
 142              	.L10:
 143              		.loc 1 170 0 discriminator 3
 144 007c 04FB03F3 		mul	r3, r4, r3
 145              	.LVL16:
 146 0080 0133     		adds	r3, r3, #1
 147              	.LVL17:
 148              		.loc 1 171 0 discriminator 3
 149 0082 C3F31601 		ubfx	r1, r3, #0, #23
 150 0086 D0B2     		uxtb	r0, r2
 151 0088 01F14041 		add	r1, r1, #-1073741824
 152              		.loc 1 169 0 discriminator 3
 153 008c 0132     		adds	r2, r2, #1
 154              	.LVL18:
 155 008e B2F5801F 		cmp	r2, #1048576
 156              		.loc 1 171 0 discriminator 3
 157 0092 0870     		strb	r0, [r1]
 158              		.loc 1 169 0 discriminator 3
 159 0094 F2D1     		bne	.L10
 160              		.loc 1 174 0
 161 0096 019B     		ldr	r3, [sp, #4]
 162              	.LVL19:
 163              		.loc 1 175 0
 164 0098 0022     		movs	r2, #0
 165 009a 02E0     		b	.L13
 166              	.LVL20:
 167              	.L11:
 168              		.loc 1 175 0 is_stmt 0 discriminator 2
 169 009c B2F5801F 		cmp	r2, #1048576
 170 00a0 13D0     		beq	.L25
 171              	.LVL21:
ARM GAS  /tmp/cc3MmEyx.s 			page 4


 172              	.L13:
 173              		.loc 1 176 0 is_stmt 1
 174 00a2 04FB03F3 		mul	r3, r4, r3
 175              	.LVL22:
 176 00a6 0133     		adds	r3, r3, #1
 177              	.LVL23:
 178              		.loc 1 177 0
 179 00a8 C3F31600 		ubfx	r0, r3, #0, #23
 180 00ac 00F14040 		add	r0, r0, #-1073741824
 181 00b0 D1B2     		uxtb	r1, r2
 182 00b2 0078     		ldrb	r0, [r0]	@ zero_extendqisi2
 183 00b4 8842     		cmp	r0, r1
 184 00b6 02F10102 		add	r2, r2, #1
 185              	.LVL24:
 186 00ba EFD0     		beq	.L11
 187              		.loc 1 178 0
 188 00bc 0520     		movs	r0, #5
 189 00be FFF7FEFF 		bl	setErrorFlag
 190              	.LVL25:
 191              	.L12:
 192              		.loc 1 180 0 discriminator 1
 193 00c2 6420     		movs	r0, #100
 194 00c4 FFF7FEFF 		bl	chThdSleep
 195              	.LVL26:
 196              		.loc 1 181 0 discriminator 1
 197 00c8 FBE7     		b	.L12
 198              	.LVL27:
 199              	.L25:
 200              	.LBE3:
 201              		.loc 1 166 0 discriminator 2
 202 00ca 019B     		ldr	r3, [sp, #4]
 203              	.LVL28:
 204 00cc 0133     		adds	r3, r3, #1
 205 00ce 0193     		str	r3, [sp, #4]
 206 00d0 019A     		ldr	r2, [sp, #4]
 207              	.LVL29:
 208 00d2 039B     		ldr	r3, [sp, #12]
 209 00d4 9A42     		cmp	r2, r3
 210 00d6 CFDB     		blt	.L14
 211              	.L1:
 212              		.loc 1 185 0
 213 00d8 04B0     		add	sp, sp, #16
 214              		.cfi_def_cfa_offset 8
 215              		@ sp needed
 216 00da 10BD     		pop	{r4, pc}
 217              	.L27:
 218              		.align	2
 219              	.L26:
 220 00dc 354E5A01 		.word	22695477
 221              		.cfi_endproc
 222              	.LFE120:
 223              		.size	memTest, .-memTest
 224              		.section	.text.SDRAM_InitSequence,"ax",%progbits
 225              		.align	2
 226              		.p2align 4,,15
 227              		.global	SDRAM_InitSequence
 228              		.thumb
ARM GAS  /tmp/cc3MmEyx.s 			page 5


 229              		.thumb_func
 230              		.type	SDRAM_InitSequence, %function
 231              	SDRAM_InitSequence:
 232              	.LFB121:
 233              		.loc 1 192 0
 234              		.cfi_startproc
 235              		@ args = 0, pretend = 0, frame = 16
 236              		@ frame_needed = 0, uses_anonymous_args = 0
 237              	.LVL30:
 238 0000 10B5     		push	{r4, lr}
 239              		.cfi_def_cfa_offset 8
 240              		.cfi_offset 4, -8
 241              		.cfi_offset 14, -4
 242 0002 84B0     		sub	sp, sp, #16
 243              		.cfi_def_cfa_offset 24
 244              		.loc 1 198 0
 245 0004 0123     		movs	r3, #1
 246              		.loc 1 199 0
 247 0006 1021     		movs	r1, #16
 248              		.loc 1 201 0
 249 0008 0022     		movs	r2, #0
 250              		.loc 1 198 0
 251 000a 0093     		str	r3, [sp]
 252              		.loc 1 200 0
 253 000c 0293     		str	r3, [sp, #8]
 254              		.loc 1 199 0
 255 000e 0191     		str	r1, [sp, #4]
 256              		.loc 1 201 0
 257 0010 0392     		str	r2, [sp, #12]
 258              	.L29:
 259              		.loc 1 203 0 discriminator 1
 260 0012 0020     		movs	r0, #0
 261 0014 2021     		movs	r1, #32
 262 0016 FFF7FEFF 		bl	FMC_GetFlagStatus
 263              	.LVL31:
 264 001a 0446     		mov	r4, r0
 265 001c 0028     		cmp	r0, #0
 266 001e F8D1     		bne	.L29
 267              		.loc 1 206 0
 268 0020 6846     		mov	r0, sp
 269 0022 FFF7FEFF 		bl	FMC_SDRAMCmdConfig
 270              	.LVL32:
 271              		.loc 1 214 0
 272 0026 0120     		movs	r0, #1
 273 0028 FFF7FEFF 		bl	chThdSleep
 274              	.LVL33:
 275              		.loc 1 218 0
 276 002c 0221     		movs	r1, #2
 277              		.loc 1 219 0
 278 002e 1022     		movs	r2, #16
 279              		.loc 1 220 0
 280 0030 0123     		movs	r3, #1
 281 0032 8DE81E00 		stmia	sp, {r1, r2, r3, r4}
 282              	.L30:
 283              		.loc 1 223 0 discriminator 1
 284 0036 0020     		movs	r0, #0
 285 0038 2021     		movs	r1, #32
ARM GAS  /tmp/cc3MmEyx.s 			page 6


 286 003a FFF7FEFF 		bl	FMC_GetFlagStatus
 287              	.LVL34:
 288 003e 0446     		mov	r4, r0
 289 0040 0028     		cmp	r0, #0
 290 0042 F8D1     		bne	.L30
 291              		.loc 1 226 0
 292 0044 6846     		mov	r0, sp
 293 0046 FFF7FEFF 		bl	FMC_SDRAMCmdConfig
 294              	.LVL35:
 295              		.loc 1 230 0
 296 004a 0321     		movs	r1, #3
 297              		.loc 1 231 0
 298 004c 1022     		movs	r2, #16
 299              		.loc 1 232 0
 300 004e 0423     		movs	r3, #4
 301 0050 8DE81E00 		stmia	sp, {r1, r2, r3, r4}
 302              	.L31:
 303              		.loc 1 235 0 discriminator 1
 304 0054 0020     		movs	r0, #0
 305 0056 2021     		movs	r1, #32
 306 0058 FFF7FEFF 		bl	FMC_GetFlagStatus
 307              	.LVL36:
 308 005c 0028     		cmp	r0, #0
 309 005e F9D1     		bne	.L31
 310              		.loc 1 238 0
 311 0060 6846     		mov	r0, sp
 312 0062 FFF7FEFF 		bl	FMC_SDRAMCmdConfig
 313              	.LVL37:
 314              	.L32:
 315              		.loc 1 241 0 discriminator 1
 316 0066 0020     		movs	r0, #0
 317 0068 2021     		movs	r1, #32
 318 006a FFF7FEFF 		bl	FMC_GetFlagStatus
 319              	.LVL38:
 320 006e 0028     		cmp	r0, #0
 321 0070 F9D1     		bne	.L32
 322              		.loc 1 244 0
 323 0072 6846     		mov	r0, sp
 324 0074 FFF7FEFF 		bl	FMC_SDRAMCmdConfig
 325              	.LVL39:
 326              		.loc 1 258 0
 327 0078 0420     		movs	r0, #4
 328 007a 1021     		movs	r1, #16
 329 007c 0122     		movs	r2, #1
 330 007e 40F22123 		movw	r3, #545
 331 0082 8DE80F00 		stmia	sp, {r0, r1, r2, r3}
 332              	.L33:
 333              		.loc 1 260 0 discriminator 1
 334 0086 0020     		movs	r0, #0
 335 0088 2021     		movs	r1, #32
 336 008a FFF7FEFF 		bl	FMC_GetFlagStatus
 337              	.LVL40:
 338 008e 0028     		cmp	r0, #0
 339 0090 F9D1     		bne	.L33
 340              		.loc 1 263 0
 341 0092 6846     		mov	r0, sp
 342 0094 FFF7FEFF 		bl	FMC_SDRAMCmdConfig
ARM GAS  /tmp/cc3MmEyx.s 			page 7


 343              	.LVL41:
 344              		.loc 1 270 0
 345 0098 40F2AB20 		movw	r0, #683
 346 009c FFF7FEFF 		bl	FMC_SetRefreshCount
 347              	.LVL42:
 348              	.L34:
 349              		.loc 1 272 0 discriminator 1
 350 00a0 2021     		movs	r1, #32
 351 00a2 0020     		movs	r0, #0
 352 00a4 FFF7FEFF 		bl	FMC_GetFlagStatus
 353              	.LVL43:
 354 00a8 0146     		mov	r1, r0
 355 00aa 0028     		cmp	r0, #0
 356 00ac F8D1     		bne	.L34
 357              		.loc 1 275 0
 358 00ae FFF7FEFF 		bl	FMC_SDRAMWriteProtectionConfig
 359              	.LVL44:
 360              		.loc 1 276 0
 361 00b2 04B0     		add	sp, sp, #16
 362              		.cfi_def_cfa_offset 8
 363              		@ sp needed
 364 00b4 10BD     		pop	{r4, pc}
 365              		.cfi_endproc
 366              	.LFE121:
 367              		.size	SDRAM_InitSequence, .-SDRAM_InitSequence
 368 00b6 00BF     		.section	.text.SDRAM_Init,"ax",%progbits
 369              		.align	2
 370              		.p2align 4,,15
 371              		.global	SDRAM_Init
 372              		.thumb
 373              		.thumb_func
 374              		.type	SDRAM_Init, %function
 375              	SDRAM_Init:
 376              	.LFB118:
 377              		.loc 1 61 0
 378              		.cfi_startproc
 379              		@ args = 0, pretend = 0, frame = 72
 380              		@ frame_needed = 0, uses_anonymous_args = 0
 381 0000 2DE9F041 		push	{r4, r5, r6, r7, r8, lr}
 382              		.cfi_def_cfa_offset 24
 383              		.cfi_offset 4, -24
 384              		.cfi_offset 5, -20
 385              		.cfi_offset 6, -16
 386              		.cfi_offset 7, -12
 387              		.cfi_offset 8, -8
 388              		.cfi_offset 14, -4
 389              		.loc 1 66 0
 390 0004 194A     		ldr	r2, .L44
 391 0006 936B     		ldr	r3, [r2, #56]
 392              		.loc 1 61 0
 393 0008 92B0     		sub	sp, sp, #72
 394              		.cfi_def_cfa_offset 96
 395              		.loc 1 66 0
 396 000a 43F00103 		orr	r3, r3, #1
 397 000e 9363     		str	r3, [r2, #56]
 398              		.loc 1 76 0
 399 0010 0421     		movs	r1, #4
ARM GAS  /tmp/cc3MmEyx.s 			page 8


 400              		.loc 1 72 0
 401 0012 0223     		movs	r3, #2
 402              		.loc 1 87 0
 403 0014 0022     		movs	r2, #0
 404              		.loc 1 93 0
 405 0016 4FF0400C 		mov	ip, #64
 406              		.loc 1 94 0
 407 001a 4FF4807E 		mov	lr, #256
 408              		.loc 1 74 0
 409 001e 0724     		movs	r4, #7
 410              		.loc 1 102 0
 411 0020 07A8     		add	r0, sp, #28
 412              		.loc 1 92 0
 413 0022 4FF01008 		mov	r8, #16
 414              		.loc 1 96 0
 415 0026 4FF40067 		mov	r7, #2048
 416              		.loc 1 97 0
 417 002a 4FF48056 		mov	r6, #4096
 418              		.loc 1 98 0
 419 002e 4FF40055 		mov	r5, #8192
 420              		.loc 1 72 0
 421 0032 0093     		str	r3, [sp]
 422              		.loc 1 80 0
 423 0034 0493     		str	r3, [sp, #16]
 424              		.loc 1 82 0
 425 0036 0593     		str	r3, [sp, #20]
 426              		.loc 1 84 0
 427 0038 0693     		str	r3, [sp, #24]
 428              		.loc 1 76 0
 429 003a 0291     		str	r1, [sp, #8]
 430              		.loc 1 91 0
 431 003c 0991     		str	r1, [sp, #36]
 432              		.loc 1 87 0
 433 003e 0792     		str	r2, [sp, #28]
 434              		.loc 1 89 0
 435 0040 0892     		str	r2, [sp, #32]
 436              		.loc 1 95 0
 437 0042 0D92     		str	r2, [sp, #52]
 438              		.loc 1 93 0
 439 0044 CDF82CC0 		str	ip, [sp, #44]
 440              		.loc 1 94 0
 441 0048 CDF830E0 		str	lr, [sp, #48]
 442              		.loc 1 74 0
 443 004c 0194     		str	r4, [sp, #4]
 444              		.loc 1 78 0
 445 004e 0394     		str	r4, [sp, #12]
 446              		.loc 1 92 0
 447 0050 CDF82880 		str	r8, [sp, #40]
 448              		.loc 1 96 0
 449 0054 0E97     		str	r7, [sp, #56]
 450              		.loc 1 97 0
 451 0056 0F96     		str	r6, [sp, #60]
 452              		.loc 1 98 0
 453 0058 1095     		str	r5, [sp, #64]
 454              		.loc 1 99 0
 455 005a CDF844D0 		str	sp, [sp, #68]
 456              		.loc 1 102 0
ARM GAS  /tmp/cc3MmEyx.s 			page 9


 457 005e FFF7FEFF 		bl	FMC_SDRAMInit
 458              	.LVL45:
 459              		.loc 1 105 0
 460 0062 FFF7FEFF 		bl	SDRAM_InitSequence
 461              	.LVL46:
 462              		.loc 1 107 0
 463 0066 12B0     		add	sp, sp, #72
 464              		.cfi_def_cfa_offset 24
 465              		@ sp needed
 466 0068 BDE8F081 		pop	{r4, r5, r6, r7, r8, pc}
 467              	.L45:
 468              		.align	2
 469              	.L44:
 470 006c 00380240 		.word	1073887232
 471              		.cfi_endproc
 472              	.LFE118:
 473              		.size	SDRAM_Init, .-SDRAM_Init
 474              		.section	.text.configSDRAM,"ax",%progbits
 475              		.align	2
 476              		.p2align 4,,15
 477              		.global	configSDRAM
 478              		.thumb
 479              		.thumb_func
 480              		.type	configSDRAM, %function
 481              	configSDRAM:
 482              	.LFB119:
 483              		.loc 1 109 0
 484              		.cfi_startproc
 485              		@ args = 0, pretend = 0, frame = 0
 486              		@ frame_needed = 0, uses_anonymous_args = 0
 487              		@ link register save eliminated.
 488              		.loc 1 110 0
 489 0000 FFF7FEBF 		b	SDRAM_Init
 490              	.LVL47:
 491              		.cfi_endproc
 492              	.LFE119:
 493              		.size	configSDRAM, .-configSDRAM
 494              		.section	.text.SDRAM_WriteBuffer,"ax",%progbits
 495              		.align	2
 496              		.p2align 4,,15
 497              		.global	SDRAM_WriteBuffer
 498              		.thumb
 499              		.thumb_func
 500              		.type	SDRAM_WriteBuffer, %function
 501              	SDRAM_WriteBuffer:
 502              	.LFB122:
 503              		.loc 1 287 0
 504              		.cfi_startproc
 505              		@ args = 0, pretend = 0, frame = 8
 506              		@ frame_needed = 0, uses_anonymous_args = 0
 507              	.LVL48:
 508 0000 30B5     		push	{r4, r5, lr}
 509              		.cfi_def_cfa_offset 12
 510              		.cfi_offset 4, -12
 511              		.cfi_offset 5, -8
 512              		.cfi_offset 14, -4
 513 0002 0546     		mov	r5, r0
ARM GAS  /tmp/cc3MmEyx.s 			page 10


 514 0004 83B0     		sub	sp, sp, #12
 515              		.cfi_def_cfa_offset 24
 516              		.loc 1 292 0
 517 0006 0020     		movs	r0, #0
 518              	.LVL49:
 519              		.loc 1 287 0
 520 0008 0B46     		mov	r3, r1
 521              		.loc 1 292 0
 522 000a 0146     		mov	r1, r0
 523              	.LVL50:
 524              		.loc 1 289 0
 525 000c 0193     		str	r3, [sp, #4]
 526              		.loc 1 287 0
 527 000e 1446     		mov	r4, r2
 528              		.loc 1 292 0
 529 0010 FFF7FEFF 		bl	FMC_SDRAMWriteProtectionConfig
 530              	.LVL51:
 531              	.L48:
 532              		.loc 1 295 0 discriminator 1
 533 0014 0020     		movs	r0, #0
 534 0016 2021     		movs	r1, #32
 535 0018 FFF7FEFF 		bl	FMC_GetFlagStatus
 536              	.LVL52:
 537 001c 0028     		cmp	r0, #0
 538 001e F9D1     		bne	.L48
 539              		.loc 1 299 0 discriminator 1
 540 0020 54B1     		cbz	r4, .L47
 541              	.LVL53:
 542              	.L50:
 543              		.loc 1 301 0 discriminator 2
 544 0022 019A     		ldr	r2, [sp, #4]
 545              	.LVL54:
 546              		.loc 1 304 0 discriminator 2
 547 0024 019B     		ldr	r3, [sp, #4]
 548              		.loc 1 301 0 discriminator 2
 549 0026 55F8041B 		ldr	r1, [r5], #4
 550              	.LVL55:
 551 002a 02F14042 		add	r2, r2, #-1073741824
 552              		.loc 1 304 0 discriminator 2
 553 002e 0433     		adds	r3, r3, #4
 554              		.loc 1 299 0 discriminator 2
 555 0030 013C     		subs	r4, r4, #1
 556              	.LVL56:
 557              		.loc 1 301 0 discriminator 2
 558 0032 1160     		str	r1, [r2]
 559              		.loc 1 304 0 discriminator 2
 560 0034 0193     		str	r3, [sp, #4]
 561              		.loc 1 299 0 discriminator 2
 562 0036 F4D1     		bne	.L50
 563              	.L47:
 564              		.loc 1 307 0
 565 0038 03B0     		add	sp, sp, #12
 566              		.cfi_def_cfa_offset 12
 567              		@ sp needed
 568 003a 30BD     		pop	{r4, r5, pc}
 569              		.cfi_endproc
 570              	.LFE122:
ARM GAS  /tmp/cc3MmEyx.s 			page 11


 571              		.size	SDRAM_WriteBuffer, .-SDRAM_WriteBuffer
 572              		.section	.text.SDRAM_ReadBuffer,"ax",%progbits
 573              		.align	2
 574              		.p2align 4,,15
 575              		.global	SDRAM_ReadBuffer
 576              		.thumb
 577              		.thumb_func
 578              		.type	SDRAM_ReadBuffer, %function
 579              	SDRAM_ReadBuffer:
 580              	.LFB123:
 581              		.loc 1 318 0
 582              		.cfi_startproc
 583              		@ args = 0, pretend = 0, frame = 8
 584              		@ frame_needed = 0, uses_anonymous_args = 0
 585              	.LVL57:
 586 0000 30B5     		push	{r4, r5, lr}
 587              		.cfi_def_cfa_offset 12
 588              		.cfi_offset 4, -12
 589              		.cfi_offset 5, -8
 590              		.cfi_offset 14, -4
 591 0002 83B0     		sub	sp, sp, #12
 592              		.cfi_def_cfa_offset 24
 593              		.loc 1 318 0
 594 0004 0546     		mov	r5, r0
 595              		.loc 1 320 0
 596 0006 0191     		str	r1, [sp, #4]
 597              		.loc 1 318 0
 598 0008 1446     		mov	r4, r2
 599              	.LVL58:
 600              	.L56:
 601              		.loc 1 323 0 discriminator 1
 602 000a 0020     		movs	r0, #0
 603 000c 2021     		movs	r1, #32
 604 000e FFF7FEFF 		bl	FMC_GetFlagStatus
 605              	.LVL59:
 606 0012 0028     		cmp	r0, #0
 607 0014 F9D1     		bne	.L56
 608              		.loc 1 327 0 discriminator 1
 609 0016 5CB1     		cbz	r4, .L55
 610              	.LVL60:
 611              	.L58:
 612              		.loc 1 328 0 discriminator 2
 613 0018 019B     		ldr	r3, [sp, #4]
 614 001a 03F14043 		add	r3, r3, #-1073741824
 615              		.loc 1 327 0 discriminator 2
 616 001e 013C     		subs	r4, r4, #1
 617              	.LVL61:
 618              		.loc 1 328 0 discriminator 2
 619 0020 1A68     		ldr	r2, [r3]
 620              		.loc 1 331 0 discriminator 2
 621 0022 019B     		ldr	r3, [sp, #4]
 622              		.loc 1 328 0 discriminator 2
 623 0024 45F8042B 		str	r2, [r5], #4
 624              	.LVL62:
 625              		.loc 1 331 0 discriminator 2
 626 0028 03F10403 		add	r3, r3, #4
 627 002c 0193     		str	r3, [sp, #4]
ARM GAS  /tmp/cc3MmEyx.s 			page 12


 628              		.loc 1 327 0 discriminator 2
 629 002e F3D1     		bne	.L58
 630              	.L55:
 631              		.loc 1 333 0
 632 0030 03B0     		add	sp, sp, #12
 633              		.cfi_def_cfa_offset 12
 634              		@ sp needed
 635 0032 30BD     		pop	{r4, r5, pc}
 636              		.cfi_endproc
 637              	.LFE123:
 638              		.size	SDRAM_ReadBuffer, .-SDRAM_ReadBuffer
 639              		.text
 640              	.Letext0:
 641              		.file 2 "/home/sbcu/Dropbox/pcb-layouts/axo-on-discovery-board/axoloti/platform_linux/arm-none-eab
 642              		.file 3 "/home/sbcu/Dropbox/pcb-layouts/axo-on-discovery-board/axoloti/platform_linux/arm-none-eab
 643              		.file 4 "/home/sbcu/Dropbox/pcb-layouts/axo-on-discovery-board/axoloti/platform_linux/../chibios/o
 644              		.file 5 "../stm32f4xx_fmc.h"
 645              		.file 6 "/home/sbcu/Dropbox/pcb-layouts/axo-on-discovery-board/axoloti/platform_linux/../chibios/o
 646              		.file 7 "../sysmon.h"
 647              		.file 8 "/home/sbcu/Dropbox/pcb-layouts/axo-on-discovery-board/axoloti/platform_linux/../chibios/o
 648              		.file 9 "/home/sbcu/Dropbox/pcb-layouts/axo-on-discovery-board/axoloti/platform_linux/../chibios/o