ARM GAS  /tmp/ccha5eHe.s 			page 1


   1              		.syntax unified
   2              		.cpu cortex-m4
   3              		.eabi_attribute 27, 1
   4              		.eabi_attribute 28, 1
   5              		.fpu fpv4-sp-d16
   6              		.eabi_attribute 20, 1
   7              		.eabi_attribute 21, 1
   8              		.eabi_attribute 23, 3
   9              		.eabi_attribute 24, 1
  10              		.eabi_attribute 25, 1
  11              		.eabi_attribute 26, 1
  12              		.eabi_attribute 30, 2
  13              		.eabi_attribute 34, 1
  14              		.eabi_attribute 18, 4
  15              		.thumb
  16              		.file	"shell.c"
  17              		.text
  18              	.Ltext0:
  19              		.cfi_sections	.debug_frame
  20              		.section	.text.chprintf,"ax",%progbits
  21              		.align	2
  22              		.p2align 4,,15
  23              		.thumb
  24              		.thumb_func
  25              		.type	chprintf, %function
  26              	chprintf:
  27              	.LFB118:
  28              		.file 1 "/home/sbcu/Dropbox/pcb-layouts/axo-on-discovery-board/axoloti/platform_linux/../chibios/o
  29              		.loc 1 69 0
  30              		.cfi_startproc
  31              		@ args = 4, pretend = 12, frame = 8
  32              		@ frame_needed = 0, uses_anonymous_args = 1
  33              	.LVL0:
  34 0000 0EB4     		push	{r1, r2, r3}
  35              		.cfi_def_cfa_offset 12
  36              		.cfi_offset 1, -12
  37              		.cfi_offset 2, -8
  38              		.cfi_offset 3, -4
  39 0002 00B5     		push	{lr}
  40              		.cfi_def_cfa_offset 16
  41              		.cfi_offset 14, -16
  42 0004 82B0     		sub	sp, sp, #8
  43              		.cfi_def_cfa_offset 24
  44              		.loc 1 69 0
  45 0006 03AA     		add	r2, sp, #12
  46 0008 52F8041B 		ldr	r1, [r2], #4
  47              		.loc 1 72 0
  48 000c 0192     		str	r2, [sp, #4]
  49              		.loc 1 73 0
  50 000e FFF7FEFF 		bl	chvprintf
  51              	.LVL1:
  52              		.loc 1 75 0
  53 0012 02B0     		add	sp, sp, #8
  54              		.cfi_def_cfa_offset 16
  55              		@ sp needed
  56 0014 5DF804EB 		ldr	lr, [sp], #4
  57              		.cfi_restore 14
ARM GAS  /tmp/ccha5eHe.s 			page 2


  58              		.cfi_def_cfa_offset 12
  59 0018 03B0     		add	sp, sp, #12
  60              		.cfi_restore 3
  61              		.cfi_restore 2
  62              		.cfi_restore 1
  63              		.cfi_def_cfa_offset 0
  64 001a 7047     		bx	lr
  65              		.cfi_endproc
  66              	.LFE118:
  67              		.size	chprintf, .-chprintf
  68              		.section	.text.cmd_systime,"ax",%progbits
  69              		.align	2
  70              		.p2align 4,,15
  71              		.thumb
  72              		.thumb_func
  73              		.type	cmd_systime, %function
  74              	cmd_systime:
  75              	.LFB123:
  76              		.file 2 "/home/sbcu/Dropbox/pcb-layouts/axo-on-discovery-board/axoloti/platform_linux/../chibios/o
  77              		.loc 2 99 0
  78              		.cfi_startproc
  79              		@ args = 0, pretend = 0, frame = 0
  80              		@ frame_needed = 0, uses_anonymous_args = 0
  81              		@ link register save eliminated.
  82              	.LVL2:
  83              		.loc 2 102 0
  84 0000 0029     		cmp	r1, #0
  85 0002 03DD     		ble	.L4
  86              	.LVL3:
  87              	.LBB24:
  88              	.LBB25:
  89              		.loc 2 56 0
  90 0004 0449     		ldr	r1, .L6
  91              	.LVL4:
  92 0006 054A     		ldr	r2, .L6+4
  93              	.LVL5:
  94 0008 FFF7FEBF 		b	chprintf
  95              	.LVL6:
  96              	.L4:
  97              	.LBE25:
  98              	.LBE24:
  99              	.LBB26:
 100              	.LBB27:
 101              		.loc 2 106 0
 102 000c 044B     		ldr	r3, .L6+8
 103 000e 0549     		ldr	r1, .L6+12
 104              	.LVL7:
 105 0010 DA68     		ldr	r2, [r3, #12]
 106              	.LVL8:
 107 0012 FFF7FEBF 		b	chprintf
 108              	.LVL9:
 109              	.L7:
 110 0016 00BF     		.align	2
 111              	.L6:
 112 0018 00000000 		.word	.LC0
 113 001c 0C000000 		.word	.LC1
 114 0020 00000000 		.word	vtlist
ARM GAS  /tmp/ccha5eHe.s 			page 3


 115 0024 14000000 		.word	.LC2
 116              	.LBE27:
 117              	.LBE26:
 118              		.cfi_endproc
 119              	.LFE123:
 120              		.size	cmd_systime, .-cmd_systime
 121              		.section	.text.cmd_info,"ax",%progbits
 122              		.align	2
 123              		.p2align 4,,15
 124              		.thumb
 125              		.thumb_func
 126              		.type	cmd_info, %function
 127              	cmd_info:
 128              	.LFB122:
 129              		.loc 2 67 0
 130              		.cfi_startproc
 131              		@ args = 0, pretend = 0, frame = 0
 132              		@ frame_needed = 0, uses_anonymous_args = 0
 133              	.LVL10:
 134              		.loc 2 70 0
 135 0000 0029     		cmp	r1, #0
 136 0002 03DD     		ble	.L9
 137              	.LVL11:
 138              	.LBB34:
 139              	.LBB35:
 140              		.loc 2 56 0
 141 0004 1649     		ldr	r1, .L11
 142              	.LVL12:
 143 0006 174A     		ldr	r2, .L11+4
 144              	.LVL13:
 145 0008 FFF7FEBF 		b	chprintf
 146              	.LVL14:
 147              	.L9:
 148              	.LBE35:
 149              	.LBE34:
 150              		.loc 2 67 0
 151 000c 10B5     		push	{r4, lr}
 152              		.cfi_def_cfa_offset 8
 153              		.cfi_offset 4, -8
 154              		.cfi_offset 14, -4
 155              	.LBB36:
 156              	.LBB37:
 157              		.loc 2 75 0
 158 000e 1649     		ldr	r1, .L11+8
 159              	.LVL15:
 160 0010 164A     		ldr	r2, .L11+12
 161              	.LVL16:
 162              	.LBE37:
 163              	.LBE36:
 164              		.loc 2 67 0
 165 0012 82B0     		sub	sp, sp, #8
 166              		.cfi_def_cfa_offset 16
 167 0014 0446     		mov	r4, r0
 168              	.LVL17:
 169              	.LBB39:
 170              	.LBB38:
 171              		.loc 2 75 0
ARM GAS  /tmp/ccha5eHe.s 			page 4


 172 0016 FFF7FEFF 		bl	chprintf
 173              	.LVL18:
 174              		.loc 2 77 0
 175 001a 2046     		mov	r0, r4
 176 001c 1449     		ldr	r1, .L11+16
 177 001e 154A     		ldr	r2, .L11+20
 178 0020 FFF7FEFF 		bl	chprintf
 179              	.LVL19:
 180              		.loc 2 79 0
 181 0024 2046     		mov	r0, r4
 182 0026 1449     		ldr	r1, .L11+24
 183 0028 144A     		ldr	r2, .L11+28
 184 002a FFF7FEFF 		bl	chprintf
 185              	.LVL20:
 186              		.loc 2 81 0
 187 002e 2046     		mov	r0, r4
 188 0030 1349     		ldr	r1, .L11+32
 189 0032 144A     		ldr	r2, .L11+36
 190 0034 FFF7FEFF 		bl	chprintf
 191              	.LVL21:
 192              		.loc 2 84 0
 193 0038 2046     		mov	r0, r4
 194 003a 1349     		ldr	r1, .L11+40
 195 003c 134A     		ldr	r2, .L11+44
 196 003e FFF7FEFF 		bl	chprintf
 197              	.LVL22:
 198              		.loc 2 87 0
 199 0042 2046     		mov	r0, r4
 200 0044 1249     		ldr	r1, .L11+48
 201 0046 134A     		ldr	r2, .L11+52
 202 0048 FFF7FEFF 		bl	chprintf
 203              	.LVL23:
 204              		.loc 2 94 0
 205 004c 124B     		ldr	r3, .L11+56
 206 004e 0093     		str	r3, [sp]
 207 0050 2046     		mov	r0, r4
 208 0052 1249     		ldr	r1, .L11+60
 209 0054 124A     		ldr	r2, .L11+64
 210 0056 134B     		ldr	r3, .L11+68
 211 0058 FFF7FEFF 		bl	chprintf
 212              	.LVL24:
 213              	.LBE38:
 214              	.LBE39:
 215              		.loc 2 97 0
 216 005c 02B0     		add	sp, sp, #8
 217              		.cfi_def_cfa_offset 8
 218              		@ sp needed
 219 005e 10BD     		pop	{r4, pc}
 220              	.LVL25:
 221              	.L12:
 222              		.align	2
 223              	.L11:
 224 0060 00000000 		.word	.LC0
 225 0064 1C000000 		.word	.LC3
 226 0068 24000000 		.word	.LC4
 227 006c 38000000 		.word	.LC5
 228 0070 40000000 		.word	.LC6
ARM GAS  /tmp/ccha5eHe.s 			page 5


 229 0074 54000000 		.word	.LC7
 230 0078 9C000000 		.word	.LC8
 231 007c B0000000 		.word	.LC9
 232 0080 BC000000 		.word	.LC10
 233 0084 D0000000 		.word	.LC11
 234 0088 DC000000 		.word	.LC12
 235 008c F0000000 		.word	.LC13
 236 0090 08010000 		.word	.LC14
 237 0094 1C010000 		.word	.LC15
 238 0098 78010000 		.word	.LC19
 239 009c 50010000 		.word	.LC16
 240 00a0 68010000 		.word	.LC17
 241 00a4 74010000 		.word	.LC18
 242              		.cfi_endproc
 243              	.LFE122:
 244              		.size	cmd_info, .-cmd_info
 245              		.section	.text._strtok.constprop.2,"ax",%progbits
 246              		.align	2
 247              		.p2align 4,,15
 248              		.thumb
 249              		.thumb_func
 250              		.type	_strtok.constprop.2, %function
 251              	_strtok.constprop.2:
 252              	.LFB132:
 253              		.loc 2 37 0
 254              		.cfi_startproc
 255              		@ args = 0, pretend = 0, frame = 0
 256              		@ frame_needed = 0, uses_anonymous_args = 0
 257              	.LVL26:
 258 0000 38B5     		push	{r3, r4, r5, lr}
 259              		.cfi_def_cfa_offset 16
 260              		.cfi_offset 3, -16
 261              		.cfi_offset 4, -12
 262              		.cfi_offset 5, -8
 263              		.cfi_offset 14, -4
 264              		.loc 2 37 0
 265 0002 0D46     		mov	r5, r1
 266              		.loc 2 39 0
 267 0004 0446     		mov	r4, r0
 268 0006 90B1     		cbz	r0, .L14
 269              		.loc 2 40 0
 270 0008 2860     		str	r0, [r5]
 271              	.LVL27:
 272              	.L15:
 273              		.loc 2 46 0
 274 000a 2046     		mov	r0, r4
 275              	.LVL28:
 276 000c 0B49     		ldr	r1, .L25
 277              	.LVL29:
 278 000e FFF7FEFF 		bl	strspn
 279              	.LVL30:
 280 0012 0444     		add	r4, r4, r0
 281              	.LVL31:
 282              		.loc 2 47 0
 283 0014 2046     		mov	r0, r4
 284 0016 0949     		ldr	r1, .L25
 285 0018 FFF7FEFF 		bl	strpbrk
ARM GAS  /tmp/ccha5eHe.s 			page 6


 286              	.LVL32:
 287              		.loc 2 48 0
 288 001c 60B1     		cbz	r0, .L24
 289              		.loc 2 49 0
 290 001e 421C     		adds	r2, r0, #1
 291 0020 0023     		movs	r3, #0
 292 0022 2A60     		str	r2, [r5]
 293 0024 0370     		strb	r3, [r0]
 294              	.L18:
 295              		.loc 2 51 0
 296 0026 2378     		ldrb	r3, [r4]	@ zero_extendqisi2
 297 0028 23B1     		cbz	r3, .L19
 298 002a 2046     		mov	r0, r4
 299              		.loc 2 52 0
 300 002c 38BD     		pop	{r3, r4, r5, pc}
 301              	.LVL33:
 302              	.L14:
 303              		.loc 2 41 0
 304 002e 0C68     		ldr	r4, [r1]
 305              	.LVL34:
 306              		.loc 2 43 0
 307 0030 002C     		cmp	r4, #0
 308 0032 EAD1     		bne	.L15
 309              	.LVL35:
 310              	.L19:
 311              		.loc 2 44 0
 312 0034 0020     		movs	r0, #0
 313 0036 38BD     		pop	{r3, r4, r5, pc}
 314              	.LVL36:
 315              	.L24:
 316              		.loc 2 47 0
 317 0038 2860     		str	r0, [r5]
 318 003a F4E7     		b	.L18
 319              	.L26:
 320              		.align	2
 321              	.L25:
 322 003c 84010000 		.word	.LC20
 323              		.cfi_endproc
 324              	.LFE132:
 325              		.size	_strtok.constprop.2, .-_strtok.constprop.2
 326              		.section	.text.shellInit,"ax",%progbits
 327              		.align	2
 328              		.p2align 4,,15
 329              		.global	shellInit
 330              		.thumb
 331              		.thumb_func
 332              		.type	shellInit, %function
 333              	shellInit:
 334              	.LFB126:
 335              		.loc 2 204 0
 336              		.cfi_startproc
 337              		@ args = 0, pretend = 0, frame = 0
 338              		@ frame_needed = 0, uses_anonymous_args = 0
 339              		@ link register save eliminated.
 340              		.loc 2 206 0
 341 0000 014B     		ldr	r3, .L28
 342 0002 1B60     		str	r3, [r3]
ARM GAS  /tmp/ccha5eHe.s 			page 7


 343 0004 7047     		bx	lr
 344              	.L29:
 345 0006 00BF     		.align	2
 346              	.L28:
 347 0008 00000000 		.word	.LANCHOR0
 348              		.cfi_endproc
 349              	.LFE126:
 350              		.size	shellInit, .-shellInit
 351              		.section	.text.shellExit,"ax",%progbits
 352              		.align	2
 353              		.p2align 4,,15
 354              		.global	shellExit
 355              		.thumb
 356              		.thumb_func
 357              		.type	shellExit, %function
 358              	shellExit:
 359              	.LFB127:
 360              		.loc 2 218 0
 361              		.cfi_startproc
 362              		@ args = 0, pretend = 0, frame = 0
 363              		@ frame_needed = 0, uses_anonymous_args = 0
 364              	.LVL37:
 365 0000 10B5     		push	{r4, lr}
 366              		.cfi_def_cfa_offset 8
 367              		.cfi_offset 4, -8
 368              		.cfi_offset 14, -4
 369              	.LBB40:
 370              		.loc 2 222 0
 371 0002 2023     		movs	r3, #32
 372              	.LBE40:
 373              		.loc 2 218 0
 374 0004 0446     		mov	r4, r0
 375              	.LBB41:
 376              		.loc 2 222 0
 377              	@ 222 "/home/sbcu/Dropbox/pcb-layouts/axo-on-discovery-board/axoloti/platform_linux/../chibios/os/v
 378 0006 83F31188 		msr     BASEPRI, r3
 379              	@ 0 "" 2
 380              		.thumb
 381              	.LBE41:
 382              		.loc 2 223 0
 383 000a 0448     		ldr	r0, .L32
 384              	.LVL38:
 385 000c 0021     		movs	r1, #0
 386 000e FFF7FEFF 		bl	chEvtBroadcastFlagsI
 387              	.LVL39:
 388              		.loc 2 224 0
 389 0012 2046     		mov	r0, r4
 390              		.loc 2 225 0
 391 0014 BDE81040 		pop	{r4, lr}
 392              		.cfi_restore 14
 393              		.cfi_restore 4
 394              		.cfi_def_cfa_offset 0
 395              	.LVL40:
 396              		.loc 2 224 0
 397 0018 FFF7FEBF 		b	chThdExitS
 398              	.LVL41:
 399              	.L33:
ARM GAS  /tmp/ccha5eHe.s 			page 8


 400              		.align	2
 401              	.L32:
 402 001c 00000000 		.word	.LANCHOR0
 403              		.cfi_endproc
 404              	.LFE127:
 405              		.size	shellExit, .-shellExit
 406              		.section	.text.shellCreateStatic,"ax",%progbits
 407              		.align	2
 408              		.p2align 4,,15
 409              		.global	shellCreateStatic
 410              		.thumb
 411              		.thumb_func
 412              		.type	shellCreateStatic, %function
 413              	shellCreateStatic:
 414              	.LFB128:
 415              		.loc 2 258 0
 416              		.cfi_startproc
 417              		@ args = 0, pretend = 0, frame = 0
 418              		@ frame_needed = 0, uses_anonymous_args = 0
 419              	.LVL42:
 420 0000 00B5     		push	{lr}
 421              		.cfi_def_cfa_offset 4
 422              		.cfi_offset 14, -4
 423 0002 83B0     		sub	sp, sp, #12
 424              		.cfi_def_cfa_offset 16
 425              		.loc 2 260 0
 426 0004 0090     		str	r0, [sp]
 427 0006 0846     		mov	r0, r1
 428              	.LVL43:
 429 0008 1146     		mov	r1, r2
 430              	.LVL44:
 431 000a 1A46     		mov	r2, r3
 432              	.LVL45:
 433 000c 024B     		ldr	r3, .L36
 434              	.LVL46:
 435 000e FFF7FEFF 		bl	chThdCreateStatic
 436              	.LVL47:
 437              		.loc 2 261 0
 438 0012 03B0     		add	sp, sp, #12
 439              		.cfi_def_cfa_offset 4
 440              		@ sp needed
 441 0014 5DF804FB 		ldr	pc, [sp], #4
 442              	.L37:
 443              		.align	2
 444              	.L36:
 445 0018 00000000 		.word	shell_thread
 446              		.cfi_endproc
 447              	.LFE128:
 448              		.size	shellCreateStatic, .-shellCreateStatic
 449              		.section	.text.shellGetLine,"ax",%progbits
 450              		.align	2
 451              		.p2align 4,,15
 452              		.global	shellGetLine
 453              		.thumb
 454              		.thumb_func
 455              		.type	shellGetLine, %function
 456              	shellGetLine:
ARM GAS  /tmp/ccha5eHe.s 			page 9


 457              	.LFB129:
 458              		.loc 2 275 0
 459              		.cfi_startproc
 460              		@ args = 0, pretend = 0, frame = 8
 461              		@ frame_needed = 0, uses_anonymous_args = 0
 462              	.LVL48:
 463 0000 F0B5     		push	{r4, r5, r6, r7, lr}
 464              		.cfi_def_cfa_offset 20
 465              		.cfi_offset 4, -20
 466              		.cfi_offset 5, -16
 467              		.cfi_offset 6, -12
 468              		.cfi_offset 7, -8
 469              		.cfi_offset 14, -4
 470              	.LBB42:
 471              		.loc 2 303 0
 472 0002 013A     		subs	r2, r2, #1
 473              	.LVL49:
 474              	.LBE42:
 475              		.loc 2 275 0
 476 0004 83B0     		sub	sp, sp, #12
 477              		.cfi_def_cfa_offset 32
 478              		.loc 2 275 0
 479 0006 0E46     		mov	r6, r1
 480              	.LVL50:
 481              	.LBB43:
 482              		.loc 2 303 0
 483 0008 8F18     		adds	r7, r1, r2
 484              	.LBE43:
 485              		.loc 2 275 0
 486 000a 0446     		mov	r4, r0
 487 000c 0D46     		mov	r5, r1
 488              	.LVL51:
 489              	.L39:
 490              	.LBB44:
 491              		.loc 2 281 0
 492 000e 2368     		ldr	r3, [r4]
 493 0010 2046     		mov	r0, r4
 494 0012 5B68     		ldr	r3, [r3, #4]
 495 0014 0DF10701 		add	r1, sp, #7
 496 0018 0122     		movs	r2, #1
 497 001a 9847     		blx	r3
 498              	.LVL52:
 499 001c 48B3     		cbz	r0, .L48
 500              		.loc 2 283 0
 501 001e 9DF80710 		ldrb	r1, [sp, #7]	@ zero_extendqisi2
 502 0022 0429     		cmp	r1, #4
 503 0024 28D0     		beq	.L55
 504              		.loc 2 287 0
 505 0026 0829     		cmp	r1, #8
 506 0028 10D0     		beq	.L42
 507              		.loc 2 287 0 is_stmt 0 discriminator 1
 508 002a 7F29     		cmp	r1, #127
 509 002c 0ED0     		beq	.L42
 510              		.loc 2 296 0 is_stmt 1
 511 002e 0D29     		cmp	r1, #13
 512 0030 29D0     		beq	.L56
 513              		.loc 2 301 0
ARM GAS  /tmp/ccha5eHe.s 			page 10


 514 0032 1F29     		cmp	r1, #31
 515 0034 EBD9     		bls	.L39
 516              		.loc 2 303 0
 517 0036 BD42     		cmp	r5, r7
 518 0038 E9D2     		bcs	.L39
 519              		.loc 2 304 0
 520 003a 2368     		ldr	r3, [r4]
 521 003c 2046     		mov	r0, r4
 522 003e 9B68     		ldr	r3, [r3, #8]
 523 0040 9847     		blx	r3
 524              	.LVL53:
 525              		.loc 2 305 0
 526 0042 9DF80730 		ldrb	r3, [sp, #7]	@ zero_extendqisi2
 527 0046 2B70     		strb	r3, [r5]
 528 0048 0135     		adds	r5, r5, #1
 529              	.LVL54:
 530 004a E0E7     		b	.L39
 531              	.L42:
 532              		.loc 2 288 0
 533 004c B542     		cmp	r5, r6
 534              		.loc 2 289 0
 535 004e 2046     		mov	r0, r4
 536              		.loc 2 288 0
 537 0050 DDD0     		beq	.L39
 538              	.LVL55:
 539              		.loc 2 289 0
 540 0052 2368     		ldr	r3, [r4]
 541 0054 9B68     		ldr	r3, [r3, #8]
 542 0056 9847     		blx	r3
 543              	.LVL56:
 544              		.loc 2 290 0
 545 0058 2368     		ldr	r3, [r4]
 546 005a 2046     		mov	r0, r4
 547 005c 9B68     		ldr	r3, [r3, #8]
 548 005e 2021     		movs	r1, #32
 549 0060 9847     		blx	r3
 550              	.LVL57:
 551              		.loc 2 291 0
 552 0062 2368     		ldr	r3, [r4]
 553 0064 9DF80710 		ldrb	r1, [sp, #7]	@ zero_extendqisi2
 554 0068 9B68     		ldr	r3, [r3, #8]
 555 006a 2046     		mov	r0, r4
 556              		.loc 2 292 0
 557 006c 013D     		subs	r5, r5, #1
 558              	.LVL58:
 559              		.loc 2 291 0
 560 006e 9847     		blx	r3
 561              	.LVL59:
 562 0070 CDE7     		b	.L39
 563              	.L48:
 564              		.loc 2 282 0
 565 0072 0120     		movs	r0, #1
 566              	.LBE44:
 567              		.loc 2 308 0
 568 0074 03B0     		add	sp, sp, #12
 569              		.cfi_remember_state
 570              		.cfi_def_cfa_offset 20
ARM GAS  /tmp/ccha5eHe.s 			page 11


 571              		@ sp needed
 572 0076 F0BD     		pop	{r4, r5, r6, r7, pc}
 573              	.LVL60:
 574              	.L55:
 575              		.cfi_restore_state
 576              	.LBB45:
 577              		.loc 2 284 0
 578 0078 2046     		mov	r0, r4
 579 007a 0749     		ldr	r1, .L57
 580 007c FFF7FEFF 		bl	chprintf
 581              	.LVL61:
 582              		.loc 2 285 0
 583 0080 0120     		movs	r0, #1
 584              	.LBE45:
 585              		.loc 2 308 0
 586 0082 03B0     		add	sp, sp, #12
 587              		.cfi_remember_state
 588              		.cfi_def_cfa_offset 20
 589              		@ sp needed
 590 0084 F0BD     		pop	{r4, r5, r6, r7, pc}
 591              	.LVL62:
 592              	.L56:
 593              		.cfi_restore_state
 594              	.LBB46:
 595              		.loc 2 297 0
 596 0086 2046     		mov	r0, r4
 597 0088 0449     		ldr	r1, .L57+4
 598 008a FFF7FEFF 		bl	chprintf
 599              	.LVL63:
 600              		.loc 2 298 0
 601 008e 0020     		movs	r0, #0
 602 0090 2870     		strb	r0, [r5]
 603              	.LBE46:
 604              		.loc 2 308 0
 605 0092 03B0     		add	sp, sp, #12
 606              		.cfi_def_cfa_offset 20
 607              		@ sp needed
 608 0094 F0BD     		pop	{r4, r5, r6, r7, pc}
 609              	.LVL64:
 610              	.L58:
 611 0096 00BF     		.align	2
 612              	.L57:
 613 0098 88010000 		.word	.LC21
 614 009c 8C010000 		.word	.LC22
 615              		.cfi_endproc
 616              	.LFE129:
 617              		.size	shellGetLine, .-shellGetLine
 618              		.section	.text.shell_thread,"ax",%progbits
 619              		.align	2
 620              		.p2align 4,,15
 621              		.thumb
 622              		.thumb_func
 623              		.type	shell_thread, %function
 624              	shell_thread:
 625              	.LFB125:
 626              		.loc 2 141 0
 627              		.cfi_startproc
ARM GAS  /tmp/ccha5eHe.s 			page 12


 628              		@ args = 0, pretend = 0, frame = 88
 629              		@ frame_needed = 0, uses_anonymous_args = 0
 630              	.LVL65:
 631 0000 2DE9F041 		push	{r4, r5, r6, r7, r8, lr}
 632              		.cfi_def_cfa_offset 24
 633              		.cfi_offset 4, -24
 634              		.cfi_offset 5, -20
 635              		.cfi_offset 6, -16
 636              		.cfi_offset 7, -12
 637              		.cfi_offset 8, -8
 638              		.cfi_offset 14, -4
 639              		.loc 2 148 0
 640 0004 564B     		ldr	r3, .L112
 641              		.loc 2 143 0
 642 0006 0668     		ldr	r6, [r0]
 643              	.LVL66:
 644              		.loc 2 148 0
 645 0008 9B69     		ldr	r3, [r3, #24]
 646 000a 564A     		ldr	r2, .L112+4
 647              		.loc 2 144 0
 648 000c D0F80480 		ldr	r8, [r0, #4]
 649              	.LVL67:
 650              		.loc 2 149 0
 651 0010 5549     		ldr	r1, .L112+8
 652              		.loc 2 148 0
 653 0012 9A61     		str	r2, [r3, #24]
 654              		.loc 2 141 0
 655 0014 96B0     		sub	sp, sp, #88
 656              		.cfi_def_cfa_offset 112
 657              		.loc 2 149 0
 658 0016 3046     		mov	r0, r6
 659              	.LVL68:
 660 0018 FFF7FEFF 		bl	chprintf
 661              	.LVL69:
 662              	.L61:
 663              		.loc 2 151 0
 664 001c 3046     		mov	r0, r6
 665 001e 5349     		ldr	r1, .L112+12
 666 0020 FFF7FEFF 		bl	chprintf
 667              	.LVL70:
 668              		.loc 2 152 0
 669 0024 3046     		mov	r0, r6
 670 0026 06A9     		add	r1, sp, #24
 671 0028 4022     		movs	r2, #64
 672 002a FFF7FEFF 		bl	shellGetLine
 673              	.LVL71:
 674 002e 0446     		mov	r4, r0
 675 0030 78BB     		cbnz	r0, .L107
 676              		.loc 2 156 0
 677 0032 6946     		mov	r1, sp
 678 0034 06A8     		add	r0, sp, #24
 679 0036 FFF7FEFF 		bl	_strtok.constprop.2
 680              	.LVL72:
 681              		.loc 2 159 0
 682 003a 6946     		mov	r1, sp
 683              		.loc 2 156 0
 684 003c 0746     		mov	r7, r0
ARM GAS  /tmp/ccha5eHe.s 			page 13


 685              	.LVL73:
 686              		.loc 2 159 0
 687 003e 0020     		movs	r0, #0
 688              	.LVL74:
 689 0040 01AD     		add	r5, sp, #4
 690 0042 FFF7FEFF 		bl	_strtok.constprop.2
 691              	.LVL75:
 692 0046 50B1     		cbz	r0, .L108
 693              	.L67:
 694              		.loc 2 160 0
 695 0048 042C     		cmp	r4, #4
 696 004a 1BD0     		beq	.L109
 697              		.loc 2 165 0
 698 004c 45F8040B 		str	r0, [r5], #4
 699              		.loc 2 159 0
 700 0050 6946     		mov	r1, sp
 701 0052 0020     		movs	r0, #0
 702              	.LVL76:
 703              		.loc 2 165 0
 704 0054 0134     		adds	r4, r4, #1
 705              	.LVL77:
 706              		.loc 2 159 0
 707 0056 FFF7FEFF 		bl	_strtok.constprop.2
 708              	.LVL78:
 709 005a 0028     		cmp	r0, #0
 710 005c F4D1     		bne	.L67
 711              	.L108:
 712              		.loc 2 167 0
 713 005e 16AB     		add	r3, sp, #88
 714 0060 03EB8403 		add	r3, r3, r4, lsl #2
 715 0064 43F8540C 		str	r0, [r3, #-84]
 716              		.loc 2 168 0
 717 0068 002F     		cmp	r7, #0
 718 006a D7D0     		beq	.L61
 719              		.loc 2 169 0
 720 006c 3846     		mov	r0, r7
 721              	.LVL79:
 722 006e 4049     		ldr	r1, .L112+16
 723 0070 FFF7FEFF 		bl	strcasecmp
 724              	.LVL80:
 725 0074 C0B9     		cbnz	r0, .L68
 726              		.loc 2 170 0
 727 0076 84B1     		cbz	r4, .L63
 728              	.LVL81:
 729              	.LBB59:
 730              	.LBB60:
 731              		.loc 2 56 0
 732 0078 3046     		mov	r0, r6
 733 007a 3E49     		ldr	r1, .L112+20
 734 007c 3C4A     		ldr	r2, .L112+16
 735 007e FFF7FEFF 		bl	chprintf
 736              	.LVL82:
 737              	.LBE60:
 738              	.LBE59:
 739              		.loc 2 172 0
 740 0082 CBE7     		b	.L61
 741              	.LVL83:
ARM GAS  /tmp/ccha5eHe.s 			page 14


 742              	.L109:
 743              		.loc 2 161 0
 744 0084 3046     		mov	r0, r6
 745              	.LVL84:
 746 0086 3C49     		ldr	r1, .L112+24
 747 0088 FFF7FEFF 		bl	chprintf
 748              	.LVL85:
 749              		.loc 2 167 0
 750 008c 0023     		movs	r3, #0
 751 008e 0593     		str	r3, [sp, #20]
 752 0090 C4E7     		b	.L61
 753              	.LVL86:
 754              	.L107:
 755              		.loc 2 153 0
 756 0092 3046     		mov	r0, r6
 757 0094 3949     		ldr	r1, .L112+28
 758 0096 FFF7FEFF 		bl	chprintf
 759              	.LVL87:
 760              	.L63:
 761              		.loc 2 194 0
 762 009a 0020     		movs	r0, #0
 763 009c FFF7FEFF 		bl	shellExit
 764              	.LVL88:
 765              		.loc 2 197 0
 766 00a0 0020     		movs	r0, #0
 767 00a2 16B0     		add	sp, sp, #88
 768              		.cfi_remember_state
 769              		.cfi_def_cfa_offset 24
 770              		@ sp needed
 771 00a4 BDE8F081 		pop	{r4, r5, r6, r7, r8, pc}
 772              	.LVL89:
 773              	.L68:
 774              		.cfi_restore_state
 775              		.loc 2 176 0
 776 00a8 3846     		mov	r0, r7
 777 00aa 3549     		ldr	r1, .L112+32
 778 00ac FFF7FEFF 		bl	strcasecmp
 779              	.LVL90:
 780 00b0 30B9     		cbnz	r0, .L110
 781              	.LBB61:
 782              	.LBB62:
 783              		.loc 2 56 0
 784 00b2 3046     		mov	r0, r6
 785              	.LBE62:
 786              	.LBE61:
 787              		.loc 2 177 0
 788 00b4 B4B1     		cbz	r4, .L73
 789              	.LVL91:
 790              	.LBB64:
 791              	.LBB63:
 792              		.loc 2 56 0
 793 00b6 2F49     		ldr	r1, .L112+20
 794 00b8 314A     		ldr	r2, .L112+32
 795 00ba FFF7FEFF 		bl	chprintf
 796              	.LVL92:
 797              	.LBE63:
 798              	.LBE64:
ARM GAS  /tmp/ccha5eHe.s 			page 15


 799              		.loc 2 179 0
 800 00be ADE7     		b	.L61
 801              	.LVL93:
 802              	.L110:
 803              	.LBB65:
 804              	.LBB66:
 805              		.loc 2 121 0
 806 00c0 304D     		ldr	r5, .L112+36
 807 00c2 2868     		ldr	r0, [r5]
 808 00c4 18B9     		cbnz	r0, .L81
 809 00c6 30E0     		b	.L72
 810              	.LVL94:
 811              	.L111:
 812 00c8 55F8080F 		ldr	r0, [r5, #8]!
 813              	.LVL95:
 814 00cc 68B3     		cbz	r0, .L72
 815              	.LVL96:
 816              	.L81:
 817              		.loc 2 122 0
 818 00ce 3946     		mov	r1, r7
 819 00d0 FFF7FEFF 		bl	strcasecmp
 820              	.LVL97:
 821 00d4 0028     		cmp	r0, #0
 822 00d6 F7D1     		bne	.L111
 823              	.LVL98:
 824              	.L106:
 825              	.LBE66:
 826              	.LBE65:
 827              	.LBB67:
 828              	.LBB68:
 829              		.loc 2 123 0
 830 00d8 6B68     		ldr	r3, [r5, #4]
 831 00da 2146     		mov	r1, r4
 832 00dc 3046     		mov	r0, r6
 833 00de 01AA     		add	r2, sp, #4
 834 00e0 9847     		blx	r3
 835              	.LVL99:
 836 00e2 9BE7     		b	.L61
 837              	.LVL100:
 838              	.L73:
 839              	.LBE68:
 840              	.LBE67:
 841              	.LBB70:
 842              	.LBB71:
 843              		.loc 2 61 0
 844 00e4 274D     		ldr	r5, .L112+36
 845              	.LBE71:
 846              	.LBE70:
 847              		.loc 2 181 0
 848 00e6 2849     		ldr	r1, .L112+40
 849 00e8 FFF7FEFF 		bl	chprintf
 850              	.LVL101:
 851              	.LBB73:
 852              	.LBB72:
 853              		.loc 2 61 0
 854 00ec 2A68     		ldr	r2, [r5]
 855 00ee 2C46     		mov	r4, r5
ARM GAS  /tmp/ccha5eHe.s 			page 16


 856              	.LVL102:
 857 00f0 3AB1     		cbz	r2, .L78
 858              	.LVL103:
 859              	.L77:
 860              		.loc 2 62 0
 861 00f2 3046     		mov	r0, r6
 862 00f4 2549     		ldr	r1, .L112+44
 863 00f6 FFF7FEFF 		bl	chprintf
 864              	.LVL104:
 865              		.loc 2 61 0
 866 00fa 54F8082F 		ldr	r2, [r4, #8]!
 867              	.LVL105:
 868 00fe 002A     		cmp	r2, #0
 869 0100 F7D1     		bne	.L77
 870              	.LVL106:
 871              	.L78:
 872              	.LBE72:
 873              	.LBE73:
 874              		.loc 2 183 0
 875 0102 B8F1000F 		cmp	r8, #0
 876 0106 0BD0     		beq	.L76
 877              	.LVL107:
 878              	.LBB74:
 879              	.LBB75:
 880              		.loc 2 61 0
 881 0108 D8F80020 		ldr	r2, [r8]
 882 010c 42B1     		cbz	r2, .L76
 883 010e 4446     		mov	r4, r8
 884              	.LVL108:
 885              	.L79:
 886              		.loc 2 62 0
 887 0110 3046     		mov	r0, r6
 888 0112 1E49     		ldr	r1, .L112+44
 889 0114 FFF7FEFF 		bl	chprintf
 890              	.LVL109:
 891              		.loc 2 61 0
 892 0118 54F8082F 		ldr	r2, [r4, #8]!
 893              	.LVL110:
 894 011c 002A     		cmp	r2, #0
 895 011e F7D1     		bne	.L79
 896              	.LVL111:
 897              	.L76:
 898              	.LBE75:
 899              	.LBE74:
 900              		.loc 2 185 0
 901 0120 3046     		mov	r0, r6
 902 0122 1B49     		ldr	r1, .L112+48
 903 0124 FFF7FEFF 		bl	chprintf
 904              	.LVL112:
 905 0128 78E7     		b	.L61
 906              	.LVL113:
 907              	.L72:
 908              		.loc 2 187 0
 909 012a B8F1000F 		cmp	r8, #0
 910 012e 0DD0     		beq	.L84
 911              	.LVL114:
 912              	.LBB76:
ARM GAS  /tmp/ccha5eHe.s 			page 17


 913              	.LBB69:
 914              		.loc 2 121 0
 915 0130 D8F80000 		ldr	r0, [r8]
 916 0134 50B1     		cbz	r0, .L84
 917 0136 4546     		mov	r5, r8
 918 0138 02E0     		b	.L83
 919              	.LVL115:
 920              	.L82:
 921 013a 55F8080F 		ldr	r0, [r5, #8]!
 922              	.LVL116:
 923 013e 28B1     		cbz	r0, .L84
 924              	.LVL117:
 925              	.L83:
 926              		.loc 2 122 0
 927 0140 3946     		mov	r1, r7
 928 0142 FFF7FEFF 		bl	strcasecmp
 929              	.LVL118:
 930 0146 0028     		cmp	r0, #0
 931 0148 F7D1     		bne	.L82
 932 014a C5E7     		b	.L106
 933              	.LVL119:
 934              	.L84:
 935              	.LBE69:
 936              	.LBE76:
 937              		.loc 2 189 0
 938 014c 3046     		mov	r0, r6
 939 014e 3A46     		mov	r2, r7
 940 0150 1049     		ldr	r1, .L112+52
 941 0152 FFF7FEFF 		bl	chprintf
 942              	.LVL120:
 943              		.loc 2 190 0
 944 0156 3046     		mov	r0, r6
 945 0158 0F49     		ldr	r1, .L112+56
 946 015a FFF7FEFF 		bl	chprintf
 947              	.LVL121:
 948 015e 5DE7     		b	.L61
 949              	.L113:
 950              		.align	2
 951              	.L112:
 952 0160 00000000 		.word	rlist
 953 0164 90010000 		.word	.LC23
 954 0168 98010000 		.word	.LC24
 955 016c B0010000 		.word	.LC25
 956 0170 DC010000 		.word	.LC28
 957 0174 00000000 		.word	.LC0
 958 0178 C4010000 		.word	.LC27
 959 017c B8010000 		.word	.LC26
 960 0180 E4010000 		.word	.LC29
 961 0184 00000000 		.word	.LANCHOR1
 962 0188 EC010000 		.word	.LC30
 963 018c 04020000 		.word	.LC31
 964 0190 8C010000 		.word	.LC22
 965 0194 08020000 		.word	.LC32
 966 0198 0C020000 		.word	.LC33
 967              		.cfi_endproc
 968              	.LFE125:
 969              		.size	shell_thread, .-shell_thread
ARM GAS  /tmp/ccha5eHe.s 			page 18


 970              		.global	shell_terminated
 971              		.section	.data.local_commands,"aw",%progbits
 972              		.align	2
 973              		.set	.LANCHOR1,. + 0
 974              		.type	local_commands, %object
 975              		.size	local_commands, 24
 976              	local_commands:
 977 0000 1C000000 		.word	.LC3
 978 0004 00000000 		.word	cmd_info
 979 0008 0C000000 		.word	.LC1
 980 000c 00000000 		.word	cmd_systime
 981 0010 00000000 		.word	0
 982 0014 00000000 		.word	0
 983              		.section	.rodata.str1.4,"aMS",%progbits,1
 984              		.align	2
 985              	.LC0:
 986 0000 55736167 		.ascii	"Usage: %s\015\012\000"
 986      653A2025 
 986      730D0A00 
 987              	.LC1:
 988 000c 73797374 		.ascii	"systime\000"
 988      696D6500 
 989              	.LC2:
 990 0014 256C750D 		.ascii	"%lu\015\012\000"
 990      0A00
 991 001a 0000     		.space	2
 992              	.LC3:
 993 001c 696E666F 		.ascii	"info\000"
 993      00
 994 0021 000000   		.space	3
 995              	.LC4:
 996 0024 4B65726E 		.ascii	"Kernel:       %s\015\012\000"
 996      656C3A20 
 996      20202020 
 996      20202573 
 996      0D0A00
 997 0037 00       		.space	1
 998              	.LC5:
 999 0038 322E362E 		.ascii	"2.6.9\000"
 999      3900
 1000 003e 0000     		.space	2
 1001              	.LC6:
 1002 0040 436F6D70 		.ascii	"Compiler:     %s\015\012\000"
 1002      696C6572 
 1002      3A202020 
 1002      20202573 
 1002      0D0A00
 1003 0053 00       		.space	1
 1004              	.LC7:
 1005 0054 47434320 		.ascii	"GCC 4.9.3 20150529 (release) [ARM/embedded-4_9-bran"
 1005      342E392E 
 1005      33203230 
 1005      31353035 
 1005      32392028 
 1006 0087 63682072 		.ascii	"ch revision 224288]\000"
 1006      65766973 
 1006      696F6E20 
ARM GAS  /tmp/ccha5eHe.s 			page 19


 1006      32323432 
 1006      38385D00 
 1007 009b 00       		.space	1
 1008              	.LC8:
 1009 009c 41726368 		.ascii	"Architecture: %s\015\012\000"
 1009      69746563 
 1009      74757265 
 1009      3A202573 
 1009      0D0A00
 1010 00af 00       		.space	1
 1011              	.LC9:
 1012 00b0 41524D76 		.ascii	"ARMv7-ME\000"
 1012      372D4D45 
 1012      00
 1013 00b9 000000   		.space	3
 1014              	.LC10:
 1015 00bc 436F7265 		.ascii	"Core Variant: %s\015\012\000"
 1015      20566172 
 1015      69616E74 
 1015      3A202573 
 1015      0D0A00
 1016 00cf 00       		.space	1
 1017              	.LC11:
 1018 00d0 436F7274 		.ascii	"Cortex-M4F\000"
 1018      65782D4D 
 1018      344600
 1019 00db 00       		.space	1
 1020              	.LC12:
 1021 00dc 506F7274 		.ascii	"Port Info:    %s\015\012\000"
 1021      20496E66 
 1021      6F3A2020 
 1021      20202573 
 1021      0D0A00
 1022 00ef 00       		.space	1
 1023              	.LC13:
 1024 00f0 41647661 		.ascii	"Advanced kernel mode\000"
 1024      6E636564 
 1024      206B6572 
 1024      6E656C20 
 1024      6D6F6465 
 1025 0105 000000   		.space	3
 1026              	.LC14:
 1027 0108 506C6174 		.ascii	"Platform:     %s\015\012\000"
 1027      666F726D 
 1027      3A202020 
 1027      20202573 
 1027      0D0A00
 1028 011b 00       		.space	1
 1029              	.LC15:
 1030 011c 53544D33 		.ascii	"STM32F407/F417 High Performance with DSP and FPU\000"
 1030      32463430 
 1030      372F4634 
 1030      31372048 
 1030      69676820 
 1031 014d 000000   		.space	3
 1032              	.LC16:
 1033 0150 4275696C 		.ascii	"Build time:   %s%s%s\015\012\000"
ARM GAS  /tmp/ccha5eHe.s 			page 20


 1033      64207469 
 1033      6D653A20 
 1033      20202573 
 1033      25732573 
 1034 0167 00       		.space	1
 1035              	.LC17:
 1036 0168 4D617920 		.ascii	"May  1 2020\000"
 1036      20312032 
 1036      30323000 
 1037              	.LC18:
 1038 0174 202D2000 		.ascii	" - \000"
 1039              	.LC19:
 1040 0178 31323A35 		.ascii	"12:56:59\000"
 1040      363A3539 
 1040      00
 1041 0181 000000   		.space	3
 1042              	.LC20:
 1043 0184 200900   		.ascii	" \011\000"
 1044 0187 00       		.space	1
 1045              	.LC21:
 1046 0188 5E4400   		.ascii	"^D\000"
 1047 018b 00       		.space	1
 1048              	.LC22:
 1049 018c 0D0A00   		.ascii	"\015\012\000"
 1050 018f 00       		.space	1
 1051              	.LC23:
 1052 0190 7368656C 		.ascii	"shell\000"
 1052      6C00
 1053 0196 0000     		.space	2
 1054              	.LC24:
 1055 0198 0D0A4368 		.ascii	"\015\012ChibiOS/RT Shell\015\012\000"
 1055      6962694F 
 1055      532F5254 
 1055      20536865 
 1055      6C6C0D0A 
 1056 01ad 000000   		.space	3
 1057              	.LC25:
 1058 01b0 63683E20 		.ascii	"ch> \000"
 1058      00
 1059 01b5 000000   		.space	3
 1060              	.LC26:
 1061 01b8 0D0A6C6F 		.ascii	"\015\012logout\000"
 1061      676F7574 
 1061      00
 1062 01c1 000000   		.space	3
 1063              	.LC27:
 1064 01c4 746F6F20 		.ascii	"too many arguments\015\012\000"
 1064      6D616E79 
 1064      20617267 
 1064      756D656E 
 1064      74730D0A 
 1065 01d9 000000   		.space	3
 1066              	.LC28:
 1067 01dc 65786974 		.ascii	"exit\000"
 1067      00
 1068 01e1 000000   		.space	3
 1069              	.LC29:
ARM GAS  /tmp/ccha5eHe.s 			page 21


 1070 01e4 68656C70 		.ascii	"help\000"
 1070      00
 1071 01e9 000000   		.space	3
 1072              	.LC30:
 1073 01ec 436F6D6D 		.ascii	"Commands: help exit \000"
 1073      616E6473 
 1073      3A206865 
 1073      6C702065 
 1073      78697420 
 1074 0201 000000   		.space	3
 1075              	.LC31:
 1076 0204 25732000 		.ascii	"%s \000"
 1077              	.LC32:
 1078 0208 257300   		.ascii	"%s\000"
 1079 020b 00       		.space	1
 1080              	.LC33:
 1081 020c 203F0D0A 		.ascii	" ?\015\012\000"
 1081      00
 1082              		.section	.bss.shell_terminated,"aw",%nobits
 1083              		.align	2
 1084              		.set	.LANCHOR0,. + 0
 1085              		.type	shell_terminated, %object
 1086              		.size	shell_terminated, 4
 1087              	shell_terminated:
 1088 0000 00000000 		.space	4
 1089              		.text
 1090              	.Letext0:
 1091              		.file 3 "/home/sbcu/Dropbox/pcb-layouts/axo-on-discovery-board/axoloti/platform_linux/lib/gcc/arm-
 1092              		.file 4 "/home/sbcu/Dropbox/pcb-layouts/axo-on-discovery-board/axoloti/platform_linux/arm-none-eab
 1093              		.file 5 "/home/sbcu/Dropbox/pcb-layouts/axo-on-discovery-board/axoloti/platform_linux/arm-none-eab
 1094              		.file 6 "/home/sbcu/Dropbox/pcb-layouts/axo-on-discovery-board/axoloti/platform_linux/../chibios/o
 1095              		.file 7 "/home/sbcu/Dropbox/pcb-layouts/axo-on-discovery-board/axoloti/platform_linux/../chibios/o
 1096              		.file 8 "/home/sbcu/Dropbox/pcb-layouts/axo-on-discovery-board/axoloti/platform_linux/../chibios/o
 1097              		.file 9 "/home/sbcu/Dropbox/pcb-layouts/axo-on-discovery-board/axoloti/platform_linux/../chibios/o
 1098              		.file 10 "/home/sbcu/Dropbox/pcb-layouts/axo-on-discovery-board/axoloti/platform_linux/../chibios/
 1099              		.file 11 "/home/sbcu/Dropbox/pcb-layouts/axo-on-discovery-board/axoloti/platform_linux/../chibios/
 1100              		.file 12 "/home/sbcu/Dropbox/pcb-layouts/axo-on-discovery-board/axoloti/platform_linux/../chibios/
 1101              		.file 13 "/home/sbcu/Dropbox/pcb-layouts/axo-on-discovery-board/axoloti/platform_linux/../chibios/
 1102              		.file 14 "/home/sbcu/Dropbox/pcb-layouts/axo-on-discovery-board/axoloti/platform_linux/../chibios/
 1103              		.file 15 "/home/sbcu/Dropbox/pcb-layouts/axo-on-discovery-board/axoloti/platform_linux/../chibios/
 1104              		.file 16 "/home/sbcu/Dropbox/pcb-layouts/axo-on-discovery-board/axoloti/platform_linux/lib/gcc/arm
 1105              		.file 17 "<built-in>"
 1106              		.file 18 "/home/sbcu/Dropbox/pcb-layouts/axo-on-discovery-board/axoloti/platform_linux/../chibios/
 1107              		.file 19 "/home/sbcu/Dropbox/pcb-layouts/axo-on-discovery-board/axoloti/platform_linux/arm-none-ea