ARM GAS  /tmp/ccfmqroh.s 			page 1


   1              		.syntax unified
   2              		.cpu cortex-m4
   3              		.eabi_attribute 27, 1
   4              		.eabi_attribute 28, 1
   5              		.fpu fpv4-sp-d16
   6              		.eabi_attribute 20, 1
   7              		.eabi_attribute 21, 1
   8              		.eabi_attribute 23, 3
   9              		.eabi_attribute 24, 1
  10              		.eabi_attribute 25, 1
  11              		.eabi_attribute 26, 1
  12              		.eabi_attribute 30, 2
  13              		.eabi_attribute 34, 1
  14              		.eabi_attribute 18, 4
  15              		.thumb
  16              		.file	"spi_lld.c"
  17              		.text
  18              	.Ltext0:
  19              		.cfi_sections	.debug_frame
  20              		.section	.text.spi_lld_serve_tx_interrupt,"ax",%progbits
  21              		.align	2
  22              		.p2align 4,,15
  23              		.thumb
  24              		.thumb_func
  25              		.type	spi_lld_serve_tx_interrupt, %function
  26              	spi_lld_serve_tx_interrupt:
  27              	.LFB119:
  28              		.file 1 "/home/sbcu/Dropbox/pcb-layouts/axo-on-discovery-board/axoloti/platform_linux/../chibios/o
  29              		.loc 1 159 0
  30              		.cfi_startproc
  31              		@ args = 0, pretend = 0, frame = 0
  32              		@ frame_needed = 0, uses_anonymous_args = 0
  33              		@ link register save eliminated.
  34              	.LVL0:
  35              		.loc 1 164 0
  36 0000 11F00C0F 		tst	r1, #12
  37 0004 00D1     		bne	.L4
  38 0006 7047     		bx	lr
  39              	.L4:
  40              		.loc 1 165 0
  41 0008 FFF7FEBF 		b	port_halt
  42              	.LVL1:
  43              		.cfi_endproc
  44              	.LFE119:
  45              		.size	spi_lld_serve_tx_interrupt, .-spi_lld_serve_tx_interrupt
  46              		.section	.text.spi_lld_serve_rx_interrupt,"ax",%progbits
  47              		.align	2
  48              		.p2align 4,,15
  49              		.thumb
  50              		.thumb_func
  51              		.type	spi_lld_serve_rx_interrupt, %function
  52              	spi_lld_serve_rx_interrupt:
  53              	.LFB118:
  54              		.loc 1 133 0
  55              		.cfi_startproc
  56              		@ args = 0, pretend = 0, frame = 0
  57              		@ frame_needed = 0, uses_anonymous_args = 0
ARM GAS  /tmp/ccfmqroh.s 			page 2


  58              	.LVL2:
  59              		.loc 1 137 0
  60 0000 11F00C0F 		tst	r1, #12
  61              		.loc 1 133 0
  62 0004 38B5     		push	{r3, r4, r5, lr}
  63              		.cfi_def_cfa_offset 16
  64              		.cfi_offset 3, -16
  65              		.cfi_offset 4, -12
  66              		.cfi_offset 5, -8
  67              		.cfi_offset 14, -4
  68              		.loc 1 133 0
  69 0006 0446     		mov	r4, r0
  70              		.loc 1 137 0
  71 0008 37D1     		bne	.L24
  72              	.LVL3:
  73              	.L6:
  74              		.loc 1 145 0
  75 000a 606A     		ldr	r0, [r4, #36]
  76 000c 0268     		ldr	r2, [r0]
  77 000e 1368     		ldr	r3, [r2]
  78 0010 23F01F03 		bic	r3, r3, #31
  79 0014 1360     		str	r3, [r2]
  80              	.L7:
  81              		.loc 1 145 0 is_stmt 0 discriminator 2
  82 0016 1368     		ldr	r3, [r2]
  83 0018 D907     		lsls	r1, r3, #31
  84 001a FCD4     		bmi	.L7
  85              		.loc 1 145 0 discriminator 3
  86 001c 057A     		ldrb	r5, [r0, #8]	@ zero_extendqisi2
  87              		.loc 1 146 0 is_stmt 1 discriminator 3
  88 001e 216A     		ldr	r1, [r4, #32]
  89              		.loc 1 145 0 discriminator 3
  90 0020 4068     		ldr	r0, [r0, #4]
  91              		.loc 1 146 0 discriminator 3
  92 0022 0A68     		ldr	r2, [r1]
  93              		.loc 1 145 0 discriminator 3
  94 0024 3D23     		movs	r3, #61
  95 0026 AB40     		lsls	r3, r3, r5
  96 0028 0360     		str	r3, [r0]
  97              		.loc 1 146 0 discriminator 3
  98 002a 1368     		ldr	r3, [r2]
  99 002c 23F01F03 		bic	r3, r3, #31
 100 0030 1360     		str	r3, [r2]
 101              	.L8:
 102              		.loc 1 146 0 is_stmt 0 discriminator 2
 103 0032 1368     		ldr	r3, [r2]
 104 0034 DB07     		lsls	r3, r3, #31
 105 0036 FCD4     		bmi	.L8
 106              		.loc 1 150 0 is_stmt 1 discriminator 3
 107 0038 6368     		ldr	r3, [r4, #4]
 108              		.loc 1 146 0 discriminator 3
 109 003a 087A     		ldrb	r0, [r1, #8]	@ zero_extendqisi2
 110              		.loc 1 150 0 discriminator 3
 111 003c 1A68     		ldr	r2, [r3]
 112              		.loc 1 146 0 discriminator 3
 113 003e 4968     		ldr	r1, [r1, #4]
 114 0040 3D23     		movs	r3, #61
ARM GAS  /tmp/ccfmqroh.s 			page 3


 115 0042 8340     		lsls	r3, r3, r0
 116 0044 0B60     		str	r3, [r1]
 117              		.loc 1 150 0 discriminator 3
 118 0046 AAB1     		cbz	r2, .L9
 119              		.loc 1 150 0 is_stmt 0 discriminator 1
 120 0048 0423     		movs	r3, #4
 121 004a 2370     		strb	r3, [r4]
 122 004c 2046     		mov	r0, r4
 123 004e 9047     		blx	r2
 124              	.LVL4:
 125 0050 2378     		ldrb	r3, [r4]	@ zero_extendqisi2
 126 0052 042B     		cmp	r3, #4
 127 0054 0ED0     		beq	.L9
 128              	.L10:
 129              	.LBB2:
 130              		.loc 1 150 0 discriminator 4
 131 0056 2023     		movs	r3, #32
 132              	@ 150 "/home/sbcu/Dropbox/pcb-layouts/axo-on-discovery-board/axoloti/platform_linux/../chibios/os/h
 133 0058 83F31188 		msr     BASEPRI, r3
 134              	@ 0 "" 2
 135              		.thumb
 136              	.LBE2:
 137 005c A368     		ldr	r3, [r4, #8]
 138 005e 2BB1     		cbz	r3, .L11
 139              	.LVL5:
 140              	.LBB3:
 141              		.loc 1 150 0 discriminator 5
 142 0060 0022     		movs	r2, #0
 143 0062 A260     		str	r2, [r4, #8]
 144 0064 1846     		mov	r0, r3
 145 0066 5A62     		str	r2, [r3, #36]
 146 0068 FFF7FEFF 		bl	chSchReadyI
 147              	.LVL6:
 148              	.L11:
 149              	.LBE3:
 150              	.LBB4:
 151              		.loc 1 150 0 discriminator 7
 152 006c 0023     		movs	r3, #0
 153              	@ 150 "/home/sbcu/Dropbox/pcb-layouts/axo-on-discovery-board/axoloti/platform_linux/../chibios/os/h
 154 006e 83F31188 		msr     BASEPRI, r3
 155              	@ 0 "" 2
 156              		.thumb
 157 0072 38BD     		pop	{r3, r4, r5, pc}
 158              	.LVL7:
 159              	.L9:
 160              	.LBE4:
 161              		.loc 1 150 0 discriminator 3
 162 0074 0223     		movs	r3, #2
 163 0076 2370     		strb	r3, [r4]
 164 0078 EDE7     		b	.L10
 165              	.LVL8:
 166              	.L24:
 167              		.loc 1 138 0 is_stmt 1
 168 007a FFF7FEFF 		bl	port_halt
 169              	.LVL9:
 170 007e C4E7     		b	.L6
 171              		.cfi_endproc
ARM GAS  /tmp/ccfmqroh.s 			page 4


 172              	.LFE118:
 173              		.size	spi_lld_serve_rx_interrupt, .-spi_lld_serve_rx_interrupt
 174              		.section	.text.spi_lld_init,"ax",%progbits
 175              		.align	2
 176              		.p2align 4,,15
 177              		.global	spi_lld_init
 178              		.thumb
 179              		.thumb_func
 180              		.type	spi_lld_init, %function
 181              	spi_lld_init:
 182              	.LFB120:
 183              		.loc 1 186 0
 184              		.cfi_startproc
 185              		@ args = 0, pretend = 0, frame = 0
 186              		@ frame_needed = 0, uses_anonymous_args = 0
 187 0000 F8B5     		push	{r3, r4, r5, r6, r7, lr}
 188              		.cfi_def_cfa_offset 24
 189              		.cfi_offset 3, -24
 190              		.cfi_offset 4, -20
 191              		.cfi_offset 5, -16
 192              		.cfi_offset 6, -12
 193              		.cfi_offset 7, -8
 194              		.cfi_offset 14, -4
 195              		.loc 1 191 0
 196 0002 194F     		ldr	r7, .L27
 197              		.loc 1 188 0
 198 0004 194B     		ldr	r3, .L27+4
 199              		.loc 1 193 0
 200 0006 1A4C     		ldr	r4, .L27+8
 201              		.loc 1 209 0
 202 0008 1A4E     		ldr	r6, .L27+12
 203              		.loc 1 227 0
 204 000a 1B4D     		ldr	r5, .L27+16
 205              		.loc 1 191 0
 206 000c 3846     		mov	r0, r7
 207              		.loc 1 188 0
 208 000e 4FF6FF72 		movw	r2, #65535
 209 0012 1A80     		strh	r2, [r3]	@ movhi
 210              		.loc 1 191 0
 211 0014 FFF7FEFF 		bl	spiObjectInit
 212              	.LVL10:
 213              		.loc 1 192 0
 214 0018 1849     		ldr	r1, .L27+20
 215              		.loc 1 195 0
 216 001a 194A     		ldr	r2, .L27+24
 217              		.loc 1 201 0
 218 001c 194B     		ldr	r3, .L27+28
 219              		.loc 1 192 0
 220 001e F961     		str	r1, [r7, #28]
 221              		.loc 1 209 0
 222 0020 3046     		mov	r0, r6
 223              		.loc 1 194 0
 224 0022 04F12401 		add	r1, r4, #36
 225              		.loc 1 193 0
 226 0026 3C62     		str	r4, [r7, #32]
 227              		.loc 1 194 0
 228 0028 7962     		str	r1, [r7, #36]
ARM GAS  /tmp/ccfmqroh.s 			page 5


 229              		.loc 1 195 0
 230 002a BA62     		str	r2, [r7, #40]
 231              		.loc 1 201 0
 232 002c FB62     		str	r3, [r7, #44]
 233              		.loc 1 209 0
 234 002e FFF7FEFF 		bl	spiObjectInit
 235              	.LVL11:
 236              		.loc 1 210 0
 237 0032 1549     		ldr	r1, .L27+32
 238              		.loc 1 213 0
 239 0034 154A     		ldr	r2, .L27+36
 240              		.loc 1 219 0
 241 0036 164B     		ldr	r3, .L27+40
 242              		.loc 1 210 0
 243 0038 F161     		str	r1, [r6, #28]
 244              		.loc 1 211 0
 245 003a A4F13C07 		sub	r7, r4, #60
 246              		.loc 1 212 0
 247 003e A4F13001 		sub	r1, r4, #48
 248              		.loc 1 227 0
 249 0042 2846     		mov	r0, r5
 250              		.loc 1 212 0
 251 0044 7162     		str	r1, [r6, #36]
 252              		.loc 1 213 0
 253 0046 B262     		str	r2, [r6, #40]
 254              		.loc 1 219 0
 255 0048 F362     		str	r3, [r6, #44]
 256              		.loc 1 211 0
 257 004a 3762     		str	r7, [r6, #32]
 258              		.loc 1 227 0
 259 004c FFF7FEFF 		bl	spiObjectInit
 260              	.LVL12:
 261              		.loc 1 228 0
 262 0050 1049     		ldr	r1, .L27+44
 263              		.loc 1 231 0
 264 0052 114A     		ldr	r2, .L27+48
 265              		.loc 1 237 0
 266 0054 114B     		ldr	r3, .L27+52
 267              		.loc 1 228 0
 268 0056 E961     		str	r1, [r5, #28]
 269              		.loc 1 229 0
 270 0058 A4F16001 		sub	r1, r4, #96
 271              		.loc 1 230 0
 272 005c 0C3C     		subs	r4, r4, #12
 273              		.loc 1 229 0
 274 005e 2962     		str	r1, [r5, #32]
 275              		.loc 1 230 0
 276 0060 6C62     		str	r4, [r5, #36]
 277              		.loc 1 231 0
 278 0062 AA62     		str	r2, [r5, #40]
 279              		.loc 1 237 0
 280 0064 EB62     		str	r3, [r5, #44]
 281 0066 F8BD     		pop	{r3, r4, r5, r6, r7, pc}
 282              	.L28:
 283              		.align	2
 284              	.L27:
 285 0068 00000000 		.word	.LANCHOR1
ARM GAS  /tmp/ccfmqroh.s 			page 6


 286 006c 00000000 		.word	.LANCHOR0
 287 0070 60000000 		.word	_stm32_dma_streams+96
 288 0074 00000000 		.word	.LANCHOR2
 289 0078 00000000 		.word	.LANCHOR3
 290 007c 00300140 		.word	1073819648
 291 0080 16000106 		.word	100728854
 292 0084 46000106 		.word	100728902
 293 0088 00380040 		.word	1073756160
 294 008c 16000100 		.word	65558
 295 0090 46000100 		.word	65606
 296 0094 003C0040 		.word	1073757184
 297 0098 16000300 		.word	196630
 298 009c 46000300 		.word	196678
 299              		.cfi_endproc
 300              	.LFE120:
 301              		.size	spi_lld_init, .-spi_lld_init
 302              		.section	.text.spi_lld_start,"ax",%progbits
 303              		.align	2
 304              		.p2align 4,,15
 305              		.global	spi_lld_start
 306              		.thumb
 307              		.thumb_func
 308              		.type	spi_lld_start, %function
 309              	spi_lld_start:
 310              	.LFB121:
 311              		.loc 1 306 0
 312              		.cfi_startproc
 313              		@ args = 0, pretend = 0, frame = 0
 314              		@ frame_needed = 0, uses_anonymous_args = 0
 315              	.LVL13:
 316              		.loc 1 309 0
 317 0000 0378     		ldrb	r3, [r0]	@ zero_extendqisi2
 318 0002 012B     		cmp	r3, #1
 319              		.loc 1 306 0
 320 0004 10B5     		push	{r4, lr}
 321              		.cfi_def_cfa_offset 8
 322              		.cfi_offset 4, -8
 323              		.cfi_offset 14, -4
 324              		.loc 1 306 0
 325 0006 0446     		mov	r4, r0
 326              		.loc 1 309 0
 327 0008 1ED0     		beq	.L37
 328 000a C369     		ldr	r3, [r0, #28]
 329              	.LVL14:
 330              	.L30:
 331              		.loc 1 413 0
 332 000c 6268     		ldr	r2, [r4, #4]
 333              		.loc 1 416 0
 334 000e A06A     		ldr	r0, [r4, #40]
 335              		.loc 1 413 0
 336 0010 5289     		ldrh	r2, [r2, #10]
 337              		.loc 1 418 0
 338 0012 E16A     		ldr	r1, [r4, #44]
 339              		.loc 1 416 0
 340 0014 20F4F040 		bic	r0, r0, #30720
 341              		.loc 1 418 0
 342 0018 21F4F041 		bic	r1, r1, #30720
ARM GAS  /tmp/ccfmqroh.s 			page 7


 343              		.loc 1 413 0
 344 001c 12F4006F 		tst	r2, #2048
 345              		.loc 1 423 0
 346 0020 1CBF     		itt	ne
 347 0022 40F42050 		orrne	r0, r0, #10240
 348              		.loc 1 425 0
 349 0026 41F42051 		orrne	r1, r1, #10240
 350              		.loc 1 422 0
 351 002a A062     		str	r0, [r4, #40]
 352              		.loc 1 424 0
 353 002c E162     		str	r1, [r4, #44]
 354              		.loc 1 429 0
 355 002e 42F44172 		orr	r2, r2, #772
 356              		.loc 1 428 0
 357 0032 0020     		movs	r0, #0
 358              		.loc 1 431 0
 359 0034 0721     		movs	r1, #7
 360              		.loc 1 428 0
 361 0036 1880     		strh	r0, [r3]	@ movhi
 362              		.loc 1 429 0
 363 0038 1A80     		strh	r2, [r3]	@ movhi
 364              		.loc 1 431 0
 365 003a 9980     		strh	r1, [r3, #4]	@ movhi
 366              		.loc 1 432 0
 367 003c 1A88     		ldrh	r2, [r3]
 368 003e 92B2     		uxth	r2, r2
 369 0040 42F04002 		orr	r2, r2, #64
 370 0044 1A80     		strh	r2, [r3]	@ movhi
 371 0046 10BD     		pop	{r4, pc}
 372              	.LVL15:
 373              	.L37:
 374              		.loc 1 311 0
 375 0048 244B     		ldr	r3, .L43
 376 004a 9842     		cmp	r0, r3
 377 004c 0FD0     		beq	.L40
 378              		.loc 1 327 0
 379 004e 244B     		ldr	r3, .L43+4
 380 0050 9842     		cmp	r0, r3
 381 0052 1ED0     		beq	.L41
 382              		.loc 1 343 0
 383 0054 234B     		ldr	r3, .L43+8
 384 0056 9842     		cmp	r0, r3
 385 0058 2DD0     		beq	.L42
 386              	.LVL16:
 387              	.L32:
 388              		.loc 1 408 0
 389 005a 216A     		ldr	r1, [r4, #32]
 390              		.loc 1 409 0
 391 005c 626A     		ldr	r2, [r4, #36]
 392              		.loc 1 408 0
 393 005e E369     		ldr	r3, [r4, #28]
 394 0060 0868     		ldr	r0, [r1]
 395              		.loc 1 409 0
 396 0062 1168     		ldr	r1, [r2]
 397              		.loc 1 408 0
 398 0064 03F10C02 		add	r2, r3, #12
 399 0068 8260     		str	r2, [r0, #8]
ARM GAS  /tmp/ccfmqroh.s 			page 8


 400              		.loc 1 409 0
 401 006a 8A60     		str	r2, [r1, #8]
 402 006c CEE7     		b	.L30
 403              	.LVL17:
 404              	.L40:
 405              	.LBB5:
 406              		.loc 1 313 0
 407 006e 1E4A     		ldr	r2, .L43+12
 408 0070 006A     		ldr	r0, [r0, #32]
 409              	.LVL18:
 410 0072 0A21     		movs	r1, #10
 411 0074 2346     		mov	r3, r4
 412 0076 FFF7FEFF 		bl	dmaStreamAllocate
 413              	.LVL19:
 414              		.loc 1 318 0
 415 007a 1C4A     		ldr	r2, .L43+16
 416 007c 606A     		ldr	r0, [r4, #36]
 417 007e 2346     		mov	r3, r4
 418 0080 0A21     		movs	r1, #10
 419 0082 FFF7FEFF 		bl	dmaStreamAllocate
 420              	.LVL20:
 421              		.loc 1 323 0
 422 0086 1A4A     		ldr	r2, .L43+20
 423 0088 536C     		ldr	r3, [r2, #68]
 424 008a 43F48053 		orr	r3, r3, #4096
 425 008e 5364     		str	r3, [r2, #68]
 426 0090 E3E7     		b	.L32
 427              	.LVL21:
 428              	.L41:
 429              	.LBE5:
 430              	.LBB6:
 431              		.loc 1 329 0
 432 0092 154A     		ldr	r2, .L43+12
 433 0094 006A     		ldr	r0, [r0, #32]
 434              	.LVL22:
 435 0096 0221     		movs	r1, #2
 436 0098 2346     		mov	r3, r4
 437 009a FFF7FEFF 		bl	dmaStreamAllocate
 438              	.LVL23:
 439              		.loc 1 334 0
 440 009e 134A     		ldr	r2, .L43+16
 441 00a0 606A     		ldr	r0, [r4, #36]
 442 00a2 2346     		mov	r3, r4
 443 00a4 0221     		movs	r1, #2
 444 00a6 FFF7FEFF 		bl	dmaStreamAllocate
 445              	.LVL24:
 446              		.loc 1 339 0
 447 00aa 114A     		ldr	r2, .L43+20
 448 00ac 136C     		ldr	r3, [r2, #64]
 449 00ae 43F48043 		orr	r3, r3, #16384
 450 00b2 1364     		str	r3, [r2, #64]
 451 00b4 D1E7     		b	.L32
 452              	.LVL25:
 453              	.L42:
 454              	.LBE6:
 455              	.LBB7:
 456              		.loc 1 345 0
ARM GAS  /tmp/ccfmqroh.s 			page 9


 457 00b6 0C4A     		ldr	r2, .L43+12
 458 00b8 006A     		ldr	r0, [r0, #32]
 459              	.LVL26:
 460 00ba 0321     		movs	r1, #3
 461 00bc 2346     		mov	r3, r4
 462 00be FFF7FEFF 		bl	dmaStreamAllocate
 463              	.LVL27:
 464              		.loc 1 350 0
 465 00c2 0A4A     		ldr	r2, .L43+16
 466 00c4 606A     		ldr	r0, [r4, #36]
 467 00c6 2346     		mov	r3, r4
 468 00c8 0321     		movs	r1, #3
 469 00ca FFF7FEFF 		bl	dmaStreamAllocate
 470              	.LVL28:
 471              		.loc 1 355 0
 472 00ce 084A     		ldr	r2, .L43+20
 473 00d0 136C     		ldr	r3, [r2, #64]
 474 00d2 43F40043 		orr	r3, r3, #32768
 475 00d6 1364     		str	r3, [r2, #64]
 476 00d8 BFE7     		b	.L32
 477              	.L44:
 478 00da 00BF     		.align	2
 479              	.L43:
 480 00dc 00000000 		.word	.LANCHOR1
 481 00e0 00000000 		.word	.LANCHOR2
 482 00e4 00000000 		.word	.LANCHOR3
 483 00e8 00000000 		.word	spi_lld_serve_rx_interrupt
 484 00ec 00000000 		.word	spi_lld_serve_tx_interrupt
 485 00f0 00380240 		.word	1073887232
 486              	.LBE7:
 487              		.cfi_endproc
 488              	.LFE121:
 489              		.size	spi_lld_start, .-spi_lld_start
 490              		.section	.text.spi_lld_stop,"ax",%progbits
 491              		.align	2
 492              		.p2align 4,,15
 493              		.global	spi_lld_stop
 494              		.thumb
 495              		.thumb_func
 496              		.type	spi_lld_stop, %function
 497              	spi_lld_stop:
 498              	.LFB122:
 499              		.loc 1 442 0
 500              		.cfi_startproc
 501              		@ args = 0, pretend = 0, frame = 0
 502              		@ frame_needed = 0, uses_anonymous_args = 0
 503              	.LVL29:
 504              		.loc 1 445 0
 505 0000 0378     		ldrb	r3, [r0]	@ zero_extendqisi2
 506 0002 022B     		cmp	r3, #2
 507 0004 00D0     		beq	.L53
 508 0006 7047     		bx	lr
 509              	.L53:
 510              		.loc 1 448 0
 511 0008 C369     		ldr	r3, [r0, #28]
 512              		.loc 1 442 0
 513 000a 10B5     		push	{r4, lr}
ARM GAS  /tmp/ccfmqroh.s 			page 10


 514              		.cfi_def_cfa_offset 8
 515              		.cfi_offset 4, -8
 516              		.cfi_offset 14, -4
 517              		.loc 1 448 0
 518 000c 0022     		movs	r2, #0
 519 000e 0446     		mov	r4, r0
 520              		.loc 1 450 0
 521 0010 006A     		ldr	r0, [r0, #32]
 522              	.LVL30:
 523              		.loc 1 448 0
 524 0012 1A80     		strh	r2, [r3]	@ movhi
 525              		.loc 1 449 0
 526 0014 9A80     		strh	r2, [r3, #4]	@ movhi
 527              		.loc 1 450 0
 528 0016 FFF7FEFF 		bl	dmaStreamRelease
 529              	.LVL31:
 530              		.loc 1 451 0
 531 001a 606A     		ldr	r0, [r4, #36]
 532 001c FFF7FEFF 		bl	dmaStreamRelease
 533              	.LVL32:
 534              		.loc 1 454 0
 535 0020 0D4B     		ldr	r3, .L57
 536 0022 9C42     		cmp	r4, r3
 537 0024 12D0     		beq	.L54
 538              		.loc 1 458 0
 539 0026 0D4B     		ldr	r3, .L57+4
 540 0028 9C42     		cmp	r4, r3
 541 002a 09D0     		beq	.L55
 542              		.loc 1 462 0
 543 002c 0C4B     		ldr	r3, .L57+8
 544 002e 9C42     		cmp	r4, r3
 545 0030 00D0     		beq	.L56
 546              	.L45:
 547 0032 10BD     		pop	{r4, pc}
 548              	.LVL33:
 549              	.L56:
 550              		.loc 1 463 0
 551 0034 0B4A     		ldr	r2, .L57+12
 552 0036 136C     		ldr	r3, [r2, #64]
 553 0038 23F40043 		bic	r3, r3, #32768
 554 003c 1364     		str	r3, [r2, #64]
 555 003e F8E7     		b	.L45
 556              	.L55:
 557              		.loc 1 459 0
 558 0040 084A     		ldr	r2, .L57+12
 559 0042 136C     		ldr	r3, [r2, #64]
 560 0044 23F48043 		bic	r3, r3, #16384
 561 0048 1364     		str	r3, [r2, #64]
 562 004a 10BD     		pop	{r4, pc}
 563              	.LVL34:
 564              	.L54:
 565              		.loc 1 455 0
 566 004c 054A     		ldr	r2, .L57+12
 567 004e 536C     		ldr	r3, [r2, #68]
 568 0050 23F48053 		bic	r3, r3, #4096
 569 0054 5364     		str	r3, [r2, #68]
 570 0056 10BD     		pop	{r4, pc}
ARM GAS  /tmp/ccfmqroh.s 			page 11


 571              	.LVL35:
 572              	.L58:
 573              		.align	2
 574              	.L57:
 575 0058 00000000 		.word	.LANCHOR1
 576 005c 00000000 		.word	.LANCHOR2
 577 0060 00000000 		.word	.LANCHOR3
 578 0064 00380240 		.word	1073887232
 579              		.cfi_endproc
 580              	.LFE122:
 581              		.size	spi_lld_stop, .-spi_lld_stop
 582              		.section	.text.spi_lld_select,"ax",%progbits
 583              		.align	2
 584              		.p2align 4,,15
 585              		.global	spi_lld_select
 586              		.thumb
 587              		.thumb_func
 588              		.type	spi_lld_select, %function
 589              	spi_lld_select:
 590              	.LFB123:
 591              		.loc 1 487 0
 592              		.cfi_startproc
 593              		@ args = 0, pretend = 0, frame = 0
 594              		@ frame_needed = 0, uses_anonymous_args = 0
 595              		@ link register save eliminated.
 596              	.LVL36:
 597              		.loc 1 489 0
 598 0000 4368     		ldr	r3, [r0, #4]
 599 0002 1989     		ldrh	r1, [r3, #8]
 600 0004 5A68     		ldr	r2, [r3, #4]
 601 0006 0123     		movs	r3, #1
 602 0008 8B40     		lsls	r3, r3, r1
 603 000a 9BB2     		uxth	r3, r3
 604 000c 5383     		strh	r3, [r2, #26]	@ movhi
 605 000e 7047     		bx	lr
 606              		.cfi_endproc
 607              	.LFE123:
 608              		.size	spi_lld_select, .-spi_lld_select
 609              		.section	.text.spi_lld_unselect,"ax",%progbits
 610              		.align	2
 611              		.p2align 4,,15
 612              		.global	spi_lld_unselect
 613              		.thumb
 614              		.thumb_func
 615              		.type	spi_lld_unselect, %function
 616              	spi_lld_unselect:
 617              	.LFB124:
 618              		.loc 1 500 0
 619              		.cfi_startproc
 620              		@ args = 0, pretend = 0, frame = 0
 621              		@ frame_needed = 0, uses_anonymous_args = 0
 622              		@ link register save eliminated.
 623              	.LVL37:
 624              		.loc 1 502 0
 625 0000 4368     		ldr	r3, [r0, #4]
 626 0002 1989     		ldrh	r1, [r3, #8]
 627 0004 5A68     		ldr	r2, [r3, #4]
ARM GAS  /tmp/ccfmqroh.s 			page 12


 628 0006 0123     		movs	r3, #1
 629 0008 8B40     		lsls	r3, r3, r1
 630 000a 9BB2     		uxth	r3, r3
 631 000c 1383     		strh	r3, [r2, #24]	@ movhi
 632 000e 7047     		bx	lr
 633              		.cfi_endproc
 634              	.LFE124:
 635              		.size	spi_lld_unselect, .-spi_lld_unselect
 636              		.section	.text.spi_lld_ignore,"ax",%progbits
 637              		.align	2
 638              		.p2align 4,,15
 639              		.global	spi_lld_ignore
 640              		.thumb
 641              		.thumb_func
 642              		.type	spi_lld_ignore, %function
 643              	spi_lld_ignore:
 644              	.LFB125:
 645              		.loc 1 516 0
 646              		.cfi_startproc
 647              		@ args = 0, pretend = 0, frame = 0
 648              		@ frame_needed = 0, uses_anonymous_args = 0
 649              		@ link register save eliminated.
 650              	.LVL38:
 651              		.loc 1 518 0
 652 0000 026A     		ldr	r2, [r0, #32]
 653              		.loc 1 522 0
 654 0002 436A     		ldr	r3, [r0, #36]
 655              		.loc 1 518 0
 656 0004 1268     		ldr	r2, [r2]
 657              		.loc 1 522 0
 658 0006 1B68     		ldr	r3, [r3]
 659              		.loc 1 516 0
 660 0008 70B4     		push	{r4, r5, r6}
 661              		.cfi_def_cfa_offset 12
 662              		.cfi_offset 4, -12
 663              		.cfi_offset 5, -8
 664              		.cfi_offset 6, -4
 665              		.loc 1 520 0
 666 000a 856A     		ldr	r5, [r0, #40]
 667              		.loc 1 518 0
 668 000c 094E     		ldr	r6, .L63
 669              		.loc 1 524 0
 670 000e C06A     		ldr	r0, [r0, #44]
 671              	.LVL39:
 672              		.loc 1 522 0
 673 0010 094C     		ldr	r4, .L63+4
 674              		.loc 1 518 0
 675 0012 D660     		str	r6, [r2, #12]
 676              		.loc 1 519 0
 677 0014 5160     		str	r1, [r2, #4]
 678              		.loc 1 520 0
 679 0016 1560     		str	r5, [r2]
 680              		.loc 1 522 0
 681 0018 DC60     		str	r4, [r3, #12]
 682              		.loc 1 523 0
 683 001a 5960     		str	r1, [r3, #4]
 684              		.loc 1 524 0
ARM GAS  /tmp/ccfmqroh.s 			page 13


 685 001c 1860     		str	r0, [r3]
 686              		.loc 1 526 0
 687 001e 1168     		ldr	r1, [r2]
 688              	.LVL40:
 689 0020 41F00101 		orr	r1, r1, #1
 690 0024 1160     		str	r1, [r2]
 691              		.loc 1 527 0
 692 0026 1A68     		ldr	r2, [r3]
 693 0028 42F00102 		orr	r2, r2, #1
 694 002c 1A60     		str	r2, [r3]
 695              		.loc 1 528 0
 696 002e 70BC     		pop	{r4, r5, r6}
 697              		.cfi_restore 6
 698              		.cfi_restore 5
 699              		.cfi_restore 4
 700              		.cfi_def_cfa_offset 0
 701 0030 7047     		bx	lr
 702              	.L64:
 703 0032 00BF     		.align	2
 704              	.L63:
 705 0034 00000000 		.word	.LANCHOR4
 706 0038 00000000 		.word	.LANCHOR0
 707              		.cfi_endproc
 708              	.LFE125:
 709              		.size	spi_lld_ignore, .-spi_lld_ignore
 710              		.section	.text.spi_lld_exchange,"ax",%progbits
 711              		.align	2
 712              		.p2align 4,,15
 713              		.global	spi_lld_exchange
 714              		.thumb
 715              		.thumb_func
 716              		.type	spi_lld_exchange, %function
 717              	spi_lld_exchange:
 718              	.LFB126:
 719              		.loc 1 546 0
 720              		.cfi_startproc
 721              		@ args = 0, pretend = 0, frame = 0
 722              		@ frame_needed = 0, uses_anonymous_args = 0
 723              		@ link register save eliminated.
 724              	.LVL41:
 725 0000 F0B4     		push	{r4, r5, r6, r7}
 726              		.cfi_def_cfa_offset 16
 727              		.cfi_offset 4, -16
 728              		.cfi_offset 5, -12
 729              		.cfi_offset 6, -8
 730              		.cfi_offset 7, -4
 731              		.loc 1 548 0
 732 0002 046A     		ldr	r4, [r0, #32]
 733              		.loc 1 552 0
 734 0004 476A     		ldr	r7, [r0, #36]
 735              		.loc 1 550 0
 736 0006 866A     		ldr	r6, [r0, #40]
 737              		.loc 1 554 0
 738 0008 C56A     		ldr	r5, [r0, #44]
 739              		.loc 1 548 0
 740 000a 2468     		ldr	r4, [r4]
 741              		.loc 1 552 0
ARM GAS  /tmp/ccfmqroh.s 			page 14


 742 000c 3868     		ldr	r0, [r7]
 743              	.LVL42:
 744              		.loc 1 548 0
 745 000e E360     		str	r3, [r4, #12]
 746              		.loc 1 550 0
 747 0010 46F48066 		orr	r6, r6, #1024
 748              		.loc 1 554 0
 749 0014 45F48065 		orr	r5, r5, #1024
 750              		.loc 1 549 0
 751 0018 6160     		str	r1, [r4, #4]
 752              		.loc 1 550 0
 753 001a 2660     		str	r6, [r4]
 754              		.loc 1 552 0
 755 001c C260     		str	r2, [r0, #12]
 756              		.loc 1 553 0
 757 001e 4160     		str	r1, [r0, #4]
 758              		.loc 1 554 0
 759 0020 0560     		str	r5, [r0]
 760              		.loc 1 556 0
 761 0022 2368     		ldr	r3, [r4]
 762              	.LVL43:
 763 0024 43F00103 		orr	r3, r3, #1
 764 0028 2360     		str	r3, [r4]
 765              		.loc 1 557 0
 766 002a 0368     		ldr	r3, [r0]
 767 002c 43F00103 		orr	r3, r3, #1
 768 0030 0360     		str	r3, [r0]
 769              		.loc 1 558 0
 770 0032 F0BC     		pop	{r4, r5, r6, r7}
 771              		.cfi_restore 7
 772              		.cfi_restore 6
 773              		.cfi_restore 5
 774              		.cfi_restore 4
 775              		.cfi_def_cfa_offset 0
 776 0034 7047     		bx	lr
 777              		.cfi_endproc
 778              	.LFE126:
 779              		.size	spi_lld_exchange, .-spi_lld_exchange
 780 0036 00BF     		.section	.text.spi_lld_send,"ax",%progbits
 781              		.align	2
 782              		.p2align 4,,15
 783              		.global	spi_lld_send
 784              		.thumb
 785              		.thumb_func
 786              		.type	spi_lld_send, %function
 787              	spi_lld_send:
 788              	.LFB127:
 789              		.loc 1 573 0
 790              		.cfi_startproc
 791              		@ args = 0, pretend = 0, frame = 0
 792              		@ frame_needed = 0, uses_anonymous_args = 0
 793              		@ link register save eliminated.
 794              	.LVL44:
 795 0000 70B4     		push	{r4, r5, r6}
 796              		.cfi_def_cfa_offset 12
 797              		.cfi_offset 4, -12
 798              		.cfi_offset 5, -8
ARM GAS  /tmp/ccfmqroh.s 			page 15


 799              		.cfi_offset 6, -4
 800              		.loc 1 579 0
 801 0002 436A     		ldr	r3, [r0, #36]
 802              		.loc 1 575 0
 803 0004 046A     		ldr	r4, [r0, #32]
 804              		.loc 1 581 0
 805 0006 C56A     		ldr	r5, [r0, #44]
 806              		.loc 1 575 0
 807 0008 2468     		ldr	r4, [r4]
 808              		.loc 1 579 0
 809 000a 1B68     		ldr	r3, [r3]
 810              		.loc 1 577 0
 811 000c 806A     		ldr	r0, [r0, #40]
 812              	.LVL45:
 813              		.loc 1 575 0
 814 000e 094E     		ldr	r6, .L69
 815 0010 E660     		str	r6, [r4, #12]
 816              		.loc 1 581 0
 817 0012 45F48065 		orr	r5, r5, #1024
 818              		.loc 1 576 0
 819 0016 6160     		str	r1, [r4, #4]
 820              		.loc 1 577 0
 821 0018 2060     		str	r0, [r4]
 822              		.loc 1 579 0
 823 001a DA60     		str	r2, [r3, #12]
 824              		.loc 1 580 0
 825 001c 5960     		str	r1, [r3, #4]
 826              		.loc 1 581 0
 827 001e 1D60     		str	r5, [r3]
 828              		.loc 1 583 0
 829 0020 2268     		ldr	r2, [r4]
 830              	.LVL46:
 831 0022 42F00102 		orr	r2, r2, #1
 832 0026 2260     		str	r2, [r4]
 833              		.loc 1 584 0
 834 0028 1A68     		ldr	r2, [r3]
 835 002a 42F00102 		orr	r2, r2, #1
 836 002e 1A60     		str	r2, [r3]
 837              		.loc 1 585 0
 838 0030 70BC     		pop	{r4, r5, r6}
 839              		.cfi_restore 6
 840              		.cfi_restore 5
 841              		.cfi_restore 4
 842              		.cfi_def_cfa_offset 0
 843 0032 7047     		bx	lr
 844              	.L70:
 845              		.align	2
 846              	.L69:
 847 0034 00000000 		.word	.LANCHOR4
 848              		.cfi_endproc
 849              	.LFE127:
 850              		.size	spi_lld_send, .-spi_lld_send
 851              		.section	.text.spi_lld_receive,"ax",%progbits
 852              		.align	2
 853              		.p2align 4,,15
 854              		.global	spi_lld_receive
 855              		.thumb
ARM GAS  /tmp/ccfmqroh.s 			page 16


 856              		.thumb_func
 857              		.type	spi_lld_receive, %function
 858              	spi_lld_receive:
 859              	.LFB128:
 860              		.loc 1 600 0
 861              		.cfi_startproc
 862              		@ args = 0, pretend = 0, frame = 0
 863              		@ frame_needed = 0, uses_anonymous_args = 0
 864              		@ link register save eliminated.
 865              	.LVL47:
 866 0000 70B4     		push	{r4, r5, r6}
 867              		.cfi_def_cfa_offset 12
 868              		.cfi_offset 4, -12
 869              		.cfi_offset 5, -8
 870              		.cfi_offset 6, -4
 871              		.loc 1 606 0
 872 0002 436A     		ldr	r3, [r0, #36]
 873              		.loc 1 602 0
 874 0004 046A     		ldr	r4, [r0, #32]
 875              		.loc 1 604 0
 876 0006 856A     		ldr	r5, [r0, #40]
 877              		.loc 1 602 0
 878 0008 2468     		ldr	r4, [r4]
 879              		.loc 1 606 0
 880 000a 1B68     		ldr	r3, [r3]
 881              		.loc 1 608 0
 882 000c C06A     		ldr	r0, [r0, #44]
 883              	.LVL48:
 884              		.loc 1 606 0
 885 000e 094E     		ldr	r6, .L73
 886              		.loc 1 602 0
 887 0010 E260     		str	r2, [r4, #12]
 888              		.loc 1 604 0
 889 0012 45F48065 		orr	r5, r5, #1024
 890              		.loc 1 603 0
 891 0016 6160     		str	r1, [r4, #4]
 892              		.loc 1 604 0
 893 0018 2560     		str	r5, [r4]
 894              		.loc 1 606 0
 895 001a DE60     		str	r6, [r3, #12]
 896              		.loc 1 607 0
 897 001c 5960     		str	r1, [r3, #4]
 898              		.loc 1 608 0
 899 001e 1860     		str	r0, [r3]
 900              		.loc 1 610 0
 901 0020 2268     		ldr	r2, [r4]
 902              	.LVL49:
 903 0022 42F00102 		orr	r2, r2, #1
 904 0026 2260     		str	r2, [r4]
 905              		.loc 1 611 0
 906 0028 1A68     		ldr	r2, [r3]
 907 002a 42F00102 		orr	r2, r2, #1
 908 002e 1A60     		str	r2, [r3]
 909              		.loc 1 612 0
 910 0030 70BC     		pop	{r4, r5, r6}
 911              		.cfi_restore 6
 912              		.cfi_restore 5
ARM GAS  /tmp/ccfmqroh.s 			page 17


 913              		.cfi_restore 4
 914              		.cfi_def_cfa_offset 0
 915 0032 7047     		bx	lr
 916              	.L74:
 917              		.align	2
 918              	.L73:
 919 0034 00000000 		.word	.LANCHOR0
 920              		.cfi_endproc
 921              	.LFE128:
 922              		.size	spi_lld_receive, .-spi_lld_receive
 923              		.section	.text.spi_lld_polled_exchange,"ax",%progbits
 924              		.align	2
 925              		.p2align 4,,15
 926              		.global	spi_lld_polled_exchange
 927              		.thumb
 928              		.thumb_func
 929              		.type	spi_lld_polled_exchange, %function
 930              	spi_lld_polled_exchange:
 931              	.LFB129:
 932              		.loc 1 626 0
 933              		.cfi_startproc
 934              		@ args = 0, pretend = 0, frame = 0
 935              		@ frame_needed = 0, uses_anonymous_args = 0
 936              		@ link register save eliminated.
 937              	.LVL50:
 938              		.loc 1 628 0
 939 0000 C269     		ldr	r2, [r0, #28]
 940 0002 9181     		strh	r1, [r2, #12]	@ movhi
 941              	.L76:
 942              		.loc 1 629 0 discriminator 1
 943 0004 1389     		ldrh	r3, [r2, #8]
 944 0006 DB07     		lsls	r3, r3, #31
 945 0008 FCD5     		bpl	.L76
 946              		.loc 1 631 0
 947 000a 9089     		ldrh	r0, [r2, #12]
 948              	.LVL51:
 949              		.loc 1 632 0
 950 000c 80B2     		uxth	r0, r0
 951 000e 7047     		bx	lr
 952              		.cfi_endproc
 953              	.LFE129:
 954              		.size	spi_lld_polled_exchange, .-spi_lld_polled_exchange
 955              		.global	SPID3
 956              		.global	SPID2
 957              		.global	SPID1
 958              		.section	.bss.dummytx,"aw",%nobits
 959              		.align	1
 960              		.set	.LANCHOR0,. + 0
 961              		.type	dummytx, %object
 962              		.size	dummytx, 2
 963              	dummytx:
 964 0000 0000     		.space	2
 965              		.section	.bss.SPID1,"aw",%nobits
 966              		.align	2
 967              		.set	.LANCHOR1,. + 0
 968              		.type	SPID1, %object
 969              		.size	SPID1, 48
ARM GAS  /tmp/ccfmqroh.s 			page 18


 970              	SPID1:
 971 0000 00000000 		.space	48
 971      00000000 
 971      00000000 
 971      00000000 
 971      00000000 
 972              		.section	.bss.SPID2,"aw",%nobits
 973              		.align	2
 974              		.set	.LANCHOR2,. + 0
 975              		.type	SPID2, %object
 976              		.size	SPID2, 48
 977              	SPID2:
 978 0000 00000000 		.space	48
 978      00000000 
 978      00000000 
 978      00000000 
 978      00000000 
 979              		.section	.bss.SPID3,"aw",%nobits
 980              		.align	2
 981              		.set	.LANCHOR3,. + 0
 982              		.type	SPID3, %object
 983              		.size	SPID3, 48
 984              	SPID3:
 985 0000 00000000 		.space	48
 985      00000000 
 985      00000000 
 985      00000000 
 985      00000000 
 986              		.section	.bss.dummyrx,"aw",%nobits
 987              		.align	1
 988              		.set	.LANCHOR4,. + 0
 989              		.type	dummyrx, %object
 990              		.size	dummyrx, 2
 991              	dummyrx:
 992 0000 0000     		.space	2
 993              		.text
 994              	.Letext0:
 995              		.file 2 "/home/sbcu/Dropbox/pcb-layouts/axo-on-discovery-board/axoloti/platform_linux/lib/gcc/arm-
 996              		.file 3 "/home/sbcu/Dropbox/pcb-layouts/axo-on-discovery-board/axoloti/platform_linux/arm-none-eab
 997              		.file 4 "/home/sbcu/Dropbox/pcb-layouts/axo-on-discovery-board/axoloti/platform_linux/arm-none-eab
 998              		.file 5 "/home/sbcu/Dropbox/pcb-layouts/axo-on-discovery-board/axoloti/platform_linux/../chibios/o
 999              		.file 6 "/home/sbcu/Dropbox/pcb-layouts/axo-on-discovery-board/axoloti/platform_linux/../chibios/o
 1000              		.file 7 "/home/sbcu/Dropbox/pcb-layouts/axo-on-discovery-board/axoloti/platform_linux/../chibios/o
 1001              		.file 8 "/home/sbcu/Dropbox/pcb-layouts/axo-on-discovery-board/axoloti/platform_linux/../chibios/o
 1002              		.file 9 "/home/sbcu/Dropbox/pcb-layouts/axo-on-discovery-board/axoloti/platform_linux/../chibios/o
 1003              		.file 10 "/home/sbcu/Dropbox/pcb-layouts/axo-on-discovery-board/axoloti/platform_linux/../chibios/
 1004              		.file 11 "/home/sbcu/Dropbox/pcb-layouts/axo-on-discovery-board/axoloti/platform_linux/../chibios/
 1005              		.file 12 "/home/sbcu/Dropbox/pcb-layouts/axo-on-discovery-board/axoloti/platform_linux/../chibios/
 1006              		.file 13 "/home/sbcu/Dropbox/pcb-layouts/axo-on-discovery-board/axoloti/platform_linux/../chibios/
 1007              		.file 14 "/home/sbcu/Dropbox/pcb-layouts/axo-on-discovery-board/axoloti/platform_linux/../chibios/
 1008              		.file 15 "/home/sbcu/Dropbox/pcb-layouts/axo-on-discovery-board/axoloti/platform_linux/../chibios/
 1009              		.file 16 "/home/sbcu/Dropbox/pcb-layouts/axo-on-discovery-board/axoloti/platform_linux/../chibios/