ARM GAS  /tmp/ccxtfUlq.s 			page 1


   1              		.syntax unified
   2              		.cpu cortex-m4
   3              		.eabi_attribute 27, 1
   4              		.eabi_attribute 28, 1
   5              		.fpu fpv4-sp-d16
   6              		.eabi_attribute 20, 1
   7              		.eabi_attribute 21, 1
   8              		.eabi_attribute 23, 3
   9              		.eabi_attribute 24, 1
  10              		.eabi_attribute 25, 1
  11              		.eabi_attribute 26, 1
  12              		.eabi_attribute 30, 2
  13              		.eabi_attribute 34, 1
  14              		.eabi_attribute 18, 4
  15              		.thumb
  16              		.file	"stm32f4xx_fmc.c"
  17              		.text
  18              	.Ltext0:
  19              		.cfi_sections	.debug_frame
  20              		.section	.text.FMC_NORSRAMDeInit,"ax",%progbits
  21              		.align	2
  22              		.p2align 4,,15
  23              		.global	FMC_NORSRAMDeInit
  24              		.thumb
  25              		.thumb_func
  26              		.type	FMC_NORSRAMDeInit, %function
  27              	FMC_NORSRAMDeInit:
  28              	.LFB118:
  29              		.file 1 "../stm32f4xx_fmc.c"
  30              		.loc 1 134 0
  31              		.cfi_startproc
  32              		@ args = 0, pretend = 0, frame = 0
  33              		@ frame_needed = 0, uses_anonymous_args = 0
  34              		@ link register save eliminated.
  35              	.LVL0:
  36              		.loc 1 141 0
  37 0000 4FF02043 		mov	r3, #-1610612736
  38              		.loc 1 139 0
  39 0004 60B1     		cbz	r0, .L5
  40              		.loc 1 146 0
  41 0006 43F2D202 		movw	r2, #12498
  42 000a 43F82020 		str	r2, [r3, r0, lsl #2]
  43              	.L3:
  44 000e 8000     		lsls	r0, r0, #2
  45              	.LVL1:
  46 0010 00F12040 		add	r0, r0, #-1610612736
  47              		.loc 1 148 0
  48 0014 6FF07043 		mvn	r3, #-268435456
  49 0018 4360     		str	r3, [r0, #4]
  50              		.loc 1 149 0
  51 001a C0F80431 		str	r3, [r0, #260]
  52 001e 7047     		bx	lr
  53              	.LVL2:
  54              	.L5:
  55              		.loc 1 141 0
  56 0020 43F2DB02 		movw	r2, #12507
  57 0024 1A60     		str	r2, [r3]
ARM GAS  /tmp/ccxtfUlq.s 			page 2


  58 0026 F2E7     		b	.L3
  59              		.cfi_endproc
  60              	.LFE118:
  61              		.size	FMC_NORSRAMDeInit, .-FMC_NORSRAMDeInit
  62              		.section	.text.FMC_NORSRAMInit,"ax",%progbits
  63              		.align	2
  64              		.p2align 4,,15
  65              		.global	FMC_NORSRAMInit
  66              		.thumb
  67              		.thumb_func
  68              		.type	FMC_NORSRAMInit, %function
  69              	FMC_NORSRAMInit:
  70              	.LFB119:
  71              		.loc 1 161 0
  72              		.cfi_startproc
  73              		@ args = 0, pretend = 0, frame = 8
  74              		@ frame_needed = 0, uses_anonymous_args = 0
  75              	.LVL3:
  76 0000 2DE9F042 		push	{r4, r5, r6, r7, r9, lr}
  77              		.cfi_def_cfa_offset 24
  78              		.cfi_offset 4, -24
  79              		.cfi_offset 5, -20
  80              		.cfi_offset 6, -16
  81              		.cfi_offset 7, -12
  82              		.cfi_offset 9, -8
  83              		.cfi_offset 14, -4
  84 0004 82B0     		sub	sp, sp, #8
  85              		.cfi_def_cfa_offset 32
  86              		.loc 1 194 0
  87 0006 C169     		ldr	r1, [r0, #28]
  88              		.loc 1 167 0
  89 0008 8368     		ldr	r3, [r0, #8]
  90              		.loc 1 194 0
  91 000a 0191     		str	r1, [sp, #4]
  92              		.loc 1 189 0
  93 000c 4168     		ldr	r1, [r0, #4]
  94              		.loc 1 190 0
  95 000e C768     		ldr	r7, [r0, #12]
  96              		.loc 1 191 0
  97 0010 0669     		ldr	r6, [r0, #16]
  98              		.loc 1 192 0
  99 0012 4569     		ldr	r5, [r0, #20]
 100              		.loc 1 193 0
 101 0014 8469     		ldr	r4, [r0, #24]
 102              		.loc 1 175 0
 103 0016 D0F828E0 		ldr	lr, [r0, #40]
 104              		.loc 1 165 0
 105 001a 0268     		ldr	r2, [r0]
 106              		.loc 1 189 0
 107 001c 43EA0109 		orr	r9, r3, r1
 108              		.loc 1 190 0
 109 0020 49EA0707 		orr	r7, r9, r7
 110              		.loc 1 191 0
 111 0024 3E43     		orrs	r6, r6, r7
 112              		.loc 1 192 0
 113 0026 3543     		orrs	r5, r5, r6
 114              		.loc 1 194 0
ARM GAS  /tmp/ccxtfUlq.s 			page 3


 115 0028 0199     		ldr	r1, [sp, #4]
 116              		.loc 1 178 0
 117 002a 476B     		ldr	r7, [r0, #52]
 118              		.loc 1 193 0
 119 002c 2C43     		orrs	r4, r4, r5
 120              		.loc 1 194 0
 121 002e 0C43     		orrs	r4, r4, r1
 122              		.loc 1 195 0
 123 0030 016A     		ldr	r1, [r0, #32]
 124              		.loc 1 185 0
 125 0032 856B     		ldr	r5, [r0, #56]
 126              		.loc 1 195 0
 127 0034 0C43     		orrs	r4, r4, r1
 128              		.loc 1 196 0
 129 0036 416A     		ldr	r1, [r0, #36]
 130 0038 0C43     		orrs	r4, r4, r1
 131              		.loc 1 198 0
 132 003a C16A     		ldr	r1, [r0, #44]
 133              		.loc 1 197 0
 134 003c 44EA0E04 		orr	r4, r4, lr
 135              		.loc 1 198 0
 136 0040 0C43     		orrs	r4, r4, r1
 137              		.loc 1 199 0
 138 0042 016B     		ldr	r1, [r0, #48]
 139 0044 9600     		lsls	r6, r2, #2
 140 0046 0C43     		orrs	r4, r4, r1
 141 0048 06F12046 		add	r6, r6, #-1610612736
 142              		.loc 1 200 0
 143 004c 3C43     		orrs	r4, r4, r7
 144              		.loc 1 204 0
 145 004e 082B     		cmp	r3, #8
 146              		.loc 1 185 0
 147 0050 A969     		ldr	r1, [r5, #24]
 148              		.loc 1 188 0
 149 0052 3460     		str	r4, [r6]
 150              		.loc 1 204 0
 151 0054 1ED0     		beq	.L15
 152              		.loc 1 210 0
 153 0056 B7F5801F 		cmp	r7, #1048576
 154 005a 22D0     		beq	.L16
 155              	.L14:
 156 005c 2F69     		ldr	r7, [r5, #16]
 157              	.LVL4:
 158              	.L9:
 159              		.loc 1 223 0
 160 005e AA68     		ldr	r2, [r5, #8]
 161              		.loc 1 224 0
 162 0060 EB68     		ldr	r3, [r5, #12]
 163              		.loc 1 222 0
 164 0062 95E81010 		ldmia	r5, {r4, ip}
 165 0066 2143     		orrs	r1, r1, r4
 166 0068 41EA0C11 		orr	r1, r1, ip, lsl #4
 167              		.loc 1 226 0
 168 006c 6D69     		ldr	r5, [r5, #20]
 169 006e 41EA0222 		orr	r2, r1, r2, lsl #8
 170 0072 42EA0342 		orr	r2, r2, r3, lsl #16
 171 0076 42EA0563 		orr	r3, r2, r5, lsl #24
ARM GAS  /tmp/ccxtfUlq.s 			page 4


 172 007a 43EA0753 		orr	r3, r3, r7, lsl #20
 173              		.loc 1 230 0
 174 007e BEF5804F 		cmp	lr, #16384
 175              		.loc 1 220 0
 176 0082 7360     		str	r3, [r6, #4]
 177              		.loc 1 230 0
 178 0084 22D0     		beq	.L17
 179              		.loc 1 249 0
 180 0086 6FF07043 		mvn	r3, #-268435456
 181 008a C6F80431 		str	r3, [r6, #260]
 182              		.loc 1 252 0
 183 008e 02B0     		add	sp, sp, #8
 184              		.cfi_remember_state
 185              		.cfi_def_cfa_offset 24
 186              		@ sp needed
 187 0090 BDE8F082 		pop	{r4, r5, r6, r7, r9, pc}
 188              	.LVL5:
 189              	.L15:
 190              		.cfi_restore_state
 191              		.loc 1 206 0
 192 0094 3368     		ldr	r3, [r6]
 193              		.loc 1 210 0
 194 0096 B7F5801F 		cmp	r7, #1048576
 195              		.loc 1 206 0
 196 009a 43F04003 		orr	r3, r3, #64
 197 009e 3360     		str	r3, [r6]
 198              		.loc 1 210 0
 199 00a0 DCD1     		bne	.L14
 200              	.L16:
 201              		.loc 1 210 0 is_stmt 0 discriminator 1
 202 00a2 002A     		cmp	r2, #0
 203 00a4 DAD0     		beq	.L14
 204              		.loc 1 212 0 is_stmt 1
 205 00a6 4FF02043 		mov	r3, #-1610612736
 206 00aa 5A68     		ldr	r2, [r3, #4]
 207              	.LVL6:
 208              		.loc 1 214 0
 209 00ac 1C68     		ldr	r4, [r3]
 210 00ae 44F48014 		orr	r4, r4, #1048576
 211 00b2 1C60     		str	r4, [r3]
 212              		.loc 1 215 0
 213 00b4 1C68     		ldr	r4, [r3]
 214 00b6 44F48074 		orr	r4, r4, #256
 215 00ba 1C60     		str	r4, [r3]
 216              		.loc 1 216 0
 217 00bc 2F69     		ldr	r7, [r5, #16]
 218              		.loc 1 212 0
 219 00be 22F47002 		bic	r2, r2, #15728640
 220              	.LVL7:
 221              		.loc 1 216 0
 222 00c2 7C1E     		subs	r4, r7, #1
 223 00c4 42EA0452 		orr	r2, r2, r4, lsl #20
 224              	.LVL8:
 225 00c8 5A60     		str	r2, [r3, #4]
 226 00ca C8E7     		b	.L9
 227              	.L17:
 228              		.loc 1 237 0
ARM GAS  /tmp/ccxtfUlq.s 			page 5


 229 00cc C06B     		ldr	r0, [r0, #60]
 230              	.LVL9:
 231 00ce 0568     		ldr	r5, [r0]
 232 00d0 8169     		ldr	r1, [r0, #24]
 233              		.loc 1 241 0
 234 00d2 4268     		ldr	r2, [r0, #4]
 235              		.loc 1 242 0
 236 00d4 8368     		ldr	r3, [r0, #8]
 237              		.loc 1 243 0
 238 00d6 0469     		ldr	r4, [r0, #16]
 239              		.loc 1 244 0
 240 00d8 4069     		ldr	r0, [r0, #20]
 241 00da 2943     		orrs	r1, r1, r5
 242 00dc 41EA0212 		orr	r2, r1, r2, lsl #4
 243 00e0 42EA0322 		orr	r2, r2, r3, lsl #8
 244 00e4 42EA0453 		orr	r3, r2, r4, lsl #20
 245 00e8 43EA0063 		orr	r3, r3, r0, lsl #24
 246              		.loc 1 239 0
 247 00ec C6F80431 		str	r3, [r6, #260]
 248              		.loc 1 252 0
 249 00f0 02B0     		add	sp, sp, #8
 250              		.cfi_def_cfa_offset 24
 251              		@ sp needed
 252 00f2 BDE8F082 		pop	{r4, r5, r6, r7, r9, pc}
 253              		.cfi_endproc
 254              	.LFE119:
 255              		.size	FMC_NORSRAMInit, .-FMC_NORSRAMInit
 256 00f6 00BF     		.section	.text.FMC_NORSRAMStructInit,"ax",%progbits
 257              		.align	2
 258              		.p2align 4,,15
 259              		.global	FMC_NORSRAMStructInit
 260              		.thumb
 261              		.thumb_func
 262              		.type	FMC_NORSRAMStructInit, %function
 263              	FMC_NORSRAMStructInit:
 264              	.LFB120:
 265              		.loc 1 261 0
 266              		.cfi_startproc
 267              		@ args = 0, pretend = 0, frame = 0
 268              		@ frame_needed = 0, uses_anonymous_args = 0
 269              	.LVL10:
 270 0000 F0B5     		push	{r4, r5, r6, r7, lr}
 271              		.cfi_def_cfa_offset 20
 272              		.cfi_offset 4, -20
 273              		.cfi_offset 5, -16
 274              		.cfi_offset 6, -12
 275              		.cfi_offset 7, -8
 276              		.cfi_offset 14, -4
 277              		.loc 1 285 0
 278 0002 C16B     		ldr	r1, [r0, #60]
 279              		.loc 1 278 0
 280 0004 846B     		ldr	r4, [r0, #56]
 281              		.loc 1 264 0
 282 0006 0223     		movs	r3, #2
 283 0008 4360     		str	r3, [r0, #4]
 284              		.loc 1 278 0
 285 000a 0F22     		movs	r2, #15
ARM GAS  /tmp/ccxtfUlq.s 			page 6


 286              		.loc 1 263 0
 287 000c 0023     		movs	r3, #0
 288              		.loc 1 280 0
 289 000e FF25     		movs	r5, #255
 290              		.loc 1 266 0
 291 0010 4FF0100E 		mov	lr, #16
 292              		.loc 1 272 0
 293 0014 4FF48057 		mov	r7, #4096
 294              		.loc 1 273 0
 295 0018 4FF40056 		mov	r6, #8192
 296              		.loc 1 266 0
 297 001c C0F80CE0 		str	lr, [r0, #12]
 298              		.loc 1 272 0
 299 0020 0762     		str	r7, [r0, #32]
 300              		.loc 1 273 0
 301 0022 4662     		str	r6, [r0, #36]
 302              		.loc 1 263 0
 303 0024 0360     		str	r3, [r0]
 304              		.loc 1 265 0
 305 0026 8360     		str	r3, [r0, #8]
 306              		.loc 1 267 0
 307 0028 0361     		str	r3, [r0, #16]
 308              		.loc 1 268 0
 309 002a C362     		str	r3, [r0, #44]
 310              		.loc 1 269 0
 311 002c 4361     		str	r3, [r0, #20]
 312              		.loc 1 270 0
 313 002e 8361     		str	r3, [r0, #24]
 314              		.loc 1 271 0
 315 0030 C361     		str	r3, [r0, #28]
 316              		.loc 1 274 0
 317 0032 8362     		str	r3, [r0, #40]
 318              		.loc 1 275 0
 319 0034 0363     		str	r3, [r0, #48]
 320              		.loc 1 276 0
 321 0036 4363     		str	r3, [r0, #52]
 322              		.loc 1 284 0
 323 0038 A361     		str	r3, [r4, #24]
 324              		.loc 1 278 0
 325 003a 2260     		str	r2, [r4]
 326              		.loc 1 279 0
 327 003c 6260     		str	r2, [r4, #4]
 328              		.loc 1 281 0
 329 003e E260     		str	r2, [r4, #12]
 330              		.loc 1 282 0
 331 0040 2261     		str	r2, [r4, #16]
 332              		.loc 1 283 0
 333 0042 6261     		str	r2, [r4, #20]
 334              		.loc 1 280 0
 335 0044 A560     		str	r5, [r4, #8]
 336              		.loc 1 285 0
 337 0046 0A60     		str	r2, [r1]
 338              		.loc 1 286 0
 339 0048 4A60     		str	r2, [r1, #4]
 340              		.loc 1 287 0
 341 004a 8D60     		str	r5, [r1, #8]
 342              		.loc 1 288 0
ARM GAS  /tmp/ccxtfUlq.s 			page 7


 343 004c CA60     		str	r2, [r1, #12]
 344              		.loc 1 289 0
 345 004e 0A61     		str	r2, [r1, #16]
 346              		.loc 1 290 0
 347 0050 4A61     		str	r2, [r1, #20]
 348              		.loc 1 291 0
 349 0052 8B61     		str	r3, [r1, #24]
 350 0054 F0BD     		pop	{r4, r5, r6, r7, pc}
 351              		.cfi_endproc
 352              	.LFE120:
 353              		.size	FMC_NORSRAMStructInit, .-FMC_NORSRAMStructInit
 354 0056 00BF     		.section	.text.FMC_NORSRAMCmd,"ax",%progbits
 355              		.align	2
 356              		.p2align 4,,15
 357              		.global	FMC_NORSRAMCmd
 358              		.thumb
 359              		.thumb_func
 360              		.type	FMC_NORSRAMCmd, %function
 361              	FMC_NORSRAMCmd:
 362              	.LFB121:
 363              		.loc 1 306 0
 364              		.cfi_startproc
 365              		@ args = 0, pretend = 0, frame = 0
 366              		@ frame_needed = 0, uses_anonymous_args = 0
 367              		@ link register save eliminated.
 368              	.LVL11:
 369 0000 8000     		lsls	r0, r0, #2
 370              	.LVL12:
 371 0002 00F12040 		add	r0, r0, #-1610612736
 372              		.loc 1 310 0
 373 0006 21B9     		cbnz	r1, .L23
 374              		.loc 1 318 0
 375 0008 0268     		ldr	r2, [r0]
 376 000a 044B     		ldr	r3, .L24
 377 000c 1340     		ands	r3, r3, r2
 378 000e 0360     		str	r3, [r0]
 379 0010 7047     		bx	lr
 380              	.L23:
 381              		.loc 1 313 0
 382 0012 0368     		ldr	r3, [r0]
 383 0014 43F00103 		orr	r3, r3, #1
 384 0018 0360     		str	r3, [r0]
 385 001a 7047     		bx	lr
 386              	.L25:
 387              		.align	2
 388              	.L24:
 389 001c FEFF0F00 		.word	1048574
 390              		.cfi_endproc
 391              	.LFE121:
 392              		.size	FMC_NORSRAMCmd, .-FMC_NORSRAMCmd
 393              		.section	.text.FMC_NANDDeInit,"ax",%progbits
 394              		.align	2
 395              		.p2align 4,,15
 396              		.global	FMC_NANDDeInit
 397              		.thumb
 398              		.thumb_func
 399              		.type	FMC_NANDDeInit, %function
ARM GAS  /tmp/ccxtfUlq.s 			page 8


 400              	FMC_NANDDeInit:
 401              	.LFB122:
 402              		.loc 1 379 0
 403              		.cfi_startproc
 404              		@ args = 0, pretend = 0, frame = 0
 405              		@ frame_needed = 0, uses_anonymous_args = 0
 406              		@ link register save eliminated.
 407              	.LVL13:
 408              		.loc 1 383 0
 409 0000 1028     		cmp	r0, #16
 410              		.loc 1 386 0
 411 0002 0CBF     		ite	eq
 412 0004 054B     		ldreq	r3, .L30
 413              		.loc 1 395 0
 414 0006 064B     		ldrne	r3, .L30+4
 415              		.loc 1 397 0
 416 0008 4FF0FC32 		mov	r2, #-50529028
 417              		.loc 1 395 0
 418 000c 1820     		movs	r0, #24
 419              	.LVL14:
 420              		.loc 1 396 0
 421 000e 4021     		movs	r1, #64
 422              		.loc 1 395 0
 423 0010 1860     		str	r0, [r3]
 424              		.loc 1 396 0
 425 0012 5960     		str	r1, [r3, #4]
 426              		.loc 1 397 0
 427 0014 9A60     		str	r2, [r3, #8]
 428              		.loc 1 398 0
 429 0016 DA60     		str	r2, [r3, #12]
 430 0018 7047     		bx	lr
 431              	.L31:
 432 001a 00BF     		.align	2
 433              	.L30:
 434 001c 600000A0 		.word	-1610612640
 435 0020 800000A0 		.word	-1610612608
 436              		.cfi_endproc
 437              	.LFE122:
 438              		.size	FMC_NANDDeInit, .-FMC_NANDDeInit
 439              		.section	.text.FMC_NANDInit,"ax",%progbits
 440              		.align	2
 441              		.p2align 4,,15
 442              		.global	FMC_NANDInit
 443              		.thumb
 444              		.thumb_func
 445              		.type	FMC_NANDInit, %function
 446              	FMC_NANDInit:
 447              	.LFB123:
 448              		.loc 1 410 0
 449              		.cfi_startproc
 450              		@ args = 0, pretend = 0, frame = 8
 451              		@ frame_needed = 0, uses_anonymous_args = 0
 452              	.LVL15:
 453 0000 2DE9F04E 		push	{r4, r5, r6, r7, r9, r10, fp, lr}
 454              		.cfi_def_cfa_offset 32
 455              		.cfi_offset 4, -32
 456              		.cfi_offset 5, -28
ARM GAS  /tmp/ccxtfUlq.s 			page 9


 457              		.cfi_offset 6, -24
 458              		.cfi_offset 7, -20
 459              		.cfi_offset 9, -16
 460              		.cfi_offset 10, -12
 461              		.cfi_offset 11, -8
 462              		.cfi_offset 14, -4
 463 0004 82B0     		sub	sp, sp, #8
 464              		.cfi_def_cfa_offset 40
 465 0006 0669     		ldr	r6, [r0, #16]
 466              		.loc 1 432 0
 467 0008 8468     		ldr	r4, [r0, #8]
 468 000a 0196     		str	r6, [sp, #4]
 469 000c 4668     		ldr	r6, [r0, #4]
 470              		.loc 1 446 0
 471 000e 036A     		ldr	r3, [r0, #32]
 472              		.loc 1 440 0
 473 0010 C569     		ldr	r5, [r0, #28]
 474              		.loc 1 448 0
 475 0012 9A68     		ldr	r2, [r3, #8]
 476              		.loc 1 442 0
 477 0014 A968     		ldr	r1, [r5, #8]
 478              		.loc 1 447 0
 479 0016 D3F804A0 		ldr	r10, [r3, #4]
 480              		.loc 1 441 0
 481 001a D5F804B0 		ldr	fp, [r5, #4]
 482              		.loc 1 436 0
 483 001e D0F81490 		ldr	r9, [r0, #20]
 484              		.loc 1 441 0
 485 0022 D5F800E0 		ldr	lr, [r5]
 486              		.loc 1 443 0
 487 0026 EF68     		ldr	r7, [r5, #12]
 488              		.loc 1 447 0
 489 0028 1D68     		ldr	r5, [r3]
 490              		.loc 1 449 0
 491 002a DB68     		ldr	r3, [r3, #12]
 492              		.loc 1 432 0
 493 002c 3443     		orrs	r4, r4, r6
 494 002e C668     		ldr	r6, [r0, #12]
 495 0030 44F00804 		orr	r4, r4, #8
 496 0034 3443     		orrs	r4, r4, r6
 497 0036 019E     		ldr	r6, [sp, #4]
 498              		.loc 1 448 0
 499 0038 1204     		lsls	r2, r2, #16
 500 003a 2643     		orrs	r6, r6, r4
 501              		.loc 1 437 0
 502 003c 8469     		ldr	r4, [r0, #24]
 503              		.loc 1 451 0
 504 003e 0068     		ldr	r0, [r0]
 505              	.LVL16:
 506 0040 42EA0A2A 		orr	r10, r2, r10, lsl #8
 507              		.loc 1 442 0
 508 0044 0904     		lsls	r1, r1, #16
 509 0046 41EA0B21 		orr	r1, r1, fp, lsl #8
 510              		.loc 1 451 0
 511 004a 1028     		cmp	r0, #16
 512              		.loc 1 447 0
 513 004c 4AEA0505 		orr	r5, r10, r5
ARM GAS  /tmp/ccxtfUlq.s 			page 10


 514              		.loc 1 446 0
 515 0050 45EA0365 		orr	r5, r5, r3, lsl #24
 516 0054 46EA4929 		orr	r9, r6, r9, lsl #9
 517              		.loc 1 454 0
 518 0058 0CBF     		ite	eq
 519 005a 074B     		ldreq	r3, .L36
 520              		.loc 1 461 0
 521 005c 074B     		ldrne	r3, .L36+4
 522              		.loc 1 441 0
 523 005e 41EA0E0E 		orr	lr, r1, lr
 524              		.loc 1 431 0
 525 0062 49EA4436 		orr	r6, r9, r4, lsl #13
 526              	.LVL17:
 527              		.loc 1 440 0
 528 0066 4EEA0761 		orr	r1, lr, r7, lsl #24
 529              	.LVL18:
 530              		.loc 1 461 0
 531 006a 1E60     		str	r6, [r3]
 532              		.loc 1 462 0
 533 006c 9960     		str	r1, [r3, #8]
 534              		.loc 1 463 0
 535 006e DD60     		str	r5, [r3, #12]
 536              		.loc 1 465 0
 537 0070 02B0     		add	sp, sp, #8
 538              		.cfi_def_cfa_offset 32
 539              		@ sp needed
 540 0072 BDE8F08E 		pop	{r4, r5, r6, r7, r9, r10, fp, pc}
 541              	.LVL19:
 542              	.L37:
 543 0076 00BF     		.align	2
 544              	.L36:
 545 0078 600000A0 		.word	-1610612640
 546 007c 800000A0 		.word	-1610612608
 547              		.cfi_endproc
 548              	.LFE123:
 549              		.size	FMC_NANDInit, .-FMC_NANDInit
 550              		.section	.text.FMC_NANDStructInit,"ax",%progbits
 551              		.align	2
 552              		.p2align 4,,15
 553              		.global	FMC_NANDStructInit
 554              		.thumb
 555              		.thumb_func
 556              		.type	FMC_NANDStructInit, %function
 557              	FMC_NANDStructInit:
 558              	.LFB124:
 559              		.loc 1 475 0
 560              		.cfi_startproc
 561              		@ args = 0, pretend = 0, frame = 0
 562              		@ frame_needed = 0, uses_anonymous_args = 0
 563              		@ link register save eliminated.
 564              	.LVL20:
 565 0000 30B4     		push	{r4, r5}
 566              		.cfi_def_cfa_offset 8
 567              		.cfi_offset 4, -8
 568              		.cfi_offset 5, -4
 569              		.loc 1 488 0
 570 0002 016A     		ldr	r1, [r0, #32]
ARM GAS  /tmp/ccxtfUlq.s 			page 11


 571              		.loc 1 484 0
 572 0004 C469     		ldr	r4, [r0, #28]
 573 0006 FC23     		movs	r3, #252
 574              		.loc 1 478 0
 575 0008 0022     		movs	r2, #0
 576              		.loc 1 477 0
 577 000a 1025     		movs	r5, #16
 578 000c 0560     		str	r5, [r0]
 579              		.loc 1 479 0
 580 000e 8560     		str	r5, [r0, #8]
 581              		.loc 1 478 0
 582 0010 4260     		str	r2, [r0, #4]
 583              		.loc 1 480 0
 584 0012 C260     		str	r2, [r0, #12]
 585              		.loc 1 481 0
 586 0014 0261     		str	r2, [r0, #16]
 587              		.loc 1 482 0
 588 0016 4261     		str	r2, [r0, #20]
 589              		.loc 1 483 0
 590 0018 8261     		str	r2, [r0, #24]
 591              		.loc 1 484 0
 592 001a 2360     		str	r3, [r4]
 593              		.loc 1 485 0
 594 001c 6360     		str	r3, [r4, #4]
 595              		.loc 1 486 0
 596 001e A360     		str	r3, [r4, #8]
 597              		.loc 1 487 0
 598 0020 E360     		str	r3, [r4, #12]
 599              		.loc 1 488 0
 600 0022 0B60     		str	r3, [r1]
 601              		.loc 1 489 0
 602 0024 4B60     		str	r3, [r1, #4]
 603              		.loc 1 490 0
 604 0026 8B60     		str	r3, [r1, #8]
 605              		.loc 1 491 0
 606 0028 CB60     		str	r3, [r1, #12]
 607              		.loc 1 492 0
 608 002a 30BC     		pop	{r4, r5}
 609              		.cfi_restore 5
 610              		.cfi_restore 4
 611              		.cfi_def_cfa_offset 0
 612 002c 7047     		bx	lr
 613              		.cfi_endproc
 614              	.LFE124:
 615              		.size	FMC_NANDStructInit, .-FMC_NANDStructInit
 616 002e 00BF     		.section	.text.FMC_NANDCmd,"ax",%progbits
 617              		.align	2
 618              		.p2align 4,,15
 619              		.global	FMC_NANDCmd
 620              		.thumb
 621              		.thumb_func
 622              		.type	FMC_NANDCmd, %function
 623              	FMC_NANDCmd:
 624              	.LFB125:
 625              		.loc 1 504 0
 626              		.cfi_startproc
 627              		@ args = 0, pretend = 0, frame = 0
ARM GAS  /tmp/ccxtfUlq.s 			page 12


 628              		@ frame_needed = 0, uses_anonymous_args = 0
 629              		@ link register save eliminated.
 630              	.LVL21:
 631              		.loc 1 508 0
 632 0000 41B1     		cbz	r1, .L41
 633              		.loc 1 511 0
 634 0002 1028     		cmp	r0, #16
 635              		.loc 1 513 0
 636 0004 0CBF     		ite	eq
 637 0006 084A     		ldreq	r2, .L45
 638              		.loc 1 517 0
 639 0008 084A     		ldrne	r2, .L45+4
 640 000a 1368     		ldr	r3, [r2]
 641 000c 43F00403 		orr	r3, r3, #4
 642 0010 1360     		str	r3, [r2]
 643 0012 7047     		bx	lr
 644              	.L41:
 645              		.loc 1 523 0
 646 0014 1028     		cmp	r0, #16
 647              		.loc 1 525 0
 648 0016 0CBF     		ite	eq
 649 0018 034A     		ldreq	r2, .L45
 650              		.loc 1 529 0
 651 001a 044A     		ldrne	r2, .L45+4
 652 001c 044B     		ldr	r3, .L45+8
 653 001e 1168     		ldr	r1, [r2]
 654              	.LVL22:
 655 0020 0B40     		ands	r3, r3, r1
 656 0022 1360     		str	r3, [r2]
 657 0024 7047     		bx	lr
 658              	.L46:
 659 0026 00BF     		.align	2
 660              	.L45:
 661 0028 600000A0 		.word	-1610612640
 662 002c 800000A0 		.word	-1610612608
 663 0030 FBFF0F00 		.word	1048571
 664              		.cfi_endproc
 665              	.LFE125:
 666              		.size	FMC_NANDCmd, .-FMC_NANDCmd
 667              		.section	.text.FMC_NANDECCCmd,"ax",%progbits
 668              		.align	2
 669              		.p2align 4,,15
 670              		.global	FMC_NANDECCCmd
 671              		.thumb
 672              		.thumb_func
 673              		.type	FMC_NANDECCCmd, %function
 674              	FMC_NANDECCCmd:
 675              	.LFB126:
 676              		.loc 1 544 0
 677              		.cfi_startproc
 678              		@ args = 0, pretend = 0, frame = 0
 679              		@ frame_needed = 0, uses_anonymous_args = 0
 680              		@ link register save eliminated.
 681              	.LVL23:
 682              		.loc 1 548 0
 683 0000 41B1     		cbz	r1, .L48
 684              		.loc 1 551 0
ARM GAS  /tmp/ccxtfUlq.s 			page 13


 685 0002 1028     		cmp	r0, #16
 686              		.loc 1 553 0
 687 0004 0CBF     		ite	eq
 688 0006 084A     		ldreq	r2, .L52
 689              		.loc 1 557 0
 690 0008 084A     		ldrne	r2, .L52+4
 691 000a 1368     		ldr	r3, [r2]
 692 000c 43F04003 		orr	r3, r3, #64
 693 0010 1360     		str	r3, [r2]
 694 0012 7047     		bx	lr
 695              	.L48:
 696              		.loc 1 563 0
 697 0014 1028     		cmp	r0, #16
 698              		.loc 1 565 0
 699 0016 0CBF     		ite	eq
 700 0018 034A     		ldreq	r2, .L52
 701              		.loc 1 569 0
 702 001a 044A     		ldrne	r2, .L52+4
 703 001c 044B     		ldr	r3, .L52+8
 704 001e 1168     		ldr	r1, [r2]
 705              	.LVL24:
 706 0020 0B40     		ands	r3, r3, r1
 707 0022 1360     		str	r3, [r2]
 708 0024 7047     		bx	lr
 709              	.L53:
 710 0026 00BF     		.align	2
 711              	.L52:
 712 0028 600000A0 		.word	-1610612640
 713 002c 800000A0 		.word	-1610612608
 714 0030 BFFF0F00 		.word	1048511
 715              		.cfi_endproc
 716              	.LFE126:
 717              		.size	FMC_NANDECCCmd, .-FMC_NANDECCCmd
 718              		.section	.text.FMC_GetECC,"ax",%progbits
 719              		.align	2
 720              		.p2align 4,,15
 721              		.global	FMC_GetECC
 722              		.thumb
 723              		.thumb_func
 724              		.type	FMC_GetECC, %function
 725              	FMC_GetECC:
 726              	.LFB127:
 727              		.loc 1 583 0
 728              		.cfi_startproc
 729              		@ args = 0, pretend = 0, frame = 0
 730              		@ frame_needed = 0, uses_anonymous_args = 0
 731              		@ link register save eliminated.
 732              	.LVL25:
 733              		.loc 1 586 0
 734 0000 1028     		cmp	r0, #16
 735              		.loc 1 589 0
 736 0002 0CBF     		ite	eq
 737 0004 014B     		ldreq	r3, .L57
 738              		.loc 1 594 0
 739 0006 024B     		ldrne	r3, .L57+4
 740 0008 5869     		ldr	r0, [r3, #20]
 741              	.LVL26:
ARM GAS  /tmp/ccxtfUlq.s 			page 14


 742              		.loc 1 598 0
 743 000a 7047     		bx	lr
 744              	.L58:
 745              		.align	2
 746              	.L57:
 747 000c 600000A0 		.word	-1610612640
 748 0010 800000A0 		.word	-1610612608
 749              		.cfi_endproc
 750              	.LFE127:
 751              		.size	FMC_GetECC, .-FMC_GetECC
 752              		.section	.text.FMC_PCCARDDeInit,"ax",%progbits
 753              		.align	2
 754              		.p2align 4,,15
 755              		.global	FMC_PCCARDDeInit
 756              		.thumb
 757              		.thumb_func
 758              		.type	FMC_PCCARDDeInit, %function
 759              	FMC_PCCARDDeInit:
 760              	.LFB128:
 761              		.loc 1 647 0
 762              		.cfi_startproc
 763              		@ args = 0, pretend = 0, frame = 0
 764              		@ frame_needed = 0, uses_anonymous_args = 0
 765              		@ link register save eliminated.
 766              		.loc 1 649 0
 767 0000 054B     		ldr	r3, .L60
 768              		.loc 1 651 0
 769 0002 4FF0FC32 		mov	r2, #-50529028
 770              		.loc 1 649 0
 771 0006 1820     		movs	r0, #24
 772              		.loc 1 650 0
 773 0008 0021     		movs	r1, #0
 774              		.loc 1 649 0
 775 000a 1860     		str	r0, [r3]
 776              		.loc 1 650 0
 777 000c 5960     		str	r1, [r3, #4]
 778              		.loc 1 651 0
 779 000e 9A60     		str	r2, [r3, #8]
 780              		.loc 1 652 0
 781 0010 DA60     		str	r2, [r3, #12]
 782              		.loc 1 653 0
 783 0012 1A61     		str	r2, [r3, #16]
 784 0014 7047     		bx	lr
 785              	.L61:
 786 0016 00BF     		.align	2
 787              	.L60:
 788 0018 A00000A0 		.word	-1610612576
 789              		.cfi_endproc
 790              	.LFE128:
 791              		.size	FMC_PCCARDDeInit, .-FMC_PCCARDDeInit
 792              		.section	.text.FMC_PCCARDInit,"ax",%progbits
 793              		.align	2
 794              		.p2align 4,,15
 795              		.global	FMC_PCCARDInit
 796              		.thumb
 797              		.thumb_func
 798              		.type	FMC_PCCARDInit, %function
ARM GAS  /tmp/ccxtfUlq.s 			page 15


 799              	FMC_PCCARDInit:
 800              	.LFB129:
 801              		.loc 1 664 0
 802              		.cfi_startproc
 803              		@ args = 0, pretend = 0, frame = 0
 804              		@ frame_needed = 0, uses_anonymous_args = 0
 805              		@ link register save eliminated.
 806              	.LVL27:
 807              		.loc 1 687 0
 808 0000 90E80C00 		ldmia	r0, {r2, r3}
 809              		.loc 1 688 0
 810 0004 8168     		ldr	r1, [r0, #8]
 811 0006 42F01002 		orr	r2, r2, #16
 812              		.loc 1 664 0
 813 000a 70B4     		push	{r4, r5, r6}
 814              		.cfi_def_cfa_offset 12
 815              		.cfi_offset 4, -12
 816              		.cfi_offset 5, -8
 817              		.cfi_offset 6, -4
 818 000c 42EA4323 		orr	r3, r2, r3, lsl #9
 819              		.loc 1 685 0
 820 0010 144C     		ldr	r4, .L64
 821              		.loc 1 691 0
 822 0012 C668     		ldr	r6, [r0, #12]
 823              		.loc 1 697 0
 824 0014 0569     		ldr	r5, [r0, #16]
 825              		.loc 1 703 0
 826 0016 4069     		ldr	r0, [r0, #20]
 827              	.LVL28:
 828              		.loc 1 687 0
 829 0018 43EA4133 		orr	r3, r3, r1, lsl #13
 830              		.loc 1 685 0
 831 001c 2360     		str	r3, [r4]
 832              		.loc 1 692 0
 833 001e 96E80C00 		ldmia	r6, {r2, r3}
 834              		.loc 1 693 0
 835 0022 B168     		ldr	r1, [r6, #8]
 836              		.loc 1 694 0
 837 0024 F668     		ldr	r6, [r6, #12]
 838              		.loc 1 693 0
 839 0026 0904     		lsls	r1, r1, #16
 840 0028 41EA0323 		orr	r3, r1, r3, lsl #8
 841              		.loc 1 692 0
 842 002c 1343     		orrs	r3, r3, r2
 843              		.loc 1 693 0
 844 002e 43EA0663 		orr	r3, r3, r6, lsl #24
 845              		.loc 1 691 0
 846 0032 A360     		str	r3, [r4, #8]
 847              		.loc 1 698 0
 848 0034 95E80C00 		ldmia	r5, {r2, r3}
 849              		.loc 1 699 0
 850 0038 A968     		ldr	r1, [r5, #8]
 851              		.loc 1 700 0
 852 003a ED68     		ldr	r5, [r5, #12]
 853              		.loc 1 699 0
 854 003c 0904     		lsls	r1, r1, #16
 855 003e 41EA0323 		orr	r3, r1, r3, lsl #8
ARM GAS  /tmp/ccxtfUlq.s 			page 16


 856              		.loc 1 698 0
 857 0042 1343     		orrs	r3, r3, r2
 858              		.loc 1 699 0
 859 0044 43EA0563 		orr	r3, r3, r5, lsl #24
 860              		.loc 1 697 0
 861 0048 E360     		str	r3, [r4, #12]
 862              		.loc 1 704 0
 863 004a 90E80C00 		ldmia	r0, {r2, r3}
 864              		.loc 1 705 0
 865 004e 8168     		ldr	r1, [r0, #8]
 866              		.loc 1 706 0
 867 0050 C068     		ldr	r0, [r0, #12]
 868              		.loc 1 705 0
 869 0052 0904     		lsls	r1, r1, #16
 870 0054 41EA0323 		orr	r3, r1, r3, lsl #8
 871              		.loc 1 704 0
 872 0058 1343     		orrs	r3, r3, r2
 873              		.loc 1 705 0
 874 005a 43EA0063 		orr	r3, r3, r0, lsl #24
 875              		.loc 1 703 0
 876 005e 2361     		str	r3, [r4, #16]
 877              		.loc 1 707 0
 878 0060 70BC     		pop	{r4, r5, r6}
 879              		.cfi_restore 6
 880              		.cfi_restore 5
 881              		.cfi_restore 4
 882              		.cfi_def_cfa_offset 0
 883 0062 7047     		bx	lr
 884              	.L65:
 885              		.align	2
 886              	.L64:
 887 0064 A00000A0 		.word	-1610612576
 888              		.cfi_endproc
 889              	.LFE129:
 890              		.size	FMC_PCCARDInit, .-FMC_PCCARDInit
 891              		.section	.text.FMC_PCCARDStructInit,"ax",%progbits
 892              		.align	2
 893              		.p2align 4,,15
 894              		.global	FMC_PCCARDStructInit
 895              		.thumb
 896              		.thumb_func
 897              		.type	FMC_PCCARDStructInit, %function
 898              	FMC_PCCARDStructInit:
 899              	.LFB130:
 900              		.loc 1 716 0
 901              		.cfi_startproc
 902              		@ args = 0, pretend = 0, frame = 0
 903              		@ frame_needed = 0, uses_anonymous_args = 0
 904              		@ link register save eliminated.
 905              	.LVL29:
 906 0000 30B4     		push	{r4, r5}
 907              		.cfi_def_cfa_offset 8
 908              		.cfi_offset 4, -8
 909              		.cfi_offset 5, -4
 910              		.loc 1 725 0
 911 0002 0169     		ldr	r1, [r0, #16]
 912              		.loc 1 721 0
ARM GAS  /tmp/ccxtfUlq.s 			page 17


 913 0004 C468     		ldr	r4, [r0, #12]
 914              		.loc 1 729 0
 915 0006 4269     		ldr	r2, [r0, #20]
 916              		.loc 1 721 0
 917 0008 FC23     		movs	r3, #252
 918              		.loc 1 718 0
 919 000a 0025     		movs	r5, #0
 920 000c 0560     		str	r5, [r0]
 921              		.loc 1 719 0
 922 000e 4560     		str	r5, [r0, #4]
 923              		.loc 1 720 0
 924 0010 8560     		str	r5, [r0, #8]
 925              		.loc 1 721 0
 926 0012 2360     		str	r3, [r4]
 927              		.loc 1 722 0
 928 0014 6360     		str	r3, [r4, #4]
 929              		.loc 1 723 0
 930 0016 A360     		str	r3, [r4, #8]
 931              		.loc 1 724 0
 932 0018 E360     		str	r3, [r4, #12]
 933              		.loc 1 725 0
 934 001a 0B60     		str	r3, [r1]
 935              		.loc 1 726 0
 936 001c 4B60     		str	r3, [r1, #4]
 937              		.loc 1 727 0
 938 001e 8B60     		str	r3, [r1, #8]
 939              		.loc 1 728 0
 940 0020 CB60     		str	r3, [r1, #12]
 941              		.loc 1 733 0
 942 0022 30BC     		pop	{r4, r5}
 943              		.cfi_restore 5
 944              		.cfi_restore 4
 945              		.cfi_def_cfa_offset 0
 946              		.loc 1 729 0
 947 0024 1360     		str	r3, [r2]
 948              		.loc 1 730 0
 949 0026 5360     		str	r3, [r2, #4]
 950              		.loc 1 731 0
 951 0028 9360     		str	r3, [r2, #8]
 952              		.loc 1 732 0
 953 002a D360     		str	r3, [r2, #12]
 954              		.loc 1 733 0
 955 002c 7047     		bx	lr
 956              		.cfi_endproc
 957              	.LFE130:
 958              		.size	FMC_PCCARDStructInit, .-FMC_PCCARDStructInit
 959 002e 00BF     		.section	.text.FMC_PCCARDCmd,"ax",%progbits
 960              		.align	2
 961              		.p2align 4,,15
 962              		.global	FMC_PCCARDCmd
 963              		.thumb
 964              		.thumb_func
 965              		.type	FMC_PCCARDCmd, %function
 966              	FMC_PCCARDCmd:
 967              	.LFB131:
 968              		.loc 1 742 0
 969              		.cfi_startproc
ARM GAS  /tmp/ccxtfUlq.s 			page 18


 970              		@ args = 0, pretend = 0, frame = 0
 971              		@ frame_needed = 0, uses_anonymous_args = 0
 972              		@ link register save eliminated.
 973              	.LVL30:
 974              		.loc 1 748 0
 975 0000 054A     		ldr	r2, .L72
 976              		.loc 1 745 0
 977 0002 20B9     		cbnz	r0, .L71
 978              		.loc 1 753 0
 979 0004 1168     		ldr	r1, [r2]
 980 0006 054B     		ldr	r3, .L72+4
 981 0008 0B40     		ands	r3, r3, r1
 982 000a 1360     		str	r3, [r2]
 983 000c 7047     		bx	lr
 984              	.L71:
 985              		.loc 1 748 0
 986 000e 1368     		ldr	r3, [r2]
 987 0010 43F00403 		orr	r3, r3, #4
 988 0014 1360     		str	r3, [r2]
 989 0016 7047     		bx	lr
 990              	.L73:
 991              		.align	2
 992              	.L72:
 993 0018 A00000A0 		.word	-1610612576
 994 001c FBFF0F00 		.word	1048571
 995              		.cfi_endproc
 996              	.LFE131:
 997              		.size	FMC_PCCARDCmd, .-FMC_PCCARDCmd
 998              		.section	.text.FMC_SDRAMDeInit,"ax",%progbits
 999              		.align	2
 1000              		.p2align 4,,15
 1001              		.global	FMC_SDRAMDeInit
 1002              		.thumb
 1003              		.thumb_func
 1004              		.type	FMC_SDRAMDeInit, %function
 1005              	FMC_SDRAMDeInit:
 1006              	.LFB132:
 1007              		.loc 1 814 0
 1008              		.cfi_startproc
 1009              		@ args = 0, pretend = 0, frame = 0
 1010              		@ frame_needed = 0, uses_anonymous_args = 0
 1011              		@ link register save eliminated.
 1012              	.LVL31:
 1013 0000 30B4     		push	{r4, r5}
 1014              		.cfi_def_cfa_offset 8
 1015              		.cfi_offset 4, -8
 1016              		.cfi_offset 5, -4
 1017 0002 8000     		lsls	r0, r0, #2
 1018              	.LVL32:
 1019              		.loc 1 820 0
 1020 0004 084B     		ldr	r3, .L76
 1021 0006 00F12040 		add	r0, r0, #-1610612736
 1022 000a 0022     		movs	r2, #0
 1023              		.loc 1 818 0
 1024 000c 4FF43475 		mov	r5, #720
 1025              		.loc 1 819 0
 1026 0010 6FF07044 		mvn	r4, #-268435456
ARM GAS  /tmp/ccxtfUlq.s 			page 19


 1027              		.loc 1 818 0
 1028 0014 C0F84051 		str	r5, [r0, #320]
 1029              		.loc 1 819 0
 1030 0018 C0F84841 		str	r4, [r0, #328]
 1031              		.loc 1 820 0
 1032 001c 1A61     		str	r2, [r3, #16]
 1033              		.loc 1 823 0
 1034 001e 30BC     		pop	{r4, r5}
 1035              		.cfi_restore 5
 1036              		.cfi_restore 4
 1037              		.cfi_def_cfa_offset 0
 1038              		.loc 1 821 0
 1039 0020 5A61     		str	r2, [r3, #20]
 1040              		.loc 1 822 0
 1041 0022 9A61     		str	r2, [r3, #24]
 1042              		.loc 1 823 0
 1043 0024 7047     		bx	lr
 1044              	.L77:
 1045 0026 00BF     		.align	2
 1046              	.L76:
 1047 0028 400100A0 		.word	-1610612416
 1048              		.cfi_endproc
 1049              	.LFE132:
 1050              		.size	FMC_SDRAMDeInit, .-FMC_SDRAMDeInit
 1051              		.section	.text.FMC_SDRAMInit,"ax",%progbits
 1052              		.align	2
 1053              		.p2align 4,,15
 1054              		.global	FMC_SDRAMInit
 1055              		.thumb
 1056              		.thumb_func
 1057              		.type	FMC_SDRAMInit, %function
 1058              	FMC_SDRAMInit:
 1059              	.LFB133:
 1060              		.loc 1 834 0
 1061              		.cfi_startproc
 1062              		@ args = 0, pretend = 0, frame = 8
 1063              		@ frame_needed = 0, uses_anonymous_args = 0
 1064              		@ link register save eliminated.
 1065              	.LVL33:
 1066 0000 2DE9F001 		push	{r4, r5, r6, r7, r8}
 1067              		.cfi_def_cfa_offset 20
 1068              		.cfi_offset 4, -20
 1069              		.cfi_offset 5, -16
 1070              		.cfi_offset 6, -12
 1071              		.cfi_offset 7, -8
 1072              		.cfi_offset 8, -4
 1073 0004 83B0     		sub	sp, sp, #12
 1074              		.cfi_def_cfa_offset 32
 1075 0006 8369     		ldr	r3, [r0, #24]
 1076 0008 0193     		str	r3, [sp, #4]
 1077 000a 8668     		ldr	r6, [r0, #8]
 1078 000c C368     		ldr	r3, [r0, #12]
 1079 000e 0569     		ldr	r5, [r0, #16]
 1080 0010 4469     		ldr	r4, [r0, #20]
 1081              		.loc 1 851 0
 1082 0012 C769     		ldr	r7, [r0, #28]
 1083              		.loc 1 852 0
ARM GAS  /tmp/ccxtfUlq.s 			page 20


 1084 0014 D0F82080 		ldr	r8, [r0, #32]
 1085              		.loc 1 853 0
 1086 0018 416A     		ldr	r1, [r0, #36]
 1087              		.loc 1 875 0
 1088 001a 0268     		ldr	r2, [r0]
 1089 001c 1E43     		orrs	r6, r6, r3
 1090 001e 3543     		orrs	r5, r5, r6
 1091 0020 019B     		ldr	r3, [sp, #4]
 1092 0022 2C43     		orrs	r4, r4, r5
 1093 0024 2343     		orrs	r3, r3, r4
 1094 0026 3B43     		orrs	r3, r3, r7
 1095 0028 43EA0803 		orr	r3, r3, r8
 1096              		.loc 1 865 0
 1097 002c 4468     		ldr	r4, [r0, #4]
 1098 002e 0B43     		orrs	r3, r3, r1
 1099 0030 2343     		orrs	r3, r3, r4
 1100              	.LVL34:
 1101              		.loc 1 875 0
 1102 0032 02BB     		cbnz	r2, .L79
 1103              		.loc 1 891 0
 1104 0034 876A     		ldr	r7, [r0, #40]
 1105              		.loc 1 877 0
 1106 0036 234E     		ldr	r6, .L82
 1107              		.loc 1 897 0
 1108 0038 07F10C01 		add	r1, r7, #12
 1109              		.loc 1 877 0
 1110 003c 3360     		str	r3, [r6]
 1111              		.loc 1 893 0
 1112 003e BD68     		ldr	r5, [r7, #8]
 1113              		.loc 1 892 0
 1114 0040 7868     		ldr	r0, [r7, #4]
 1115              	.LVL35:
 1116              		.loc 1 891 0
 1117 0042 3C68     		ldr	r4, [r7]
 1118              		.loc 1 897 0
 1119 0044 8EC9     		ldmia	r1, {r1, r2, r3, r7}
 1120              	.LVL36:
 1121              		.loc 1 893 0
 1122 0046 013D     		subs	r5, r5, #1
 1123 0048 2D02     		lsls	r5, r5, #8
 1124              		.loc 1 892 0
 1125 004a 0138     		subs	r0, r0, #1
 1126 004c 45EA0010 		orr	r0, r5, r0, lsl #4
 1127              		.loc 1 891 0
 1128 0050 013C     		subs	r4, r4, #1
 1129              		.loc 1 892 0
 1130 0052 0443     		orrs	r4, r4, r0
 1131              		.loc 1 894 0
 1132 0054 0139     		subs	r1, r1, #1
 1133              		.loc 1 893 0
 1134 0056 44EA0130 		orr	r0, r4, r1, lsl #12
 1135              		.loc 1 895 0
 1136 005a 013A     		subs	r2, r2, #1
 1137              		.loc 1 894 0
 1138 005c 40EA0241 		orr	r1, r0, r2, lsl #16
 1139              		.loc 1 896 0
 1140 0060 013B     		subs	r3, r3, #1
ARM GAS  /tmp/ccxtfUlq.s 			page 21


 1141              		.loc 1 895 0
 1142 0062 41EA0352 		orr	r2, r1, r3, lsl #20
 1143              		.loc 1 897 0
 1144 0066 7B1E     		subs	r3, r7, #1
 1145              		.loc 1 891 0
 1146 0068 42EA0363 		orr	r3, r2, r3, lsl #24
 1147              	.LVL37:
 1148              		.loc 1 899 0
 1149 006c B360     		str	r3, [r6, #8]
 1150              	.LVL38:
 1151              		.loc 1 915 0
 1152 006e 03B0     		add	sp, sp, #12
 1153              		.cfi_remember_state
 1154              		.cfi_def_cfa_offset 20
 1155              		@ sp needed
 1156 0070 BDE8F001 		pop	{r4, r5, r6, r7, r8}
 1157              		.cfi_restore 8
 1158              		.cfi_restore 7
 1159              		.cfi_restore 6
 1160              		.cfi_restore 5
 1161              		.cfi_restore 4
 1162              		.cfi_def_cfa_offset 0
 1163 0074 7047     		bx	lr
 1164              	.LVL39:
 1165              	.L79:
 1166              		.cfi_restore_state
 1167              		.loc 1 885 0
 1168 0076 134D     		ldr	r5, .L82
 1169              		.loc 1 881 0
 1170 0078 48EA070C 		orr	ip, r8, r7
 1171 007c 4CEA0101 		orr	r1, ip, r1
 1172              	.LVL40:
 1173              		.loc 1 903 0
 1174 0080 876A     		ldr	r7, [r0, #40]
 1175              		.loc 1 885 0
 1176 0082 2960     		str	r1, [r5]
 1177              		.loc 1 886 0
 1178 0084 45F82230 		str	r3, [r5, r2, lsl #2]
 1179              		.loc 1 905 0
 1180 0088 BE68     		ldr	r6, [r7, #8]
 1181              		.loc 1 904 0
 1182 008a 7B68     		ldr	r3, [r7, #4]
 1183              	.LVL41:
 1184              		.loc 1 908 0
 1185 008c FC68     		ldr	r4, [r7, #12]
 1186              		.loc 1 903 0
 1187 008e 3968     		ldr	r1, [r7]
 1188              	.LVL42:
 1189              		.loc 1 909 0
 1190 0090 7869     		ldr	r0, [r7, #20]
 1191              	.LVL43:
 1192              		.loc 1 906 0
 1193 0092 3F69     		ldr	r7, [r7, #16]
 1194              		.loc 1 905 0
 1195 0094 013E     		subs	r6, r6, #1
 1196 0096 3602     		lsls	r6, r6, #8
 1197              		.loc 1 904 0
ARM GAS  /tmp/ccxtfUlq.s 			page 22


 1198 0098 013B     		subs	r3, r3, #1
 1199 009a 46EA0313 		orr	r3, r6, r3, lsl #4
 1200              		.loc 1 908 0
 1201 009e 013C     		subs	r4, r4, #1
 1202              		.loc 1 903 0
 1203 00a0 0139     		subs	r1, r1, #1
 1204              		.loc 1 904 0
 1205 00a2 1943     		orrs	r1, r1, r3
 1206              		.loc 1 912 0
 1207 00a4 0232     		adds	r2, r2, #2
 1208              	.LVL44:
 1209              		.loc 1 908 0
 1210 00a6 2403     		lsls	r4, r4, #12
 1211              		.loc 1 906 0
 1212 00a8 7B1E     		subs	r3, r7, #1
 1213              		.loc 1 909 0
 1214 00aa 0138     		subs	r0, r0, #1
 1215              		.loc 1 908 0
 1216 00ac 44EA0050 		orr	r0, r4, r0, lsl #20
 1217              		.loc 1 903 0
 1218 00b0 41EA0343 		orr	r3, r1, r3, lsl #16
 1219              	.LVL45:
 1220              		.loc 1 911 0
 1221 00b4 A860     		str	r0, [r5, #8]
 1222              	.LVL46:
 1223              		.loc 1 912 0
 1224 00b6 45F82230 		str	r3, [r5, r2, lsl #2]
 1225              		.loc 1 915 0
 1226 00ba 03B0     		add	sp, sp, #12
 1227              		.cfi_def_cfa_offset 20
 1228              		@ sp needed
 1229 00bc BDE8F001 		pop	{r4, r5, r6, r7, r8}
 1230              		.cfi_restore 4
 1231              		.cfi_restore 5
 1232              		.cfi_restore 6
 1233              		.cfi_restore 7
 1234              		.cfi_restore 8
 1235              		.cfi_def_cfa_offset 0
 1236 00c0 7047     		bx	lr
 1237              	.L83:
 1238 00c2 00BF     		.align	2
 1239              	.L82:
 1240 00c4 400100A0 		.word	-1610612416
 1241              		.cfi_endproc
 1242              	.LFE133:
 1243              		.size	FMC_SDRAMInit, .-FMC_SDRAMInit
 1244              		.section	.text.FMC_SDRAMStructInit,"ax",%progbits
 1245              		.align	2
 1246              		.p2align 4,,15
 1247              		.global	FMC_SDRAMStructInit
 1248              		.thumb
 1249              		.thumb_func
 1250              		.type	FMC_SDRAMStructInit, %function
 1251              	FMC_SDRAMStructInit:
 1252              	.LFB134:
 1253              		.loc 1 924 0
 1254              		.cfi_startproc
ARM GAS  /tmp/ccxtfUlq.s 			page 23


 1255              		@ args = 0, pretend = 0, frame = 0
 1256              		@ frame_needed = 0, uses_anonymous_args = 0
 1257              		@ link register save eliminated.
 1258              	.LVL47:
 1259 0000 30B4     		push	{r4, r5}
 1260              		.cfi_def_cfa_offset 8
 1261              		.cfi_offset 4, -8
 1262              		.cfi_offset 5, -4
 1263              		.loc 1 937 0
 1264 0002 826A     		ldr	r2, [r0, #40]
 1265              		.loc 1 930 0
 1266 0004 4023     		movs	r3, #64
 1267 0006 0361     		str	r3, [r0, #16]
 1268              		.loc 1 926 0
 1269 0008 0021     		movs	r1, #0
 1270              		.loc 1 929 0
 1271 000a 1023     		movs	r3, #16
 1272              		.loc 1 931 0
 1273 000c 8025     		movs	r5, #128
 1274              		.loc 1 932 0
 1275 000e 4FF40074 		mov	r4, #512
 1276              		.loc 1 931 0
 1277 0012 4561     		str	r5, [r0, #20]
 1278              		.loc 1 932 0
 1279 0014 8461     		str	r4, [r0, #24]
 1280              		.loc 1 926 0
 1281 0016 0160     		str	r1, [r0]
 1282              		.loc 1 927 0
 1283 0018 4160     		str	r1, [r0, #4]
 1284              		.loc 1 928 0
 1285 001a 8160     		str	r1, [r0, #8]
 1286              		.loc 1 933 0
 1287 001c C161     		str	r1, [r0, #28]
 1288              		.loc 1 934 0
 1289 001e 0162     		str	r1, [r0, #32]
 1290              		.loc 1 935 0
 1291 0020 4162     		str	r1, [r0, #36]
 1292              		.loc 1 929 0
 1293 0022 C360     		str	r3, [r0, #12]
 1294              		.loc 1 945 0
 1295 0024 30BC     		pop	{r4, r5}
 1296              		.cfi_restore 5
 1297              		.cfi_restore 4
 1298              		.cfi_def_cfa_offset 0
 1299              		.loc 1 937 0
 1300 0026 1360     		str	r3, [r2]
 1301              		.loc 1 938 0
 1302 0028 5360     		str	r3, [r2, #4]
 1303              		.loc 1 939 0
 1304 002a 9360     		str	r3, [r2, #8]
 1305              		.loc 1 940 0
 1306 002c D360     		str	r3, [r2, #12]
 1307              		.loc 1 941 0
 1308 002e 1361     		str	r3, [r2, #16]
 1309              		.loc 1 942 0
 1310 0030 5361     		str	r3, [r2, #20]
 1311              		.loc 1 943 0
ARM GAS  /tmp/ccxtfUlq.s 			page 24


 1312 0032 9361     		str	r3, [r2, #24]
 1313              		.loc 1 945 0
 1314 0034 7047     		bx	lr
 1315              		.cfi_endproc
 1316              	.LFE134:
 1317              		.size	FMC_SDRAMStructInit, .-FMC_SDRAMStructInit
 1318 0036 00BF     		.section	.text.FMC_SDRAMCmdConfig,"ax",%progbits
 1319              		.align	2
 1320              		.p2align 4,,15
 1321              		.global	FMC_SDRAMCmdConfig
 1322              		.thumb
 1323              		.thumb_func
 1324              		.type	FMC_SDRAMCmdConfig, %function
 1325              	FMC_SDRAMCmdConfig:
 1326              	.LFB135:
 1327              		.loc 1 954 0
 1328              		.cfi_startproc
 1329              		@ args = 0, pretend = 0, frame = 0
 1330              		@ frame_needed = 0, uses_anonymous_args = 0
 1331              		@ link register save eliminated.
 1332              	.LVL48:
 1333              		.loc 1 965 0
 1334 0000 011D     		adds	r1, r0, #4
 1335              		.loc 1 954 0
 1336 0002 30B4     		push	{r4, r5}
 1337              		.cfi_def_cfa_offset 8
 1338              		.cfi_offset 4, -8
 1339              		.cfi_offset 5, -4
 1340              		.loc 1 965 0
 1341 0004 2AC9     		ldmia	r1, {r1, r3, r5}
 1342 0006 0268     		ldr	r2, [r0]
 1343              		.loc 1 968 0
 1344 0008 044C     		ldr	r4, .L88
 1345 000a 0A43     		orrs	r2, r2, r1
 1346 000c 42EA4522 		orr	r2, r2, r5, lsl #9
 1347              		.loc 1 965 0
 1348 0010 013B     		subs	r3, r3, #1
 1349              		.loc 1 963 0
 1350 0012 42EA4313 		orr	r3, r2, r3, lsl #5
 1351              	.LVL49:
 1352              		.loc 1 968 0
 1353 0016 2361     		str	r3, [r4, #16]
 1354              		.loc 1 970 0
 1355 0018 30BC     		pop	{r4, r5}
 1356              		.cfi_restore 5
 1357              		.cfi_restore 4
 1358              		.cfi_def_cfa_offset 0
 1359 001a 7047     		bx	lr
 1360              	.L89:
 1361              		.align	2
 1362              	.L88:
 1363 001c 400100A0 		.word	-1610612416
 1364              		.cfi_endproc
 1365              	.LFE135:
 1366              		.size	FMC_SDRAMCmdConfig, .-FMC_SDRAMCmdConfig
 1367              		.section	.text.FMC_GetModeStatus,"ax",%progbits
 1368              		.align	2
ARM GAS  /tmp/ccxtfUlq.s 			page 25


 1369              		.p2align 4,,15
 1370              		.global	FMC_GetModeStatus
 1371              		.thumb
 1372              		.thumb_func
 1373              		.type	FMC_GetModeStatus, %function
 1374              	FMC_GetModeStatus:
 1375              	.LFB136:
 1376              		.loc 1 980 0
 1377              		.cfi_startproc
 1378              		@ args = 0, pretend = 0, frame = 0
 1379              		@ frame_needed = 0, uses_anonymous_args = 0
 1380              		@ link register save eliminated.
 1381              	.LVL50:
 1382              		.loc 1 989 0
 1383 0000 054B     		ldr	r3, .L94
 1384              		.loc 1 987 0
 1385 0002 20B1     		cbz	r0, .L93
 1386              		.loc 1 993 0
 1387 0004 9869     		ldr	r0, [r3, #24]
 1388              	.LVL51:
 1389 0006 00F01800 		and	r0, r0, #24
 1390 000a 8008     		lsrs	r0, r0, #2
 1391              	.LVL52:
 1392              		.loc 1 998 0
 1393 000c 7047     		bx	lr
 1394              	.LVL53:
 1395              	.L93:
 1396              		.loc 1 989 0
 1397 000e 9869     		ldr	r0, [r3, #24]
 1398              	.LVL54:
 1399 0010 00F00600 		and	r0, r0, #6
 1400              	.LVL55:
 1401 0014 7047     		bx	lr
 1402              	.L95:
 1403 0016 00BF     		.align	2
 1404              	.L94:
 1405 0018 400100A0 		.word	-1610612416
 1406              		.cfi_endproc
 1407              	.LFE136:
 1408              		.size	FMC_GetModeStatus, .-FMC_GetModeStatus
 1409              		.section	.text.FMC_SetRefreshCount,"ax",%progbits
 1410              		.align	2
 1411              		.p2align 4,,15
 1412              		.global	FMC_SetRefreshCount
 1413              		.thumb
 1414              		.thumb_func
 1415              		.type	FMC_SetRefreshCount, %function
 1416              	FMC_SetRefreshCount:
 1417              	.LFB137:
 1418              		.loc 1 1006 0
 1419              		.cfi_startproc
 1420              		@ args = 0, pretend = 0, frame = 0
 1421              		@ frame_needed = 0, uses_anonymous_args = 0
 1422              		@ link register save eliminated.
 1423              	.LVL56:
 1424              		.loc 1 1010 0
 1425 0000 024A     		ldr	r2, .L97
ARM GAS  /tmp/ccxtfUlq.s 			page 26


 1426 0002 5369     		ldr	r3, [r2, #20]
 1427 0004 43EA4000 		orr	r0, r3, r0, lsl #1
 1428              	.LVL57:
 1429 0008 5061     		str	r0, [r2, #20]
 1430 000a 7047     		bx	lr
 1431              	.L98:
 1432              		.align	2
 1433              	.L97:
 1434 000c 400100A0 		.word	-1610612416
 1435              		.cfi_endproc
 1436              	.LFE137:
 1437              		.size	FMC_SetRefreshCount, .-FMC_SetRefreshCount
 1438              		.section	.text.FMC_SetAutoRefresh_Number,"ax",%progbits
 1439              		.align	2
 1440              		.p2align 4,,15
 1441              		.global	FMC_SetAutoRefresh_Number
 1442              		.thumb
 1443              		.thumb_func
 1444              		.type	FMC_SetAutoRefresh_Number, %function
 1445              	FMC_SetAutoRefresh_Number:
 1446              	.LFB138:
 1447              		.loc 1 1020 0
 1448              		.cfi_startproc
 1449              		@ args = 0, pretend = 0, frame = 0
 1450              		@ frame_needed = 0, uses_anonymous_args = 0
 1451              		@ link register save eliminated.
 1452              	.LVL58:
 1453              		.loc 1 1024 0
 1454 0000 024A     		ldr	r2, .L100
 1455 0002 1369     		ldr	r3, [r2, #16]
 1456 0004 43EA4010 		orr	r0, r3, r0, lsl #5
 1457              	.LVL59:
 1458 0008 1061     		str	r0, [r2, #16]
 1459 000a 7047     		bx	lr
 1460              	.L101:
 1461              		.align	2
 1462              	.L100:
 1463 000c 400100A0 		.word	-1610612416
 1464              		.cfi_endproc
 1465              	.LFE138:
 1466              		.size	FMC_SetAutoRefresh_Number, .-FMC_SetAutoRefresh_Number
 1467              		.section	.text.FMC_SDRAMWriteProtectionConfig,"ax",%progbits
 1468              		.align	2
 1469              		.p2align 4,,15
 1470              		.global	FMC_SDRAMWriteProtectionConfig
 1471              		.thumb
 1472              		.thumb_func
 1473              		.type	FMC_SDRAMWriteProtectionConfig, %function
 1474              	FMC_SDRAMWriteProtectionConfig:
 1475              	.LFB139:
 1476              		.loc 1 1036 0
 1477              		.cfi_startproc
 1478              		@ args = 0, pretend = 0, frame = 0
 1479              		@ frame_needed = 0, uses_anonymous_args = 0
 1480              		@ link register save eliminated.
 1481              	.LVL60:
 1482 0000 8000     		lsls	r0, r0, #2
ARM GAS  /tmp/ccxtfUlq.s 			page 27


 1483              	.LVL61:
 1484 0002 00F12040 		add	r0, r0, #-1610612736
 1485              		.loc 1 1041 0
 1486 0006 39B9     		cbnz	r1, .L105
 1487              		.loc 1 1047 0
 1488 0008 D0F84021 		ldr	r2, [r0, #320]
 1489 000c 47F6FF53 		movw	r3, #32255
 1490 0010 1340     		ands	r3, r3, r2
 1491 0012 C0F84031 		str	r3, [r0, #320]
 1492 0016 7047     		bx	lr
 1493              	.L105:
 1494              		.loc 1 1043 0
 1495 0018 D0F84031 		ldr	r3, [r0, #320]
 1496 001c 43F40073 		orr	r3, r3, #512
 1497 0020 C0F84031 		str	r3, [r0, #320]
 1498 0024 7047     		bx	lr
 1499              		.cfi_endproc
 1500              	.LFE139:
 1501              		.size	FMC_SDRAMWriteProtectionConfig, .-FMC_SDRAMWriteProtectionConfig
 1502 0026 00BF     		.section	.text.FMC_ITConfig,"ax",%progbits
 1503              		.align	2
 1504              		.p2align 4,,15
 1505              		.global	FMC_ITConfig
 1506              		.thumb
 1507              		.thumb_func
 1508              		.type	FMC_ITConfig, %function
 1509              	FMC_ITConfig:
 1510              	.LFB140:
 1511              		.loc 1 1088 0
 1512              		.cfi_startproc
 1513              		@ args = 0, pretend = 0, frame = 0
 1514              		@ frame_needed = 0, uses_anonymous_args = 0
 1515              		@ link register save eliminated.
 1516              	.LVL62:
 1517              		.loc 1 1093 0
 1518 0000 62B1     		cbz	r2, .L107
 1519              		.loc 1 1096 0
 1520 0002 1028     		cmp	r0, #16
 1521 0004 1ED0     		beq	.L115
 1522              		.loc 1 1101 0
 1523 0006 B0F5807F 		cmp	r0, #256
 1524 000a 2BD0     		beq	.L116
 1525              		.loc 1 1106 0
 1526 000c B0F5805F 		cmp	r0, #4096
 1527 0010 1DD0     		beq	.L117
 1528              		.loc 1 1114 0
 1529 0012 1A4A     		ldr	r2, .L121
 1530              	.LVL63:
 1531 0014 5369     		ldr	r3, [r2, #20]
 1532 0016 1943     		orrs	r1, r1, r3
 1533              	.LVL64:
 1534 0018 5161     		str	r1, [r2, #20]
 1535 001a 7047     		bx	lr
 1536              	.LVL65:
 1537              	.L107:
 1538              		.loc 1 1120 0
 1539 001c 1028     		cmp	r0, #16
ARM GAS  /tmp/ccxtfUlq.s 			page 28


 1540 001e 0BD0     		beq	.L118
 1541              		.loc 1 1126 0
 1542 0020 B0F5807F 		cmp	r0, #256
 1543 0024 18D0     		beq	.L119
 1544              		.loc 1 1131 0
 1545 0026 B0F5805F 		cmp	r0, #4096
 1546 002a 20D0     		beq	.L120
 1547              		.loc 1 1139 0
 1548 002c 134A     		ldr	r2, .L121
 1549              	.LVL66:
 1550 002e 5369     		ldr	r3, [r2, #20]
 1551 0030 23EA0101 		bic	r1, r3, r1
 1552              	.LVL67:
 1553 0034 5161     		str	r1, [r2, #20]
 1554 0036 7047     		bx	lr
 1555              	.LVL68:
 1556              	.L118:
 1557              		.loc 1 1123 0
 1558 0038 114A     		ldr	r2, .L121+4
 1559              	.LVL69:
 1560 003a 5368     		ldr	r3, [r2, #4]
 1561 003c 23EA0101 		bic	r1, r3, r1
 1562              	.LVL70:
 1563 0040 5160     		str	r1, [r2, #4]
 1564 0042 7047     		bx	lr
 1565              	.LVL71:
 1566              	.L115:
 1567              		.loc 1 1098 0
 1568 0044 0E4A     		ldr	r2, .L121+4
 1569              	.LVL72:
 1570 0046 5368     		ldr	r3, [r2, #4]
 1571 0048 1943     		orrs	r1, r1, r3
 1572              	.LVL73:
 1573 004a 5160     		str	r1, [r2, #4]
 1574 004c 7047     		bx	lr
 1575              	.LVL74:
 1576              	.L117:
 1577              		.loc 1 1108 0
 1578 004e 0D4A     		ldr	r2, .L121+8
 1579              	.LVL75:
 1580 0050 5368     		ldr	r3, [r2, #4]
 1581 0052 1943     		orrs	r1, r1, r3
 1582              	.LVL76:
 1583 0054 5160     		str	r1, [r2, #4]
 1584 0056 7047     		bx	lr
 1585              	.LVL77:
 1586              	.L119:
 1587              		.loc 1 1128 0
 1588 0058 0B4A     		ldr	r2, .L121+12
 1589              	.LVL78:
 1590 005a 5368     		ldr	r3, [r2, #4]
 1591 005c 23EA0101 		bic	r1, r3, r1
 1592              	.LVL79:
 1593 0060 5160     		str	r1, [r2, #4]
 1594 0062 7047     		bx	lr
 1595              	.LVL80:
 1596              	.L116:
ARM GAS  /tmp/ccxtfUlq.s 			page 29


 1597              		.loc 1 1103 0
 1598 0064 084A     		ldr	r2, .L121+12
 1599              	.LVL81:
 1600 0066 5368     		ldr	r3, [r2, #4]
 1601 0068 1943     		orrs	r1, r1, r3
 1602              	.LVL82:
 1603 006a 5160     		str	r1, [r2, #4]
 1604 006c 7047     		bx	lr
 1605              	.LVL83:
 1606              	.L120:
 1607              		.loc 1 1133 0
 1608 006e 054A     		ldr	r2, .L121+8
 1609              	.LVL84:
 1610 0070 5368     		ldr	r3, [r2, #4]
 1611 0072 23EA0101 		bic	r1, r3, r1
 1612              	.LVL85:
 1613 0076 5160     		str	r1, [r2, #4]
 1614 0078 7047     		bx	lr
 1615              	.L122:
 1616 007a 00BF     		.align	2
 1617              	.L121:
 1618 007c 400100A0 		.word	-1610612416
 1619 0080 600000A0 		.word	-1610612640
 1620 0084 A00000A0 		.word	-1610612576
 1621 0088 800000A0 		.word	-1610612608
 1622              		.cfi_endproc
 1623              	.LFE140:
 1624              		.size	FMC_ITConfig, .-FMC_ITConfig
 1625              		.section	.text.FMC_GetFlagStatus,"ax",%progbits
 1626              		.align	2
 1627              		.p2align 4,,15
 1628              		.global	FMC_GetFlagStatus
 1629              		.thumb
 1630              		.thumb_func
 1631              		.type	FMC_GetFlagStatus, %function
 1632              	FMC_GetFlagStatus:
 1633              	.LFB141:
 1634              		.loc 1 1165 0
 1635              		.cfi_startproc
 1636              		@ args = 0, pretend = 0, frame = 0
 1637              		@ frame_needed = 0, uses_anonymous_args = 0
 1638              		@ link register save eliminated.
 1639              	.LVL86:
 1640              		.loc 1 1173 0
 1641 0000 1028     		cmp	r0, #16
 1642 0002 10D0     		beq	.L128
 1643              		.loc 1 1177 0
 1644 0004 B0F5807F 		cmp	r0, #256
 1645 0008 10D0     		beq	.L129
 1646              		.loc 1 1181 0
 1647 000a B0F5805F 		cmp	r0, #4096
 1648              		.loc 1 1183 0
 1649 000e 0BBF     		itete	eq
 1650 0010 084B     		ldreq	r3, .L130
 1651              		.loc 1 1187 0
 1652 0012 094B     		ldrne	r3, .L130+4
 1653              		.loc 1 1183 0
ARM GAS  /tmp/ccxtfUlq.s 			page 30


 1654 0014 5B68     		ldreq	r3, [r3, #4]
 1655              	.LVL87:
 1656              		.loc 1 1187 0
 1657 0016 9B69     		ldrne	r3, [r3, #24]
 1658              	.LVL88:
 1659              	.L125:
 1660              		.loc 1 1191 0
 1661 0018 03EA0100 		and	r0, r3, r1
 1662              	.LVL89:
 1663              		.loc 1 1201 0
 1664 001c 081A     		subs	r0, r1, r0
 1665 001e B0FA80F0 		clz	r0, r0
 1666 0022 4009     		lsrs	r0, r0, #5
 1667 0024 7047     		bx	lr
 1668              	.LVL90:
 1669              	.L128:
 1670              		.loc 1 1175 0
 1671 0026 054B     		ldr	r3, .L130+8
 1672 0028 5B68     		ldr	r3, [r3, #4]
 1673              	.LVL91:
 1674 002a F5E7     		b	.L125
 1675              	.LVL92:
 1676              	.L129:
 1677              		.loc 1 1179 0
 1678 002c 044B     		ldr	r3, .L130+12
 1679 002e 5B68     		ldr	r3, [r3, #4]
 1680              	.LVL93:
 1681 0030 F2E7     		b	.L125
 1682              	.L131:
 1683 0032 00BF     		.align	2
 1684              	.L130:
 1685 0034 A00000A0 		.word	-1610612576
 1686 0038 400100A0 		.word	-1610612416
 1687 003c 600000A0 		.word	-1610612640
 1688 0040 800000A0 		.word	-1610612608
 1689              		.cfi_endproc
 1690              	.LFE141:
 1691              		.size	FMC_GetFlagStatus, .-FMC_GetFlagStatus
 1692              		.section	.text.FMC_ClearFlag,"ax",%progbits
 1693              		.align	2
 1694              		.p2align 4,,15
 1695              		.global	FMC_ClearFlag
 1696              		.thumb
 1697              		.thumb_func
 1698              		.type	FMC_ClearFlag, %function
 1699              	FMC_ClearFlag:
 1700              	.LFB142:
 1701              		.loc 1 1221 0
 1702              		.cfi_startproc
 1703              		@ args = 0, pretend = 0, frame = 0
 1704              		@ frame_needed = 0, uses_anonymous_args = 0
 1705              		@ link register save eliminated.
 1706              	.LVL94:
 1707              		.loc 1 1226 0
 1708 0000 1028     		cmp	r0, #16
 1709 0002 0BD0     		beq	.L137
 1710              		.loc 1 1230 0
ARM GAS  /tmp/ccxtfUlq.s 			page 31


 1711 0004 B0F5807F 		cmp	r0, #256
 1712 0008 0ED0     		beq	.L138
 1713              		.loc 1 1234 0
 1714 000a B0F5805F 		cmp	r0, #4096
 1715 000e 11D0     		beq	.L139
 1716              		.loc 1 1241 0
 1717 0010 0B4A     		ldr	r2, .L140
 1718 0012 5369     		ldr	r3, [r2, #20]
 1719 0014 23EA0101 		bic	r1, r3, r1
 1720              	.LVL95:
 1721 0018 5161     		str	r1, [r2, #20]
 1722 001a 7047     		bx	lr
 1723              	.LVL96:
 1724              	.L137:
 1725              		.loc 1 1228 0
 1726 001c 094A     		ldr	r2, .L140+4
 1727 001e 5368     		ldr	r3, [r2, #4]
 1728 0020 23EA0101 		bic	r1, r3, r1
 1729              	.LVL97:
 1730 0024 5160     		str	r1, [r2, #4]
 1731 0026 7047     		bx	lr
 1732              	.LVL98:
 1733              	.L138:
 1734              		.loc 1 1232 0
 1735 0028 074A     		ldr	r2, .L140+8
 1736 002a 5368     		ldr	r3, [r2, #4]
 1737 002c 23EA0101 		bic	r1, r3, r1
 1738              	.LVL99:
 1739 0030 5160     		str	r1, [r2, #4]
 1740 0032 7047     		bx	lr
 1741              	.LVL100:
 1742              	.L139:
 1743              		.loc 1 1236 0
 1744 0034 054A     		ldr	r2, .L140+12
 1745 0036 5368     		ldr	r3, [r2, #4]
 1746 0038 23EA0101 		bic	r1, r3, r1
 1747              	.LVL101:
 1748 003c 5160     		str	r1, [r2, #4]
 1749 003e 7047     		bx	lr
 1750              	.L141:
 1751              		.align	2
 1752              	.L140:
 1753 0040 400100A0 		.word	-1610612416
 1754 0044 600000A0 		.word	-1610612640
 1755 0048 800000A0 		.word	-1610612608
 1756 004c A00000A0 		.word	-1610612576
 1757              		.cfi_endproc
 1758              	.LFE142:
 1759              		.size	FMC_ClearFlag, .-FMC_ClearFlag
 1760              		.section	.text.FMC_GetITStatus,"ax",%progbits
 1761              		.align	2
 1762              		.p2align 4,,15
 1763              		.global	FMC_GetITStatus
 1764              		.thumb
 1765              		.thumb_func
 1766              		.type	FMC_GetITStatus, %function
 1767              	FMC_GetITStatus:
ARM GAS  /tmp/ccxtfUlq.s 			page 32


 1768              	.LFB143:
 1769              		.loc 1 1264 0
 1770              		.cfi_startproc
 1771              		@ args = 0, pretend = 0, frame = 0
 1772              		@ frame_needed = 0, uses_anonymous_args = 0
 1773              		@ link register save eliminated.
 1774              	.LVL102:
 1775              		.loc 1 1275 0
 1776 0000 1028     		cmp	r0, #16
 1777              		.loc 1 1264 0
 1778 0002 10B4     		push	{r4}
 1779              		.cfi_def_cfa_offset 4
 1780              		.cfi_offset 4, -4
 1781              		.loc 1 1275 0
 1782 0004 1CD0     		beq	.L153
 1783              		.loc 1 1279 0
 1784 0006 B0F5807F 		cmp	r0, #256
 1785 000a 12D0     		beq	.L154
 1786              		.loc 1 1283 0
 1787 000c B0F5805F 		cmp	r0, #4096
 1788 0010 1DD0     		beq	.L155
 1789              		.loc 1 1290 0
 1790 0012 104A     		ldr	r2, .L156
 1791 0014 5369     		ldr	r3, [r2, #20]
 1792              	.LVL103:
 1793              		.loc 1 1291 0
 1794 0016 9469     		ldr	r4, [r2, #24]
 1795              	.LVL104:
 1796              		.loc 1 1298 0
 1797 0018 0128     		cmp	r0, #1
 1798              		.loc 1 1295 0
 1799 001a 01EA0302 		and	r2, r1, r3
 1800              	.LVL105:
 1801              		.loc 1 1298 0
 1802 001e 0CD8     		bhi	.L144
 1803              		.loc 1 1300 0
 1804 0020 04F00100 		and	r0, r4, #1
 1805              	.LVL106:
 1806              	.L148:
 1807              		.loc 1 1307 0
 1808 0024 10B1     		cbz	r0, .L151
 1809              		.loc 1 1309 0 discriminator 1
 1810 0026 101C     		adds	r0, r2, #0
 1811              	.LVL107:
 1812 0028 18BF     		it	ne
 1813 002a 0120     		movne	r0, #1
 1814              	.L151:
 1815              		.loc 1 1316 0
 1816 002c 5DF8044B 		ldr	r4, [sp], #4
 1817              		.cfi_remember_state
 1818              		.cfi_restore 4
 1819              		.cfi_def_cfa_offset 0
 1820 0030 7047     		bx	lr
 1821              	.LVL108:
 1822              	.L154:
 1823              		.cfi_restore_state
 1824              		.loc 1 1281 0
ARM GAS  /tmp/ccxtfUlq.s 			page 33


 1825 0032 094B     		ldr	r3, .L156+4
 1826 0034 5B68     		ldr	r3, [r3, #4]
 1827              	.LVL109:
 1828              	.L146:
 1829              		.loc 1 1295 0
 1830 0036 03EA0102 		and	r2, r3, r1
 1831              	.LVL110:
 1832              	.L144:
 1833              		.loc 1 1304 0
 1834 003a 03EAD100 		and	r0, r3, r1, lsr #3
 1835              	.LVL111:
 1836 003e F1E7     		b	.L148
 1837              	.LVL112:
 1838              	.L153:
 1839              		.loc 1 1277 0
 1840 0040 064B     		ldr	r3, .L156+8
 1841 0042 5B68     		ldr	r3, [r3, #4]
 1842              	.LVL113:
 1843              		.loc 1 1295 0
 1844 0044 01EA0302 		and	r2, r1, r3
 1845              	.LVL114:
 1846              		.loc 1 1304 0
 1847 0048 03EAD100 		and	r0, r3, r1, lsr #3
 1848              	.LVL115:
 1849 004c EAE7     		b	.L148
 1850              	.LVL116:
 1851              	.L155:
 1852              		.loc 1 1285 0
 1853 004e 044B     		ldr	r3, .L156+12
 1854 0050 5B68     		ldr	r3, [r3, #4]
 1855              	.LVL117:
 1856 0052 F0E7     		b	.L146
 1857              	.L157:
 1858              		.align	2
 1859              	.L156:
 1860 0054 400100A0 		.word	-1610612416
 1861 0058 800000A0 		.word	-1610612608
 1862 005c 600000A0 		.word	-1610612640
 1863 0060 A00000A0 		.word	-1610612576
 1864              		.cfi_endproc
 1865              	.LFE143:
 1866              		.size	FMC_GetITStatus, .-FMC_GetITStatus
 1867              		.section	.text.FMC_ClearITPendingBit,"ax",%progbits
 1868              		.align	2
 1869              		.p2align 4,,15
 1870              		.global	FMC_ClearITPendingBit
 1871              		.thumb
 1872              		.thumb_func
 1873              		.type	FMC_ClearITPendingBit, %function
 1874              	FMC_ClearITPendingBit:
 1875              	.LFB144:
 1876              		.loc 1 1336 0
 1877              		.cfi_startproc
 1878              		@ args = 0, pretend = 0, frame = 0
 1879              		@ frame_needed = 0, uses_anonymous_args = 0
 1880              		@ link register save eliminated.
 1881              	.LVL118:
ARM GAS  /tmp/ccxtfUlq.s 			page 34


 1882              		.loc 1 1341 0
 1883 0000 1028     		cmp	r0, #16
 1884 0002 0BD0     		beq	.L163
 1885              		.loc 1 1345 0
 1886 0004 B0F5807F 		cmp	r0, #256
 1887 0008 0ED0     		beq	.L164
 1888              		.loc 1 1349 0
 1889 000a B0F5805F 		cmp	r0, #4096
 1890 000e 11D0     		beq	.L165
 1891              		.loc 1 1356 0
 1892 0010 0B4A     		ldr	r2, .L166
 1893 0012 5369     		ldr	r3, [r2, #20]
 1894 0014 43F00103 		orr	r3, r3, #1
 1895 0018 5361     		str	r3, [r2, #20]
 1896 001a 7047     		bx	lr
 1897              	.L163:
 1898              		.loc 1 1343 0
 1899 001c 094A     		ldr	r2, .L166+4
 1900 001e 5368     		ldr	r3, [r2, #4]
 1901 0020 23EAD101 		bic	r1, r3, r1, lsr #3
 1902              	.LVL119:
 1903 0024 5160     		str	r1, [r2, #4]
 1904 0026 7047     		bx	lr
 1905              	.LVL120:
 1906              	.L164:
 1907              		.loc 1 1347 0
 1908 0028 074A     		ldr	r2, .L166+8
 1909 002a 5368     		ldr	r3, [r2, #4]
 1910 002c 23EAD101 		bic	r1, r3, r1, lsr #3
 1911              	.LVL121:
 1912 0030 5160     		str	r1, [r2, #4]
 1913 0032 7047     		bx	lr
 1914              	.LVL122:
 1915              	.L165:
 1916              		.loc 1 1351 0
 1917 0034 054A     		ldr	r2, .L166+12
 1918 0036 5368     		ldr	r3, [r2, #4]
 1919 0038 23EAD101 		bic	r1, r3, r1, lsr #3
 1920              	.LVL123:
 1921 003c 5160     		str	r1, [r2, #4]
 1922 003e 7047     		bx	lr
 1923              	.L167:
 1924              		.align	2
 1925              	.L166:
 1926 0040 400100A0 		.word	-1610612416
 1927 0044 600000A0 		.word	-1610612640
 1928 0048 800000A0 		.word	-1610612608
 1929 004c A00000A0 		.word	-1610612576
 1930              		.cfi_endproc
 1931              	.LFE144:
 1932              		.size	FMC_ClearITPendingBit, .-FMC_ClearITPendingBit
 1933              		.text
 1934              	.Letext0:
 1935              		.file 2 "/home/sbcu/Dropbox/pcb-layouts/axo-on-discovery-board/axoloti/platform_linux/arm-none-eab
 1936              		.file 3 "/home/sbcu/Dropbox/pcb-layouts/axo-on-discovery-board/axoloti/platform_linux/arm-none-eab
 1937              		.file 4 "/home/sbcu/Dropbox/pcb-layouts/axo-on-discovery-board/axoloti/platform_linux/../chibios/o
 1938              		.file 5 "../stm32f4xx_fmc.h"
ARM GAS  /tmp/ccxtfUlq.s 			page 35


 1939              		.file 6 "/home/sbcu/Dropbox/pcb-layouts/axo-on-discovery-board/axoloti/platform_linux/../chibios/o